ARM GAS  C:\Users\megan\AppData\Local\Temp\ccrMxWsc.s 			page 1


   1              		.syntax unified
   2              		.cpu cortex-m0
   3              		.fpu softvfp
   4              		.eabi_attribute 20, 1
   5              		.eabi_attribute 21, 1
   6              		.eabi_attribute 23, 3
   7              		.eabi_attribute 24, 1
   8              		.eabi_attribute 25, 1
   9              		.eabi_attribute 26, 1
  10              		.eabi_attribute 30, 6
  11              		.eabi_attribute 34, 0
  12              		.eabi_attribute 18, 4
  13              		.thumb
  14              		.syntax unified
  15              		.file	"main.c"
  16              		.text
  17              	.Ltext0:
  18              		.cfi_sections	.debug_frame
  19              		.comm	_cs,1,1
  20              		.comm	_rst,1,1
  21              		.comm	_width,2,2
  22              		.comm	_height,2,2
  23              		.comm	_textScale,1,1
  24              		.comm	_size,1,1
  25              		.comm	outside,4,4
  26              		.comm	settings,1,4
  27              		.comm	ble_state,1,1
  28              		.comm	peerAddr,1785,4
  29              		.global	DevicesNearBy
  30              		.bss
  31              		.type	DevicesNearBy, %object
  32              		.size	DevicesNearBy, 1
  33              	DevicesNearBy:
  34 0000 00       		.space	1
  35              		.comm	fl_temp_bytes,4,4
  36              		.global	byte
  37              		.type	byte, %object
  38              		.size	byte, 1
  39              	byte:
  40 0001 00       		.space	1
  41              		.comm	bin1,8,4
  42              		.section	.text.main,"ax",%progbits
  43              		.align	2
  44              		.global	main
  45              		.code	16
  46              		.thumb_func
  47              		.type	main, %function
  48              	main:
  49              	.LFB35:
  50              		.file 1 "main.c"
   1:main.c        **** /* ========================================
   2:main.c        ****  *
   3:main.c        ****  * Copyright Megan Bird, 2018
   4:main.c        ****  * All Rights Reserved
   5:main.c        ****  * UNPUBLISHED, LICENSED SOFTWARE.
   6:main.c        ****  *
   7:main.c        ****  * CONFIDENTIAL AND PROPRIETARY INFORMATION
ARM GAS  C:\Users\megan\AppData\Local\Temp\ccrMxWsc.s 			page 2


   8:main.c        ****  * WHICH IS THE PROPERTY OF Megan Bird.
   9:main.c        ****  *
  10:main.c        ****  * ========================================
  11:main.c        **** */
  12:main.c        **** 
  13:main.c        **** #include <project.h>
  14:main.c        **** #include <RA8875.h>
  15:main.c        **** #include <math.h>
  16:main.c        **** 
  17:main.c        **** /*  Declarations    */
  18:main.c        **** typedef struct Bin {
  19:main.c        ****     float32 actual_temp;
  20:main.c        ****     uint8_t set_temp;
  21:main.c        ****     bool    fan_on;
  22:main.c        **** } Bin;
  23:main.c        **** 
  24:main.c        **** struct Outside {
  25:main.c        ****     float32 temp;
  26:main.c        **** } outside;
  27:main.c        **** 
  28:main.c        **** typedef enum Mode {
  29:main.c        ****     MANUAL,
  30:main.c        ****     AUTOMATIC
  31:main.c        **** } Mode;
  32:main.c        **** 
  33:main.c        **** struct Settings {
  34:main.c        ****     Mode   mode;
  35:main.c        **** } settings;
  36:main.c        **** 
  37:main.c        **** void DefaultValues();
  38:main.c        **** void StackEventHandler( uint32 eventCode, void *eventParam );
  39:main.c        **** void LCDInit(void);
  40:main.c        **** void LCDInitDemo();
  41:main.c        **** void LCDTouchscreenDemo();
  42:main.c        **** void LCDCheckTouch();
  43:main.c        **** void GUISplashscreen();
  44:main.c        **** void GUIInit();
  45:main.c        **** void GUIUpdateBin1ActualTemp();
  46:main.c        **** void GUIUpdateOutsideTemp();
  47:main.c        **** void GUIUpdateMode();
  48:main.c        **** void GUIUpdateControls();
  49:main.c        **** void GUITouchHandler(uint16_t *tx, uint16_t *ty);
  50:main.c        **** void GUITest();
  51:main.c        **** void TempReceive(Bin * bin, uint8_t * fl_bytes);
  52:main.c        **** void TempOutsideReceive(uint8_t * fl_bytes);
  53:main.c        **** void PrintInt(uint8_t n);
  54:main.c        **** void PrintFloat(float n);
  55:main.c        **** void RegReadTest();
  56:main.c        **** void BLEConnect();
  57:main.c        **** void BLEIndicator();
  58:main.c        **** void FanTest();
  59:main.c        **** void FanUpdate();
  60:main.c        **** 
  61:main.c        **** /* define the test register to switch the PA/LNA hardware control pins */
  62:main.c        **** #define CYREG_SRSS_TST_DDFT_CTRL        0x40030008
  63:main.c        **** 
  64:main.c        **** /* Global Variables */
ARM GAS  C:\Users\megan\AppData\Local\Temp\ccrMxWsc.s 			page 3


  65:main.c        **** #define CYBLE_MAX_ADV_DEVICES           255
  66:main.c        **** 
  67:main.c        **** CYBLE_STATE_T                           ble_state;
  68:main.c        **** CYBLE_GAP_BD_ADDR_T                     peerAddr[CYBLE_MAX_ADV_DEVICES];
  69:main.c        **** uint8                                   DevicesNearBy = 0;
  70:main.c        **** uint8_t                                 fl_temp_bytes[4];
  71:main.c        **** uint8_t                                 byte = 0;
  72:main.c        **** Bin                                     bin1;
  73:main.c        **** 
  74:main.c        **** int main()
  75:main.c        **** {
  51              		.loc 1 75 0
  52              		.cfi_startproc
  53              		@ args = 0, pretend = 0, frame = 0
  54              		@ frame_needed = 1, uses_anonymous_args = 0
  55 0000 80B5     		push	{r7, lr}
  56              		.cfi_def_cfa_offset 8
  57              		.cfi_offset 7, -8
  58              		.cfi_offset 14, -4
  59 0002 00AF     		add	r7, sp, #0
  60              		.cfi_def_cfa_register 7
  76:main.c        ****     CyGlobalIntEnable;   /* Enable global interrupts */
  61              		.loc 1 76 0
  62              		.syntax divided
  63              	@ 76 "main.c" 1
  64 0004 62B6     		CPSIE   i
  65              	@ 0 "" 2
  77:main.c        ****     
  78:main.c        ****     // Power LED
  79:main.c        ****     LED_RED_Write(0);
  66              		.loc 1 79 0
  67              		.thumb
  68              		.syntax unified
  69 0006 0020     		movs	r0, #0
  70 0008 FFF7FEFF 		bl	LED_RED_Write
  80:main.c        ****     
  81:main.c        ****     /*  LCD Setup   */
  82:main.c        ****     LCDInit();
  71              		.loc 1 82 0
  72 000c FFF7FEFF 		bl	LCDInit
  83:main.c        ****     //RegReadTest();
  84:main.c        ****     //CyDelay(10000);
  85:main.c        ****     //LCDInitDemo();
  86:main.c        ****     //LCDTouchscreenDemo();
  87:main.c        ****     //RegReadTest();
  88:main.c        ****     //GUITest();
  89:main.c        ****     
  90:main.c        ****     GUISplashscreen();
  73              		.loc 1 90 0
  74 0010 FFF7FEFF 		bl	GUISplashscreen
  91:main.c        ****     GUIInit();
  75              		.loc 1 91 0
  76 0014 FFF7FEFF 		bl	GUIInit
  92:main.c        ****     //LCDTouchscreenDemo();
  93:main.c        ****     
  94:main.c        ****     /* BLE Setup    */
  95:main.c        ****     CyBle_Start( StackEventHandler );
ARM GAS  C:\Users\megan\AppData\Local\Temp\ccrMxWsc.s 			page 4


  77              		.loc 1 95 0
  78 0018 0C4B     		ldr	r3, .L4
  79 001a 1800     		movs	r0, r3
  80 001c FFF7FEFF 		bl	CyBle_Start
  96:main.c        ****     
  97:main.c        ****     
  98:main.c        ****     /* Fan Test     */
  99:main.c        ****     //FanTest();
 100:main.c        ****     BLEConnect();
  81              		.loc 1 100 0
  82 0020 FFF7FEFF 		bl	BLEConnect
  83              	.L3:
 101:main.c        ****     
 102:main.c        ****     for(;;)
 103:main.c        ****     {
 104:main.c        ****         ble_state = CyBle_GetState();
  84              		.loc 1 104 0
  85 0024 0A4B     		ldr	r3, .L4+4
  86 0026 1A78     		ldrb	r2, [r3]
  87 0028 0A4B     		ldr	r3, .L4+8
  88 002a 1A70     		strb	r2, [r3]
 105:main.c        ****         if (ble_state == CYBLE_STATE_DISCONNECTED ) {
  89              		.loc 1 105 0
  90 002c 094B     		ldr	r3, .L4+8
  91 002e 1B78     		ldrb	r3, [r3]
  92 0030 052B     		cmp	r3, #5
  93 0032 01D1     		bne	.L2
 106:main.c        ****             BLEConnect();
  94              		.loc 1 106 0
  95 0034 FFF7FEFF 		bl	BLEConnect
  96              	.L2:
 107:main.c        ****         }
 108:main.c        ****         LCDCheckTouch();
  97              		.loc 1 108 0
  98 0038 FFF7FEFF 		bl	LCDCheckTouch
 109:main.c        ****         FanUpdate();
  99              		.loc 1 109 0
 100 003c FFF7FEFF 		bl	FanUpdate
 110:main.c        ****         BLEIndicator();
 101              		.loc 1 110 0
 102 0040 FFF7FEFF 		bl	BLEIndicator
 111:main.c        ****         CyBle_ProcessEvents();
 103              		.loc 1 111 0
 104 0044 FFF7FEFF 		bl	CyBle_ProcessEvents
 112:main.c        ****     }
 105              		.loc 1 112 0
 106 0048 ECE7     		b	.L3
 107              	.L5:
 108 004a C046     		.align	2
 109              	.L4:
 110 004c 00000000 		.word	StackEventHandler
 111 0050 00000000 		.word	cyBle_state
 112 0054 00000000 		.word	ble_state
 113              		.cfi_endproc
 114              	.LFE35:
 115              		.size	main, .-main
 116              		.section	.text.DefaultValues,"ax",%progbits
ARM GAS  C:\Users\megan\AppData\Local\Temp\ccrMxWsc.s 			page 5


 117              		.align	2
 118              		.global	DefaultValues
 119              		.code	16
 120              		.thumb_func
 121              		.type	DefaultValues, %function
 122              	DefaultValues:
 123              	.LFB36:
 113:main.c        **** }
 114:main.c        **** 
 115:main.c        **** void DefaultValues() {
 124              		.loc 1 115 0
 125              		.cfi_startproc
 126              		@ args = 0, pretend = 0, frame = 0
 127              		@ frame_needed = 1, uses_anonymous_args = 0
 128 0000 80B5     		push	{r7, lr}
 129              		.cfi_def_cfa_offset 8
 130              		.cfi_offset 7, -8
 131              		.cfi_offset 14, -4
 132 0002 00AF     		add	r7, sp, #0
 133              		.cfi_def_cfa_register 7
 116:main.c        ****     
 117:main.c        ****     // Settings
 118:main.c        ****     settings.mode = MANUAL;
 134              		.loc 1 118 0
 135 0004 084B     		ldr	r3, .L7
 136 0006 0022     		movs	r2, #0
 137 0008 1A70     		strb	r2, [r3]
 119:main.c        ****     
 120:main.c        ****     // Outside
 121:main.c        ****     outside.temp = 0;
 138              		.loc 1 121 0
 139 000a 084B     		ldr	r3, .L7+4
 140 000c 0022     		movs	r2, #0
 141 000e 1A60     		str	r2, [r3]
 122:main.c        ****     
 123:main.c        ****     // Bin1
 124:main.c        ****     bin1.actual_temp = 0;
 142              		.loc 1 124 0
 143 0010 074B     		ldr	r3, .L7+8
 144 0012 0022     		movs	r2, #0
 145 0014 1A60     		str	r2, [r3]
 125:main.c        ****     bin1.set_temp = 0;
 146              		.loc 1 125 0
 147 0016 064B     		ldr	r3, .L7+8
 148 0018 0022     		movs	r2, #0
 149 001a 1A71     		strb	r2, [r3, #4]
 126:main.c        ****     bin1.fan_on = false;
 150              		.loc 1 126 0
 151 001c 044B     		ldr	r3, .L7+8
 152 001e 0022     		movs	r2, #0
 153 0020 5A71     		strb	r2, [r3, #5]
 127:main.c        **** }
 154              		.loc 1 127 0
 155 0022 C046     		nop
 156 0024 BD46     		mov	sp, r7
 157              		@ sp needed
 158 0026 80BD     		pop	{r7, pc}
ARM GAS  C:\Users\megan\AppData\Local\Temp\ccrMxWsc.s 			page 6


 159              	.L8:
 160              		.align	2
 161              	.L7:
 162 0028 00000000 		.word	settings
 163 002c 00000000 		.word	outside
 164 0030 00000000 		.word	bin1
 165              		.cfi_endproc
 166              	.LFE36:
 167              		.size	DefaultValues, .-DefaultValues
 168              		.section	.rodata
 169              		.align	2
 170              	.LC7:
 171 0000 4359424C 		.ascii	"CYBLE_ERROR_OK\000"
 171      455F4552 
 171      524F525F 
 171      4F4B00
 172 000f 00       		.align	2
 173              	.LC9:
 174 0010 4359424C 		.ascii	"CYBLE_ERROR_OCCURED\000"
 174      455F4552 
 174      524F525F 
 174      4F434355 
 174      52454400 
 175              		.align	2
 176              	.LC11:
 177 0024 494E5641 		.ascii	"INVALID PARAMTER\000"
 177      4C494420 
 177      50415241 
 177      4D544552 
 177      00
 178 0035 000000   		.align	2
 179              	.LC13:
 180 0038 494E5641 		.ascii	"INVALID OPERATION\000"
 180      4C494420 
 180      4F504552 
 180      4154494F 
 180      4E00
 181 004a 0000     		.align	2
 182              	.LC15:
 183 004c 53657276 		.ascii	"Service Count: \000"
 183      69636520 
 183      436F756E 
 183      743A2000 
 184              		.align	2
 185              	.LC17:
 186 005c 44617461 		.ascii	"Data Length: \000"
 186      204C656E 
 186      6774683A 
 186      2000
 187 006a 0000     		.align	2
 188              	.LC19:
 189 006c 4E6F7469 		.ascii	"Notification Received\000"
 189      66696361 
 189      74696F6E 
 189      20526563 
 189      65697665 
 190              		.section	.text.StackEventHandler,"ax",%progbits
ARM GAS  C:\Users\megan\AppData\Local\Temp\ccrMxWsc.s 			page 7


 191              		.align	2
 192              		.global	StackEventHandler
 193              		.code	16
 194              		.thumb_func
 195              		.type	StackEventHandler, %function
 196              	StackEventHandler:
 197              	.LFB37:
 128:main.c        **** 
 129:main.c        **** void StackEventHandler( uint32 eventCode, void *eventParam ) {
 198              		.loc 1 129 0
 199              		.cfi_startproc
 200              		@ args = 0, pretend = 0, frame = 240
 201              		@ frame_needed = 1, uses_anonymous_args = 0
 202 0000 90B5     		push	{r4, r7, lr}
 203              		.cfi_def_cfa_offset 12
 204              		.cfi_offset 4, -12
 205              		.cfi_offset 7, -8
 206              		.cfi_offset 14, -4
 207 0002 BDB0     		sub	sp, sp, #244
 208              		.cfi_def_cfa_offset 256
 209 0004 00AF     		add	r7, sp, #0
 210              		.cfi_def_cfa_register 7
 211 0006 7860     		str	r0, [r7, #4]
 212 0008 3960     		str	r1, [r7]
 130:main.c        ****     
 131:main.c        ****      //------ Declarations ------/
 132:main.c        ****     // LCD Strings
 133:main.c        ****     char ok[] = "CYBLE_ERROR_OK";
 213              		.loc 1 133 0
 214 000a E023     		movs	r3, #224
 215 000c FB18     		adds	r3, r7, r3
 216 000e 844A     		ldr	r2, .L32
 217 0010 13CA     		ldmia	r2!, {r0, r1, r4}
 218 0012 13C3     		stmia	r3!, {r0, r1, r4}
 219 0014 1188     		ldrh	r1, [r2]
 220 0016 1980     		strh	r1, [r3]
 221 0018 9278     		ldrb	r2, [r2, #2]
 222 001a 9A70     		strb	r2, [r3, #2]
 134:main.c        ****     char error[] = "CYBLE_ERROR_OCCURED";
 223              		.loc 1 134 0
 224 001c CC23     		movs	r3, #204
 225 001e FB18     		adds	r3, r7, r3
 226 0020 804A     		ldr	r2, .L32+4
 227 0022 13CA     		ldmia	r2!, {r0, r1, r4}
 228 0024 13C3     		stmia	r3!, {r0, r1, r4}
 229 0026 03CA     		ldmia	r2!, {r0, r1}
 230 0028 03C3     		stmia	r3!, {r0, r1}
 135:main.c        ****     char param[] = "INVALID PARAMTER";
 231              		.loc 1 135 0
 232 002a B823     		movs	r3, #184
 233 002c FB18     		adds	r3, r7, r3
 234 002e 7E4A     		ldr	r2, .L32+8
 235 0030 13CA     		ldmia	r2!, {r0, r1, r4}
 236 0032 13C3     		stmia	r3!, {r0, r1, r4}
 237 0034 1168     		ldr	r1, [r2]
 238 0036 1960     		str	r1, [r3]
 239 0038 1279     		ldrb	r2, [r2, #4]
ARM GAS  C:\Users\megan\AppData\Local\Temp\ccrMxWsc.s 			page 8


 240 003a 1A71     		strb	r2, [r3, #4]
 136:main.c        ****     char operation[] = "INVALID OPERATION";
 241              		.loc 1 136 0
 242 003c A423     		movs	r3, #164
 243 003e FB18     		adds	r3, r7, r3
 244 0040 7A4A     		ldr	r2, .L32+12
 245 0042 13CA     		ldmia	r2!, {r0, r1, r4}
 246 0044 13C3     		stmia	r3!, {r0, r1, r4}
 247 0046 1168     		ldr	r1, [r2]
 248 0048 1960     		str	r1, [r3]
 249 004a 9288     		ldrh	r2, [r2, #4]
 250 004c 9A80     		strh	r2, [r3, #4]
 137:main.c        ****     char serviceCount[] = "Service Count: ";
 251              		.loc 1 137 0
 252 004e 9423     		movs	r3, #148
 253 0050 FB18     		adds	r3, r7, r3
 254 0052 774A     		ldr	r2, .L32+16
 255 0054 13CA     		ldmia	r2!, {r0, r1, r4}
 256 0056 13C3     		stmia	r3!, {r0, r1, r4}
 257 0058 1268     		ldr	r2, [r2]
 258 005a 1A60     		str	r2, [r3]
 138:main.c        ****     char dataLength[] = "Data Length: ";
 259              		.loc 1 138 0
 260 005c 8423     		movs	r3, #132
 261 005e FB18     		adds	r3, r7, r3
 262 0060 744A     		ldr	r2, .L32+20
 263 0062 13CA     		ldmia	r2!, {r0, r1, r4}
 264 0064 13C3     		stmia	r3!, {r0, r1, r4}
 265 0066 1288     		ldrh	r2, [r2]
 266 0068 1A80     		strh	r2, [r3]
 139:main.c        ****     char space[] = " ";
 267              		.loc 1 139 0
 268 006a 8023     		movs	r3, #128
 269 006c FB18     		adds	r3, r7, r3
 270 006e 2022     		movs	r2, #32
 271 0070 1A80     		strh	r2, [r3]
 140:main.c        ****     char notification[] = "Notification Received";
 272              		.loc 1 140 0
 273 0072 6823     		movs	r3, #104
 274 0074 FB18     		adds	r3, r7, r3
 275 0076 704A     		ldr	r2, .L32+24
 276 0078 13CA     		ldmia	r2!, {r0, r1, r4}
 277 007a 13C3     		stmia	r3!, {r0, r1, r4}
 278 007c 03CA     		ldmia	r2!, {r0, r1}
 279 007e 03C3     		stmia	r3!, {r0, r1}
 280 0080 1288     		ldrh	r2, [r2]
 281 0082 1A80     		strh	r2, [r3]
 141:main.c        ****     
 142:main.c        ****     CYBLE_GAPC_ADV_REPORT_T                 advReport;
 143:main.c        ****     CYBLE_GATTC_READ_BY_TYPE_REQ_T          readByTypeReqParam;
 144:main.c        ****     CYBLE_GATTC_READ_BY_TYPE_RSP_PARAM_T    readResponse;
 145:main.c        ****     CYBLE_GATTC_HANDLE_VALUE_NTF_PARAM_T    notificationData;
 146:main.c        ****     CYBLE_GATT_ATTR_HANDLE_RANGE_T          range;
 147:main.c        ****     CYBLE_UUID_T                            uuid;
 148:main.c        ****     CYBLE_API_RESULT_T                      apiResult;
 149:main.c        ****    
 150:main.c        ****     uint8                                   i;
ARM GAS  C:\Users\megan\AppData\Local\Temp\ccrMxWsc.s 			page 9


 151:main.c        ****     uint8_t                                 fl_bytes[4];
 152:main.c        ****     
 153:main.c        ****     
 154:main.c        ****     switch( eventCode )
 282              		.loc 1 154 0
 283 0084 7B68     		ldr	r3, [r7, #4]
 284 0086 412B     		cmp	r3, #65
 285 0088 00D1     		bne	.LCB159
 286 008a BDE0     		b	.L28	@long jump
 287              	.LCB159:
 288 008c 06D8     		bhi	.L12
 289 008e 202B     		cmp	r3, #32
 290 0090 16D0     		beq	.L13
 291 0092 272B     		cmp	r3, #39
 292 0094 4ED0     		beq	.L14
 293 0096 012B     		cmp	r3, #1
 294 0098 0BD0     		beq	.L15
 155:main.c        ****     {
 156:main.c        ****         /* Generic events */
 157:main.c        **** 
 158:main.c        ****         case CYBLE_EVT_STACK_ON:
 159:main.c        ****             /* Configure the Link Layer to automatically switch PA
 160:main.c        ****              * control pin P3[2] and LNA control pin P3[3] */
 161:main.c        ****             CY_SET_XTND_REG32((void CYFAR *)(CYREG_BLE_BLESS_RF_CONFIG), 0x0331);
 162:main.c        ****             CY_SET_XTND_REG32((void CYFAR *)(CYREG_SRSS_TST_DDFT_CTRL), 0x80000302);
 163:main.c        ****             /* CyBle_GappStartAdvertisement( CYBLE_ADVERTISING_FAST ); */
 164:main.c        ****         break;
 165:main.c        ****             
 166:main.c        ****         case CYBLE_EVT_GAPC_SCAN_PROGRESS_RESULT:
 167:main.c        ****             
 168:main.c        ****             /*copy the advertising packet recieved to advReport*/
 169:main.c        ****             advReport=*(CYBLE_GAPC_ADV_REPORT_T *)eventParam;
 170:main.c        ****             
 171:main.c        ****             if((DevicesNearBy <= CYBLE_MAX_ADV_DEVICES) && (advReport.eventType!=CYBLE_GAPC_SCAN_RS
 172:main.c        ****             {
 173:main.c        ****                 for(i = 0u; i < CYBLE_GAP_BD_ADDR_SIZE; i++)
 174:main.c        ****                 {
 175:main.c        ****                     peerAddr[DevicesNearBy].bdAddr[i] = advReport.peerBdAddr[i];
 176:main.c        ****                 }                    
 177:main.c        ****                 
 178:main.c        ****                 /* Increase the number of peer devices when 
 179:main.c        ****                  * received aadvertising packet from different peer devices.*/
 180:main.c        ****                 ++DevicesNearBy;
 181:main.c        ****             }  
 182:main.c        ****             
 183:main.c        ****         break;
 184:main.c        ****             
 185:main.c        ****         /* This event is received when connection is established */
 186:main.c        ****         case CYBLE_EVT_GATT_CONNECT_IND:
 187:main.c        ****   
 188:main.c        ****              /* Retrieve BLE connection handle */
 189:main.c        ****              //connHandle = *(CYBLE_CONN_HANDLE_T *) eventParam;
 190:main.c        ****             
 191:main.c        ****          break;
 192:main.c        ****             
 193:main.c        ****         case CYBLE_EVT_GAP_DEVICE_CONNECTED:
 194:main.c        ****                 /*Start to dicovery the servioes of the serve after connection*/
ARM GAS  C:\Users\megan\AppData\Local\Temp\ccrMxWsc.s 			page 10


 195:main.c        ****                 CyBle_GattcStartDiscovery(cyBle_connHandle);  
 196:main.c        ****         break;
 197:main.c        ****             
 198:main.c        ****         case CYBLE_EVT_GATTC_DISCOVERY_COMPLETE:
 199:main.c        ****            // printf("\r\nDiscovery complete.\r\n");
 200:main.c        ****             
 201:main.c        **** //            range.startHandle   = 0x0001;
 202:main.c        **** //            range.endHandle     = 0xFFFF;
 203:main.c        **** //            uuid.uuid16         = 0x14BF; 
 204:main.c        **** //   
 205:main.c        **** //            readByTypeReqParam.range = range;
 206:main.c        **** //            readByTypeReqParam.uuid = uuid;
 207:main.c        **** //            readByTypeReqParam.uuidFormat = 0x01;
 208:main.c        ****             
 209:main.c        ****             //textWrite(serviceCount,strlen(serviceCount));
 210:main.c        ****             //PrintInt(CYBLE_SRVI_COUNT);
 211:main.c        ****             
 212:main.c        ****             //apiResult = CyBle_GattcDiscoverAllCharacteristics(connHandle, range);
 213:main.c        ****    
 214:main.c        ****             //apiResult = CyBle_GattcReadUsingCharacteristicUuid(cyBle_connHandle,&readByTypeReqPar
 215:main.c        ****             
 216:main.c        **** //            if ( apiResult == CYBLE_ERROR_OK )
 217:main.c        **** //                textWrite(ok,strlen(ok));
 218:main.c        **** 
 219:main.c        ****         break;
 220:main.c        ****         
 221:main.c        ****         case CYBLE_EVT_GATTC_READ_BY_TYPE_RSP:
 222:main.c        ****             
 223:main.c        ****             readResponse = *(CYBLE_GATTC_READ_BY_TYPE_RSP_PARAM_T *) eventParam;
 224:main.c        ****             
 225:main.c        ****             //textWrite(dataLength,strlen(dataLength));
 226:main.c        ****             //PrintInt(readResponse.attrData.length - 2);
 227:main.c        ****             
 228:main.c        ****             for( i=2 ; i < readResponse.attrData.length; i++)
 229:main.c        ****             {
 230:main.c        ****                 //PrintInt(readResponse.attrData.attrValue[i]);
 231:main.c        ****                 //textWrite(space,strlen(space));
 232:main.c        ****                 
 233:main.c        ****                 fl_bytes[i-2] = readResponse.attrData.attrValue[i];
 234:main.c        ****             }
 235:main.c        ****             
 236:main.c        **** //            if (notificationData.handleValPair.attrHandle == 0x0012) {
 237:main.c        **** //                TempReceive(&bin1,fl_bytes);
 238:main.c        **** //            }
 239:main.c        **** //            else if (notificationData.handleValPair.attrHandle == 0x0016) {
 240:main.c        **** //                TempOutsideReceive(fl_bytes);
 241:main.c        **** //            }
 242:main.c        ****             
 243:main.c        ****         break;
 244:main.c        ****                 
 245:main.c        ****         case CYBLE_EVT_GATTC_HANDLE_VALUE_NTF:
 246:main.c        ****                 
 247:main.c        ****             //textWrite(notification,strlen(notification));
 248:main.c        ****             
 249:main.c        ****             notificationData = *(CYBLE_GATTC_HANDLE_VALUE_NTF_PARAM_T *) eventParam;
 250:main.c        ****             
 251:main.c        ****             fl_temp_bytes[byte++] = * notificationData.handleValPair.value.val;
ARM GAS  C:\Users\megan\AppData\Local\Temp\ccrMxWsc.s 			page 11


 252:main.c        **** 
 253:main.c        ****             // convert 4 bytes to float
 254:main.c        ****             if (byte == 4) {
 255:main.c        ****                 //PrintFloat( *(float32*)(fl_temp_bytes) );
 256:main.c        ****                 //textWrite(space,strlen(space));  
 257:main.c        ****                 
 258:main.c        ****                 if (notificationData.handleValPair.attrHandle == 0x0012) {
 259:main.c        ****                     TempReceive(&bin1,fl_temp_bytes);
 260:main.c        ****                 }
 261:main.c        ****                 else if (notificationData.handleValPair.attrHandle == 0x0016) {
 262:main.c        ****                     TempOutsideReceive(fl_temp_bytes);
 263:main.c        ****                 }
 264:main.c        ****                 byte = 0;
 265:main.c        ****             }
 266:main.c        ****                 
 267:main.c        ****         break;
 268:main.c        ****             
 269:main.c        ****         /* default catch-all case */
 270:main.c        ****         default:
 271:main.c        ****         break;    
 295              		.loc 1 271 0
 296 009a BCE0     		b	.L19
 297              	.L12:
 154:main.c        ****     {
 298              		.loc 1 154 0
 299 009c 522B     		cmp	r3, #82
 300 009e 00D1     		bne	.LCB173
 301 00a0 81E0     		b	.L16	@long jump
 302              	.LCB173:
 303 00a2 1222     		movs	r2, #18
 304 00a4 FF32     		adds	r2, r2, #255
 305 00a6 9342     		cmp	r3, r2
 306 00a8 00D1     		bne	.LCB177
 307 00aa AFE0     		b	.L29	@long jump
 308              	.LCB177:
 309 00ac 462B     		cmp	r3, #70
 310 00ae 50D0     		beq	.L18
 311              		.loc 1 271 0
 312 00b0 B1E0     		b	.L19
 313              	.L15:
 161:main.c        ****             CY_SET_XTND_REG32((void CYFAR *)(CYREG_SRSS_TST_DDFT_CTRL), 0x80000302);
 314              		.loc 1 161 0
 315 00b2 624B     		ldr	r3, .L32+28
 316 00b4 624A     		ldr	r2, .L32+32
 317 00b6 1A60     		str	r2, [r3]
 162:main.c        ****             /* CyBle_GappStartAdvertisement( CYBLE_ADVERTISING_FAST ); */
 318              		.loc 1 162 0
 319 00b8 624B     		ldr	r3, .L32+36
 320 00ba 634A     		ldr	r2, .L32+40
 321 00bc 1A60     		str	r2, [r3]
 164:main.c        ****             
 322              		.loc 1 164 0
 323 00be AAE0     		b	.L19
 324              	.L13:
 169:main.c        ****             
 325              		.loc 1 169 0
 326 00c0 5423     		movs	r3, #84
ARM GAS  C:\Users\megan\AppData\Local\Temp\ccrMxWsc.s 			page 12


 327 00c2 FB18     		adds	r3, r7, r3
 328 00c4 3A68     		ldr	r2, [r7]
 329 00c6 13CA     		ldmia	r2!, {r0, r1, r4}
 330 00c8 13C3     		stmia	r3!, {r0, r1, r4}
 331 00ca 03CA     		ldmia	r2!, {r0, r1}
 332 00cc 03C3     		stmia	r3!, {r0, r1}
 171:main.c        ****             {
 333              		.loc 1 171 0
 334 00ce 5423     		movs	r3, #84
 335 00d0 FB18     		adds	r3, r7, r3
 336 00d2 1B78     		ldrb	r3, [r3]
 337 00d4 042B     		cmp	r3, #4
 338 00d6 00D1     		bne	.LCB203
 339 00d8 9AE0     		b	.L30	@long jump
 340              	.LCB203:
 173:main.c        ****                 {
 341              		.loc 1 173 0
 342 00da EF23     		movs	r3, #239
 343 00dc FB18     		adds	r3, r7, r3
 344 00de 0022     		movs	r2, #0
 345 00e0 1A70     		strb	r2, [r3]
 346 00e2 1BE0     		b	.L21
 347              	.L22:
 175:main.c        ****                 }                    
 348              		.loc 1 175 0 discriminator 3
 349 00e4 594B     		ldr	r3, .L32+44
 350 00e6 1B78     		ldrb	r3, [r3]
 351 00e8 1800     		movs	r0, r3
 352 00ea EF23     		movs	r3, #239
 353 00ec FB18     		adds	r3, r7, r3
 354 00ee 1A78     		ldrb	r2, [r3]
 355 00f0 5423     		movs	r3, #84
 356 00f2 FB18     		adds	r3, r7, r3
 357 00f4 5968     		ldr	r1, [r3, #4]
 358 00f6 EF23     		movs	r3, #239
 359 00f8 FB18     		adds	r3, r7, r3
 360 00fa 1B78     		ldrb	r3, [r3]
 361 00fc CB18     		adds	r3, r1, r3
 362 00fe 1C78     		ldrb	r4, [r3]
 363 0100 5349     		ldr	r1, .L32+48
 364 0102 0300     		movs	r3, r0
 365 0104 DB00     		lsls	r3, r3, #3
 366 0106 1B1A     		subs	r3, r3, r0
 367 0108 CB18     		adds	r3, r1, r3
 368 010a 211C     		adds	r1, r4, #0
 369 010c 9954     		strb	r1, [r3, r2]
 173:main.c        ****                 {
 370              		.loc 1 173 0 discriminator 3
 371 010e EF23     		movs	r3, #239
 372 0110 FB18     		adds	r3, r7, r3
 373 0112 1A78     		ldrb	r2, [r3]
 374 0114 EF23     		movs	r3, #239
 375 0116 FB18     		adds	r3, r7, r3
 376 0118 0132     		adds	r2, r2, #1
 377 011a 1A70     		strb	r2, [r3]
 378              	.L21:
 173:main.c        ****                 {
ARM GAS  C:\Users\megan\AppData\Local\Temp\ccrMxWsc.s 			page 13


 379              		.loc 1 173 0 is_stmt 0 discriminator 1
 380 011c EF23     		movs	r3, #239
 381 011e FB18     		adds	r3, r7, r3
 382 0120 1B78     		ldrb	r3, [r3]
 383 0122 052B     		cmp	r3, #5
 384 0124 DED9     		bls	.L22
 180:main.c        ****             }  
 385              		.loc 1 180 0 is_stmt 1
 386 0126 494B     		ldr	r3, .L32+44
 387 0128 1B78     		ldrb	r3, [r3]
 388 012a 0133     		adds	r3, r3, #1
 389 012c DAB2     		uxtb	r2, r3
 390 012e 474B     		ldr	r3, .L32+44
 391 0130 1A70     		strb	r2, [r3]
 183:main.c        ****             
 392              		.loc 1 183 0
 393 0132 6DE0     		b	.L30
 394              	.L14:
 195:main.c        ****         break;
 395              		.loc 1 195 0
 396 0134 474B     		ldr	r3, .L32+52
 397 0136 1A78     		ldrb	r2, [r3]
 398 0138 5B78     		ldrb	r3, [r3, #1]
 399 013a 1B02     		lsls	r3, r3, #8
 400 013c 1A43     		orrs	r2, r3
 401 013e 0023     		movs	r3, #0
 402 0140 1204     		lsls	r2, r2, #16
 403 0142 120C     		lsrs	r2, r2, #16
 404 0144 1B0C     		lsrs	r3, r3, #16
 405 0146 1B04     		lsls	r3, r3, #16
 406 0148 1343     		orrs	r3, r2
 407 014a 1800     		movs	r0, r3
 408 014c FFF7FEFF 		bl	CyBle_GattcStartDiscovery
 196:main.c        ****             
 409              		.loc 1 196 0
 410 0150 61E0     		b	.L19
 411              	.L18:
 223:main.c        ****             
 412              		.loc 1 223 0
 413 0152 3023     		movs	r3, #48
 414 0154 FB18     		adds	r3, r7, r3
 415 0156 3A68     		ldr	r2, [r7]
 416 0158 13CA     		ldmia	r2!, {r0, r1, r4}
 417 015a 13C3     		stmia	r3!, {r0, r1, r4}
 228:main.c        ****             {
 418              		.loc 1 228 0
 419 015c EF23     		movs	r3, #239
 420 015e FB18     		adds	r3, r7, r3
 421 0160 0222     		movs	r2, #2
 422 0162 1A70     		strb	r2, [r3]
 423 0164 15E0     		b	.L23
 424              	.L24:
 233:main.c        ****             }
 425              		.loc 1 233 0 discriminator 3
 426 0166 EF23     		movs	r3, #239
 427 0168 FB18     		adds	r3, r7, r3
 428 016a 1B78     		ldrb	r3, [r3]
ARM GAS  C:\Users\megan\AppData\Local\Temp\ccrMxWsc.s 			page 14


 429 016c 9A1E     		subs	r2, r3, #2
 430 016e 3023     		movs	r3, #48
 431 0170 FB18     		adds	r3, r7, r3
 432 0172 5968     		ldr	r1, [r3, #4]
 433 0174 EF23     		movs	r3, #239
 434 0176 FB18     		adds	r3, r7, r3
 435 0178 1B78     		ldrb	r3, [r3]
 436 017a CB18     		adds	r3, r1, r3
 437 017c 1978     		ldrb	r1, [r3]
 438 017e 0823     		movs	r3, #8
 439 0180 FB18     		adds	r3, r7, r3
 440 0182 9954     		strb	r1, [r3, r2]
 228:main.c        ****             {
 441              		.loc 1 228 0 discriminator 3
 442 0184 EF23     		movs	r3, #239
 443 0186 FB18     		adds	r3, r7, r3
 444 0188 1A78     		ldrb	r2, [r3]
 445 018a EF23     		movs	r3, #239
 446 018c FB18     		adds	r3, r7, r3
 447 018e 0132     		adds	r2, r2, #1
 448 0190 1A70     		strb	r2, [r3]
 449              	.L23:
 228:main.c        ****             {
 450              		.loc 1 228 0 is_stmt 0 discriminator 1
 451 0192 EF23     		movs	r3, #239
 452 0194 FB18     		adds	r3, r7, r3
 453 0196 1B78     		ldrb	r3, [r3]
 454 0198 9AB2     		uxth	r2, r3
 455 019a 3023     		movs	r3, #48
 456 019c FB18     		adds	r3, r7, r3
 457 019e 1B89     		ldrh	r3, [r3, #8]
 458 01a0 9A42     		cmp	r2, r3
 459 01a2 E0D3     		bcc	.L24
 243:main.c        ****                 
 460              		.loc 1 243 0 is_stmt 1
 461 01a4 37E0     		b	.L19
 462              	.L16:
 249:main.c        ****             
 463              		.loc 1 249 0
 464 01a6 2023     		movs	r3, #32
 465 01a8 FB18     		adds	r3, r7, r3
 466 01aa 3A68     		ldr	r2, [r7]
 467 01ac 13CA     		ldmia	r2!, {r0, r1, r4}
 468 01ae 13C3     		stmia	r3!, {r0, r1, r4}
 469 01b0 1268     		ldr	r2, [r2]
 470 01b2 1A60     		str	r2, [r3]
 251:main.c        **** 
 471              		.loc 1 251 0
 472 01b4 284B     		ldr	r3, .L32+56
 473 01b6 1B78     		ldrb	r3, [r3]
 474 01b8 5A1C     		adds	r2, r3, #1
 475 01ba D1B2     		uxtb	r1, r2
 476 01bc 264A     		ldr	r2, .L32+56
 477 01be 1170     		strb	r1, [r2]
 478 01c0 1A00     		movs	r2, r3
 479 01c2 2023     		movs	r3, #32
 480 01c4 FB18     		adds	r3, r7, r3
ARM GAS  C:\Users\megan\AppData\Local\Temp\ccrMxWsc.s 			page 15


 481 01c6 5B68     		ldr	r3, [r3, #4]
 482 01c8 1978     		ldrb	r1, [r3]
 483 01ca 244B     		ldr	r3, .L32+60
 484 01cc 9954     		strb	r1, [r3, r2]
 254:main.c        ****                 //PrintFloat( *(float32*)(fl_temp_bytes) );
 485              		.loc 1 254 0
 486 01ce 224B     		ldr	r3, .L32+56
 487 01d0 1B78     		ldrb	r3, [r3]
 488 01d2 042B     		cmp	r3, #4
 489 01d4 1ED1     		bne	.L31
 258:main.c        ****                     TempReceive(&bin1,fl_temp_bytes);
 490              		.loc 1 258 0
 491 01d6 2023     		movs	r3, #32
 492 01d8 FB18     		adds	r3, r7, r3
 493 01da 9B89     		ldrh	r3, [r3, #12]
 494 01dc 122B     		cmp	r3, #18
 495 01de 06D1     		bne	.L26
 259:main.c        ****                 }
 496              		.loc 1 259 0
 497 01e0 1E4A     		ldr	r2, .L32+60
 498 01e2 1F4B     		ldr	r3, .L32+64
 499 01e4 1100     		movs	r1, r2
 500 01e6 1800     		movs	r0, r3
 501 01e8 FFF7FEFF 		bl	TempReceive
 502 01ec 08E0     		b	.L27
 503              	.L26:
 261:main.c        ****                     TempOutsideReceive(fl_temp_bytes);
 504              		.loc 1 261 0
 505 01ee 2023     		movs	r3, #32
 506 01f0 FB18     		adds	r3, r7, r3
 507 01f2 9B89     		ldrh	r3, [r3, #12]
 508 01f4 162B     		cmp	r3, #22
 509 01f6 03D1     		bne	.L27
 262:main.c        ****                 }
 510              		.loc 1 262 0
 511 01f8 184B     		ldr	r3, .L32+60
 512 01fa 1800     		movs	r0, r3
 513 01fc FFF7FEFF 		bl	TempOutsideReceive
 514              	.L27:
 264:main.c        ****             }
 515              		.loc 1 264 0
 516 0200 154B     		ldr	r3, .L32+56
 517 0202 0022     		movs	r2, #0
 518 0204 1A70     		strb	r2, [r3]
 267:main.c        ****             
 519              		.loc 1 267 0
 520 0206 05E0     		b	.L31
 521              	.L28:
 191:main.c        ****             
 522              		.loc 1 191 0
 523 0208 C046     		nop
 524 020a 04E0     		b	.L19
 525              	.L29:
 219:main.c        ****         
 526              		.loc 1 219 0
 527 020c C046     		nop
 528 020e 02E0     		b	.L19
ARM GAS  C:\Users\megan\AppData\Local\Temp\ccrMxWsc.s 			page 16


 529              	.L30:
 183:main.c        ****             
 530              		.loc 1 183 0
 531 0210 C046     		nop
 532 0212 00E0     		b	.L19
 533              	.L31:
 267:main.c        ****             
 534              		.loc 1 267 0
 535 0214 C046     		nop
 536              	.L19:
 272:main.c        ****     }
 273:main.c        **** }    
 537              		.loc 1 273 0 discriminator 1
 538 0216 C046     		nop
 539 0218 BD46     		mov	sp, r7
 540 021a 3DB0     		add	sp, sp, #244
 541              		@ sp needed
 542 021c 90BD     		pop	{r4, r7, pc}
 543              	.L33:
 544 021e C046     		.align	2
 545              	.L32:
 546 0220 00000000 		.word	.LC7
 547 0224 10000000 		.word	.LC9
 548 0228 24000000 		.word	.LC11
 549 022c 38000000 		.word	.LC13
 550 0230 4C000000 		.word	.LC15
 551 0234 5C000000 		.word	.LC17
 552 0238 6C000000 		.word	.LC19
 553 023c 60F02E40 		.word	1076818016
 554 0240 31030000 		.word	817
 555 0244 08000340 		.word	1073938440
 556 0248 02030080 		.word	-2147482878
 557 024c 00000000 		.word	DevicesNearBy
 558 0250 00000000 		.word	peerAddr
 559 0254 00000000 		.word	cyBle_connHandle
 560 0258 00000000 		.word	byte
 561 025c 00000000 		.word	fl_temp_bytes
 562 0260 00000000 		.word	bin1
 563              		.cfi_endproc
 564              	.LFE37:
 565              		.size	StackEventHandler, .-StackEventHandler
 566              		.section	.text.LCDInit,"ax",%progbits
 567              		.align	2
 568              		.global	LCDInit
 569              		.code	16
 570              		.thumb_func
 571              		.type	LCDInit, %function
 572              	LCDInit:
 573              	.LFB38:
 274:main.c        **** 
 275:main.c        **** void LCDInit() {
 574              		.loc 1 275 0
 575              		.cfi_startproc
 576              		@ args = 0, pretend = 0, frame = 0
 577              		@ frame_needed = 1, uses_anonymous_args = 0
 578 0000 80B5     		push	{r7, lr}
 579              		.cfi_def_cfa_offset 8
ARM GAS  C:\Users\megan\AppData\Local\Temp\ccrMxWsc.s 			page 17


 580              		.cfi_offset 7, -8
 581              		.cfi_offset 14, -4
 582 0002 00AF     		add	r7, sp, #0
 583              		.cfi_def_cfa_register 7
 276:main.c        ****     
 277:main.c        ****     LCDSPI_Start();
 584              		.loc 1 277 0
 585 0004 FFF7FEFF 		bl	LCDSPI_Start
 278:main.c        ****     
 279:main.c        ****     //------ LCD Setup ------//  
 280:main.c        ****     
 281:main.c        ****     rst0_m_Write(1u);
 586              		.loc 1 281 0
 587 0008 0120     		movs	r0, #1
 588 000a FFF7FEFF 		bl	rst0_m_Write
 282:main.c        ****     
 283:main.c        ****     begin(RA8875_800x480);
 589              		.loc 1 283 0
 590 000e 0120     		movs	r0, #1
 591 0010 FFF7FEFF 		bl	begin
 284:main.c        ****     displayOn(true);
 592              		.loc 1 284 0
 593 0014 0120     		movs	r0, #1
 594 0016 FFF7FEFF 		bl	displayOn
 285:main.c        ****     GPIOX(true);      // Enable TFT - display enable tied to GPIOX
 595              		.loc 1 285 0
 596 001a 0120     		movs	r0, #1
 597 001c FFF7FEFF 		bl	GPIOX
 286:main.c        ****     
 287:main.c        ****     PWM1config(true, RA8875_PWM_CLK_DIV1024); // PWM output for backlight  
 598              		.loc 1 287 0
 599 0020 0A21     		movs	r1, #10
 600 0022 0120     		movs	r0, #1
 601 0024 FFF7FEFF 		bl	PWM1config
 288:main.c        ****     PWM1out(255);
 602              		.loc 1 288 0
 603 0028 FF20     		movs	r0, #255
 604 002a FFF7FEFF 		bl	PWM1out
 289:main.c        ****     
 290:main.c        ****     LCD_int_Write(1u); 
 605              		.loc 1 290 0
 606 002e 0120     		movs	r0, #1
 607 0030 FFF7FEFF 		bl	LCD_int_Write
 291:main.c        ****     
 292:main.c        ****     touchEnable(true);
 608              		.loc 1 292 0
 609 0034 0120     		movs	r0, #1
 610 0036 FFF7FEFF 		bl	touchEnable
 293:main.c        **** }
 611              		.loc 1 293 0
 612 003a C046     		nop
 613 003c BD46     		mov	sp, r7
 614              		@ sp needed
 615 003e 80BD     		pop	{r7, pc}
 616              		.cfi_endproc
 617              	.LFE38:
 618              		.size	LCDInit, .-LCDInit
ARM GAS  C:\Users\megan\AppData\Local\Temp\ccrMxWsc.s 			page 18


 619              		.section	.rodata
 620 0082 0000     		.align	2
 621              	.LC27:
 622 0084 4D656761 		.ascii	"Megan Bird\000"
 622      6E204269 
 622      726400
 623 008f 00       		.align	2
 624              	.LC29:
 625 0090 4543454E 		.ascii	"ECEN 4350\000"
 625      20343335 
 625      3000
 626 009a 0000     		.align	2
 627              	.LC31:
 628 009c 46616C6C 		.ascii	"Fall 2017\000"
 628      20323031 
 628      3700
 629 00a6 0000     		.align	2
 630              	.LC33:
 631 00a8 424C455F 		.ascii	"BLE_Central\000"
 631      43656E74 
 631      72616C00 
 632              		.section	.text.LCDInitDemo,"ax",%progbits
 633              		.align	2
 634              		.global	LCDInitDemo
 635              		.code	16
 636              		.thumb_func
 637              		.type	LCDInitDemo, %function
 638              	LCDInitDemo:
 639              	.LFB39:
 294:main.c        **** 
 295:main.c        **** void LCDInitDemo() {
 640              		.loc 1 295 0
 641              		.cfi_startproc
 642              		@ args = 0, pretend = 0, frame = 56
 643              		@ frame_needed = 1, uses_anonymous_args = 0
 644 0000 90B5     		push	{r4, r7, lr}
 645              		.cfi_def_cfa_offset 12
 646              		.cfi_offset 4, -12
 647              		.cfi_offset 7, -8
 648              		.cfi_offset 14, -4
 649 0002 8FB0     		sub	sp, sp, #60
 650              		.cfi_def_cfa_offset 72
 651 0004 00AF     		add	r7, sp, #0
 652              		.cfi_def_cfa_register 7
 296:main.c        ****     
 297:main.c        ****     //------ Declarations ------/
 298:main.c        ****     // LCD Strings
 299:main.c        ****     char welcome1[] = "Megan Bird";
 653              		.loc 1 299 0
 654 0006 2823     		movs	r3, #40
 655 0008 FB18     		adds	r3, r7, r3
 656 000a 354A     		ldr	r2, .L36
 657 000c 03CA     		ldmia	r2!, {r0, r1}
 658 000e 03C3     		stmia	r3!, {r0, r1}
 659 0010 1188     		ldrh	r1, [r2]
 660 0012 1980     		strh	r1, [r3]
 661 0014 9278     		ldrb	r2, [r2, #2]
ARM GAS  C:\Users\megan\AppData\Local\Temp\ccrMxWsc.s 			page 19


 662 0016 9A70     		strb	r2, [r3, #2]
 300:main.c        ****     char welcome2[] = "ECEN 4350";
 663              		.loc 1 300 0
 664 0018 1C23     		movs	r3, #28
 665 001a FB18     		adds	r3, r7, r3
 666 001c 314A     		ldr	r2, .L36+4
 667 001e 03CA     		ldmia	r2!, {r0, r1}
 668 0020 03C3     		stmia	r3!, {r0, r1}
 669 0022 1288     		ldrh	r2, [r2]
 670 0024 1A80     		strh	r2, [r3]
 301:main.c        ****     char welcome3[] = "Fall 2017";
 671              		.loc 1 301 0
 672 0026 1023     		movs	r3, #16
 673 0028 FB18     		adds	r3, r7, r3
 674 002a 2F4A     		ldr	r2, .L36+8
 675 002c 03CA     		ldmia	r2!, {r0, r1}
 676 002e 03C3     		stmia	r3!, {r0, r1}
 677 0030 1288     		ldrh	r2, [r2]
 678 0032 1A80     		strh	r2, [r3]
 302:main.c        ****     char ble[] = "BLE_Central";
 679              		.loc 1 302 0
 680 0034 3B1D     		adds	r3, r7, #4
 681 0036 2D4A     		ldr	r2, .L36+12
 682 0038 13CA     		ldmia	r2!, {r0, r1, r4}
 683 003a 13C3     		stmia	r3!, {r0, r1, r4}
 303:main.c        ****     
 304:main.c        ****     uint16 myDelay = 200;
 684              		.loc 1 304 0
 685 003c 3623     		movs	r3, #54
 686 003e FB18     		adds	r3, r7, r3
 687 0040 C822     		movs	r2, #200
 688 0042 1A80     		strh	r2, [r3]
 305:main.c        ****     
 306:main.c        ****     //----- Color Demo -----//
 307:main.c        ****     
 308:main.c        ****     fillScreen(RA8875_WHITE);    
 689              		.loc 1 308 0
 690 0044 2A4B     		ldr	r3, .L36+16
 691 0046 1800     		movs	r0, r3
 692 0048 FFF7FEFF 		bl	fillScreen
 309:main.c        ****     CyDelay(myDelay);
 693              		.loc 1 309 0
 694 004c 3623     		movs	r3, #54
 695 004e FB18     		adds	r3, r7, r3
 696 0050 1B88     		ldrh	r3, [r3]
 697 0052 1800     		movs	r0, r3
 698 0054 FFF7FEFF 		bl	CyDelay
 310:main.c        ****     fillScreen(RA8875_RED);
 699              		.loc 1 310 0
 700 0058 F823     		movs	r3, #248
 701 005a 1B02     		lsls	r3, r3, #8
 702 005c 1800     		movs	r0, r3
 703 005e FFF7FEFF 		bl	fillScreen
 311:main.c        ****     CyDelay(myDelay);
 704              		.loc 1 311 0
 705 0062 3623     		movs	r3, #54
 706 0064 FB18     		adds	r3, r7, r3
ARM GAS  C:\Users\megan\AppData\Local\Temp\ccrMxWsc.s 			page 20


 707 0066 1B88     		ldrh	r3, [r3]
 708 0068 1800     		movs	r0, r3
 709 006a FFF7FEFF 		bl	CyDelay
 312:main.c        ****     fillScreen(RA8875_YELLOW);
 710              		.loc 1 312 0
 711 006e 214B     		ldr	r3, .L36+20
 712 0070 1800     		movs	r0, r3
 713 0072 FFF7FEFF 		bl	fillScreen
 313:main.c        ****     CyDelay(myDelay);
 714              		.loc 1 313 0
 715 0076 3623     		movs	r3, #54
 716 0078 FB18     		adds	r3, r7, r3
 717 007a 1B88     		ldrh	r3, [r3]
 718 007c 1800     		movs	r0, r3
 719 007e FFF7FEFF 		bl	CyDelay
 314:main.c        ****     fillScreen(RA8875_GREEN);
 720              		.loc 1 314 0
 721 0082 FC23     		movs	r3, #252
 722 0084 DB00     		lsls	r3, r3, #3
 723 0086 1800     		movs	r0, r3
 724 0088 FFF7FEFF 		bl	fillScreen
 315:main.c        ****     CyDelay(myDelay);
 725              		.loc 1 315 0
 726 008c 3623     		movs	r3, #54
 727 008e FB18     		adds	r3, r7, r3
 728 0090 1B88     		ldrh	r3, [r3]
 729 0092 1800     		movs	r0, r3
 730 0094 FFF7FEFF 		bl	CyDelay
 316:main.c        ****     fillScreen(RA8875_BLUE);
 731              		.loc 1 316 0
 732 0098 1F20     		movs	r0, #31
 733 009a FFF7FEFF 		bl	fillScreen
 317:main.c        ****     CyDelay(myDelay);
 734              		.loc 1 317 0
 735 009e 3623     		movs	r3, #54
 736 00a0 FB18     		adds	r3, r7, r3
 737 00a2 1B88     		ldrh	r3, [r3]
 738 00a4 1800     		movs	r0, r3
 739 00a6 FFF7FEFF 		bl	CyDelay
 318:main.c        ****     fillScreen(RA8875_CYAN);
 740              		.loc 1 318 0
 741 00aa 134B     		ldr	r3, .L36+24
 742 00ac 1800     		movs	r0, r3
 743 00ae FFF7FEFF 		bl	fillScreen
 319:main.c        ****     CyDelay(myDelay);
 744              		.loc 1 319 0
 745 00b2 3623     		movs	r3, #54
 746 00b4 FB18     		adds	r3, r7, r3
 747 00b6 1B88     		ldrh	r3, [r3]
 748 00b8 1800     		movs	r0, r3
 749 00ba FFF7FEFF 		bl	CyDelay
 320:main.c        ****     fillScreen(RA8875_MAGENTA);
 750              		.loc 1 320 0
 751 00be 0F4B     		ldr	r3, .L36+28
 752 00c0 1800     		movs	r0, r3
 753 00c2 FFF7FEFF 		bl	fillScreen
 321:main.c        ****     CyDelay(myDelay);
ARM GAS  C:\Users\megan\AppData\Local\Temp\ccrMxWsc.s 			page 21


 754              		.loc 1 321 0
 755 00c6 3623     		movs	r3, #54
 756 00c8 FB18     		adds	r3, r7, r3
 757 00ca 1B88     		ldrh	r3, [r3]
 758 00cc 1800     		movs	r0, r3
 759 00ce FFF7FEFF 		bl	CyDelay
 322:main.c        ****     fillScreen(RA8875_BLACK);
 760              		.loc 1 322 0
 761 00d2 0020     		movs	r0, #0
 762 00d4 FFF7FEFF 		bl	fillScreen
 323:main.c        ****     
 324:main.c        ****     //CyDelay(300);
 325:main.c        ****     
 326:main.c        ****     //----- Drawing Demo -----//
 327:main.c        ****     /*
 328:main.c        ****     drawCircle(100, 100, 50, RA8875_BLACK);
 329:main.c        ****     fillCircle(100, 100, 49, RA8875_GREEN);
 330:main.c        ****     fillRect(11, 11, 398, 198, RA8875_BLUE);
 331:main.c        ****     drawRect(10, 10, 400, 200, RA8875_GREEN);
 332:main.c        ****     drawPixel(10,10,RA8875_BLACK);
 333:main.c        ****     drawPixel(11,11,RA8875_BLACK);
 334:main.c        ****     drawLine(10, 10, 200, 100, RA8875_RED);
 335:main.c        ****     drawTriangle(200, 15, 250, 100, 150, 125, RA8875_BLACK);
 336:main.c        ****     fillTriangle(200, 16, 249, 99, 151, 124, RA8875_YELLOW);
 337:main.c        ****     drawEllipse(300, 100, 100, 40, RA8875_BLACK);
 338:main.c        ****     fillEllipse(300, 100, 98, 38, RA8875_GREEN);
 339:main.c        ****     drawCurve(50, 100, 80, 40, 2, RA8875_BLACK);  
 340:main.c        ****     fillCurve(50, 100, 78, 38, 2, RA8875_WHITE);
 341:main.c        ****     */
 342:main.c        ****         
 343:main.c        ****     //--- Welcome Screen ---//
 344:main.c        ****     /*
 345:main.c        ****     CyDelay(300);
 346:main.c        ****     PWM1out(0);
 347:main.c        ****     fillScreen(RA8875_WHITE);
 348:main.c        ****     
 349:main.c        ****     for (int i = 0; i < 256; i++) {
 350:main.c        ****         PWM1out(i);
 351:main.c        ****         CyDelay(1);
 352:main.c        ****     }
 353:main.c        **** 
 354:main.c        ****     textMode();
 355:main.c        ****     fillRect(75,85,370,100,RA8875_RED);
 356:main.c        ****     textSetCursor(100, 100);
 357:main.c        ****     textEnlarge(1);
 358:main.c        ****     textTransparent(RA8875_WHITE);
 359:main.c        ****     textWrite(welcome1,strlen(welcome1)); 
 360:main.c        ****     
 361:main.c        ****     textEnlarge(0);
 362:main.c        ****     textSetCursor(100, 200);
 363:main.c        ****     textTransparent(RA8875_BLACK);
 364:main.c        ****     textWrite(welcome2,strlen(welcome2)); 
 365:main.c        ****     textSetCursor(100, 250);
 366:main.c        ****     textWrite(welcome3,strlen(welcome3)); 
 367:main.c        ****     
 368:main.c        ****     textSetCursor(100, 350);
 369:main.c        ****     textTransparent(RA8875_BLUE);
ARM GAS  C:\Users\megan\AppData\Local\Temp\ccrMxWsc.s 			page 22


 370:main.c        ****     textWrite(ble,strlen(ble));
 371:main.c        ****     
 372:main.c        ****     CyDelay(10000);
 373:main.c        ****     */
 374:main.c        **** }
 763              		.loc 1 374 0
 764 00d8 C046     		nop
 765 00da BD46     		mov	sp, r7
 766 00dc 0FB0     		add	sp, sp, #60
 767              		@ sp needed
 768 00de 90BD     		pop	{r4, r7, pc}
 769              	.L37:
 770              		.align	2
 771              	.L36:
 772 00e0 84000000 		.word	.LC27
 773 00e4 90000000 		.word	.LC29
 774 00e8 9C000000 		.word	.LC31
 775 00ec A8000000 		.word	.LC33
 776 00f0 FFFF0000 		.word	65535
 777 00f4 E0FF0000 		.word	65504
 778 00f8 FF070000 		.word	2047
 779 00fc 1FF80000 		.word	63519
 780              		.cfi_endproc
 781              	.LFE39:
 782              		.size	LCDInitDemo, .-LCDInitDemo
 783              		.global	__aeabi_i2f
 784              		.global	__aeabi_fdiv
 785              		.global	__aeabi_f2uiz
 786              		.section	.text.LCDTouchscreenDemo,"ax",%progbits
 787              		.align	2
 788              		.global	LCDTouchscreenDemo
 789              		.code	16
 790              		.thumb_func
 791              		.type	LCDTouchscreenDemo, %function
 792              	LCDTouchscreenDemo:
 793              	.LFB40:
 375:main.c        **** 
 376:main.c        **** void LCDTouchscreenDemo() {
 794              		.loc 1 376 0
 795              		.cfi_startproc
 796              		@ args = 0, pretend = 0, frame = 16
 797              		@ frame_needed = 1, uses_anonymous_args = 0
 798 0000 90B5     		push	{r4, r7, lr}
 799              		.cfi_def_cfa_offset 12
 800              		.cfi_offset 4, -12
 801              		.cfi_offset 7, -8
 802              		.cfi_offset 14, -4
 803 0002 85B0     		sub	sp, sp, #20
 804              		.cfi_def_cfa_offset 32
 805 0004 00AF     		add	r7, sp, #0
 806              		.cfi_def_cfa_register 7
 377:main.c        ****     //------ Declarations ------//
 378:main.c        ****     uint16_t tx;
 379:main.c        ****     uint16_t ty;
 380:main.c        ****     bool waiting = true;
 807              		.loc 1 380 0
 808 0006 0F23     		movs	r3, #15
ARM GAS  C:\Users\megan\AppData\Local\Temp\ccrMxWsc.s 			page 23


 809 0008 FB18     		adds	r3, r7, r3
 810 000a 0122     		movs	r2, #1
 811 000c 1A70     		strb	r2, [r3]
 381:main.c        ****     
 382:main.c        ****     float xScale;
 383:main.c        ****     float yScale;
 384:main.c        ****     
 385:main.c        ****     touchEnable(true);
 812              		.loc 1 385 0
 813 000e 0120     		movs	r0, #1
 814 0010 FFF7FEFF 		bl	touchEnable
 386:main.c        ****     
 387:main.c        ****     xScale = 1024.0F/width();
 815              		.loc 1 387 0
 816 0014 FFF7FEFF 		bl	width
 817 0018 0300     		movs	r3, r0
 818 001a 1800     		movs	r0, r3
 819 001c FFF7FEFF 		bl	__aeabi_i2f
 820 0020 031C     		adds	r3, r0, #0
 821 0022 191C     		adds	r1, r3, #0
 822 0024 8920     		movs	r0, #137
 823 0026 C005     		lsls	r0, r0, #23
 824 0028 FFF7FEFF 		bl	__aeabi_fdiv
 825 002c 031C     		adds	r3, r0, #0
 826 002e BB60     		str	r3, [r7, #8]
 388:main.c        ****     yScale = 1024.0F/height();
 827              		.loc 1 388 0
 828 0030 FFF7FEFF 		bl	height
 829 0034 0300     		movs	r3, r0
 830 0036 1800     		movs	r0, r3
 831 0038 FFF7FEFF 		bl	__aeabi_i2f
 832 003c 031C     		adds	r3, r0, #0
 833 003e 191C     		adds	r1, r3, #0
 834 0040 8920     		movs	r0, #137
 835 0042 C005     		lsls	r0, r0, #23
 836 0044 FFF7FEFF 		bl	__aeabi_fdiv
 837 0048 031C     		adds	r3, r0, #0
 838 004a 7B60     		str	r3, [r7, #4]
 389:main.c        ****     
 390:main.c        ****     touchRead(&tx, &ty);
 839              		.loc 1 390 0
 840 004c 3A00     		movs	r2, r7
 841 004e BB1C     		adds	r3, r7, #2
 842 0050 1100     		movs	r1, r2
 843 0052 1800     		movs	r0, r3
 844 0054 FFF7FEFF 		bl	touchRead
 391:main.c        ****     //textMode();
 392:main.c        ****     //graphicsMode();
 393:main.c        ****     
 394:main.c        ****     //------ Wait for touch ------//
 395:main.c        ****     //CyDelay(10);
 396:main.c        ****     while ( waiting )  {
 845              		.loc 1 396 0
 846 0058 34E0     		b	.L39
 847              	.L40:
 397:main.c        ****         if (!LCD_int_Read()) {
 848              		.loc 1 397 0
ARM GAS  C:\Users\megan\AppData\Local\Temp\ccrMxWsc.s 			page 24


 849 005a FFF7FEFF 		bl	LCD_int_Read
 850 005e 031E     		subs	r3, r0, #0
 851 0060 30D1     		bne	.L39
 398:main.c        ****             //LED_BLUE_Write(0);
 399:main.c        ****             if ( touched() ) {
 852              		.loc 1 399 0
 853 0062 FFF7FEFF 		bl	touched
 854 0066 031E     		subs	r3, r0, #0
 855 0068 2CD0     		beq	.L39
 400:main.c        ****                 //LED_GREEN_Write(0u);
 401:main.c        ****                 touchRead(&tx, &ty);                
 856              		.loc 1 401 0
 857 006a 3A00     		movs	r2, r7
 858 006c BB1C     		adds	r3, r7, #2
 859 006e 1100     		movs	r1, r2
 860 0070 1800     		movs	r0, r3
 861 0072 FFF7FEFF 		bl	touchRead
 402:main.c        ****                 fillCircle((uint16_t)(tx/xScale), (uint16_t)(ty/yScale), 4, RA8875_WHITE);
 862              		.loc 1 402 0
 863 0076 BB1C     		adds	r3, r7, #2
 864 0078 1B88     		ldrh	r3, [r3]
 865 007a 1800     		movs	r0, r3
 866 007c FFF7FEFF 		bl	__aeabi_i2f
 867 0080 031C     		adds	r3, r0, #0
 868 0082 B968     		ldr	r1, [r7, #8]
 869 0084 181C     		adds	r0, r3, #0
 870 0086 FFF7FEFF 		bl	__aeabi_fdiv
 871 008a 031C     		adds	r3, r0, #0
 872 008c 181C     		adds	r0, r3, #0
 873 008e FFF7FEFF 		bl	__aeabi_f2uiz
 874 0092 0300     		movs	r3, r0
 875 0094 9BB2     		uxth	r3, r3
 876 0096 1CB2     		sxth	r4, r3
 877 0098 3B00     		movs	r3, r7
 878 009a 1B88     		ldrh	r3, [r3]
 879 009c 1800     		movs	r0, r3
 880 009e FFF7FEFF 		bl	__aeabi_i2f
 881 00a2 031C     		adds	r3, r0, #0
 882 00a4 7968     		ldr	r1, [r7, #4]
 883 00a6 181C     		adds	r0, r3, #0
 884 00a8 FFF7FEFF 		bl	__aeabi_fdiv
 885 00ac 031C     		adds	r3, r0, #0
 886 00ae 181C     		adds	r0, r3, #0
 887 00b0 FFF7FEFF 		bl	__aeabi_f2uiz
 888 00b4 0300     		movs	r3, r0
 889 00b6 9BB2     		uxth	r3, r3
 890 00b8 19B2     		sxth	r1, r3
 891 00ba 074B     		ldr	r3, .L41
 892 00bc 0422     		movs	r2, #4
 893 00be 2000     		movs	r0, r4
 894 00c0 FFF7FEFF 		bl	fillCircle
 895              	.L39:
 396:main.c        ****         if (!LCD_int_Read()) {
 896              		.loc 1 396 0
 897 00c4 0F23     		movs	r3, #15
 898 00c6 FB18     		adds	r3, r7, r3
 899 00c8 1B78     		ldrb	r3, [r3]
ARM GAS  C:\Users\megan\AppData\Local\Temp\ccrMxWsc.s 			page 25


 900 00ca 002B     		cmp	r3, #0
 901 00cc C5D1     		bne	.L40
 403:main.c        ****             }
 404:main.c        **** //            else {
 405:main.c        **** //                /* Clear TP INT Status */
 406:main.c        **** //                //writeReg(RA8875_INTC2, RA8875_INTC2_TP);
 407:main.c        **** //                touchRead(&tx, &ty);
 408:main.c        **** //                CyDelay(1);
 409:main.c        **** //                //tx = 0x0000;
 410:main.c        **** //                //ty = 0x0000;
 411:main.c        **** //            }
 412:main.c        ****         }
 413:main.c        **** //        else {
 414:main.c        **** //            touchRead(&tx, &ty);
 415:main.c        **** //            CyDelay(1);
 416:main.c        **** //            //tx = 0x0000;
 417:main.c        **** //            //ty = 0x0000;
 418:main.c        **** //        }
 419:main.c        ****     }
 420:main.c        **** }
 902              		.loc 1 420 0
 903 00ce C046     		nop
 904 00d0 BD46     		mov	sp, r7
 905 00d2 05B0     		add	sp, sp, #20
 906              		@ sp needed
 907 00d4 90BD     		pop	{r4, r7, pc}
 908              	.L42:
 909 00d6 C046     		.align	2
 910              	.L41:
 911 00d8 FFFF0000 		.word	65535
 912              		.cfi_endproc
 913              	.LFE40:
 914              		.size	LCDTouchscreenDemo, .-LCDTouchscreenDemo
 915              		.section	.text.LCDCheckTouch,"ax",%progbits
 916              		.align	2
 917              		.global	LCDCheckTouch
 918              		.code	16
 919              		.thumb_func
 920              		.type	LCDCheckTouch, %function
 921              	LCDCheckTouch:
 922              	.LFB41:
 421:main.c        **** 
 422:main.c        **** void LCDCheckTouch() {
 923              		.loc 1 422 0
 924              		.cfi_startproc
 925              		@ args = 0, pretend = 0, frame = 16
 926              		@ frame_needed = 1, uses_anonymous_args = 0
 927 0000 80B5     		push	{r7, lr}
 928              		.cfi_def_cfa_offset 8
 929              		.cfi_offset 7, -8
 930              		.cfi_offset 14, -4
 931 0002 84B0     		sub	sp, sp, #16
 932              		.cfi_def_cfa_offset 24
 933 0004 00AF     		add	r7, sp, #0
 934              		.cfi_def_cfa_register 7
 423:main.c        ****     
 424:main.c        ****     uint16_t tx;
ARM GAS  C:\Users\megan\AppData\Local\Temp\ccrMxWsc.s 			page 26


 425:main.c        ****     uint16_t ty;
 426:main.c        ****     float xScale = 1024.0F/width();
 935              		.loc 1 426 0
 936 0006 FFF7FEFF 		bl	width
 937 000a 0300     		movs	r3, r0
 938 000c 1800     		movs	r0, r3
 939 000e FFF7FEFF 		bl	__aeabi_i2f
 940 0012 031C     		adds	r3, r0, #0
 941 0014 191C     		adds	r1, r3, #0
 942 0016 8920     		movs	r0, #137
 943 0018 C005     		lsls	r0, r0, #23
 944 001a FFF7FEFF 		bl	__aeabi_fdiv
 945 001e 031C     		adds	r3, r0, #0
 946 0020 FB60     		str	r3, [r7, #12]
 427:main.c        ****     float yScale = 1024.0F/height();
 947              		.loc 1 427 0
 948 0022 FFF7FEFF 		bl	height
 949 0026 0300     		movs	r3, r0
 950 0028 1800     		movs	r0, r3
 951 002a FFF7FEFF 		bl	__aeabi_i2f
 952 002e 031C     		adds	r3, r0, #0
 953 0030 191C     		adds	r1, r3, #0
 954 0032 8920     		movs	r0, #137
 955 0034 C005     		lsls	r0, r0, #23
 956 0036 FFF7FEFF 		bl	__aeabi_fdiv
 957 003a 031C     		adds	r3, r0, #0
 958 003c BB60     		str	r3, [r7, #8]
 428:main.c        ****     
 429:main.c        **** 
 430:main.c        ****     //touchEnable(true);
 431:main.c        ****     //touchRead(&tx, &ty);
 432:main.c        ****     if (!LCD_int_Read()) {
 959              		.loc 1 432 0
 960 003e FFF7FEFF 		bl	LCD_int_Read
 961 0042 031E     		subs	r3, r0, #0
 962 0044 0FD1     		bne	.L45
 433:main.c        ****         if (touched()) {
 963              		.loc 1 433 0
 964 0046 FFF7FEFF 		bl	touched
 965 004a 031E     		subs	r3, r0, #0
 966 004c 0BD0     		beq	.L45
 434:main.c        ****             touchRead(&tx,&ty);
 967              		.loc 1 434 0
 968 004e 3A1D     		adds	r2, r7, #4
 969 0050 BB1D     		adds	r3, r7, #6
 970 0052 1100     		movs	r1, r2
 971 0054 1800     		movs	r0, r3
 972 0056 FFF7FEFF 		bl	touchRead
 435:main.c        ****             //fillCircle((uint16_t)(tx/xScale), (uint16_t)(ty/yScale), 4, RA8875_WHITE);
 436:main.c        ****             GUITouchHandler(&tx,&ty);
 973              		.loc 1 436 0
 974 005a 3A1D     		adds	r2, r7, #4
 975 005c BB1D     		adds	r3, r7, #6
 976 005e 1100     		movs	r1, r2
 977 0060 1800     		movs	r0, r3
 978 0062 FFF7FEFF 		bl	GUITouchHandler
 979              	.L45:
ARM GAS  C:\Users\megan\AppData\Local\Temp\ccrMxWsc.s 			page 27


 437:main.c        ****         }
 438:main.c        ****     }
 439:main.c        **** }
 980              		.loc 1 439 0
 981 0066 C046     		nop
 982 0068 BD46     		mov	sp, r7
 983 006a 04B0     		add	sp, sp, #16
 984              		@ sp needed
 985 006c 80BD     		pop	{r7, pc}
 986              		.cfi_endproc
 987              	.LFE41:
 988              		.size	LCDCheckTouch, .-LCDCheckTouch
 989 006e C046     		.section	.rodata
 990              		.align	2
 991              	.LC35:
 992 00b4 53656564 		.ascii	"Seed Bin Climate\000"
 992      2042696E 
 992      20436C69 
 992      6D617465 
 992      00
 993 00c5 000000   		.align	2
 994              	.LC37:
 995 00c8 436F6E74 		.ascii	"Control System\000"
 995      726F6C20 
 995      53797374 
 995      656D00
 996 00d7 00       		.align	2
 997              	.LC39:
 998 00d8 476F6573 		.ascii	"Goesch Agronomy Services, Inc.\000"
 998      63682041 
 998      67726F6E 
 998      6F6D7920 
 998      53657276 
 999 00f7 00       		.align	2
 1000              	.LC41:
 1001 00f8 763100   		.ascii	"v1\000"
 1002              		.section	.text.GUISplashscreen,"ax",%progbits
 1003              		.align	2
 1004              		.global	GUISplashscreen
 1005              		.code	16
 1006              		.thumb_func
 1007              		.type	GUISplashscreen, %function
 1008              	GUISplashscreen:
 1009              	.LFB42:
 440:main.c        **** 
 441:main.c        **** void GUISplashscreen() {
 1010              		.loc 1 441 0
 1011              		.cfi_startproc
 1012              		@ args = 0, pretend = 0, frame = 80
 1013              		@ frame_needed = 1, uses_anonymous_args = 0
 1014 0000 90B5     		push	{r4, r7, lr}
 1015              		.cfi_def_cfa_offset 12
 1016              		.cfi_offset 4, -12
 1017              		.cfi_offset 7, -8
 1018              		.cfi_offset 14, -4
 1019 0002 97B0     		sub	sp, sp, #92
 1020              		.cfi_def_cfa_offset 104
ARM GAS  C:\Users\megan\AppData\Local\Temp\ccrMxWsc.s 			page 28


 1021 0004 02AF     		add	r7, sp, #8
 1022              		.cfi_def_cfa 7, 96
 442:main.c        ****     
 443:main.c        ****     //------ Declarations ------//
 444:main.c        ****     // LCD Strings
 445:main.c        ****     char welcome1[] = "Seed Bin Climate";
 1023              		.loc 1 445 0
 1024 0006 3823     		movs	r3, #56
 1025 0008 FB18     		adds	r3, r7, r3
 1026 000a 544A     		ldr	r2, .L49
 1027 000c 13CA     		ldmia	r2!, {r0, r1, r4}
 1028 000e 13C3     		stmia	r3!, {r0, r1, r4}
 1029 0010 1168     		ldr	r1, [r2]
 1030 0012 1960     		str	r1, [r3]
 1031 0014 1279     		ldrb	r2, [r2, #4]
 1032 0016 1A71     		strb	r2, [r3, #4]
 446:main.c        ****     char welcome2[] = "Control System";
 1033              		.loc 1 446 0
 1034 0018 2823     		movs	r3, #40
 1035 001a FB18     		adds	r3, r7, r3
 1036 001c 504A     		ldr	r2, .L49+4
 1037 001e 13CA     		ldmia	r2!, {r0, r1, r4}
 1038 0020 13C3     		stmia	r3!, {r0, r1, r4}
 1039 0022 1188     		ldrh	r1, [r2]
 1040 0024 1980     		strh	r1, [r3]
 1041 0026 9278     		ldrb	r2, [r2, #2]
 1042 0028 9A70     		strb	r2, [r3, #2]
 447:main.c        ****     char welcome3[] = "Goesch Agronomy Services, Inc.";
 1043              		.loc 1 447 0
 1044 002a 0823     		movs	r3, #8
 1045 002c FB18     		adds	r3, r7, r3
 1046 002e 4D4A     		ldr	r2, .L49+8
 1047 0030 13CA     		ldmia	r2!, {r0, r1, r4}
 1048 0032 13C3     		stmia	r3!, {r0, r1, r4}
 1049 0034 13CA     		ldmia	r2!, {r0, r1, r4}
 1050 0036 13C3     		stmia	r3!, {r0, r1, r4}
 1051 0038 1168     		ldr	r1, [r2]
 1052 003a 1960     		str	r1, [r3]
 1053 003c 9188     		ldrh	r1, [r2, #4]
 1054 003e 9980     		strh	r1, [r3, #4]
 1055 0040 9279     		ldrb	r2, [r2, #6]
 1056 0042 9A71     		strb	r2, [r3, #6]
 448:main.c        ****     char welcome4[] = "v1";
 1057              		.loc 1 448 0
 1058 0044 3B1D     		adds	r3, r7, #4
 1059 0046 484A     		ldr	r2, .L49+12
 1060 0048 1188     		ldrh	r1, [r2]
 1061 004a 1980     		strh	r1, [r3]
 1062 004c 9278     		ldrb	r2, [r2, #2]
 1063 004e 9A70     		strb	r2, [r3, #2]
 449:main.c        ****     
 450:main.c        ****     //------ Procedure ------//
 451:main.c        ****     
 452:main.c        ****     // Screen Fade-In
 453:main.c        ****     PWM1out(0);
 1064              		.loc 1 453 0
 1065 0050 0020     		movs	r0, #0
ARM GAS  C:\Users\megan\AppData\Local\Temp\ccrMxWsc.s 			page 29


 1066 0052 FFF7FEFF 		bl	PWM1out
 454:main.c        ****     fillScreen(RA8875_WHITE);
 1067              		.loc 1 454 0
 1068 0056 454B     		ldr	r3, .L49+16
 1069 0058 1800     		movs	r0, r3
 1070 005a FFF7FEFF 		bl	fillScreen
 1071              	.LBB2:
 455:main.c        ****     for (int i = 0; i < 256; i++) {
 1072              		.loc 1 455 0
 1073 005e 0023     		movs	r3, #0
 1074 0060 FB64     		str	r3, [r7, #76]
 1075 0062 0AE0     		b	.L47
 1076              	.L48:
 456:main.c        ****         PWM1out(i);
 1077              		.loc 1 456 0 discriminator 3
 1078 0064 FB6C     		ldr	r3, [r7, #76]
 1079 0066 DBB2     		uxtb	r3, r3
 1080 0068 1800     		movs	r0, r3
 1081 006a FFF7FEFF 		bl	PWM1out
 457:main.c        ****         CyDelay(1);
 1082              		.loc 1 457 0 discriminator 3
 1083 006e 0120     		movs	r0, #1
 1084 0070 FFF7FEFF 		bl	CyDelay
 455:main.c        ****     for (int i = 0; i < 256; i++) {
 1085              		.loc 1 455 0 discriminator 3
 1086 0074 FB6C     		ldr	r3, [r7, #76]
 1087 0076 0133     		adds	r3, r3, #1
 1088 0078 FB64     		str	r3, [r7, #76]
 1089              	.L47:
 455:main.c        ****     for (int i = 0; i < 256; i++) {
 1090              		.loc 1 455 0 is_stmt 0 discriminator 1
 1091 007a FB6C     		ldr	r3, [r7, #76]
 1092 007c FF2B     		cmp	r3, #255
 1093 007e F1DD     		ble	.L48
 1094              	.LBE2:
 458:main.c        ****     }
 459:main.c        ****     
 460:main.c        ****     // Company Info
 461:main.c        ****     textMode();
 1095              		.loc 1 461 0 is_stmt 1
 1096 0080 FFF7FEFF 		bl	textMode
 462:main.c        ****     fillRect(75,85,650,175,RA8875_BLUE);
 1097              		.loc 1 462 0
 1098 0084 3A4A     		ldr	r2, .L49+20
 1099 0086 1F23     		movs	r3, #31
 1100 0088 0093     		str	r3, [sp]
 1101 008a AF23     		movs	r3, #175
 1102 008c 5521     		movs	r1, #85
 1103 008e 4B20     		movs	r0, #75
 1104 0090 FFF7FEFF 		bl	fillRect
 463:main.c        ****     
 464:main.c        ****     textEnlarge(3);
 1105              		.loc 1 464 0
 1106 0094 0320     		movs	r0, #3
 1107 0096 FFF7FEFF 		bl	textEnlarge
 465:main.c        ****     textTransparent(RA8875_WHITE);
 1108              		.loc 1 465 0
ARM GAS  C:\Users\megan\AppData\Local\Temp\ccrMxWsc.s 			page 30


 1109 009a 344B     		ldr	r3, .L49+16
 1110 009c 1800     		movs	r0, r3
 1111 009e FFF7FEFF 		bl	textTransparent
 466:main.c        ****     // Seed Bin Climate
 467:main.c        ****     textSetCursor(100, 100);
 1112              		.loc 1 467 0
 1113 00a2 6421     		movs	r1, #100
 1114 00a4 6420     		movs	r0, #100
 1115 00a6 FFF7FEFF 		bl	textSetCursor
 468:main.c        ****     textWrite(welcome1,strlen(welcome1));
 1116              		.loc 1 468 0
 1117 00aa 3823     		movs	r3, #56
 1118 00ac FB18     		adds	r3, r7, r3
 1119 00ae 1800     		movs	r0, r3
 1120 00b0 FFF7FEFF 		bl	strlen
 1121 00b4 0300     		movs	r3, r0
 1122 00b6 9AB2     		uxth	r2, r3
 1123 00b8 3823     		movs	r3, #56
 1124 00ba FB18     		adds	r3, r7, r3
 1125 00bc 1100     		movs	r1, r2
 1126 00be 1800     		movs	r0, r3
 1127 00c0 FFF7FEFF 		bl	textWrite
 469:main.c        ****     // Control System
 470:main.c        ****     textSetCursor(100, 175);
 1128              		.loc 1 470 0
 1129 00c4 AF21     		movs	r1, #175
 1130 00c6 6420     		movs	r0, #100
 1131 00c8 FFF7FEFF 		bl	textSetCursor
 471:main.c        ****     textWrite(welcome2,strlen(welcome2));
 1132              		.loc 1 471 0
 1133 00cc 2823     		movs	r3, #40
 1134 00ce FB18     		adds	r3, r7, r3
 1135 00d0 1800     		movs	r0, r3
 1136 00d2 FFF7FEFF 		bl	strlen
 1137 00d6 0300     		movs	r3, r0
 1138 00d8 9AB2     		uxth	r2, r3
 1139 00da 2823     		movs	r3, #40
 1140 00dc FB18     		adds	r3, r7, r3
 1141 00de 1100     		movs	r1, r2
 1142 00e0 1800     		movs	r0, r3
 1143 00e2 FFF7FEFF 		bl	textWrite
 472:main.c        ****     // Goesch Agronomy Services, Inc
 473:main.c        ****     textEnlarge(2);
 1144              		.loc 1 473 0
 1145 00e6 0220     		movs	r0, #2
 1146 00e8 FFF7FEFF 		bl	textEnlarge
 474:main.c        ****     textTransparent(RA8875_GREEN);
 1147              		.loc 1 474 0
 1148 00ec FC23     		movs	r3, #252
 1149 00ee DB00     		lsls	r3, r3, #3
 1150 00f0 1800     		movs	r0, r3
 1151 00f2 FFF7FEFF 		bl	textTransparent
 475:main.c        ****     textSetCursor(75, 325);
 1152              		.loc 1 475 0
 1153 00f6 4623     		movs	r3, #70
 1154 00f8 FF33     		adds	r3, r3, #255
 1155 00fa 1900     		movs	r1, r3
ARM GAS  C:\Users\megan\AppData\Local\Temp\ccrMxWsc.s 			page 31


 1156 00fc 4B20     		movs	r0, #75
 1157 00fe FFF7FEFF 		bl	textSetCursor
 476:main.c        ****     textWrite(welcome3,strlen(welcome3));
 1158              		.loc 1 476 0
 1159 0102 0823     		movs	r3, #8
 1160 0104 FB18     		adds	r3, r7, r3
 1161 0106 1800     		movs	r0, r3
 1162 0108 FFF7FEFF 		bl	strlen
 1163 010c 0300     		movs	r3, r0
 1164 010e 9AB2     		uxth	r2, r3
 1165 0110 0823     		movs	r3, #8
 1166 0112 FB18     		adds	r3, r7, r3
 1167 0114 1100     		movs	r1, r2
 1168 0116 1800     		movs	r0, r3
 1169 0118 FFF7FEFF 		bl	textWrite
 477:main.c        ****     // v1
 478:main.c        ****     textEnlarge(1);
 1170              		.loc 1 478 0
 1171 011c 0120     		movs	r0, #1
 1172 011e FFF7FEFF 		bl	textEnlarge
 479:main.c        ****     textTransparent(RA8875_BLACK);
 1173              		.loc 1 479 0
 1174 0122 0020     		movs	r0, #0
 1175 0124 FFF7FEFF 		bl	textTransparent
 480:main.c        ****     textSetCursor(750, 430);
 1176              		.loc 1 480 0
 1177 0128 D723     		movs	r3, #215
 1178 012a 5B00     		lsls	r3, r3, #1
 1179 012c 114A     		ldr	r2, .L49+24
 1180 012e 1900     		movs	r1, r3
 1181 0130 1000     		movs	r0, r2
 1182 0132 FFF7FEFF 		bl	textSetCursor
 481:main.c        ****     textWrite(welcome4,strlen(welcome4));
 1183              		.loc 1 481 0
 1184 0136 3B1D     		adds	r3, r7, #4
 1185 0138 1800     		movs	r0, r3
 1186 013a FFF7FEFF 		bl	strlen
 1187 013e 0300     		movs	r3, r0
 1188 0140 9AB2     		uxth	r2, r3
 1189 0142 3B1D     		adds	r3, r7, #4
 1190 0144 1100     		movs	r1, r2
 1191 0146 1800     		movs	r0, r3
 1192 0148 FFF7FEFF 		bl	textWrite
 482:main.c        ****     
 483:main.c        ****     CyDelay(3000);
 1193              		.loc 1 483 0
 1194 014c 0A4B     		ldr	r3, .L49+28
 1195 014e 1800     		movs	r0, r3
 1196 0150 FFF7FEFF 		bl	CyDelay
 484:main.c        **** }
 1197              		.loc 1 484 0
 1198 0154 C046     		nop
 1199 0156 BD46     		mov	sp, r7
 1200 0158 15B0     		add	sp, sp, #84
 1201              		@ sp needed
 1202 015a 90BD     		pop	{r4, r7, pc}
 1203              	.L50:
ARM GAS  C:\Users\megan\AppData\Local\Temp\ccrMxWsc.s 			page 32


 1204              		.align	2
 1205              	.L49:
 1206 015c B4000000 		.word	.LC35
 1207 0160 C8000000 		.word	.LC37
 1208 0164 D8000000 		.word	.LC39
 1209 0168 F8000000 		.word	.LC41
 1210 016c FFFF0000 		.word	65535
 1211 0170 8A020000 		.word	650
 1212 0174 EE020000 		.word	750
 1213 0178 B80B0000 		.word	3000
 1214              		.cfi_endproc
 1215              	.LFE42:
 1216              		.size	GUISplashscreen, .-GUISplashscreen
 1217              		.global	__aeabi_idiv
 1218              		.section	.rodata
 1219 00fb 00       		.align	2
 1220              	.LC43:
 1221 00fc 53656564 		.ascii	"Seed Bin Climate Control System\000"
 1221      2042696E 
 1221      20436C69 
 1221      6D617465 
 1221      20436F6E 
 1222              		.align	2
 1223              	.LC45:
 1224 011c 4D6F6465 		.ascii	"Modes\000"
 1224      7300
 1225 0122 0000     		.align	2
 1226              	.LC47:
 1227 0124 4D616E75 		.ascii	"Manual\000"
 1227      616C00
 1228 012b 00       		.align	2
 1229              	.LC49:
 1230 012c 4175746F 		.ascii	"Auto\000"
 1230      00
 1231 0131 000000   		.align	2
 1232              	.LC51:
 1233 0134 496E666F 		.ascii	"Info\000"
 1233      00
 1234 0139 000000   		.align	2
 1235              	.LC53:
 1236 013c 4F757473 		.ascii	"Outside\000"
 1236      69646500 
 1237              		.align	2
 1238              	.LC55:
 1239 0144 42696E20 		.ascii	"Bin #1\000"
 1239      233100
 1240              		.section	.text.GUIInit,"ax",%progbits
 1241              		.align	2
 1242              		.global	GUIInit
 1243              		.code	16
 1244              		.thumb_func
 1245              		.type	GUIInit, %function
 1246              	GUIInit:
 1247              	.LFB43:
 485:main.c        **** 
 486:main.c        **** void GUIInit() {
 1248              		.loc 1 486 0
ARM GAS  C:\Users\megan\AppData\Local\Temp\ccrMxWsc.s 			page 33


 1249              		.cfi_startproc
 1250              		@ args = 0, pretend = 0, frame = 88
 1251              		@ frame_needed = 1, uses_anonymous_args = 0
 1252 0000 B0B5     		push	{r4, r5, r7, lr}
 1253              		.cfi_def_cfa_offset 16
 1254              		.cfi_offset 4, -16
 1255              		.cfi_offset 5, -12
 1256              		.cfi_offset 7, -8
 1257              		.cfi_offset 14, -4
 1258 0002 98B0     		sub	sp, sp, #96
 1259              		.cfi_def_cfa_offset 112
 1260 0004 02AF     		add	r7, sp, #8
 1261              		.cfi_def_cfa 7, 104
 487:main.c        ****     
 488:main.c        ****     //------ Declarations ------//
 489:main.c        ****     // LCD Strings
 490:main.c        ****     char banner[] = "Seed Bin Climate Control System";
 1262              		.loc 1 490 0
 1263 0006 3023     		movs	r3, #48
 1264 0008 FB18     		adds	r3, r7, r3
 1265 000a CD4A     		ldr	r2, .L60
 1266 000c 13CA     		ldmia	r2!, {r0, r1, r4}
 1267 000e 13C3     		stmia	r3!, {r0, r1, r4}
 1268 0010 13CA     		ldmia	r2!, {r0, r1, r4}
 1269 0012 13C3     		stmia	r3!, {r0, r1, r4}
 1270 0014 03CA     		ldmia	r2!, {r0, r1}
 1271 0016 03C3     		stmia	r3!, {r0, r1}
 491:main.c        ****     char modes[] = "Modes";
 1272              		.loc 1 491 0
 1273 0018 2823     		movs	r3, #40
 1274 001a FB18     		adds	r3, r7, r3
 1275 001c C94A     		ldr	r2, .L60+4
 1276 001e 1168     		ldr	r1, [r2]
 1277 0020 1960     		str	r1, [r3]
 1278 0022 9288     		ldrh	r2, [r2, #4]
 1279 0024 9A80     		strh	r2, [r3, #4]
 492:main.c        ****     char manual[] = "Manual";
 1280              		.loc 1 492 0
 1281 0026 2023     		movs	r3, #32
 1282 0028 FB18     		adds	r3, r7, r3
 1283 002a C74A     		ldr	r2, .L60+8
 1284 002c 1168     		ldr	r1, [r2]
 1285 002e 1960     		str	r1, [r3]
 1286 0030 9188     		ldrh	r1, [r2, #4]
 1287 0032 9980     		strh	r1, [r3, #4]
 1288 0034 9279     		ldrb	r2, [r2, #6]
 1289 0036 9A71     		strb	r2, [r3, #6]
 493:main.c        ****     char automatic[] = "Auto";
 1290              		.loc 1 493 0
 1291 0038 1823     		movs	r3, #24
 1292 003a FB18     		adds	r3, r7, r3
 1293 003c C34A     		ldr	r2, .L60+12
 1294 003e 1168     		ldr	r1, [r2]
 1295 0040 1960     		str	r1, [r3]
 1296 0042 1279     		ldrb	r2, [r2, #4]
 1297 0044 1A71     		strb	r2, [r3, #4]
 494:main.c        ****     char info[] = "Info";
ARM GAS  C:\Users\megan\AppData\Local\Temp\ccrMxWsc.s 			page 34


 1298              		.loc 1 494 0
 1299 0046 1023     		movs	r3, #16
 1300 0048 FB18     		adds	r3, r7, r3
 1301 004a C14A     		ldr	r2, .L60+16
 1302 004c 1168     		ldr	r1, [r2]
 1303 004e 1960     		str	r1, [r3]
 1304 0050 1279     		ldrb	r2, [r2, #4]
 1305 0052 1A71     		strb	r2, [r3, #4]
 495:main.c        ****     char outside[] = "Outside";
 1306              		.loc 1 495 0
 1307 0054 0823     		movs	r3, #8
 1308 0056 FB18     		adds	r3, r7, r3
 1309 0058 BE4A     		ldr	r2, .L60+20
 1310 005a 03CA     		ldmia	r2!, {r0, r1}
 1311 005c 03C3     		stmia	r3!, {r0, r1}
 496:main.c        ****     char binno1[] = "Bin #1";
 1312              		.loc 1 496 0
 1313 005e 3B00     		movs	r3, r7
 1314 0060 BD4A     		ldr	r2, .L60+24
 1315 0062 1168     		ldr	r1, [r2]
 1316 0064 1960     		str	r1, [r3]
 1317 0066 9188     		ldrh	r1, [r2, #4]
 1318 0068 9980     		strh	r1, [r3, #4]
 1319 006a 9279     		ldrb	r2, [r2, #6]
 1320 006c 9A71     		strb	r2, [r3, #6]
 497:main.c        ****     
 498:main.c        ****     int scr_width = 800;
 1321              		.loc 1 498 0
 1322 006e C823     		movs	r3, #200
 1323 0070 9B00     		lsls	r3, r3, #2
 1324 0072 7B65     		str	r3, [r7, #84]
 499:main.c        ****     int scr_height = 480;
 1325              		.loc 1 499 0
 1326 0074 F023     		movs	r3, #240
 1327 0076 5B00     		lsls	r3, r3, #1
 1328 0078 3B65     		str	r3, [r7, #80]
 500:main.c        ****     
 501:main.c        ****     //------ Procedure ------//
 502:main.c        ****     
 503:main.c        ****     // Background
 504:main.c        ****     PWM1out(255);
 1329              		.loc 1 504 0
 1330 007a FF20     		movs	r0, #255
 1331 007c FFF7FEFF 		bl	PWM1out
 505:main.c        ****     fillScreen(RA8875_WHITE);
 1332              		.loc 1 505 0
 1333 0080 B64B     		ldr	r3, .L60+28
 1334 0082 1800     		movs	r0, r3
 1335 0084 FFF7FEFF 		bl	fillScreen
 506:main.c        ****     textMode();
 1336              		.loc 1 506 0
 1337 0088 FFF7FEFF 		bl	textMode
 507:main.c        ****     
 508:main.c        ****     // Banner
 509:main.c        ****     fillRect(20,20,
 1338              		.loc 1 509 0
 1339 008c 7B6D     		ldr	r3, [r7, #84]
ARM GAS  C:\Users\megan\AppData\Local\Temp\ccrMxWsc.s 			page 35


 1340 008e 9BB2     		uxth	r3, r3
 1341 0090 283B     		subs	r3, r3, #40
 1342 0092 9BB2     		uxth	r3, r3
 1343 0094 1AB2     		sxth	r2, r3
 1344 0096 FC23     		movs	r3, #252
 1345 0098 DB00     		lsls	r3, r3, #3
 1346 009a 0093     		str	r3, [sp]
 1347 009c 3223     		movs	r3, #50
 1348 009e 1421     		movs	r1, #20
 1349 00a0 1420     		movs	r0, #20
 1350 00a2 FFF7FEFF 		bl	fillRect
 510:main.c        ****             scr_width-40,50,
 511:main.c        ****             RA8875_GREEN);
 512:main.c        ****     textEnlarge(2);
 1351              		.loc 1 512 0
 1352 00a6 0220     		movs	r0, #2
 1353 00a8 FFF7FEFF 		bl	textEnlarge
 513:main.c        ****     textTransparent(RA8875_BLACK);
 1354              		.loc 1 513 0
 1355 00ac 0020     		movs	r0, #0
 1356 00ae FFF7FEFF 		bl	textTransparent
 514:main.c        ****     textSetCursor(25,18);
 1357              		.loc 1 514 0
 1358 00b2 1221     		movs	r1, #18
 1359 00b4 1920     		movs	r0, #25
 1360 00b6 FFF7FEFF 		bl	textSetCursor
 515:main.c        ****     textWrite(banner,strlen(banner));
 1361              		.loc 1 515 0
 1362 00ba 3023     		movs	r3, #48
 1363 00bc FB18     		adds	r3, r7, r3
 1364 00be 1800     		movs	r0, r3
 1365 00c0 FFF7FEFF 		bl	strlen
 1366 00c4 0300     		movs	r3, r0
 1367 00c6 9AB2     		uxth	r2, r3
 1368 00c8 3023     		movs	r3, #48
 1369 00ca FB18     		adds	r3, r7, r3
 1370 00cc 1100     		movs	r1, r2
 1371 00ce 1800     		movs	r0, r3
 1372 00d0 FFF7FEFF 		bl	textWrite
 516:main.c        ****     
 517:main.c        ****     // Modes
 518:main.c        ****     fillRect(20,70,
 519:main.c        ****             scr_width/3-40,scr_height/2+50,
 1373              		.loc 1 519 0
 1374 00d4 7B6D     		ldr	r3, [r7, #84]
 1375 00d6 0321     		movs	r1, #3
 1376 00d8 1800     		movs	r0, r3
 1377 00da FFF7FEFF 		bl	__aeabi_idiv
 1378 00de 0300     		movs	r3, r0
 518:main.c        ****             scr_width/3-40,scr_height/2+50,
 1379              		.loc 1 518 0
 1380 00e0 9BB2     		uxth	r3, r3
 1381 00e2 283B     		subs	r3, r3, #40
 1382 00e4 9BB2     		uxth	r3, r3
 1383 00e6 1AB2     		sxth	r2, r3
 1384              		.loc 1 519 0
 1385 00e8 3B6D     		ldr	r3, [r7, #80]
ARM GAS  C:\Users\megan\AppData\Local\Temp\ccrMxWsc.s 			page 36


 1386 00ea 002B     		cmp	r3, #0
 1387 00ec 00DA     		bge	.L52
 1388 00ee 0133     		adds	r3, r3, #1
 1389              	.L52:
 1390 00f0 5B10     		asrs	r3, r3, #1
 518:main.c        ****             scr_width/3-40,scr_height/2+50,
 1391              		.loc 1 518 0
 1392 00f2 9BB2     		uxth	r3, r3
 1393 00f4 3233     		adds	r3, r3, #50
 1394 00f6 9BB2     		uxth	r3, r3
 1395 00f8 19B2     		sxth	r1, r3
 1396 00fa 0023     		movs	r3, #0
 1397 00fc 0093     		str	r3, [sp]
 1398 00fe 0B00     		movs	r3, r1
 1399 0100 4621     		movs	r1, #70
 1400 0102 1420     		movs	r0, #20
 1401 0104 FFF7FEFF 		bl	fillRect
 520:main.c        ****             RA8875_BLACK);
 521:main.c        ****     textEnlarge(3);
 1402              		.loc 1 521 0
 1403 0108 0320     		movs	r0, #3
 1404 010a FFF7FEFF 		bl	textEnlarge
 522:main.c        ****     textTransparent(RA8875_WHITE);
 1405              		.loc 1 522 0
 1406 010e 934B     		ldr	r3, .L60+28
 1407 0110 1800     		movs	r0, r3
 1408 0112 FFF7FEFF 		bl	textTransparent
 523:main.c        ****     textSetCursor(50,70);
 1409              		.loc 1 523 0
 1410 0116 4621     		movs	r1, #70
 1411 0118 3220     		movs	r0, #50
 1412 011a FFF7FEFF 		bl	textSetCursor
 524:main.c        ****     textWrite(modes,strlen(modes));
 1413              		.loc 1 524 0
 1414 011e 2823     		movs	r3, #40
 1415 0120 FB18     		adds	r3, r7, r3
 1416 0122 1800     		movs	r0, r3
 1417 0124 FFF7FEFF 		bl	strlen
 1418 0128 0300     		movs	r3, r0
 1419 012a 9AB2     		uxth	r2, r3
 1420 012c 2823     		movs	r3, #40
 1421 012e FB18     		adds	r3, r7, r3
 1422 0130 1100     		movs	r1, r2
 1423 0132 1800     		movs	r0, r3
 1424 0134 FFF7FEFF 		bl	textWrite
 525:main.c        ****     
 526:main.c        ****     GUIUpdateMode();
 1425              		.loc 1 526 0
 1426 0138 FFF7FEFF 		bl	GUIUpdateMode
 527:main.c        ****     textMode();
 1427              		.loc 1 527 0
 1428 013c FFF7FEFF 		bl	textMode
 528:main.c        ****     
 529:main.c        ****     // Info
 530:main.c        ****     fillRect(20,scr_height/2+120,
 1429              		.loc 1 530 0
 1430 0140 3B6D     		ldr	r3, [r7, #80]
ARM GAS  C:\Users\megan\AppData\Local\Temp\ccrMxWsc.s 			page 37


 1431 0142 002B     		cmp	r3, #0
 1432 0144 00DA     		bge	.L53
 1433 0146 0133     		adds	r3, r3, #1
 1434              	.L53:
 1435 0148 5B10     		asrs	r3, r3, #1
 1436 014a 9BB2     		uxth	r3, r3
 1437 014c 7833     		adds	r3, r3, #120
 1438 014e 9BB2     		uxth	r3, r3
 1439 0150 1CB2     		sxth	r4, r3
 531:main.c        ****             scr_width/3-40,scr_height/2-140,
 1440              		.loc 1 531 0
 1441 0152 7B6D     		ldr	r3, [r7, #84]
 1442 0154 0321     		movs	r1, #3
 1443 0156 1800     		movs	r0, r3
 1444 0158 FFF7FEFF 		bl	__aeabi_idiv
 1445 015c 0300     		movs	r3, r0
 530:main.c        ****             scr_width/3-40,scr_height/2-140,
 1446              		.loc 1 530 0
 1447 015e 9BB2     		uxth	r3, r3
 1448 0160 283B     		subs	r3, r3, #40
 1449 0162 9BB2     		uxth	r3, r3
 1450 0164 1AB2     		sxth	r2, r3
 1451              		.loc 1 531 0
 1452 0166 3B6D     		ldr	r3, [r7, #80]
 1453 0168 002B     		cmp	r3, #0
 1454 016a 00DA     		bge	.L54
 1455 016c 0133     		adds	r3, r3, #1
 1456              	.L54:
 1457 016e 5B10     		asrs	r3, r3, #1
 530:main.c        ****             scr_width/3-40,scr_height/2-140,
 1458              		.loc 1 530 0
 1459 0170 9BB2     		uxth	r3, r3
 1460 0172 8C3B     		subs	r3, r3, #140
 1461 0174 9BB2     		uxth	r3, r3
 1462 0176 19B2     		sxth	r1, r3
 1463 0178 1F23     		movs	r3, #31
 1464 017a 0093     		str	r3, [sp]
 1465 017c 0B00     		movs	r3, r1
 1466 017e 2100     		movs	r1, r4
 1467 0180 1420     		movs	r0, #20
 1468 0182 FFF7FEFF 		bl	fillRect
 532:main.c        ****             RA8875_BLUE);
 533:main.c        ****     textEnlarge(3);
 1469              		.loc 1 533 0
 1470 0186 0320     		movs	r0, #3
 1471 0188 FFF7FEFF 		bl	textEnlarge
 534:main.c        ****     textTransparent(RA8875_WHITE);
 1472              		.loc 1 534 0
 1473 018c 734B     		ldr	r3, .L60+28
 1474 018e 1800     		movs	r0, r3
 1475 0190 FFF7FEFF 		bl	textTransparent
 535:main.c        ****     textSetCursor(60,scr_height/2+135);
 1476              		.loc 1 535 0
 1477 0194 3B6D     		ldr	r3, [r7, #80]
 1478 0196 002B     		cmp	r3, #0
 1479 0198 00DA     		bge	.L55
 1480 019a 0133     		adds	r3, r3, #1
ARM GAS  C:\Users\megan\AppData\Local\Temp\ccrMxWsc.s 			page 38


 1481              	.L55:
 1482 019c 5B10     		asrs	r3, r3, #1
 1483 019e 9BB2     		uxth	r3, r3
 1484 01a0 8733     		adds	r3, r3, #135
 1485 01a2 9BB2     		uxth	r3, r3
 1486 01a4 1900     		movs	r1, r3
 1487 01a6 3C20     		movs	r0, #60
 1488 01a8 FFF7FEFF 		bl	textSetCursor
 536:main.c        ****     textWrite(info,strlen(info));
 1489              		.loc 1 536 0
 1490 01ac 1023     		movs	r3, #16
 1491 01ae FB18     		adds	r3, r7, r3
 1492 01b0 1800     		movs	r0, r3
 1493 01b2 FFF7FEFF 		bl	strlen
 1494 01b6 0300     		movs	r3, r0
 1495 01b8 9AB2     		uxth	r2, r3
 1496 01ba 1023     		movs	r3, #16
 1497 01bc FB18     		adds	r3, r7, r3
 1498 01be 1100     		movs	r1, r2
 1499 01c0 1800     		movs	r0, r3
 1500 01c2 FFF7FEFF 		bl	textWrite
 537:main.c        ****     
 538:main.c        ****     // Outside
 539:main.c        ****     fillRect(scr_width/3-20,70,
 1501              		.loc 1 539 0
 1502 01c6 7B6D     		ldr	r3, [r7, #84]
 1503 01c8 0321     		movs	r1, #3
 1504 01ca 1800     		movs	r0, r3
 1505 01cc FFF7FEFF 		bl	__aeabi_idiv
 1506 01d0 0300     		movs	r3, r0
 1507 01d2 9BB2     		uxth	r3, r3
 1508 01d4 143B     		subs	r3, r3, #20
 1509 01d6 9BB2     		uxth	r3, r3
 1510 01d8 1CB2     		sxth	r4, r3
 540:main.c        ****             scr_width/3,scr_height/2+50,
 1511              		.loc 1 540 0
 1512 01da 7B6D     		ldr	r3, [r7, #84]
 1513 01dc 0321     		movs	r1, #3
 1514 01de 1800     		movs	r0, r3
 1515 01e0 FFF7FEFF 		bl	__aeabi_idiv
 1516 01e4 0300     		movs	r3, r0
 539:main.c        ****             scr_width/3,scr_height/2+50,
 1517              		.loc 1 539 0
 1518 01e6 1AB2     		sxth	r2, r3
 1519              		.loc 1 540 0
 1520 01e8 3B6D     		ldr	r3, [r7, #80]
 1521 01ea 002B     		cmp	r3, #0
 1522 01ec 00DA     		bge	.L56
 1523 01ee 0133     		adds	r3, r3, #1
 1524              	.L56:
 1525 01f0 5B10     		asrs	r3, r3, #1
 539:main.c        ****             scr_width/3,scr_height/2+50,
 1526              		.loc 1 539 0
 1527 01f2 9BB2     		uxth	r3, r3
 1528 01f4 3233     		adds	r3, r3, #50
 1529 01f6 9BB2     		uxth	r3, r3
 1530 01f8 19B2     		sxth	r1, r3
ARM GAS  C:\Users\megan\AppData\Local\Temp\ccrMxWsc.s 			page 39


 1531 01fa 594B     		ldr	r3, .L60+32
 1532 01fc 0093     		str	r3, [sp]
 1533 01fe 0B00     		movs	r3, r1
 1534 0200 4621     		movs	r1, #70
 1535 0202 2000     		movs	r0, r4
 1536 0204 FFF7FEFF 		bl	fillRect
 541:main.c        ****             RA8875_CYAN);
 542:main.c        ****     textEnlarge(3);
 1537              		.loc 1 542 0
 1538 0208 0320     		movs	r0, #3
 1539 020a FFF7FEFF 		bl	textEnlarge
 543:main.c        ****     textTransparent(RA8875_BLACK);
 1540              		.loc 1 543 0
 1541 020e 0020     		movs	r0, #0
 1542 0210 FFF7FEFF 		bl	textTransparent
 544:main.c        ****     textSetCursor(scr_width/3,70);
 1543              		.loc 1 544 0
 1544 0214 7B6D     		ldr	r3, [r7, #84]
 1545 0216 0321     		movs	r1, #3
 1546 0218 1800     		movs	r0, r3
 1547 021a FFF7FEFF 		bl	__aeabi_idiv
 1548 021e 0300     		movs	r3, r0
 1549 0220 9BB2     		uxth	r3, r3
 1550 0222 4621     		movs	r1, #70
 1551 0224 1800     		movs	r0, r3
 1552 0226 FFF7FEFF 		bl	textSetCursor
 545:main.c        ****     textWrite(outside,strlen(outside));
 1553              		.loc 1 545 0
 1554 022a 0823     		movs	r3, #8
 1555 022c FB18     		adds	r3, r7, r3
 1556 022e 1800     		movs	r0, r3
 1557 0230 FFF7FEFF 		bl	strlen
 1558 0234 0300     		movs	r3, r0
 1559 0236 9AB2     		uxth	r2, r3
 1560 0238 0823     		movs	r3, #8
 1561 023a FB18     		adds	r3, r7, r3
 1562 023c 1100     		movs	r1, r2
 1563 023e 1800     		movs	r0, r3
 1564 0240 FFF7FEFF 		bl	textWrite
 546:main.c        ****     
 547:main.c        ****     GUIUpdateOutsideTemp();
 1565              		.loc 1 547 0
 1566 0244 FFF7FEFF 		bl	GUIUpdateOutsideTemp
 548:main.c        ****     textMode();
 1567              		.loc 1 548 0
 1568 0248 FFF7FEFF 		bl	textMode
 549:main.c        ****     
 550:main.c        ****     // Bin1
 551:main.c        ****     fillRect(2*scr_width/3-20,70,
 1569              		.loc 1 551 0
 1570 024c 7B6D     		ldr	r3, [r7, #84]
 1571 024e 5B00     		lsls	r3, r3, #1
 1572 0250 0321     		movs	r1, #3
 1573 0252 1800     		movs	r0, r3
 1574 0254 FFF7FEFF 		bl	__aeabi_idiv
 1575 0258 0300     		movs	r3, r0
 1576 025a 9BB2     		uxth	r3, r3
ARM GAS  C:\Users\megan\AppData\Local\Temp\ccrMxWsc.s 			page 40


 1577 025c 143B     		subs	r3, r3, #20
 1578 025e 9BB2     		uxth	r3, r3
 1579 0260 1CB2     		sxth	r4, r3
 552:main.c        ****             scr_width/3,scr_height/2+50,
 1580              		.loc 1 552 0
 1581 0262 7B6D     		ldr	r3, [r7, #84]
 1582 0264 0321     		movs	r1, #3
 1583 0266 1800     		movs	r0, r3
 1584 0268 FFF7FEFF 		bl	__aeabi_idiv
 1585 026c 0300     		movs	r3, r0
 551:main.c        ****             scr_width/3,scr_height/2+50,
 1586              		.loc 1 551 0
 1587 026e 1AB2     		sxth	r2, r3
 1588              		.loc 1 552 0
 1589 0270 3B6D     		ldr	r3, [r7, #80]
 1590 0272 002B     		cmp	r3, #0
 1591 0274 00DA     		bge	.L57
 1592 0276 0133     		adds	r3, r3, #1
 1593              	.L57:
 1594 0278 5B10     		asrs	r3, r3, #1
 551:main.c        ****             scr_width/3,scr_height/2+50,
 1595              		.loc 1 551 0
 1596 027a 9BB2     		uxth	r3, r3
 1597 027c 3233     		adds	r3, r3, #50
 1598 027e 9BB2     		uxth	r3, r3
 1599 0280 19B2     		sxth	r1, r3
 1600 0282 F823     		movs	r3, #248
 1601 0284 1B02     		lsls	r3, r3, #8
 1602 0286 0093     		str	r3, [sp]
 1603 0288 0B00     		movs	r3, r1
 1604 028a 4621     		movs	r1, #70
 1605 028c 2000     		movs	r0, r4
 1606 028e FFF7FEFF 		bl	fillRect
 553:main.c        ****             RA8875_RED);
 554:main.c        ****     textEnlarge(3);
 1607              		.loc 1 554 0
 1608 0292 0320     		movs	r0, #3
 1609 0294 FFF7FEFF 		bl	textEnlarge
 555:main.c        ****     textTransparent(RA8875_BLACK);
 1610              		.loc 1 555 0
 1611 0298 0020     		movs	r0, #0
 1612 029a FFF7FEFF 		bl	textTransparent
 556:main.c        ****     textSetCursor(2*scr_width/3+20,70);
 1613              		.loc 1 556 0
 1614 029e 7B6D     		ldr	r3, [r7, #84]
 1615 02a0 5B00     		lsls	r3, r3, #1
 1616 02a2 0321     		movs	r1, #3
 1617 02a4 1800     		movs	r0, r3
 1618 02a6 FFF7FEFF 		bl	__aeabi_idiv
 1619 02aa 0300     		movs	r3, r0
 1620 02ac 9BB2     		uxth	r3, r3
 1621 02ae 1433     		adds	r3, r3, #20
 1622 02b0 9BB2     		uxth	r3, r3
 1623 02b2 4621     		movs	r1, #70
 1624 02b4 1800     		movs	r0, r3
 1625 02b6 FFF7FEFF 		bl	textSetCursor
 557:main.c        ****     textWrite(binno1,strlen(binno1));
ARM GAS  C:\Users\megan\AppData\Local\Temp\ccrMxWsc.s 			page 41


 1626              		.loc 1 557 0
 1627 02ba 3B00     		movs	r3, r7
 1628 02bc 1800     		movs	r0, r3
 1629 02be FFF7FEFF 		bl	strlen
 1630 02c2 0300     		movs	r3, r0
 1631 02c4 9AB2     		uxth	r2, r3
 1632 02c6 3B00     		movs	r3, r7
 1633 02c8 1100     		movs	r1, r2
 1634 02ca 1800     		movs	r0, r3
 1635 02cc FFF7FEFF 		bl	textWrite
 558:main.c        ****     
 559:main.c        ****     GUIUpdateBin1ActualTemp();
 1636              		.loc 1 559 0
 1637 02d0 FFF7FEFF 		bl	GUIUpdateBin1ActualTemp
 560:main.c        ****     textMode();
 1638              		.loc 1 560 0
 1639 02d4 FFF7FEFF 		bl	textMode
 561:main.c        ****     
 562:main.c        ****     // Controls
 563:main.c        ****     fillRect(scr_width/3-20,scr_height/2+120,
 1640              		.loc 1 563 0
 1641 02d8 7B6D     		ldr	r3, [r7, #84]
 1642 02da 0321     		movs	r1, #3
 1643 02dc 1800     		movs	r0, r3
 1644 02de FFF7FEFF 		bl	__aeabi_idiv
 1645 02e2 0300     		movs	r3, r0
 1646 02e4 9BB2     		uxth	r3, r3
 1647 02e6 143B     		subs	r3, r3, #20
 1648 02e8 9BB2     		uxth	r3, r3
 1649 02ea 1CB2     		sxth	r4, r3
 1650 02ec 3B6D     		ldr	r3, [r7, #80]
 1651 02ee 002B     		cmp	r3, #0
 1652 02f0 00DA     		bge	.L58
 1653 02f2 0133     		adds	r3, r3, #1
 1654              	.L58:
 1655 02f4 5B10     		asrs	r3, r3, #1
 1656 02f6 9BB2     		uxth	r3, r3
 1657 02f8 7833     		adds	r3, r3, #120
 1658 02fa 9BB2     		uxth	r3, r3
 1659 02fc 1DB2     		sxth	r5, r3
 564:main.c        ****             2*scr_width/3,scr_height/2-140,
 1660              		.loc 1 564 0
 1661 02fe 7B6D     		ldr	r3, [r7, #84]
 1662 0300 5B00     		lsls	r3, r3, #1
 1663 0302 0321     		movs	r1, #3
 1664 0304 1800     		movs	r0, r3
 1665 0306 FFF7FEFF 		bl	__aeabi_idiv
 1666 030a 0300     		movs	r3, r0
 563:main.c        ****             2*scr_width/3,scr_height/2-140,
 1667              		.loc 1 563 0
 1668 030c 1AB2     		sxth	r2, r3
 1669              		.loc 1 564 0
 1670 030e 3B6D     		ldr	r3, [r7, #80]
 1671 0310 002B     		cmp	r3, #0
 1672 0312 00DA     		bge	.L59
 1673 0314 0133     		adds	r3, r3, #1
 1674              	.L59:
ARM GAS  C:\Users\megan\AppData\Local\Temp\ccrMxWsc.s 			page 42


 1675 0316 5B10     		asrs	r3, r3, #1
 563:main.c        ****             2*scr_width/3,scr_height/2-140,
 1676              		.loc 1 563 0
 1677 0318 9BB2     		uxth	r3, r3
 1678 031a 8C3B     		subs	r3, r3, #140
 1679 031c 9BB2     		uxth	r3, r3
 1680 031e 19B2     		sxth	r1, r3
 1681 0320 104B     		ldr	r3, .L60+36
 1682 0322 0093     		str	r3, [sp]
 1683 0324 0B00     		movs	r3, r1
 1684 0326 2900     		movs	r1, r5
 1685 0328 2000     		movs	r0, r4
 1686 032a FFF7FEFF 		bl	fillRect
 565:main.c        ****             RA8875_YELLOW);    
 566:main.c        **** 
 567:main.c        ****     GUIUpdateControls();
 1687              		.loc 1 567 0
 1688 032e FFF7FEFF 		bl	GUIUpdateControls
 568:main.c        ****     
 569:main.c        ****     // Enable touch
 570:main.c        ****     graphicsMode();
 1689              		.loc 1 570 0
 1690 0332 FFF7FEFF 		bl	graphicsMode
 571:main.c        **** }
 1691              		.loc 1 571 0
 1692 0336 C046     		nop
 1693 0338 BD46     		mov	sp, r7
 1694 033a 16B0     		add	sp, sp, #88
 1695              		@ sp needed
 1696 033c B0BD     		pop	{r4, r5, r7, pc}
 1697              	.L61:
 1698 033e C046     		.align	2
 1699              	.L60:
 1700 0340 FC000000 		.word	.LC43
 1701 0344 1C010000 		.word	.LC45
 1702 0348 24010000 		.word	.LC47
 1703 034c 2C010000 		.word	.LC49
 1704 0350 34010000 		.word	.LC51
 1705 0354 3C010000 		.word	.LC53
 1706 0358 44010000 		.word	.LC55
 1707 035c FFFF0000 		.word	65535
 1708 0360 FF070000 		.word	2047
 1709 0364 E0FF0000 		.word	65504
 1710              		.cfi_endproc
 1711              	.LFE43:
 1712              		.size	GUIInit, .-GUIInit
 1713              		.section	.text.GUIUpdateMode,"ax",%progbits
 1714              		.align	2
 1715              		.global	GUIUpdateMode
 1716              		.code	16
 1717              		.thumb_func
 1718              		.type	GUIUpdateMode, %function
 1719              	GUIUpdateMode:
 1720              	.LFB44:
 572:main.c        **** 
 573:main.c        **** void GUIUpdateMode() {
 1721              		.loc 1 573 0
ARM GAS  C:\Users\megan\AppData\Local\Temp\ccrMxWsc.s 			page 43


 1722              		.cfi_startproc
 1723              		@ args = 0, pretend = 0, frame = 32
 1724              		@ frame_needed = 1, uses_anonymous_args = 0
 1725 0000 80B5     		push	{r7, lr}
 1726              		.cfi_def_cfa_offset 8
 1727              		.cfi_offset 7, -8
 1728              		.cfi_offset 14, -4
 1729 0002 8AB0     		sub	sp, sp, #40
 1730              		.cfi_def_cfa_offset 48
 1731 0004 02AF     		add	r7, sp, #8
 1732              		.cfi_def_cfa 7, 40
 574:main.c        ****     
 575:main.c        ****     // LCD Strings
 576:main.c        ****     char modes[] = "Modes";
 1733              		.loc 1 576 0
 1734 0006 1023     		movs	r3, #16
 1735 0008 FB18     		adds	r3, r7, r3
 1736 000a 5C4A     		ldr	r2, .L65
 1737 000c 1168     		ldr	r1, [r2]
 1738 000e 1960     		str	r1, [r3]
 1739 0010 9288     		ldrh	r2, [r2, #4]
 1740 0012 9A80     		strh	r2, [r3, #4]
 577:main.c        ****     char manual[] = "Manual";
 1741              		.loc 1 577 0
 1742 0014 0823     		movs	r3, #8
 1743 0016 FB18     		adds	r3, r7, r3
 1744 0018 594A     		ldr	r2, .L65+4
 1745 001a 1168     		ldr	r1, [r2]
 1746 001c 1960     		str	r1, [r3]
 1747 001e 9188     		ldrh	r1, [r2, #4]
 1748 0020 9980     		strh	r1, [r3, #4]
 1749 0022 9279     		ldrb	r2, [r2, #6]
 1750 0024 9A71     		strb	r2, [r3, #6]
 578:main.c        ****     char automatic[] = "Auto";
 1751              		.loc 1 578 0
 1752 0026 3B00     		movs	r3, r7
 1753 0028 564A     		ldr	r2, .L65+8
 1754 002a 1168     		ldr	r1, [r2]
 1755 002c 1960     		str	r1, [r3]
 1756 002e 1279     		ldrb	r2, [r2, #4]
 1757 0030 1A71     		strb	r2, [r3, #4]
 579:main.c        ****     
 580:main.c        ****     int scr_width = 800;
 1758              		.loc 1 580 0
 1759 0032 C823     		movs	r3, #200
 1760 0034 9B00     		lsls	r3, r3, #2
 1761 0036 FB61     		str	r3, [r7, #28]
 581:main.c        ****     int scr_height = 480;
 1762              		.loc 1 581 0
 1763 0038 F023     		movs	r3, #240
 1764 003a 5B00     		lsls	r3, r3, #1
 1765 003c BB61     		str	r3, [r7, #24]
 582:main.c        ****     
 583:main.c        ****     textMode();
 1766              		.loc 1 583 0
 1767 003e FFF7FEFF 		bl	textMode
 584:main.c        **** //    fillRect(20,70,
ARM GAS  C:\Users\megan\AppData\Local\Temp\ccrMxWsc.s 			page 44


 585:main.c        **** //            scr_width/3-40,scr_height/2+50,
 586:main.c        **** //            RA8875_BLACK);
 587:main.c        **** //    textEnlarge(3);
 588:main.c        **** //    textTransparent(RA8875_WHITE);
 589:main.c        **** //    textSetCursor(50,70);
 590:main.c        **** //    textWrite(modes,strlen(modes));
 591:main.c        ****     
 592:main.c        ****     fillRect(20,150,
 593:main.c        ****             scr_width/3-40,200,
 1768              		.loc 1 593 0
 1769 0042 FB69     		ldr	r3, [r7, #28]
 1770 0044 0321     		movs	r1, #3
 1771 0046 1800     		movs	r0, r3
 1772 0048 FFF7FEFF 		bl	__aeabi_idiv
 1773 004c 0300     		movs	r3, r0
 592:main.c        ****             scr_width/3-40,200,
 1774              		.loc 1 592 0
 1775 004e 9BB2     		uxth	r3, r3
 1776 0050 283B     		subs	r3, r3, #40
 1777 0052 9BB2     		uxth	r3, r3
 1778 0054 1AB2     		sxth	r2, r3
 1779 0056 0023     		movs	r3, #0
 1780 0058 0093     		str	r3, [sp]
 1781 005a C823     		movs	r3, #200
 1782 005c 9621     		movs	r1, #150
 1783 005e 1420     		movs	r0, #20
 1784 0060 FFF7FEFF 		bl	fillRect
 594:main.c        ****             RA8875_BLACK);
 595:main.c        ****     
 596:main.c        ****     if (settings.mode == MANUAL) {
 1785              		.loc 1 596 0
 1786 0064 484B     		ldr	r3, .L65+12
 1787 0066 1B78     		ldrb	r3, [r3]
 1788 0068 002B     		cmp	r3, #0
 1789 006a 3DD1     		bne	.L63
 597:main.c        ****         fillRect(40,170,
 1790              		.loc 1 597 0
 1791 006c 474B     		ldr	r3, .L65+16
 1792 006e 0093     		str	r3, [sp]
 1793 0070 3C23     		movs	r3, #60
 1794 0072 B422     		movs	r2, #180
 1795 0074 AA21     		movs	r1, #170
 1796 0076 2820     		movs	r0, #40
 1797 0078 FFF7FEFF 		bl	fillRect
 598:main.c        ****             180,60,
 599:main.c        ****             RA8875_WHITE);
 600:main.c        ****         textEnlarge(2);
 1798              		.loc 1 600 0
 1799 007c 0220     		movs	r0, #2
 1800 007e FFF7FEFF 		bl	textEnlarge
 601:main.c        ****         textTransparent(RA8875_BLACK);
 1801              		.loc 1 601 0
 1802 0082 0020     		movs	r0, #0
 1803 0084 FFF7FEFF 		bl	textTransparent
 602:main.c        ****         textSetCursor(60,175);
 1804              		.loc 1 602 0
 1805 0088 AF21     		movs	r1, #175
ARM GAS  C:\Users\megan\AppData\Local\Temp\ccrMxWsc.s 			page 45


 1806 008a 3C20     		movs	r0, #60
 1807 008c FFF7FEFF 		bl	textSetCursor
 603:main.c        ****         textWrite(manual,strlen(manual));
 1808              		.loc 1 603 0
 1809 0090 0823     		movs	r3, #8
 1810 0092 FB18     		adds	r3, r7, r3
 1811 0094 1800     		movs	r0, r3
 1812 0096 FFF7FEFF 		bl	strlen
 1813 009a 0300     		movs	r3, r0
 1814 009c 9AB2     		uxth	r2, r3
 1815 009e 0823     		movs	r3, #8
 1816 00a0 FB18     		adds	r3, r7, r3
 1817 00a2 1100     		movs	r1, r2
 1818 00a4 1800     		movs	r0, r3
 1819 00a6 FFF7FEFF 		bl	textWrite
 604:main.c        ****         drawRect(40,270,
 1820              		.loc 1 604 0
 1821 00aa 8723     		movs	r3, #135
 1822 00ac 5900     		lsls	r1, r3, #1
 1823 00ae 374B     		ldr	r3, .L65+16
 1824 00b0 0093     		str	r3, [sp]
 1825 00b2 3C23     		movs	r3, #60
 1826 00b4 B422     		movs	r2, #180
 1827 00b6 2820     		movs	r0, #40
 1828 00b8 FFF7FEFF 		bl	drawRect
 605:main.c        ****                 180,60,
 606:main.c        ****                 RA8875_WHITE);
 607:main.c        ****         textTransparent(RA8875_WHITE);
 1829              		.loc 1 607 0
 1830 00bc 334B     		ldr	r3, .L65+16
 1831 00be 1800     		movs	r0, r3
 1832 00c0 FFF7FEFF 		bl	textTransparent
 608:main.c        ****         textSetCursor(80,275);
 1833              		.loc 1 608 0
 1834 00c4 1423     		movs	r3, #20
 1835 00c6 FF33     		adds	r3, r3, #255
 1836 00c8 1900     		movs	r1, r3
 1837 00ca 5020     		movs	r0, #80
 1838 00cc FFF7FEFF 		bl	textSetCursor
 609:main.c        ****         textWrite(automatic,strlen(automatic));
 1839              		.loc 1 609 0
 1840 00d0 3B00     		movs	r3, r7
 1841 00d2 1800     		movs	r0, r3
 1842 00d4 FFF7FEFF 		bl	strlen
 1843 00d8 0300     		movs	r3, r0
 1844 00da 9AB2     		uxth	r2, r3
 1845 00dc 3B00     		movs	r3, r7
 1846 00de 1100     		movs	r1, r2
 1847 00e0 1800     		movs	r0, r3
 1848 00e2 FFF7FEFF 		bl	textWrite
 1849 00e6 40E0     		b	.L64
 1850              	.L63:
 610:main.c        ****     }  
 611:main.c        ****     else if (settings.mode == AUTOMATIC) {
 1851              		.loc 1 611 0
 1852 00e8 274B     		ldr	r3, .L65+12
 1853 00ea 1B78     		ldrb	r3, [r3]
ARM GAS  C:\Users\megan\AppData\Local\Temp\ccrMxWsc.s 			page 46


 1854 00ec 012B     		cmp	r3, #1
 1855 00ee 3CD1     		bne	.L64
 612:main.c        ****         drawRect(40,170,
 1856              		.loc 1 612 0
 1857 00f0 264B     		ldr	r3, .L65+16
 1858 00f2 0093     		str	r3, [sp]
 1859 00f4 3C23     		movs	r3, #60
 1860 00f6 B422     		movs	r2, #180
 1861 00f8 AA21     		movs	r1, #170
 1862 00fa 2820     		movs	r0, #40
 1863 00fc FFF7FEFF 		bl	drawRect
 613:main.c        ****             180,60,
 614:main.c        ****             RA8875_WHITE);
 615:main.c        ****         textEnlarge(2);
 1864              		.loc 1 615 0
 1865 0100 0220     		movs	r0, #2
 1866 0102 FFF7FEFF 		bl	textEnlarge
 616:main.c        ****         textTransparent(RA8875_WHITE);
 1867              		.loc 1 616 0
 1868 0106 214B     		ldr	r3, .L65+16
 1869 0108 1800     		movs	r0, r3
 1870 010a FFF7FEFF 		bl	textTransparent
 617:main.c        ****         textSetCursor(60,175);
 1871              		.loc 1 617 0
 1872 010e AF21     		movs	r1, #175
 1873 0110 3C20     		movs	r0, #60
 1874 0112 FFF7FEFF 		bl	textSetCursor
 618:main.c        ****         textWrite(manual,strlen(manual));
 1875              		.loc 1 618 0
 1876 0116 0823     		movs	r3, #8
 1877 0118 FB18     		adds	r3, r7, r3
 1878 011a 1800     		movs	r0, r3
 1879 011c FFF7FEFF 		bl	strlen
 1880 0120 0300     		movs	r3, r0
 1881 0122 9AB2     		uxth	r2, r3
 1882 0124 0823     		movs	r3, #8
 1883 0126 FB18     		adds	r3, r7, r3
 1884 0128 1100     		movs	r1, r2
 1885 012a 1800     		movs	r0, r3
 1886 012c FFF7FEFF 		bl	textWrite
 619:main.c        ****         fillRect(40,270,
 1887              		.loc 1 619 0
 1888 0130 8723     		movs	r3, #135
 1889 0132 5900     		lsls	r1, r3, #1
 1890 0134 154B     		ldr	r3, .L65+16
 1891 0136 0093     		str	r3, [sp]
 1892 0138 3C23     		movs	r3, #60
 1893 013a B422     		movs	r2, #180
 1894 013c 2820     		movs	r0, #40
 1895 013e FFF7FEFF 		bl	fillRect
 620:main.c        ****                 180,60,
 621:main.c        ****                 RA8875_WHITE);
 622:main.c        ****         textTransparent(RA8875_BLACK);
 1896              		.loc 1 622 0
 1897 0142 0020     		movs	r0, #0
 1898 0144 FFF7FEFF 		bl	textTransparent
 623:main.c        ****         textSetCursor(80,275);
ARM GAS  C:\Users\megan\AppData\Local\Temp\ccrMxWsc.s 			page 47


 1899              		.loc 1 623 0
 1900 0148 1423     		movs	r3, #20
 1901 014a FF33     		adds	r3, r3, #255
 1902 014c 1900     		movs	r1, r3
 1903 014e 5020     		movs	r0, #80
 1904 0150 FFF7FEFF 		bl	textSetCursor
 624:main.c        ****         textWrite(automatic,strlen(automatic));
 1905              		.loc 1 624 0
 1906 0154 3B00     		movs	r3, r7
 1907 0156 1800     		movs	r0, r3
 1908 0158 FFF7FEFF 		bl	strlen
 1909 015c 0300     		movs	r3, r0
 1910 015e 9AB2     		uxth	r2, r3
 1911 0160 3B00     		movs	r3, r7
 1912 0162 1100     		movs	r1, r2
 1913 0164 1800     		movs	r0, r3
 1914 0166 FFF7FEFF 		bl	textWrite
 1915              	.L64:
 625:main.c        ****     }
 626:main.c        ****     GUIUpdateControls();
 1916              		.loc 1 626 0
 1917 016a FFF7FEFF 		bl	GUIUpdateControls
 627:main.c        ****     graphicsMode();
 1918              		.loc 1 627 0
 1919 016e FFF7FEFF 		bl	graphicsMode
 628:main.c        **** }
 1920              		.loc 1 628 0
 1921 0172 C046     		nop
 1922 0174 BD46     		mov	sp, r7
 1923 0176 08B0     		add	sp, sp, #32
 1924              		@ sp needed
 1925 0178 80BD     		pop	{r7, pc}
 1926              	.L66:
 1927 017a C046     		.align	2
 1928              	.L65:
 1929 017c 1C010000 		.word	.LC45
 1930 0180 24010000 		.word	.LC47
 1931 0184 2C010000 		.word	.LC49
 1932 0188 00000000 		.word	settings
 1933 018c FFFF0000 		.word	65535
 1934              		.cfi_endproc
 1935              	.LFE44:
 1936              		.size	GUIUpdateMode, .-GUIUpdateMode
 1937              		.section	.text.GUIUpdateBin1ActualTemp,"ax",%progbits
 1938              		.align	2
 1939              		.global	GUIUpdateBin1ActualTemp
 1940              		.code	16
 1941              		.thumb_func
 1942              		.type	GUIUpdateBin1ActualTemp, %function
 1943              	GUIUpdateBin1ActualTemp:
 1944              	.LFB45:
 629:main.c        **** 
 630:main.c        **** void GUIUpdateBin1ActualTemp() {
 1945              		.loc 1 630 0
 1946              		.cfi_startproc
 1947              		@ args = 0, pretend = 0, frame = 8
 1948              		@ frame_needed = 1, uses_anonymous_args = 0
ARM GAS  C:\Users\megan\AppData\Local\Temp\ccrMxWsc.s 			page 48


 1949 0000 80B5     		push	{r7, lr}
 1950              		.cfi_def_cfa_offset 8
 1951              		.cfi_offset 7, -8
 1952              		.cfi_offset 14, -4
 1953 0002 82B0     		sub	sp, sp, #8
 1954              		.cfi_def_cfa_offset 16
 1955 0004 00AF     		add	r7, sp, #0
 1956              		.cfi_def_cfa_register 7
 631:main.c        ****     
 632:main.c        ****     char space[] = " ";
 1957              		.loc 1 632 0
 1958 0006 3B00     		movs	r3, r7
 1959 0008 2022     		movs	r2, #32
 1960 000a 1A80     		strh	r2, [r3]
 633:main.c        ****     int scr_width = 800;
 1961              		.loc 1 633 0
 1962 000c C823     		movs	r3, #200
 1963 000e 9B00     		lsls	r3, r3, #2
 1964 0010 7B60     		str	r3, [r7, #4]
 634:main.c        ****     
 635:main.c        ****     textMode();
 1965              		.loc 1 635 0
 1966 0012 FFF7FEFF 		bl	textMode
 636:main.c        ****     textEnlarge(4);
 1967              		.loc 1 636 0
 1968 0016 0420     		movs	r0, #4
 1969 0018 FFF7FEFF 		bl	textEnlarge
 637:main.c        ****     textColor(RA8875_BLACK,RA8875_RED);
 1970              		.loc 1 637 0
 1971 001c F823     		movs	r3, #248
 1972 001e 1B02     		lsls	r3, r3, #8
 1973 0020 1900     		movs	r1, r3
 1974 0022 0020     		movs	r0, #0
 1975 0024 FFF7FEFF 		bl	textColor
 638:main.c        ****     textSetCursor(2*scr_width/3+50,170);
 1976              		.loc 1 638 0
 1977 0028 7B68     		ldr	r3, [r7, #4]
 1978 002a 5B00     		lsls	r3, r3, #1
 1979 002c 0321     		movs	r1, #3
 1980 002e 1800     		movs	r0, r3
 1981 0030 FFF7FEFF 		bl	__aeabi_idiv
 1982 0034 0300     		movs	r3, r0
 1983 0036 9BB2     		uxth	r3, r3
 1984 0038 3233     		adds	r3, r3, #50
 1985 003a 9BB2     		uxth	r3, r3
 1986 003c AA21     		movs	r1, #170
 1987 003e 1800     		movs	r0, r3
 1988 0040 FFF7FEFF 		bl	textSetCursor
 639:main.c        ****     PrintFloat(bin1.actual_temp);
 1989              		.loc 1 639 0
 1990 0044 0A4B     		ldr	r3, .L68
 1991 0046 1B68     		ldr	r3, [r3]
 1992 0048 181C     		adds	r0, r3, #0
 1993 004a FFF7FEFF 		bl	PrintFloat
 640:main.c        ****     textWrite(space,strlen(space));
 1994              		.loc 1 640 0
 1995 004e 3B00     		movs	r3, r7
ARM GAS  C:\Users\megan\AppData\Local\Temp\ccrMxWsc.s 			page 49


 1996 0050 1800     		movs	r0, r3
 1997 0052 FFF7FEFF 		bl	strlen
 1998 0056 0300     		movs	r3, r0
 1999 0058 9AB2     		uxth	r2, r3
 2000 005a 3B00     		movs	r3, r7
 2001 005c 1100     		movs	r1, r2
 2002 005e 1800     		movs	r0, r3
 2003 0060 FFF7FEFF 		bl	textWrite
 641:main.c        ****     graphicsMode();
 2004              		.loc 1 641 0
 2005 0064 FFF7FEFF 		bl	graphicsMode
 642:main.c        **** }
 2006              		.loc 1 642 0
 2007 0068 C046     		nop
 2008 006a BD46     		mov	sp, r7
 2009 006c 02B0     		add	sp, sp, #8
 2010              		@ sp needed
 2011 006e 80BD     		pop	{r7, pc}
 2012              	.L69:
 2013              		.align	2
 2014              	.L68:
 2015 0070 00000000 		.word	bin1
 2016              		.cfi_endproc
 2017              	.LFE45:
 2018              		.size	GUIUpdateBin1ActualTemp, .-GUIUpdateBin1ActualTemp
 2019              		.section	.text.GUIUpdateOutsideTemp,"ax",%progbits
 2020              		.align	2
 2021              		.global	GUIUpdateOutsideTemp
 2022              		.code	16
 2023              		.thumb_func
 2024              		.type	GUIUpdateOutsideTemp, %function
 2025              	GUIUpdateOutsideTemp:
 2026              	.LFB46:
 643:main.c        **** 
 644:main.c        **** void GUIUpdateOutsideTemp() {
 2027              		.loc 1 644 0
 2028              		.cfi_startproc
 2029              		@ args = 0, pretend = 0, frame = 8
 2030              		@ frame_needed = 1, uses_anonymous_args = 0
 2031 0000 80B5     		push	{r7, lr}
 2032              		.cfi_def_cfa_offset 8
 2033              		.cfi_offset 7, -8
 2034              		.cfi_offset 14, -4
 2035 0002 82B0     		sub	sp, sp, #8
 2036              		.cfi_def_cfa_offset 16
 2037 0004 00AF     		add	r7, sp, #0
 2038              		.cfi_def_cfa_register 7
 645:main.c        ****     
 646:main.c        ****     char space[] = " ";
 2039              		.loc 1 646 0
 2040 0006 3B00     		movs	r3, r7
 2041 0008 2022     		movs	r2, #32
 2042 000a 1A80     		strh	r2, [r3]
 647:main.c        ****     int scr_width = 800;
 2043              		.loc 1 647 0
 2044 000c C823     		movs	r3, #200
 2045 000e 9B00     		lsls	r3, r3, #2
ARM GAS  C:\Users\megan\AppData\Local\Temp\ccrMxWsc.s 			page 50


 2046 0010 7B60     		str	r3, [r7, #4]
 648:main.c        **** 
 649:main.c        ****     
 650:main.c        ****     textMode();
 2047              		.loc 1 650 0
 2048 0012 FFF7FEFF 		bl	textMode
 651:main.c        ****     textEnlarge(4);
 2049              		.loc 1 651 0
 2050 0016 0420     		movs	r0, #4
 2051 0018 FFF7FEFF 		bl	textEnlarge
 652:main.c        ****     textColor(RA8875_BLACK,RA8875_CYAN);
 2052              		.loc 1 652 0
 2053 001c 134B     		ldr	r3, .L71
 2054 001e 1900     		movs	r1, r3
 2055 0020 0020     		movs	r0, #0
 2056 0022 FFF7FEFF 		bl	textColor
 653:main.c        ****     textSetCursor(scr_width/3+50,170);
 2057              		.loc 1 653 0
 2058 0026 7B68     		ldr	r3, [r7, #4]
 2059 0028 0321     		movs	r1, #3
 2060 002a 1800     		movs	r0, r3
 2061 002c FFF7FEFF 		bl	__aeabi_idiv
 2062 0030 0300     		movs	r3, r0
 2063 0032 9BB2     		uxth	r3, r3
 2064 0034 3233     		adds	r3, r3, #50
 2065 0036 9BB2     		uxth	r3, r3
 2066 0038 AA21     		movs	r1, #170
 2067 003a 1800     		movs	r0, r3
 2068 003c FFF7FEFF 		bl	textSetCursor
 654:main.c        ****     PrintFloat(outside.temp);
 2069              		.loc 1 654 0
 2070 0040 0B4B     		ldr	r3, .L71+4
 2071 0042 1B68     		ldr	r3, [r3]
 2072 0044 181C     		adds	r0, r3, #0
 2073 0046 FFF7FEFF 		bl	PrintFloat
 655:main.c        ****     textWrite(space,strlen(space));
 2074              		.loc 1 655 0
 2075 004a 3B00     		movs	r3, r7
 2076 004c 1800     		movs	r0, r3
 2077 004e FFF7FEFF 		bl	strlen
 2078 0052 0300     		movs	r3, r0
 2079 0054 9AB2     		uxth	r2, r3
 2080 0056 3B00     		movs	r3, r7
 2081 0058 1100     		movs	r1, r2
 2082 005a 1800     		movs	r0, r3
 2083 005c FFF7FEFF 		bl	textWrite
 656:main.c        ****     graphicsMode();
 2084              		.loc 1 656 0
 2085 0060 FFF7FEFF 		bl	graphicsMode
 657:main.c        **** }
 2086              		.loc 1 657 0
 2087 0064 C046     		nop
 2088 0066 BD46     		mov	sp, r7
 2089 0068 02B0     		add	sp, sp, #8
 2090              		@ sp needed
 2091 006a 80BD     		pop	{r7, pc}
 2092              	.L72:
ARM GAS  C:\Users\megan\AppData\Local\Temp\ccrMxWsc.s 			page 51


 2093              		.align	2
 2094              	.L71:
 2095 006c FF070000 		.word	2047
 2096 0070 00000000 		.word	outside
 2097              		.cfi_endproc
 2098              	.LFE46:
 2099              		.size	GUIUpdateOutsideTemp, .-GUIUpdateOutsideTemp
 2100              		.section	.rodata
 2101 014b 00       		.align	2
 2102              	.LC63:
 2103 014c 4F4E00   		.ascii	"ON\000"
 2104 014f 00       		.align	2
 2105              	.LC65:
 2106 0150 46616E73 		.ascii	"Fans\000"
 2106      00
 2107              		.section	.text.GUIUpdateControls,"ax",%progbits
 2108              		.align	2
 2109              		.global	GUIUpdateControls
 2110              		.code	16
 2111              		.thumb_func
 2112              		.type	GUIUpdateControls, %function
 2113              	GUIUpdateControls:
 2114              	.LFB47:
 658:main.c        **** 
 659:main.c        **** void GUIUpdateControls() {
 2115              		.loc 1 659 0
 2116              		.cfi_startproc
 2117              		@ args = 0, pretend = 0, frame = 24
 2118              		@ frame_needed = 1, uses_anonymous_args = 0
 2119 0000 B0B5     		push	{r4, r5, r7, lr}
 2120              		.cfi_def_cfa_offset 16
 2121              		.cfi_offset 4, -16
 2122              		.cfi_offset 5, -12
 2123              		.cfi_offset 7, -8
 2124              		.cfi_offset 14, -4
 2125 0002 88B0     		sub	sp, sp, #32
 2126              		.cfi_def_cfa_offset 48
 2127 0004 02AF     		add	r7, sp, #8
 2128              		.cfi_def_cfa 7, 40
 660:main.c        ****     
 661:main.c        ****     // LCD Strings
 662:main.c        ****     char on[] = "ON";
 2129              		.loc 1 662 0
 2130 0006 0C23     		movs	r3, #12
 2131 0008 FB18     		adds	r3, r7, r3
 2132 000a C14A     		ldr	r2, .L89
 2133 000c 1188     		ldrh	r1, [r2]
 2134 000e 1980     		strh	r1, [r3]
 2135 0010 9278     		ldrb	r2, [r2, #2]
 2136 0012 9A70     		strb	r2, [r3, #2]
 663:main.c        ****     char off[] = "OFF";
 2137              		.loc 1 663 0
 2138 0014 0823     		movs	r3, #8
 2139 0016 FB18     		adds	r3, r7, r3
 2140 0018 BE4A     		ldr	r2, .L89+4
 2141 001a 1A60     		str	r2, [r3]
 664:main.c        ****     char fans[] = "Fans";
ARM GAS  C:\Users\megan\AppData\Local\Temp\ccrMxWsc.s 			page 52


 2142              		.loc 1 664 0
 2143 001c 3B00     		movs	r3, r7
 2144 001e BE4A     		ldr	r2, .L89+8
 2145 0020 1168     		ldr	r1, [r2]
 2146 0022 1960     		str	r1, [r3]
 2147 0024 1279     		ldrb	r2, [r2, #4]
 2148 0026 1A71     		strb	r2, [r3, #4]
 665:main.c        ****     
 666:main.c        ****     int scr_width = 800;
 2149              		.loc 1 666 0
 2150 0028 C823     		movs	r3, #200
 2151 002a 9B00     		lsls	r3, r3, #2
 2152 002c 7B61     		str	r3, [r7, #20]
 667:main.c        ****     int scr_height = 480;
 2153              		.loc 1 667 0
 2154 002e F023     		movs	r3, #240
 2155 0030 5B00     		lsls	r3, r3, #1
 2156 0032 3B61     		str	r3, [r7, #16]
 668:main.c        ****     
 669:main.c        ****     
 670:main.c        ****     textMode();
 2157              		.loc 1 670 0
 2158 0034 FFF7FEFF 		bl	textMode
 671:main.c        ****     
 672:main.c        ****     // Controls
 673:main.c        ****     fillRect(scr_width/3-20,scr_height/2+120,
 2159              		.loc 1 673 0
 2160 0038 7B69     		ldr	r3, [r7, #20]
 2161 003a 0321     		movs	r1, #3
 2162 003c 1800     		movs	r0, r3
 2163 003e FFF7FEFF 		bl	__aeabi_idiv
 2164 0042 0300     		movs	r3, r0
 2165 0044 9BB2     		uxth	r3, r3
 2166 0046 143B     		subs	r3, r3, #20
 2167 0048 9BB2     		uxth	r3, r3
 2168 004a 1CB2     		sxth	r4, r3
 2169 004c 3B69     		ldr	r3, [r7, #16]
 2170 004e 002B     		cmp	r3, #0
 2171 0050 00DA     		bge	.L74
 2172 0052 0133     		adds	r3, r3, #1
 2173              	.L74:
 2174 0054 5B10     		asrs	r3, r3, #1
 2175 0056 9BB2     		uxth	r3, r3
 2176 0058 7833     		adds	r3, r3, #120
 2177 005a 9BB2     		uxth	r3, r3
 2178 005c 1DB2     		sxth	r5, r3
 674:main.c        ****             2*scr_width/3,scr_height/2-140,
 2179              		.loc 1 674 0
 2180 005e 7B69     		ldr	r3, [r7, #20]
 2181 0060 5B00     		lsls	r3, r3, #1
 2182 0062 0321     		movs	r1, #3
 2183 0064 1800     		movs	r0, r3
 2184 0066 FFF7FEFF 		bl	__aeabi_idiv
 2185 006a 0300     		movs	r3, r0
 673:main.c        ****             2*scr_width/3,scr_height/2-140,
 2186              		.loc 1 673 0
 2187 006c 1AB2     		sxth	r2, r3
ARM GAS  C:\Users\megan\AppData\Local\Temp\ccrMxWsc.s 			page 53


 2188              		.loc 1 674 0
 2189 006e 3B69     		ldr	r3, [r7, #16]
 2190 0070 002B     		cmp	r3, #0
 2191 0072 00DA     		bge	.L75
 2192 0074 0133     		adds	r3, r3, #1
 2193              	.L75:
 2194 0076 5B10     		asrs	r3, r3, #1
 673:main.c        ****             2*scr_width/3,scr_height/2-140,
 2195              		.loc 1 673 0
 2196 0078 9BB2     		uxth	r3, r3
 2197 007a 8C3B     		subs	r3, r3, #140
 2198 007c 9BB2     		uxth	r3, r3
 2199 007e 19B2     		sxth	r1, r3
 2200 0080 A64B     		ldr	r3, .L89+12
 2201 0082 0093     		str	r3, [sp]
 2202 0084 0B00     		movs	r3, r1
 2203 0086 2900     		movs	r1, r5
 2204 0088 2000     		movs	r0, r4
 2205 008a FFF7FEFF 		bl	fillRect
 675:main.c        ****             RA8875_YELLOW); 
 676:main.c        ****     
 677:main.c        ****     if (settings.mode == MANUAL) {
 2206              		.loc 1 677 0
 2207 008e A44B     		ldr	r3, .L89+16
 2208 0090 1B78     		ldrb	r3, [r3]
 2209 0092 002B     		cmp	r3, #0
 2210 0094 00D0     		beq	.LCB1773
 2211 0096 35E1     		b	.L88	@long jump
 2212              	.LCB1773:
 678:main.c        ****         textEnlarge(3);
 2213              		.loc 1 678 0
 2214 0098 0320     		movs	r0, #3
 2215 009a FFF7FEFF 		bl	textEnlarge
 679:main.c        ****         textTransparent(RA8875_BLACK);
 2216              		.loc 1 679 0
 2217 009e 0020     		movs	r0, #0
 2218 00a0 FFF7FEFF 		bl	textTransparent
 680:main.c        ****         textSetCursor(scr_width/3+10,scr_height/2+135);
 2219              		.loc 1 680 0
 2220 00a4 7B69     		ldr	r3, [r7, #20]
 2221 00a6 0321     		movs	r1, #3
 2222 00a8 1800     		movs	r0, r3
 2223 00aa FFF7FEFF 		bl	__aeabi_idiv
 2224 00ae 0300     		movs	r3, r0
 2225 00b0 9BB2     		uxth	r3, r3
 2226 00b2 0A33     		adds	r3, r3, #10
 2227 00b4 9AB2     		uxth	r2, r3
 2228 00b6 3B69     		ldr	r3, [r7, #16]
 2229 00b8 002B     		cmp	r3, #0
 2230 00ba 00DA     		bge	.L77
 2231 00bc 0133     		adds	r3, r3, #1
 2232              	.L77:
 2233 00be 5B10     		asrs	r3, r3, #1
 2234 00c0 9BB2     		uxth	r3, r3
 2235 00c2 8733     		adds	r3, r3, #135
 2236 00c4 9BB2     		uxth	r3, r3
 2237 00c6 1900     		movs	r1, r3
ARM GAS  C:\Users\megan\AppData\Local\Temp\ccrMxWsc.s 			page 54


 2238 00c8 1000     		movs	r0, r2
 2239 00ca FFF7FEFF 		bl	textSetCursor
 681:main.c        ****         textWrite(fans,strlen(fans));
 2240              		.loc 1 681 0
 2241 00ce 3B00     		movs	r3, r7
 2242 00d0 1800     		movs	r0, r3
 2243 00d2 FFF7FEFF 		bl	strlen
 2244 00d6 0300     		movs	r3, r0
 2245 00d8 9AB2     		uxth	r2, r3
 2246 00da 3B00     		movs	r3, r7
 2247 00dc 1100     		movs	r1, r2
 2248 00de 1800     		movs	r0, r3
 2249 00e0 FFF7FEFF 		bl	textWrite
 682:main.c        ****         if (bin1.fan_on == false) {
 2250              		.loc 1 682 0
 2251 00e4 8F4B     		ldr	r3, .L89+20
 2252 00e6 5B79     		ldrb	r3, [r3, #5]
 2253 00e8 002B     		cmp	r3, #0
 2254 00ea 00D0     		beq	.LCB1811
 2255 00ec 85E0     		b	.L78	@long jump
 2256              	.LCB1811:
 683:main.c        ****             fillRect(scr_width/3+180,scr_height/2+135,
 2257              		.loc 1 683 0
 2258 00ee 7B69     		ldr	r3, [r7, #20]
 2259 00f0 0321     		movs	r1, #3
 2260 00f2 1800     		movs	r0, r3
 2261 00f4 FFF7FEFF 		bl	__aeabi_idiv
 2262 00f8 0300     		movs	r3, r0
 2263 00fa 9BB2     		uxth	r3, r3
 2264 00fc B433     		adds	r3, r3, #180
 2265 00fe 9BB2     		uxth	r3, r3
 2266 0100 18B2     		sxth	r0, r3
 2267 0102 3B69     		ldr	r3, [r7, #16]
 2268 0104 002B     		cmp	r3, #0
 2269 0106 00DA     		bge	.L79
 2270 0108 0133     		adds	r3, r3, #1
 2271              	.L79:
 2272 010a 5B10     		asrs	r3, r3, #1
 2273 010c 9BB2     		uxth	r3, r3
 2274 010e 8733     		adds	r3, r3, #135
 2275 0110 9BB2     		uxth	r3, r3
 2276 0112 19B2     		sxth	r1, r3
 2277 0114 0023     		movs	r3, #0
 2278 0116 0093     		str	r3, [sp]
 2279 0118 4623     		movs	r3, #70
 2280 011a 7822     		movs	r2, #120
 2281 011c FFF7FEFF 		bl	fillRect
 684:main.c        ****                     120,70,
 685:main.c        ****                     RA8875_BLACK);
 686:main.c        ****             textEnlarge(3);
 2282              		.loc 1 686 0
 2283 0120 0320     		movs	r0, #3
 2284 0122 FFF7FEFF 		bl	textEnlarge
 687:main.c        ****             textTransparent(RA8875_YELLOW);
 2285              		.loc 1 687 0
 2286 0126 7D4B     		ldr	r3, .L89+12
 2287 0128 1800     		movs	r0, r3
ARM GAS  C:\Users\megan\AppData\Local\Temp\ccrMxWsc.s 			page 55


 2288 012a FFF7FEFF 		bl	textTransparent
 688:main.c        ****             textSetCursor(scr_width/3+195,scr_height/2+135);
 2289              		.loc 1 688 0
 2290 012e 7B69     		ldr	r3, [r7, #20]
 2291 0130 0321     		movs	r1, #3
 2292 0132 1800     		movs	r0, r3
 2293 0134 FFF7FEFF 		bl	__aeabi_idiv
 2294 0138 0300     		movs	r3, r0
 2295 013a 9BB2     		uxth	r3, r3
 2296 013c C333     		adds	r3, r3, #195
 2297 013e 9AB2     		uxth	r2, r3
 2298 0140 3B69     		ldr	r3, [r7, #16]
 2299 0142 002B     		cmp	r3, #0
 2300 0144 00DA     		bge	.L80
 2301 0146 0133     		adds	r3, r3, #1
 2302              	.L80:
 2303 0148 5B10     		asrs	r3, r3, #1
 2304 014a 9BB2     		uxth	r3, r3
 2305 014c 8733     		adds	r3, r3, #135
 2306 014e 9BB2     		uxth	r3, r3
 2307 0150 1900     		movs	r1, r3
 2308 0152 1000     		movs	r0, r2
 2309 0154 FFF7FEFF 		bl	textSetCursor
 689:main.c        ****             textWrite(off,strlen(off));
 2310              		.loc 1 689 0
 2311 0158 0823     		movs	r3, #8
 2312 015a FB18     		adds	r3, r7, r3
 2313 015c 1800     		movs	r0, r3
 2314 015e FFF7FEFF 		bl	strlen
 2315 0162 0300     		movs	r3, r0
 2316 0164 9AB2     		uxth	r2, r3
 2317 0166 0823     		movs	r3, #8
 2318 0168 FB18     		adds	r3, r7, r3
 2319 016a 1100     		movs	r1, r2
 2320 016c 1800     		movs	r0, r3
 2321 016e FFF7FEFF 		bl	textWrite
 690:main.c        ****             
 691:main.c        ****             drawRect(2*scr_width/3+80,scr_height/2+135,
 2322              		.loc 1 691 0
 2323 0172 7B69     		ldr	r3, [r7, #20]
 2324 0174 5B00     		lsls	r3, r3, #1
 2325 0176 0321     		movs	r1, #3
 2326 0178 1800     		movs	r0, r3
 2327 017a FFF7FEFF 		bl	__aeabi_idiv
 2328 017e 0300     		movs	r3, r0
 2329 0180 9BB2     		uxth	r3, r3
 2330 0182 5033     		adds	r3, r3, #80
 2331 0184 9BB2     		uxth	r3, r3
 2332 0186 18B2     		sxth	r0, r3
 2333 0188 3B69     		ldr	r3, [r7, #16]
 2334 018a 002B     		cmp	r3, #0
 2335 018c 00DA     		bge	.L81
 2336 018e 0133     		adds	r3, r3, #1
 2337              	.L81:
 2338 0190 5B10     		asrs	r3, r3, #1
 2339 0192 9BB2     		uxth	r3, r3
 2340 0194 8733     		adds	r3, r3, #135
ARM GAS  C:\Users\megan\AppData\Local\Temp\ccrMxWsc.s 			page 56


 2341 0196 9BB2     		uxth	r3, r3
 2342 0198 19B2     		sxth	r1, r3
 2343 019a 0023     		movs	r3, #0
 2344 019c 0093     		str	r3, [sp]
 2345 019e 4623     		movs	r3, #70
 2346 01a0 7822     		movs	r2, #120
 2347 01a2 FFF7FEFF 		bl	drawRect
 692:main.c        ****                     120,70,
 693:main.c        ****                     RA8875_BLACK);
 694:main.c        ****             textEnlarge(3);
 2348              		.loc 1 694 0
 2349 01a6 0320     		movs	r0, #3
 2350 01a8 FFF7FEFF 		bl	textEnlarge
 695:main.c        ****             textTransparent(RA8875_BLACK);
 2351              		.loc 1 695 0
 2352 01ac 0020     		movs	r0, #0
 2353 01ae FFF7FEFF 		bl	textTransparent
 696:main.c        ****             textSetCursor(2*scr_width/3+110,scr_height/2+135);
 2354              		.loc 1 696 0
 2355 01b2 7B69     		ldr	r3, [r7, #20]
 2356 01b4 5B00     		lsls	r3, r3, #1
 2357 01b6 0321     		movs	r1, #3
 2358 01b8 1800     		movs	r0, r3
 2359 01ba FFF7FEFF 		bl	__aeabi_idiv
 2360 01be 0300     		movs	r3, r0
 2361 01c0 9BB2     		uxth	r3, r3
 2362 01c2 6E33     		adds	r3, r3, #110
 2363 01c4 9AB2     		uxth	r2, r3
 2364 01c6 3B69     		ldr	r3, [r7, #16]
 2365 01c8 002B     		cmp	r3, #0
 2366 01ca 00DA     		bge	.L82
 2367 01cc 0133     		adds	r3, r3, #1
 2368              	.L82:
 2369 01ce 5B10     		asrs	r3, r3, #1
 2370 01d0 9BB2     		uxth	r3, r3
 2371 01d2 8733     		adds	r3, r3, #135
 2372 01d4 9BB2     		uxth	r3, r3
 2373 01d6 1900     		movs	r1, r3
 2374 01d8 1000     		movs	r0, r2
 2375 01da FFF7FEFF 		bl	textSetCursor
 697:main.c        ****             textWrite(on,strlen(on));
 2376              		.loc 1 697 0
 2377 01de 0C23     		movs	r3, #12
 2378 01e0 FB18     		adds	r3, r7, r3
 2379 01e2 1800     		movs	r0, r3
 2380 01e4 FFF7FEFF 		bl	strlen
 2381 01e8 0300     		movs	r3, r0
 2382 01ea 9AB2     		uxth	r2, r3
 2383 01ec 0C23     		movs	r3, #12
 2384 01ee FB18     		adds	r3, r7, r3
 2385 01f0 1100     		movs	r1, r2
 2386 01f2 1800     		movs	r0, r3
 2387 01f4 FFF7FEFF 		bl	textWrite
 2388 01f8 84E0     		b	.L88
 2389              	.L78:
 698:main.c        ****         } else {
 699:main.c        ****             drawRect(scr_width/3+180,scr_height/2+135,
ARM GAS  C:\Users\megan\AppData\Local\Temp\ccrMxWsc.s 			page 57


 2390              		.loc 1 699 0
 2391 01fa 7B69     		ldr	r3, [r7, #20]
 2392 01fc 0321     		movs	r1, #3
 2393 01fe 1800     		movs	r0, r3
 2394 0200 FFF7FEFF 		bl	__aeabi_idiv
 2395 0204 0300     		movs	r3, r0
 2396 0206 9BB2     		uxth	r3, r3
 2397 0208 B433     		adds	r3, r3, #180
 2398 020a 9BB2     		uxth	r3, r3
 2399 020c 18B2     		sxth	r0, r3
 2400 020e 3B69     		ldr	r3, [r7, #16]
 2401 0210 002B     		cmp	r3, #0
 2402 0212 00DA     		bge	.L84
 2403 0214 0133     		adds	r3, r3, #1
 2404              	.L84:
 2405 0216 5B10     		asrs	r3, r3, #1
 2406 0218 9BB2     		uxth	r3, r3
 2407 021a 8733     		adds	r3, r3, #135
 2408 021c 9BB2     		uxth	r3, r3
 2409 021e 19B2     		sxth	r1, r3
 2410 0220 0023     		movs	r3, #0
 2411 0222 0093     		str	r3, [sp]
 2412 0224 4623     		movs	r3, #70
 2413 0226 7822     		movs	r2, #120
 2414 0228 FFF7FEFF 		bl	drawRect
 700:main.c        ****                     120,70,
 701:main.c        ****                     RA8875_BLACK);
 702:main.c        ****             textEnlarge(3);
 2415              		.loc 1 702 0
 2416 022c 0320     		movs	r0, #3
 2417 022e FFF7FEFF 		bl	textEnlarge
 703:main.c        ****             textTransparent(RA8875_BLACK);
 2418              		.loc 1 703 0
 2419 0232 0020     		movs	r0, #0
 2420 0234 FFF7FEFF 		bl	textTransparent
 704:main.c        ****             textSetCursor(scr_width/3+195,scr_height/2+135);
 2421              		.loc 1 704 0
 2422 0238 7B69     		ldr	r3, [r7, #20]
 2423 023a 0321     		movs	r1, #3
 2424 023c 1800     		movs	r0, r3
 2425 023e FFF7FEFF 		bl	__aeabi_idiv
 2426 0242 0300     		movs	r3, r0
 2427 0244 9BB2     		uxth	r3, r3
 2428 0246 C333     		adds	r3, r3, #195
 2429 0248 9AB2     		uxth	r2, r3
 2430 024a 3B69     		ldr	r3, [r7, #16]
 2431 024c 002B     		cmp	r3, #0
 2432 024e 00DA     		bge	.L85
 2433 0250 0133     		adds	r3, r3, #1
 2434              	.L85:
 2435 0252 5B10     		asrs	r3, r3, #1
 2436 0254 9BB2     		uxth	r3, r3
 2437 0256 8733     		adds	r3, r3, #135
 2438 0258 9BB2     		uxth	r3, r3
 2439 025a 1900     		movs	r1, r3
 2440 025c 1000     		movs	r0, r2
 2441 025e FFF7FEFF 		bl	textSetCursor
ARM GAS  C:\Users\megan\AppData\Local\Temp\ccrMxWsc.s 			page 58


 705:main.c        ****             textWrite(off,strlen(off));
 2442              		.loc 1 705 0
 2443 0262 0823     		movs	r3, #8
 2444 0264 FB18     		adds	r3, r7, r3
 2445 0266 1800     		movs	r0, r3
 2446 0268 FFF7FEFF 		bl	strlen
 2447 026c 0300     		movs	r3, r0
 2448 026e 9AB2     		uxth	r2, r3
 2449 0270 0823     		movs	r3, #8
 2450 0272 FB18     		adds	r3, r7, r3
 2451 0274 1100     		movs	r1, r2
 2452 0276 1800     		movs	r0, r3
 2453 0278 FFF7FEFF 		bl	textWrite
 706:main.c        ****             
 707:main.c        ****             fillRect(2*scr_width/3+80,scr_height/2+135,
 2454              		.loc 1 707 0
 2455 027c 7B69     		ldr	r3, [r7, #20]
 2456 027e 5B00     		lsls	r3, r3, #1
 2457 0280 0321     		movs	r1, #3
 2458 0282 1800     		movs	r0, r3
 2459 0284 FFF7FEFF 		bl	__aeabi_idiv
 2460 0288 0300     		movs	r3, r0
 2461 028a 9BB2     		uxth	r3, r3
 2462 028c 5033     		adds	r3, r3, #80
 2463 028e 9BB2     		uxth	r3, r3
 2464 0290 18B2     		sxth	r0, r3
 2465 0292 3B69     		ldr	r3, [r7, #16]
 2466 0294 002B     		cmp	r3, #0
 2467 0296 00DA     		bge	.L86
 2468 0298 0133     		adds	r3, r3, #1
 2469              	.L86:
 2470 029a 5B10     		asrs	r3, r3, #1
 2471 029c 9BB2     		uxth	r3, r3
 2472 029e 8733     		adds	r3, r3, #135
 2473 02a0 9BB2     		uxth	r3, r3
 2474 02a2 19B2     		sxth	r1, r3
 2475 02a4 0023     		movs	r3, #0
 2476 02a6 0093     		str	r3, [sp]
 2477 02a8 4623     		movs	r3, #70
 2478 02aa 7822     		movs	r2, #120
 2479 02ac FFF7FEFF 		bl	fillRect
 708:main.c        ****                     120,70,
 709:main.c        ****                     RA8875_BLACK);
 710:main.c        ****             textEnlarge(3);
 2480              		.loc 1 710 0
 2481 02b0 0320     		movs	r0, #3
 2482 02b2 FFF7FEFF 		bl	textEnlarge
 711:main.c        ****             textTransparent(RA8875_YELLOW);
 2483              		.loc 1 711 0
 2484 02b6 194B     		ldr	r3, .L89+12
 2485 02b8 1800     		movs	r0, r3
 2486 02ba FFF7FEFF 		bl	textTransparent
 712:main.c        ****             textSetCursor(2*scr_width/3+110,scr_height/2+135);
 2487              		.loc 1 712 0
 2488 02be 7B69     		ldr	r3, [r7, #20]
 2489 02c0 5B00     		lsls	r3, r3, #1
 2490 02c2 0321     		movs	r1, #3
ARM GAS  C:\Users\megan\AppData\Local\Temp\ccrMxWsc.s 			page 59


 2491 02c4 1800     		movs	r0, r3
 2492 02c6 FFF7FEFF 		bl	__aeabi_idiv
 2493 02ca 0300     		movs	r3, r0
 2494 02cc 9BB2     		uxth	r3, r3
 2495 02ce 6E33     		adds	r3, r3, #110
 2496 02d0 9AB2     		uxth	r2, r3
 2497 02d2 3B69     		ldr	r3, [r7, #16]
 2498 02d4 002B     		cmp	r3, #0
 2499 02d6 00DA     		bge	.L87
 2500 02d8 0133     		adds	r3, r3, #1
 2501              	.L87:
 2502 02da 5B10     		asrs	r3, r3, #1
 2503 02dc 9BB2     		uxth	r3, r3
 2504 02de 8733     		adds	r3, r3, #135
 2505 02e0 9BB2     		uxth	r3, r3
 2506 02e2 1900     		movs	r1, r3
 2507 02e4 1000     		movs	r0, r2
 2508 02e6 FFF7FEFF 		bl	textSetCursor
 713:main.c        ****             textWrite(on,strlen(on));
 2509              		.loc 1 713 0
 2510 02ea 0C23     		movs	r3, #12
 2511 02ec FB18     		adds	r3, r7, r3
 2512 02ee 1800     		movs	r0, r3
 2513 02f0 FFF7FEFF 		bl	strlen
 2514 02f4 0300     		movs	r3, r0
 2515 02f6 9AB2     		uxth	r2, r3
 2516 02f8 0C23     		movs	r3, #12
 2517 02fa FB18     		adds	r3, r7, r3
 2518 02fc 1100     		movs	r1, r2
 2519 02fe 1800     		movs	r0, r3
 2520 0300 FFF7FEFF 		bl	textWrite
 2521              	.L88:
 714:main.c        ****         }        
 715:main.c        ****     }
 716:main.c        ****     else if (settings.mode == AUTOMATIC) {
 717:main.c        ****           
 718:main.c        ****     }
 719:main.c        ****     graphicsMode();
 2522              		.loc 1 719 0
 2523 0304 FFF7FEFF 		bl	graphicsMode
 720:main.c        **** }
 2524              		.loc 1 720 0
 2525 0308 C046     		nop
 2526 030a BD46     		mov	sp, r7
 2527 030c 06B0     		add	sp, sp, #24
 2528              		@ sp needed
 2529 030e B0BD     		pop	{r4, r5, r7, pc}
 2530              	.L90:
 2531              		.align	2
 2532              	.L89:
 2533 0310 4C010000 		.word	.LC63
 2534 0314 4F464600 		.word	4605519
 2535 0318 50010000 		.word	.LC65
 2536 031c E0FF0000 		.word	65504
 2537 0320 00000000 		.word	settings
 2538 0324 00000000 		.word	bin1
 2539              		.cfi_endproc
ARM GAS  C:\Users\megan\AppData\Local\Temp\ccrMxWsc.s 			page 60


 2540              	.LFE47:
 2541              		.size	GUIUpdateControls, .-GUIUpdateControls
 2542              		.section	.text.GUITouchHandler,"ax",%progbits
 2543              		.align	2
 2544              		.global	GUITouchHandler
 2545              		.code	16
 2546              		.thumb_func
 2547              		.type	GUITouchHandler, %function
 2548              	GUITouchHandler:
 2549              	.LFB48:
 721:main.c        **** 
 722:main.c        **** void GUITouchHandler(uint16_t *tx, uint16_t *ty) {
 2550              		.loc 1 722 0
 2551              		.cfi_startproc
 2552              		@ args = 0, pretend = 0, frame = 32
 2553              		@ frame_needed = 1, uses_anonymous_args = 0
 2554 0000 90B5     		push	{r4, r7, lr}
 2555              		.cfi_def_cfa_offset 12
 2556              		.cfi_offset 4, -12
 2557              		.cfi_offset 7, -8
 2558              		.cfi_offset 14, -4
 2559 0002 89B0     		sub	sp, sp, #36
 2560              		.cfi_def_cfa_offset 48
 2561 0004 00AF     		add	r7, sp, #0
 2562              		.cfi_def_cfa_register 7
 2563 0006 7860     		str	r0, [r7, #4]
 2564 0008 3960     		str	r1, [r7]
 723:main.c        ****     
 724:main.c        ****     float xScale = 1024.0F/width();
 2565              		.loc 1 724 0
 2566 000a FFF7FEFF 		bl	width
 2567 000e 0300     		movs	r3, r0
 2568 0010 1800     		movs	r0, r3
 2569 0012 FFF7FEFF 		bl	__aeabi_i2f
 2570 0016 031C     		adds	r3, r0, #0
 2571 0018 191C     		adds	r1, r3, #0
 2572 001a 8920     		movs	r0, #137
 2573 001c C005     		lsls	r0, r0, #23
 2574 001e FFF7FEFF 		bl	__aeabi_fdiv
 2575 0022 031C     		adds	r3, r0, #0
 2576 0024 FB61     		str	r3, [r7, #28]
 725:main.c        ****     float yScale = 1024.0F/height();
 2577              		.loc 1 725 0
 2578 0026 FFF7FEFF 		bl	height
 2579 002a 0300     		movs	r3, r0
 2580 002c 1800     		movs	r0, r3
 2581 002e FFF7FEFF 		bl	__aeabi_i2f
 2582 0032 031C     		adds	r3, r0, #0
 2583 0034 191C     		adds	r1, r3, #0
 2584 0036 8920     		movs	r0, #137
 2585 0038 C005     		lsls	r0, r0, #23
 2586 003a FFF7FEFF 		bl	__aeabi_fdiv
 2587 003e 031C     		adds	r3, r0, #0
 2588 0040 BB61     		str	r3, [r7, #24]
 726:main.c        ****     
 727:main.c        ****     uint16_t x = *tx/xScale;
 2589              		.loc 1 727 0
ARM GAS  C:\Users\megan\AppData\Local\Temp\ccrMxWsc.s 			page 61


 2590 0042 7B68     		ldr	r3, [r7, #4]
 2591 0044 1B88     		ldrh	r3, [r3]
 2592 0046 1800     		movs	r0, r3
 2593 0048 FFF7FEFF 		bl	__aeabi_i2f
 2594 004c 031C     		adds	r3, r0, #0
 2595 004e F969     		ldr	r1, [r7, #28]
 2596 0050 181C     		adds	r0, r3, #0
 2597 0052 FFF7FEFF 		bl	__aeabi_fdiv
 2598 0056 031C     		adds	r3, r0, #0
 2599 0058 1622     		movs	r2, #22
 2600 005a BC18     		adds	r4, r7, r2
 2601 005c 181C     		adds	r0, r3, #0
 2602 005e FFF7FEFF 		bl	__aeabi_f2uiz
 2603 0062 0300     		movs	r3, r0
 2604 0064 2380     		strh	r3, [r4]
 728:main.c        ****     uint16_t y = *ty/yScale;
 2605              		.loc 1 728 0
 2606 0066 3B68     		ldr	r3, [r7]
 2607 0068 1B88     		ldrh	r3, [r3]
 2608 006a 1800     		movs	r0, r3
 2609 006c FFF7FEFF 		bl	__aeabi_i2f
 2610 0070 031C     		adds	r3, r0, #0
 2611 0072 B969     		ldr	r1, [r7, #24]
 2612 0074 181C     		adds	r0, r3, #0
 2613 0076 FFF7FEFF 		bl	__aeabi_fdiv
 2614 007a 031C     		adds	r3, r0, #0
 2615 007c 1422     		movs	r2, #20
 2616 007e BC18     		adds	r4, r7, r2
 2617 0080 181C     		adds	r0, r3, #0
 2618 0082 FFF7FEFF 		bl	__aeabi_f2uiz
 2619 0086 0300     		movs	r3, r0
 2620 0088 2380     		strh	r3, [r4]
 729:main.c        ****     
 730:main.c        ****     int scr_width = 800;
 2621              		.loc 1 730 0
 2622 008a C823     		movs	r3, #200
 2623 008c 9B00     		lsls	r3, r3, #2
 2624 008e 3B61     		str	r3, [r7, #16]
 731:main.c        ****     int scr_height = 480;
 2625              		.loc 1 731 0
 2626 0090 F023     		movs	r3, #240
 2627 0092 5B00     		lsls	r3, r3, #1
 2628 0094 FB60     		str	r3, [r7, #12]
 732:main.c        ****     
 733:main.c        ****     
 734:main.c        ****     // MODES
 735:main.c        ****     // Manual button
 736:main.c        ****     if (x > 40 && x < 170 && y > 170 && y < 230) {
 2629              		.loc 1 736 0
 2630 0096 1623     		movs	r3, #22
 2631 0098 FB18     		adds	r3, r7, r3
 2632 009a 1B88     		ldrh	r3, [r3]
 2633 009c 282B     		cmp	r3, #40
 2634 009e 19D9     		bls	.L92
 2635              		.loc 1 736 0 is_stmt 0 discriminator 1
 2636 00a0 1623     		movs	r3, #22
 2637 00a2 FB18     		adds	r3, r7, r3
ARM GAS  C:\Users\megan\AppData\Local\Temp\ccrMxWsc.s 			page 62


 2638 00a4 1B88     		ldrh	r3, [r3]
 2639 00a6 A92B     		cmp	r3, #169
 2640 00a8 14D8     		bhi	.L92
 2641              		.loc 1 736 0 discriminator 2
 2642 00aa 1423     		movs	r3, #20
 2643 00ac FB18     		adds	r3, r7, r3
 2644 00ae 1B88     		ldrh	r3, [r3]
 2645 00b0 AA2B     		cmp	r3, #170
 2646 00b2 0FD9     		bls	.L92
 2647              		.loc 1 736 0 discriminator 3
 2648 00b4 1423     		movs	r3, #20
 2649 00b6 FB18     		adds	r3, r7, r3
 2650 00b8 1B88     		ldrh	r3, [r3]
 2651 00ba E52B     		cmp	r3, #229
 2652 00bc 0AD8     		bhi	.L92
 737:main.c        ****         if (settings.mode != MANUAL) {
 2653              		.loc 1 737 0 is_stmt 1
 2654 00be 564B     		ldr	r3, .L104
 2655 00c0 1B78     		ldrb	r3, [r3]
 2656 00c2 002B     		cmp	r3, #0
 2657 00c4 00D1     		bne	.LCB2188
 2658 00c6 A3E0     		b	.L94	@long jump
 2659              	.LCB2188:
 738:main.c        ****             settings.mode = MANUAL;
 2660              		.loc 1 738 0
 2661 00c8 534B     		ldr	r3, .L104
 2662 00ca 0022     		movs	r2, #0
 2663 00cc 1A70     		strb	r2, [r3]
 739:main.c        ****             GUIUpdateMode();
 2664              		.loc 1 739 0
 2665 00ce FFF7FEFF 		bl	GUIUpdateMode
 737:main.c        ****         if (settings.mode != MANUAL) {
 2666              		.loc 1 737 0
 2667 00d2 9DE0     		b	.L94
 2668              	.L92:
 740:main.c        ****         }
 741:main.c        ****     }
 742:main.c        ****     // Auto button
 743:main.c        ****     else if (x > 40 && x < 270 && y > 170 && y < 330) {
 2669              		.loc 1 743 0
 2670 00d4 1623     		movs	r3, #22
 2671 00d6 FB18     		adds	r3, r7, r3
 2672 00d8 1B88     		ldrh	r3, [r3]
 2673 00da 282B     		cmp	r3, #40
 2674 00dc 1DD9     		bls	.L95
 2675              		.loc 1 743 0 is_stmt 0 discriminator 1
 2676 00de 1623     		movs	r3, #22
 2677 00e0 FB18     		adds	r3, r7, r3
 2678 00e2 1A88     		ldrh	r2, [r3]
 2679 00e4 0E23     		movs	r3, #14
 2680 00e6 FF33     		adds	r3, r3, #255
 2681 00e8 9A42     		cmp	r2, r3
 2682 00ea 16D8     		bhi	.L95
 2683              		.loc 1 743 0 discriminator 2
 2684 00ec 1423     		movs	r3, #20
 2685 00ee FB18     		adds	r3, r7, r3
 2686 00f0 1B88     		ldrh	r3, [r3]
ARM GAS  C:\Users\megan\AppData\Local\Temp\ccrMxWsc.s 			page 63


 2687 00f2 AA2B     		cmp	r3, #170
 2688 00f4 11D9     		bls	.L95
 2689              		.loc 1 743 0 discriminator 3
 2690 00f6 1423     		movs	r3, #20
 2691 00f8 FB18     		adds	r3, r7, r3
 2692 00fa 1A88     		ldrh	r2, [r3]
 2693 00fc 4A23     		movs	r3, #74
 2694 00fe FF33     		adds	r3, r3, #255
 2695 0100 9A42     		cmp	r2, r3
 2696 0102 0AD8     		bhi	.L95
 744:main.c        ****         if (settings.mode != AUTOMATIC) {
 2697              		.loc 1 744 0 is_stmt 1
 2698 0104 444B     		ldr	r3, .L104
 2699 0106 1B78     		ldrb	r3, [r3]
 2700 0108 012B     		cmp	r3, #1
 2701 010a 00D1     		bne	.LCB2224
 2702 010c 80E0     		b	.L94	@long jump
 2703              	.LCB2224:
 745:main.c        ****             settings.mode = AUTOMATIC;
 2704              		.loc 1 745 0
 2705 010e 424B     		ldr	r3, .L104
 2706 0110 0122     		movs	r2, #1
 2707 0112 1A70     		strb	r2, [r3]
 746:main.c        ****             GUIUpdateMode();
 2708              		.loc 1 746 0
 2709 0114 FFF7FEFF 		bl	GUIUpdateMode
 744:main.c        ****         if (settings.mode != AUTOMATIC) {
 2710              		.loc 1 744 0
 2711 0118 7AE0     		b	.L94
 2712              	.L95:
 747:main.c        ****         }
 748:main.c        ****     }    
 749:main.c        ****     
 750:main.c        ****     // FAN
 751:main.c        ****     // Off
 752:main.c        ****     else if (x > scr_width/3+180 && x < scr_width/3+300 && y > scr_height/2+135 && y < scr_height/2
 2713              		.loc 1 752 0
 2714 011a 1623     		movs	r3, #22
 2715 011c FB18     		adds	r3, r7, r3
 2716 011e 1C88     		ldrh	r4, [r3]
 2717 0120 3B69     		ldr	r3, [r7, #16]
 2718 0122 0321     		movs	r1, #3
 2719 0124 1800     		movs	r0, r3
 2720 0126 FFF7FEFF 		bl	__aeabi_idiv
 2721 012a 0300     		movs	r3, r0
 2722 012c B433     		adds	r3, r3, #180
 2723 012e 9C42     		cmp	r4, r3
 2724 0130 30DD     		ble	.L97
 2725              		.loc 1 752 0 is_stmt 0 discriminator 1
 2726 0132 1623     		movs	r3, #22
 2727 0134 FB18     		adds	r3, r7, r3
 2728 0136 1C88     		ldrh	r4, [r3]
 2729 0138 3B69     		ldr	r3, [r7, #16]
 2730 013a 0321     		movs	r1, #3
 2731 013c 1800     		movs	r0, r3
 2732 013e FFF7FEFF 		bl	__aeabi_idiv
 2733 0142 0300     		movs	r3, r0
ARM GAS  C:\Users\megan\AppData\Local\Temp\ccrMxWsc.s 			page 64


 2734 0144 2D33     		adds	r3, r3, #45
 2735 0146 FF33     		adds	r3, r3, #255
 2736 0148 9C42     		cmp	r4, r3
 2737 014a 23DA     		bge	.L97
 2738              		.loc 1 752 0 discriminator 2
 2739 014c 1423     		movs	r3, #20
 2740 014e FB18     		adds	r3, r7, r3
 2741 0150 1A88     		ldrh	r2, [r3]
 2742 0152 FB68     		ldr	r3, [r7, #12]
 2743 0154 002B     		cmp	r3, #0
 2744 0156 00DA     		bge	.L98
 2745 0158 0133     		adds	r3, r3, #1
 2746              	.L98:
 2747 015a 5B10     		asrs	r3, r3, #1
 2748 015c 8733     		adds	r3, r3, #135
 2749 015e 9A42     		cmp	r2, r3
 2750 0160 18DD     		ble	.L97
 2751              		.loc 1 752 0 discriminator 3
 2752 0162 1423     		movs	r3, #20
 2753 0164 FB18     		adds	r3, r7, r3
 2754 0166 1A88     		ldrh	r2, [r3]
 2755 0168 FB68     		ldr	r3, [r7, #12]
 2756 016a 002B     		cmp	r3, #0
 2757 016c 00DA     		bge	.L99
 2758 016e 0133     		adds	r3, r3, #1
 2759              	.L99:
 2760 0170 5B10     		asrs	r3, r3, #1
 2761 0172 CD33     		adds	r3, r3, #205
 2762 0174 9A42     		cmp	r2, r3
 2763 0176 0DDA     		bge	.L97
 2764              		.loc 1 752 0 discriminator 4
 2765 0178 274B     		ldr	r3, .L104
 2766 017a 1B78     		ldrb	r3, [r3]
 2767 017c 002B     		cmp	r3, #0
 2768 017e 09D1     		bne	.L97
 753:main.c        ****         if (bin1.fan_on != false) {
 2769              		.loc 1 753 0 is_stmt 1
 2770 0180 264B     		ldr	r3, .L104+4
 2771 0182 5B79     		ldrb	r3, [r3, #5]
 2772 0184 002B     		cmp	r3, #0
 2773 0186 43D0     		beq	.L94
 754:main.c        ****             bin1.fan_on = false;
 2774              		.loc 1 754 0
 2775 0188 244B     		ldr	r3, .L104+4
 2776 018a 0022     		movs	r2, #0
 2777 018c 5A71     		strb	r2, [r3, #5]
 755:main.c        ****             GUIUpdateControls();
 2778              		.loc 1 755 0
 2779 018e FFF7FEFF 		bl	GUIUpdateControls
 753:main.c        ****         if (bin1.fan_on != false) {
 2780              		.loc 1 753 0
 2781 0192 3DE0     		b	.L94
 2782              	.L97:
 756:main.c        ****         }
 757:main.c        ****     }
 758:main.c        ****     // On
 759:main.c        ****     else if (x > 2*scr_width/3+80 && x < 2*scr_width/3+200 && y > scr_height/2+135 && y < scr_heigh
ARM GAS  C:\Users\megan\AppData\Local\Temp\ccrMxWsc.s 			page 65


 2783              		.loc 1 759 0
 2784 0194 1623     		movs	r3, #22
 2785 0196 FB18     		adds	r3, r7, r3
 2786 0198 1C88     		ldrh	r4, [r3]
 2787 019a 3B69     		ldr	r3, [r7, #16]
 2788 019c 5B00     		lsls	r3, r3, #1
 2789 019e 0321     		movs	r1, #3
 2790 01a0 1800     		movs	r0, r3
 2791 01a2 FFF7FEFF 		bl	__aeabi_idiv
 2792 01a6 0300     		movs	r3, r0
 2793 01a8 5033     		adds	r3, r3, #80
 2794 01aa 9C42     		cmp	r4, r3
 2795 01ac 30DD     		ble	.L103
 2796              		.loc 1 759 0 is_stmt 0 discriminator 1
 2797 01ae 1623     		movs	r3, #22
 2798 01b0 FB18     		adds	r3, r7, r3
 2799 01b2 1C88     		ldrh	r4, [r3]
 2800 01b4 3B69     		ldr	r3, [r7, #16]
 2801 01b6 5B00     		lsls	r3, r3, #1
 2802 01b8 0321     		movs	r1, #3
 2803 01ba 1800     		movs	r0, r3
 2804 01bc FFF7FEFF 		bl	__aeabi_idiv
 2805 01c0 0300     		movs	r3, r0
 2806 01c2 C833     		adds	r3, r3, #200
 2807 01c4 9C42     		cmp	r4, r3
 2808 01c6 23DA     		bge	.L103
 2809              		.loc 1 759 0 discriminator 2
 2810 01c8 1423     		movs	r3, #20
 2811 01ca FB18     		adds	r3, r7, r3
 2812 01cc 1A88     		ldrh	r2, [r3]
 2813 01ce FB68     		ldr	r3, [r7, #12]
 2814 01d0 002B     		cmp	r3, #0
 2815 01d2 00DA     		bge	.L101
 2816 01d4 0133     		adds	r3, r3, #1
 2817              	.L101:
 2818 01d6 5B10     		asrs	r3, r3, #1
 2819 01d8 8733     		adds	r3, r3, #135
 2820 01da 9A42     		cmp	r2, r3
 2821 01dc 18DD     		ble	.L103
 2822              		.loc 1 759 0 discriminator 3
 2823 01de 1423     		movs	r3, #20
 2824 01e0 FB18     		adds	r3, r7, r3
 2825 01e2 1A88     		ldrh	r2, [r3]
 2826 01e4 FB68     		ldr	r3, [r7, #12]
 2827 01e6 002B     		cmp	r3, #0
 2828 01e8 00DA     		bge	.L102
 2829 01ea 0133     		adds	r3, r3, #1
 2830              	.L102:
 2831 01ec 5B10     		asrs	r3, r3, #1
 2832 01ee CD33     		adds	r3, r3, #205
 2833 01f0 9A42     		cmp	r2, r3
 2834 01f2 0DDA     		bge	.L103
 2835              		.loc 1 759 0 discriminator 4
 2836 01f4 084B     		ldr	r3, .L104
 2837 01f6 1B78     		ldrb	r3, [r3]
 2838 01f8 002B     		cmp	r3, #0
 2839 01fa 09D1     		bne	.L103
ARM GAS  C:\Users\megan\AppData\Local\Temp\ccrMxWsc.s 			page 66


 760:main.c        ****         if (bin1.fan_on != true) {
 2840              		.loc 1 760 0 is_stmt 1
 2841 01fc 074B     		ldr	r3, .L104+4
 2842 01fe 5B79     		ldrb	r3, [r3, #5]
 2843 0200 012B     		cmp	r3, #1
 2844 0202 05D0     		beq	.L103
 761:main.c        ****             bin1.fan_on = true;
 2845              		.loc 1 761 0
 2846 0204 054B     		ldr	r3, .L104+4
 2847 0206 0122     		movs	r2, #1
 2848 0208 5A71     		strb	r2, [r3, #5]
 762:main.c        ****             GUIUpdateControls();
 2849              		.loc 1 762 0
 2850 020a FFF7FEFF 		bl	GUIUpdateControls
 763:main.c        ****         }
 764:main.c        ****     }
 765:main.c        **** }
 2851              		.loc 1 765 0
 2852 020e FFE7     		b	.L103
 2853              	.L94:
 2854              	.L103:
 2855 0210 C046     		nop
 2856 0212 BD46     		mov	sp, r7
 2857 0214 09B0     		add	sp, sp, #36
 2858              		@ sp needed
 2859 0216 90BD     		pop	{r4, r7, pc}
 2860              	.L105:
 2861              		.align	2
 2862              	.L104:
 2863 0218 00000000 		.word	settings
 2864 021c 00000000 		.word	bin1
 2865              		.cfi_endproc
 2866              	.LFE48:
 2867              		.size	GUITouchHandler, .-GUITouchHandler
 2868              		.section	.text.GUITest,"ax",%progbits
 2869              		.align	2
 2870              		.global	GUITest
 2871              		.code	16
 2872              		.thumb_func
 2873              		.type	GUITest, %function
 2874              	GUITest:
 2875              	.LFB49:
 766:main.c        **** 
 767:main.c        **** void GUITest() {
 2876              		.loc 1 767 0
 2877              		.cfi_startproc
 2878              		@ args = 0, pretend = 0, frame = 8
 2879              		@ frame_needed = 1, uses_anonymous_args = 0
 2880 0000 80B5     		push	{r7, lr}
 2881              		.cfi_def_cfa_offset 8
 2882              		.cfi_offset 7, -8
 2883              		.cfi_offset 14, -4
 2884 0002 82B0     		sub	sp, sp, #8
 2885              		.cfi_def_cfa_offset 16
 2886 0004 00AF     		add	r7, sp, #0
 2887              		.cfi_def_cfa_register 7
 768:main.c        ****     
ARM GAS  C:\Users\megan\AppData\Local\Temp\ccrMxWsc.s 			page 67


 769:main.c        ****     //------ Declarations ------/
 770:main.c        ****     // LCD Strings
 771:main.c        ****     char temp[] = "113";
 2888              		.loc 1 771 0
 2889 0006 3B00     		movs	r3, r7
 2890 0008 134A     		ldr	r2, .L109
 2891 000a 1A60     		str	r2, [r3]
 772:main.c        ****     
 773:main.c        ****     //------ Procedure ------//
 774:main.c        ****     
 775:main.c        ****     // Screen start-up
 776:main.c        ****     PWM1out(0);
 2892              		.loc 1 776 0
 2893 000c 0020     		movs	r0, #0
 2894 000e FFF7FEFF 		bl	PWM1out
 777:main.c        ****     fillScreen(RA8875_WHITE);
 2895              		.loc 1 777 0
 2896 0012 124B     		ldr	r3, .L109+4
 2897 0014 1800     		movs	r0, r3
 2898 0016 FFF7FEFF 		bl	fillScreen
 2899              	.LBB3:
 778:main.c        ****     for (int i = 0; i < 256; i++) {
 2900              		.loc 1 778 0
 2901 001a 0023     		movs	r3, #0
 2902 001c 7B60     		str	r3, [r7, #4]
 2903 001e 0AE0     		b	.L107
 2904              	.L108:
 779:main.c        ****         PWM1out(i);
 2905              		.loc 1 779 0 discriminator 3
 2906 0020 7B68     		ldr	r3, [r7, #4]
 2907 0022 DBB2     		uxtb	r3, r3
 2908 0024 1800     		movs	r0, r3
 2909 0026 FFF7FEFF 		bl	PWM1out
 780:main.c        ****         CyDelay(1);
 2910              		.loc 1 780 0 discriminator 3
 2911 002a 0120     		movs	r0, #1
 2912 002c FFF7FEFF 		bl	CyDelay
 778:main.c        ****     for (int i = 0; i < 256; i++) {
 2913              		.loc 1 778 0 discriminator 3
 2914 0030 7B68     		ldr	r3, [r7, #4]
 2915 0032 0133     		adds	r3, r3, #1
 2916 0034 7B60     		str	r3, [r7, #4]
 2917              	.L107:
 778:main.c        ****     for (int i = 0; i < 256; i++) {
 2918              		.loc 1 778 0 is_stmt 0 discriminator 1
 2919 0036 7B68     		ldr	r3, [r7, #4]
 2920 0038 FF2B     		cmp	r3, #255
 2921 003a F1DD     		ble	.L108
 2922              	.LBE3:
 781:main.c        ****     }
 782:main.c        ****     
 783:main.c        ****     // Print Temp
 784:main.c        ****     textMode();
 2923              		.loc 1 784 0 is_stmt 1
 2924 003c FFF7FEFF 		bl	textMode
 785:main.c        ****     textSetCursor(100, 100);
 2925              		.loc 1 785 0
ARM GAS  C:\Users\megan\AppData\Local\Temp\ccrMxWsc.s 			page 68


 2926 0040 6421     		movs	r1, #100
 2927 0042 6420     		movs	r0, #100
 2928 0044 FFF7FEFF 		bl	textSetCursor
 786:main.c        ****     textTransparent(RA8875_BLUE); 
 2929              		.loc 1 786 0
 2930 0048 1F20     		movs	r0, #31
 2931 004a FFF7FEFF 		bl	textTransparent
 787:main.c        **** //    PrintInt(255);
 788:main.c        **** //    textSetCursor(100, 200);
 789:main.c        **** }
 2932              		.loc 1 789 0
 2933 004e C046     		nop
 2934 0050 BD46     		mov	sp, r7
 2935 0052 02B0     		add	sp, sp, #8
 2936              		@ sp needed
 2937 0054 80BD     		pop	{r7, pc}
 2938              	.L110:
 2939 0056 C046     		.align	2
 2940              	.L109:
 2941 0058 31313300 		.word	3354929
 2942 005c FFFF0000 		.word	65535
 2943              		.cfi_endproc
 2944              	.LFE49:
 2945              		.size	GUITest, .-GUITest
 2946              		.section	.text.TempReceive,"ax",%progbits
 2947              		.align	2
 2948              		.global	TempReceive
 2949              		.code	16
 2950              		.thumb_func
 2951              		.type	TempReceive, %function
 2952              	TempReceive:
 2953              	.LFB50:
 790:main.c        **** 
 791:main.c        **** void TempReceive(Bin * bin, uint8_t * fl_bytes) {
 2954              		.loc 1 791 0
 2955              		.cfi_startproc
 2956              		@ args = 0, pretend = 0, frame = 16
 2957              		@ frame_needed = 1, uses_anonymous_args = 0
 2958 0000 80B5     		push	{r7, lr}
 2959              		.cfi_def_cfa_offset 8
 2960              		.cfi_offset 7, -8
 2961              		.cfi_offset 14, -4
 2962 0002 84B0     		sub	sp, sp, #16
 2963              		.cfi_def_cfa_offset 24
 2964 0004 00AF     		add	r7, sp, #0
 2965              		.cfi_def_cfa_register 7
 2966 0006 7860     		str	r0, [r7, #4]
 2967 0008 3960     		str	r1, [r7]
 792:main.c        ****     
 793:main.c        ****     char space[] = " ";
 2968              		.loc 1 793 0
 2969 000a 0C23     		movs	r3, #12
 2970 000c FB18     		adds	r3, r7, r3
 2971 000e 2022     		movs	r2, #32
 2972 0010 1A80     		strh	r2, [r3]
 794:main.c        ****     
 795:main.c        ****     
ARM GAS  C:\Users\megan\AppData\Local\Temp\ccrMxWsc.s 			page 69


 796:main.c        ****     // Store value
 797:main.c        ****     bin->actual_temp = *(float32*)(fl_bytes);
 2973              		.loc 1 797 0
 2974 0012 3B68     		ldr	r3, [r7]
 2975 0014 1A68     		ldr	r2, [r3]
 2976 0016 7B68     		ldr	r3, [r7, #4]
 2977 0018 1A60     		str	r2, [r3]
 798:main.c        ****     
 799:main.c        ****     // Update interface
 800:main.c        ****     GUIUpdateBin1ActualTemp();
 2978              		.loc 1 800 0
 2979 001a FFF7FEFF 		bl	GUIUpdateBin1ActualTemp
 801:main.c        **** }
 2980              		.loc 1 801 0
 2981 001e C046     		nop
 2982 0020 BD46     		mov	sp, r7
 2983 0022 04B0     		add	sp, sp, #16
 2984              		@ sp needed
 2985 0024 80BD     		pop	{r7, pc}
 2986              		.cfi_endproc
 2987              	.LFE50:
 2988              		.size	TempReceive, .-TempReceive
 2989 0026 C046     		.section	.text.TempOutsideReceive,"ax",%progbits
 2990              		.align	2
 2991              		.global	TempOutsideReceive
 2992              		.code	16
 2993              		.thumb_func
 2994              		.type	TempOutsideReceive, %function
 2995              	TempOutsideReceive:
 2996              	.LFB51:
 802:main.c        **** 
 803:main.c        **** void TempOutsideReceive(uint8_t * fl_bytes) {
 2997              		.loc 1 803 0
 2998              		.cfi_startproc
 2999              		@ args = 0, pretend = 0, frame = 16
 3000              		@ frame_needed = 1, uses_anonymous_args = 0
 3001 0000 80B5     		push	{r7, lr}
 3002              		.cfi_def_cfa_offset 8
 3003              		.cfi_offset 7, -8
 3004              		.cfi_offset 14, -4
 3005 0002 84B0     		sub	sp, sp, #16
 3006              		.cfi_def_cfa_offset 24
 3007 0004 00AF     		add	r7, sp, #0
 3008              		.cfi_def_cfa_register 7
 3009 0006 7860     		str	r0, [r7, #4]
 804:main.c        ****     
 805:main.c        ****     char space[] = " ";
 3010              		.loc 1 805 0
 3011 0008 0C23     		movs	r3, #12
 3012 000a FB18     		adds	r3, r7, r3
 3013 000c 2022     		movs	r2, #32
 3014 000e 1A80     		strh	r2, [r3]
 806:main.c        ****     
 807:main.c        ****     
 808:main.c        ****     // Store value
 809:main.c        ****     outside.temp = *(float32*)(fl_bytes);
 3015              		.loc 1 809 0
ARM GAS  C:\Users\megan\AppData\Local\Temp\ccrMxWsc.s 			page 70


 3016 0010 7B68     		ldr	r3, [r7, #4]
 3017 0012 1A68     		ldr	r2, [r3]
 3018 0014 034B     		ldr	r3, .L113
 3019 0016 1A60     		str	r2, [r3]
 810:main.c        ****     
 811:main.c        ****     // Update interface
 812:main.c        ****     GUIUpdateOutsideTemp();
 3020              		.loc 1 812 0
 3021 0018 FFF7FEFF 		bl	GUIUpdateOutsideTemp
 813:main.c        **** }
 3022              		.loc 1 813 0
 3023 001c C046     		nop
 3024 001e BD46     		mov	sp, r7
 3025 0020 04B0     		add	sp, sp, #16
 3026              		@ sp needed
 3027 0022 80BD     		pop	{r7, pc}
 3028              	.L114:
 3029              		.align	2
 3030              	.L113:
 3031 0024 00000000 		.word	outside
 3032              		.cfi_endproc
 3033              	.LFE51:
 3034              		.size	TempOutsideReceive, .-TempOutsideReceive
 3035              		.global	__aeabi_uidivmod
 3036              		.global	__aeabi_uidiv
 3037              		.section	.text.PrintInt,"ax",%progbits
 3038              		.align	2
 3039              		.global	PrintInt
 3040              		.code	16
 3041              		.thumb_func
 3042              		.type	PrintInt, %function
 3043              	PrintInt:
 3044              	.LFB52:
 814:main.c        **** 
 815:main.c        **** void PrintInt(uint8_t n) {
 3045              		.loc 1 815 0
 3046              		.cfi_startproc
 3047              		@ args = 0, pretend = 0, frame = 16
 3048              		@ frame_needed = 1, uses_anonymous_args = 0
 3049 0000 90B5     		push	{r4, r7, lr}
 3050              		.cfi_def_cfa_offset 12
 3051              		.cfi_offset 4, -12
 3052              		.cfi_offset 7, -8
 3053              		.cfi_offset 14, -4
 3054 0002 85B0     		sub	sp, sp, #20
 3055              		.cfi_def_cfa_offset 32
 3056 0004 00AF     		add	r7, sp, #0
 3057              		.cfi_def_cfa_register 7
 3058 0006 0200     		movs	r2, r0
 3059 0008 FB1D     		adds	r3, r7, #7
 3060 000a 1A70     		strb	r2, [r3]
 816:main.c        ****     // Declarations
 817:main.c        ****     uint8_t d;
 818:main.c        ****     char p[] = "0";
 3061              		.loc 1 818 0
 3062 000c 0C23     		movs	r3, #12
 3063 000e FB18     		adds	r3, r7, r3
ARM GAS  C:\Users\megan\AppData\Local\Temp\ccrMxWsc.s 			page 71


 3064 0010 3022     		movs	r2, #48
 3065 0012 1A80     		strh	r2, [r3]
 819:main.c        ****     
 820:main.c        ****     // Separate LSB
 821:main.c        ****     d = n % 10;
 3066              		.loc 1 821 0
 3067 0014 0F23     		movs	r3, #15
 3068 0016 FC18     		adds	r4, r7, r3
 3069 0018 FB1D     		adds	r3, r7, #7
 3070 001a 1B78     		ldrb	r3, [r3]
 3071 001c 0A21     		movs	r1, #10
 3072 001e 1800     		movs	r0, r3
 3073 0020 FFF7FEFF 		bl	__aeabi_uidivmod
 3074 0024 0B00     		movs	r3, r1
 3075 0026 2370     		strb	r3, [r4]
 822:main.c        ****     
 823:main.c        ****     // Convert to ASCII (+48)
 824:main.c        ****     p[0] = (d + 48);
 3076              		.loc 1 824 0
 3077 0028 0F23     		movs	r3, #15
 3078 002a FB18     		adds	r3, r7, r3
 3079 002c 1B78     		ldrb	r3, [r3]
 3080 002e 3033     		adds	r3, r3, #48
 3081 0030 DAB2     		uxtb	r2, r3
 3082 0032 0C23     		movs	r3, #12
 3083 0034 FB18     		adds	r3, r7, r3
 3084 0036 1A70     		strb	r2, [r3]
 825:main.c        ****     
 826:main.c        ****     // Any digits to the left?
 827:main.c        ****     if (n / 10 != 0) {
 3085              		.loc 1 827 0
 3086 0038 FB1D     		adds	r3, r7, #7
 3087 003a 1B78     		ldrb	r3, [r3]
 3088 003c 092B     		cmp	r3, #9
 3089 003e 0AD9     		bls	.L116
 828:main.c        ****         PrintInt(n/10);
 3090              		.loc 1 828 0
 3091 0040 FB1D     		adds	r3, r7, #7
 3092 0042 1B78     		ldrb	r3, [r3]
 3093 0044 0A21     		movs	r1, #10
 3094 0046 1800     		movs	r0, r3
 3095 0048 FFF7FEFF 		bl	__aeabi_uidiv
 3096 004c 0300     		movs	r3, r0
 3097 004e DBB2     		uxtb	r3, r3
 3098 0050 1800     		movs	r0, r3
 3099 0052 FFF7FEFF 		bl	PrintInt
 3100              	.L116:
 829:main.c        ****     }
 830:main.c        ****     
 831:main.c        ****     textWrite(p,strlen(p));
 3101              		.loc 1 831 0
 3102 0056 0C23     		movs	r3, #12
 3103 0058 FB18     		adds	r3, r7, r3
 3104 005a 1800     		movs	r0, r3
 3105 005c FFF7FEFF 		bl	strlen
 3106 0060 0300     		movs	r3, r0
 3107 0062 9AB2     		uxth	r2, r3
ARM GAS  C:\Users\megan\AppData\Local\Temp\ccrMxWsc.s 			page 72


 3108 0064 0C23     		movs	r3, #12
 3109 0066 FB18     		adds	r3, r7, r3
 3110 0068 1100     		movs	r1, r2
 3111 006a 1800     		movs	r0, r3
 3112 006c FFF7FEFF 		bl	textWrite
 832:main.c        ****     return;
 3113              		.loc 1 832 0
 3114 0070 C046     		nop
 833:main.c        **** }
 3115              		.loc 1 833 0
 3116 0072 BD46     		mov	sp, r7
 3117 0074 05B0     		add	sp, sp, #20
 3118              		@ sp needed
 3119 0076 90BD     		pop	{r4, r7, pc}
 3120              		.cfi_endproc
 3121              	.LFE52:
 3122              		.size	PrintInt, .-PrintInt
 3123              		.global	__aeabi_f2iz
 3124              		.global	__aeabi_fsub
 3125              		.global	__aeabi_fmul
 3126              		.section	.text.PrintFloat,"ax",%progbits
 3127              		.align	2
 3128              		.global	PrintFloat
 3129              		.code	16
 3130              		.thumb_func
 3131              		.type	PrintFloat, %function
 3132              	PrintFloat:
 3133              	.LFB53:
 834:main.c        **** 
 835:main.c        **** void PrintFloat(float n) {
 3134              		.loc 1 835 0
 3135              		.cfi_startproc
 3136              		@ args = 0, pretend = 0, frame = 24
 3137              		@ frame_needed = 1, uses_anonymous_args = 0
 3138 0000 80B5     		push	{r7, lr}
 3139              		.cfi_def_cfa_offset 8
 3140              		.cfi_offset 7, -8
 3141              		.cfi_offset 14, -4
 3142 0002 86B0     		sub	sp, sp, #24
 3143              		.cfi_def_cfa_offset 32
 3144 0004 00AF     		add	r7, sp, #0
 3145              		.cfi_def_cfa_register 7
 3146 0006 7860     		str	r0, [r7, #4]
 836:main.c        ****     
 837:main.c        ****     char negative[] = "-";
 3147              		.loc 1 837 0
 3148 0008 0C23     		movs	r3, #12
 3149 000a FB18     		adds	r3, r7, r3
 3150 000c 2D22     		movs	r2, #45
 3151 000e 1A80     		strh	r2, [r3]
 838:main.c        ****     char dot[] = ".";
 3152              		.loc 1 838 0
 3153 0010 0823     		movs	r3, #8
 3154 0012 FB18     		adds	r3, r7, r3
 3155 0014 2E22     		movs	r2, #46
 3156 0016 1A80     		strh	r2, [r3]
 839:main.c        ****     
ARM GAS  C:\Users\megan\AppData\Local\Temp\ccrMxWsc.s 			page 73


 840:main.c        ****     
 841:main.c        ****     // Extract integer part
 842:main.c        ****     int ipart = (int) n;
 3157              		.loc 1 842 0
 3158 0018 7868     		ldr	r0, [r7, #4]
 3159 001a FFF7FEFF 		bl	__aeabi_f2iz
 3160 001e 0300     		movs	r3, r0
 3161 0020 7B61     		str	r3, [r7, #20]
 843:main.c        ****     
 844:main.c        ****     // Extract floating part
 845:main.c        ****     float fpart = n - (float) ipart;
 3162              		.loc 1 845 0
 3163 0022 7869     		ldr	r0, [r7, #20]
 3164 0024 FFF7FEFF 		bl	__aeabi_i2f
 3165 0028 031C     		adds	r3, r0, #0
 3166 002a 191C     		adds	r1, r3, #0
 3167 002c 7868     		ldr	r0, [r7, #4]
 3168 002e FFF7FEFF 		bl	__aeabi_fsub
 3169 0032 031C     		adds	r3, r0, #0
 3170 0034 3B61     		str	r3, [r7, #16]
 846:main.c        ****     
 847:main.c        ****     // Convert integer part to string
 848:main.c        ****     if (ipart < 0) {
 3171              		.loc 1 848 0
 3172 0036 7B69     		ldr	r3, [r7, #20]
 3173 0038 002B     		cmp	r3, #0
 3174 003a 0FDA     		bge	.L119
 849:main.c        ****         textWrite(negative,strlen(negative));
 3175              		.loc 1 849 0
 3176 003c 0C23     		movs	r3, #12
 3177 003e FB18     		adds	r3, r7, r3
 3178 0040 1800     		movs	r0, r3
 3179 0042 FFF7FEFF 		bl	strlen
 3180 0046 0300     		movs	r3, r0
 3181 0048 9AB2     		uxth	r2, r3
 3182 004a 0C23     		movs	r3, #12
 3183 004c FB18     		adds	r3, r7, r3
 3184 004e 1100     		movs	r1, r2
 3185 0050 1800     		movs	r0, r3
 3186 0052 FFF7FEFF 		bl	textWrite
 850:main.c        ****         ipart *= -1;
 3187              		.loc 1 850 0
 3188 0056 7B69     		ldr	r3, [r7, #20]
 3189 0058 5B42     		rsbs	r3, r3, #0
 3190 005a 7B61     		str	r3, [r7, #20]
 3191              	.L119:
 851:main.c        ****     }
 852:main.c        ****     PrintInt(ipart);
 3192              		.loc 1 852 0
 3193 005c 7B69     		ldr	r3, [r7, #20]
 3194 005e DBB2     		uxtb	r3, r3
 3195 0060 1800     		movs	r0, r3
 3196 0062 FFF7FEFF 		bl	PrintInt
 853:main.c        ****     
 854:main.c        ****     // Display 1 digit after decimal point
 855:main.c        ****     textWrite(dot,strlen(dot));
 3197              		.loc 1 855 0
ARM GAS  C:\Users\megan\AppData\Local\Temp\ccrMxWsc.s 			page 74


 3198 0066 0823     		movs	r3, #8
 3199 0068 FB18     		adds	r3, r7, r3
 3200 006a 1800     		movs	r0, r3
 3201 006c FFF7FEFF 		bl	strlen
 3202 0070 0300     		movs	r3, r0
 3203 0072 9AB2     		uxth	r2, r3
 3204 0074 0823     		movs	r3, #8
 3205 0076 FB18     		adds	r3, r7, r3
 3206 0078 1100     		movs	r1, r2
 3207 007a 1800     		movs	r0, r3
 3208 007c FFF7FEFF 		bl	textWrite
 856:main.c        ****     
 857:main.c        ****     // Get the value of the fraction part up to 1 digit
 858:main.c        ****     // after the dot.
 859:main.c        ****     fpart = fpart * pow(10,1);
 3209              		.loc 1 859 0
 3210 0080 0849     		ldr	r1, .L120
 3211 0082 3869     		ldr	r0, [r7, #16]
 3212 0084 FFF7FEFF 		bl	__aeabi_fmul
 3213 0088 031C     		adds	r3, r0, #0
 3214 008a 3B61     		str	r3, [r7, #16]
 860:main.c        ****     
 861:main.c        ****     PrintInt((int) fpart);    
 3215              		.loc 1 861 0
 3216 008c 3869     		ldr	r0, [r7, #16]
 3217 008e FFF7FEFF 		bl	__aeabi_f2iz
 3218 0092 0300     		movs	r3, r0
 3219 0094 DBB2     		uxtb	r3, r3
 3220 0096 1800     		movs	r0, r3
 3221 0098 FFF7FEFF 		bl	PrintInt
 862:main.c        **** }
 3222              		.loc 1 862 0
 3223 009c C046     		nop
 3224 009e BD46     		mov	sp, r7
 3225 00a0 06B0     		add	sp, sp, #24
 3226              		@ sp needed
 3227 00a2 80BD     		pop	{r7, pc}
 3228              	.L121:
 3229              		.align	2
 3230              	.L120:
 3231 00a4 00002041 		.word	1092616192
 3232              		.cfi_endproc
 3233              	.LFE53:
 3234              		.size	PrintFloat, .-PrintFloat
 3235              		.section	.text.RegReadTest,"ax",%progbits
 3236              		.align	2
 3237              		.global	RegReadTest
 3238              		.code	16
 3239              		.thumb_func
 3240              		.type	RegReadTest, %function
 3241              	RegReadTest:
 3242              	.LFB54:
 863:main.c        **** 
 864:main.c        **** void RegReadTest() {
 3243              		.loc 1 864 0
 3244              		.cfi_startproc
 3245              		@ args = 0, pretend = 0, frame = 8
ARM GAS  C:\Users\megan\AppData\Local\Temp\ccrMxWsc.s 			page 75


 3246              		@ frame_needed = 1, uses_anonymous_args = 0
 3247 0000 80B5     		push	{r7, lr}
 3248              		.cfi_def_cfa_offset 8
 3249              		.cfi_offset 7, -8
 3250              		.cfi_offset 14, -4
 3251 0002 82B0     		sub	sp, sp, #8
 3252              		.cfi_def_cfa_offset 16
 3253 0004 00AF     		add	r7, sp, #0
 3254              		.cfi_def_cfa_register 7
 865:main.c        ****     uint32 size_result = LCDSPI_SpiUartGetRxBufferSize();
 3255              		.loc 1 865 0
 3256 0006 FFF7FEFF 		bl	LCDSPI_SpiUartGetRxBufferSize
 3257 000a 0300     		movs	r3, r0
 3258 000c 7B60     		str	r3, [r7, #4]
 866:main.c        ****     uint32 reg_result = readReg(0x22);
 3259              		.loc 1 866 0
 3260 000e 2220     		movs	r0, #34
 3261 0010 FFF7FEFF 		bl	readReg
 3262 0014 0300     		movs	r3, r0
 3263 0016 3B60     		str	r3, [r7]
 867:main.c        ****     
 868:main.c        ****     if (size_result > 0) {
 3264              		.loc 1 868 0
 3265 0018 7B68     		ldr	r3, [r7, #4]
 3266 001a 002B     		cmp	r3, #0
 3267 001c 02D0     		beq	.L123
 869:main.c        ****         LED_BLUE_Write(0);
 3268              		.loc 1 869 0
 3269 001e 0020     		movs	r0, #0
 3270 0020 FFF7FEFF 		bl	LED_BLUE_Write
 3271              	.L123:
 870:main.c        ****     }
 871:main.c        ****     
 872:main.c        ****     if (reg_result != 0x0000) {
 3272              		.loc 1 872 0
 3273 0024 3B68     		ldr	r3, [r7]
 3274 0026 002B     		cmp	r3, #0
 3275 0028 03D0     		beq	.L124
 873:main.c        ****         LED_GREEN_Write(0);    
 3276              		.loc 1 873 0
 3277 002a 0020     		movs	r0, #0
 3278 002c FFF7FEFF 		bl	LED_GREEN_Write
 874:main.c        ****     }
 875:main.c        ****     else {
 876:main.c        ****         LED_GREEN_Write(1);
 877:main.c        ****     }  
 878:main.c        **** }
 3279              		.loc 1 878 0
 3280 0030 02E0     		b	.L126
 3281              	.L124:
 876:main.c        ****     }  
 3282              		.loc 1 876 0
 3283 0032 0120     		movs	r0, #1
 3284 0034 FFF7FEFF 		bl	LED_GREEN_Write
 3285              	.L126:
 3286              		.loc 1 878 0
 3287 0038 C046     		nop
ARM GAS  C:\Users\megan\AppData\Local\Temp\ccrMxWsc.s 			page 76


 3288 003a BD46     		mov	sp, r7
 3289 003c 02B0     		add	sp, sp, #8
 3290              		@ sp needed
 3291 003e 80BD     		pop	{r7, pc}
 3292              		.cfi_endproc
 3293              	.LFE54:
 3294              		.size	RegReadTest, .-RegReadTest
 3295              		.section	.rodata
 3296 0155 000000   		.align	2
 3297              	.LC74:
 3298 0158 4359424C 		.ascii	"CYBLE_ERROR_INVALID_PARAMETER\000"
 3298      455F4552 
 3298      524F525F 
 3298      494E5641 
 3298      4C49445F 
 3299 0176 0000     		.align	2
 3300              	.LC76:
 3301 0178 4359424C 		.ascii	"CYBLE_ERROR_INVALID_OPERATION\000"
 3301      455F4552 
 3301      524F525F 
 3301      494E5641 
 3301      4C49445F 
 3302 0196 0000     		.align	2
 3303              	.LC78:
 3304 0198 4359424C 		.ascii	"CYBLE_ERROR_MEMORY_ALLOCATION_FAILED\000"
 3304      455F4552 
 3304      524F525F 
 3304      4D454D4F 
 3304      52595F41 
 3305 01bd 000000   		.align	2
 3306              	.LC80:
 3307 01c0 4359424C 		.ascii	"CYBLE_ERROR_INVALID_STATE\000"
 3307      455F4552 
 3307      524F525F 
 3307      494E5641 
 3307      4C49445F 
 3308 01da 0000     		.align	2
 3309              	.LC0:
 3310 01dc 01       		.byte	1
 3311 01dd 00       		.byte	0
 3312 01de 00       		.byte	0
 3313 01df 50       		.byte	80
 3314 01e0 A0       		.byte	-96
 3315 01e1 00       		.byte	0
 3316 01e2 00       		.byte	0
 3317              		.section	.text.BLEConnect,"ax",%progbits
 3318              		.align	2
 3319              		.global	BLEConnect
 3320              		.code	16
 3321              		.thumb_func
 3322              		.type	BLEConnect, %function
 3323              	BLEConnect:
 3324              	.LFB55:
 879:main.c        **** 
 880:main.c        **** void BLEConnect() {
 3325              		.loc 1 880 0
 3326              		.cfi_startproc
ARM GAS  C:\Users\megan\AppData\Local\Temp\ccrMxWsc.s 			page 77


 3327              		@ args = 0, pretend = 0, frame = 224
 3328              		@ frame_needed = 1, uses_anonymous_args = 0
 3329 0000 90B5     		push	{r4, r7, lr}
 3330              		.cfi_def_cfa_offset 12
 3331              		.cfi_offset 4, -12
 3332              		.cfi_offset 7, -8
 3333              		.cfi_offset 14, -4
 3334 0002 B9B0     		sub	sp, sp, #228
 3335              		.cfi_def_cfa_offset 240
 3336 0004 00AF     		add	r7, sp, #0
 3337              		.cfi_def_cfa_register 7
 881:main.c        ****     
 882:main.c        ****      //------ Declarations ------/
 883:main.c        ****     // LCD Strings
 884:main.c        ****     char ok[] = "CYBLE_ERROR_OK";
 3338              		.loc 1 884 0
 3339 0006 CC23     		movs	r3, #204
 3340 0008 FB18     		adds	r3, r7, r3
 3341 000a 464A     		ldr	r2, .L132
 3342 000c 13CA     		ldmia	r2!, {r0, r1, r4}
 3343 000e 13C3     		stmia	r3!, {r0, r1, r4}
 3344 0010 1188     		ldrh	r1, [r2]
 3345 0012 1980     		strh	r1, [r3]
 3346 0014 9278     		ldrb	r2, [r2, #2]
 3347 0016 9A70     		strb	r2, [r3, #2]
 885:main.c        ****     char error[] = "CYBLE_ERROR_OCCURED";
 3348              		.loc 1 885 0
 3349 0018 B823     		movs	r3, #184
 3350 001a FB18     		adds	r3, r7, r3
 3351 001c 424A     		ldr	r2, .L132+4
 3352 001e 13CA     		ldmia	r2!, {r0, r1, r4}
 3353 0020 13C3     		stmia	r3!, {r0, r1, r4}
 3354 0022 03CA     		ldmia	r2!, {r0, r1}
 3355 0024 03C3     		stmia	r3!, {r0, r1}
 886:main.c        ****     char param[] = "CYBLE_ERROR_INVALID_PARAMETER";
 3356              		.loc 1 886 0
 3357 0026 9823     		movs	r3, #152
 3358 0028 FB18     		adds	r3, r7, r3
 3359 002a 404A     		ldr	r2, .L132+8
 3360 002c 13CA     		ldmia	r2!, {r0, r1, r4}
 3361 002e 13C3     		stmia	r3!, {r0, r1, r4}
 3362 0030 13CA     		ldmia	r2!, {r0, r1, r4}
 3363 0032 13C3     		stmia	r3!, {r0, r1, r4}
 3364 0034 1168     		ldr	r1, [r2]
 3365 0036 1960     		str	r1, [r3]
 3366 0038 9288     		ldrh	r2, [r2, #4]
 3367 003a 9A80     		strh	r2, [r3, #4]
 887:main.c        ****     char operation[] = "CYBLE_ERROR_INVALID_OPERATION";
 3368              		.loc 1 887 0
 3369 003c 7823     		movs	r3, #120
 3370 003e FB18     		adds	r3, r7, r3
 3371 0040 3B4A     		ldr	r2, .L132+12
 3372 0042 13CA     		ldmia	r2!, {r0, r1, r4}
 3373 0044 13C3     		stmia	r3!, {r0, r1, r4}
 3374 0046 13CA     		ldmia	r2!, {r0, r1, r4}
 3375 0048 13C3     		stmia	r3!, {r0, r1, r4}
 3376 004a 1168     		ldr	r1, [r2]
ARM GAS  C:\Users\megan\AppData\Local\Temp\ccrMxWsc.s 			page 78


 3377 004c 1960     		str	r1, [r3]
 3378 004e 9288     		ldrh	r2, [r2, #4]
 3379 0050 9A80     		strh	r2, [r3, #4]
 888:main.c        ****     char mem[] = "CYBLE_ERROR_MEMORY_ALLOCATION_FAILED";
 3380              		.loc 1 888 0
 3381 0052 5023     		movs	r3, #80
 3382 0054 FB18     		adds	r3, r7, r3
 3383 0056 374A     		ldr	r2, .L132+16
 3384 0058 13CA     		ldmia	r2!, {r0, r1, r4}
 3385 005a 13C3     		stmia	r3!, {r0, r1, r4}
 3386 005c 13CA     		ldmia	r2!, {r0, r1, r4}
 3387 005e 13C3     		stmia	r3!, {r0, r1, r4}
 3388 0060 13CA     		ldmia	r2!, {r0, r1, r4}
 3389 0062 13C3     		stmia	r3!, {r0, r1, r4}
 3390 0064 1278     		ldrb	r2, [r2]
 3391 0066 1A70     		strb	r2, [r3]
 889:main.c        ****     char state[] = "CYBLE_ERROR_INVALID_STATE";
 3392              		.loc 1 889 0
 3393 0068 3423     		movs	r3, #52
 3394 006a FB18     		adds	r3, r7, r3
 3395 006c 324A     		ldr	r2, .L132+20
 3396 006e 13CA     		ldmia	r2!, {r0, r1, r4}
 3397 0070 13C3     		stmia	r3!, {r0, r1, r4}
 3398 0072 13CA     		ldmia	r2!, {r0, r1, r4}
 3399 0074 13C3     		stmia	r3!, {r0, r1, r4}
 3400 0076 1288     		ldrh	r2, [r2]
 3401 0078 1A80     		strh	r2, [r3]
 890:main.c        ****     
 891:main.c        ****     CYBLE_API_RESULT_T                      apiResult;
 892:main.c        ****     
 893:main.c        **** //    CYBLE_CONN_HANDLE_T                     connHandle;
 894:main.c        ****     CYBLE_GATT_ATTR_HANDLE_RANGE_T          range;
 895:main.c        ****     CYBLE_UUID_T                            uuid;
 896:main.c        ****     CYBLE_GATTC_READ_BY_TYPE_REQ_T          readByTypeReqParam;
 897:main.c        ****     
 898:main.c        ****     CYBLE_API_RESULT_T scan_result;
 899:main.c        ****     CYBLE_API_RESULT_T connect_result;
 900:main.c        ****     CYBLE_STATE_T ble_state;
 901:main.c        ****     
 902:main.c        ****     //uint8 peripheral_address[6] = "000001";
 903:main.c        ****     //uint8 peripheral_add_type = 0;
 904:main.c        ****    // CYBLE_GAP_BD_ADDR_T peripheral_addr = {{0x00,0xA0,0x50,0x00,0x00,0x01}, 0};
 905:main.c        ****     CYBLE_GAP_BD_ADDR_T peripheral_addr = {{0x01,0x00,0x00,0x50,0xA0,0x00}, 0};
 3402              		.loc 1 905 0
 3403 007a 3A00     		movs	r2, r7
 3404 007c 2F4B     		ldr	r3, .L132+24
 3405 007e 1000     		movs	r0, r2
 3406 0080 1900     		movs	r1, r3
 3407 0082 0723     		movs	r3, #7
 3408 0084 1A00     		movs	r2, r3
 3409 0086 FFF7FEFF 		bl	memcpy
 906:main.c        ****     
 907:main.c        ****     //------ GAP -------//
 908:main.c        ****     
 909:main.c        ****     CyBle_ProcessEvents();
 3410              		.loc 1 909 0
 3411 008a FFF7FEFF 		bl	CyBle_ProcessEvents
ARM GAS  C:\Users\megan\AppData\Local\Temp\ccrMxWsc.s 			page 79


 910:main.c        ****     
 911:main.c        ****     scan_result = CyBle_GapcStartScan( CYBLE_SCANNING_FAST );
 3412              		.loc 1 911 0
 3413 008e DE23     		movs	r3, #222
 3414 0090 FC18     		adds	r4, r7, r3
 3415 0092 0020     		movs	r0, #0
 3416 0094 FFF7FEFF 		bl	CyBle_GapcStartScan
 3417 0098 0300     		movs	r3, r0
 3418 009a 2380     		strh	r3, [r4]
 912:main.c        ****     if (scan_result == CYBLE_ERROR_OK) {
 3419              		.loc 1 912 0
 3420 009c DE23     		movs	r3, #222
 3421 009e FB18     		adds	r3, r7, r3
 3422 00a0 1B88     		ldrh	r3, [r3]
 3423 00a2 002B     		cmp	r3, #0
 3424 00a4 02D1     		bne	.L128
 913:main.c        ****           LED_GREEN_Write(0);  
 3425              		.loc 1 913 0
 3426 00a6 0020     		movs	r0, #0
 3427 00a8 FFF7FEFF 		bl	LED_GREEN_Write
 3428              	.L128:
 914:main.c        ****     }
 915:main.c        ****     CyBle_ProcessEvents();
 3429              		.loc 1 915 0
 3430 00ac FFF7FEFF 		bl	CyBle_ProcessEvents
 916:main.c        ****     CyBle_GapcStopScan();
 3431              		.loc 1 916 0
 3432 00b0 FFF7FEFF 		bl	CyBle_GapcStopScan
 917:main.c        ****     CyBle_ProcessEvents();
 3433              		.loc 1 917 0
 3434 00b4 FFF7FEFF 		bl	CyBle_ProcessEvents
 918:main.c        **** //    if (DevicesNearBy == 0) {
 919:main.c        **** //        LED_BLUE_Write(0);   
 920:main.c        **** //    }
 921:main.c        **** //    CyDelay(1000);
 922:main.c        ****     connect_result = CyBle_GapcConnectDevice( &peripheral_addr );
 3435              		.loc 1 922 0
 3436 00b8 DC23     		movs	r3, #220
 3437 00ba FC18     		adds	r4, r7, r3
 3438 00bc 3B00     		movs	r3, r7
 3439 00be 1800     		movs	r0, r3
 3440 00c0 FFF7FEFF 		bl	CyBle_GapcConnectDevice
 3441 00c4 0300     		movs	r3, r0
 3442 00c6 2380     		strh	r3, [r4]
 923:main.c        ****     
 924:main.c        ****     CyBle_ProcessEvents();
 3443              		.loc 1 924 0
 3444 00c8 FFF7FEFF 		bl	CyBle_ProcessEvents
 925:main.c        ****     if (connect_result == CYBLE_ERROR_OK) {
 3445              		.loc 1 925 0
 3446 00cc DC23     		movs	r3, #220
 3447 00ce FB18     		adds	r3, r7, r3
 3448 00d0 1B88     		ldrh	r3, [r3]
 3449 00d2 002B     		cmp	r3, #0
 3450 00d4 0FD1     		bne	.L129
 926:main.c        ****         LED_BLUE_Write(0); 
 3451              		.loc 1 926 0
ARM GAS  C:\Users\megan\AppData\Local\Temp\ccrMxWsc.s 			page 80


 3452 00d6 0020     		movs	r0, #0
 3453 00d8 FFF7FEFF 		bl	LED_BLUE_Write
 927:main.c        ****         CyDelay(500);
 3454              		.loc 1 927 0
 3455 00dc FA23     		movs	r3, #250
 3456 00de 5B00     		lsls	r3, r3, #1
 3457 00e0 1800     		movs	r0, r3
 3458 00e2 FFF7FEFF 		bl	CyDelay
 928:main.c        ****         LED_BLUE_Write(1);
 3459              		.loc 1 928 0
 3460 00e6 0120     		movs	r0, #1
 3461 00e8 FFF7FEFF 		bl	LED_BLUE_Write
 929:main.c        ****         CyDelay(500);
 3462              		.loc 1 929 0
 3463 00ec FA23     		movs	r3, #250
 3464 00ee 5B00     		lsls	r3, r3, #1
 3465 00f0 1800     		movs	r0, r3
 3466 00f2 FFF7FEFF 		bl	CyDelay
 3467              	.L129:
 930:main.c        ****     }
 931:main.c        ****     
 932:main.c        ****     //------ GATT ------//
 933:main.c        **** //    
 934:main.c        **** //            range.startHandle   = 0x0001;
 935:main.c        **** //            range.endHandle     = 0xFFFF;
 936:main.c        **** //            uuid.uuid16         = 0x14BF; 
 937:main.c        **** //   
 938:main.c        **** //            readByTypeReqParam.range = range;
 939:main.c        **** //            readByTypeReqParam.uuid = uuid;
 940:main.c        **** //            readByTypeReqParam.uuidFormat = 0x01;
 941:main.c        ****     
 942:main.c        **** //    connHandle.bdHandle = CYBLE_GAP_MAX_BONDED_DEVICE;
 943:main.c        **** //    connHandle.attId = 0;
 944:main.c        ****     
 945:main.c        **** //    apiResult = CyBle_GattcStartDiscovery(cyBle_connHandle);
 946:main.c        **** //    
 947:main.c        **** //     if ( apiResult == CYBLE_ERROR_OK )
 948:main.c        **** //                textWrite(ok,strlen(ok));
 949:main.c        **** //    else if ( apiResult == CYBLE_ERROR_INVALID_PARAMETER)
 950:main.c        **** //        textWrite(param,strlen(param));                                             
 951:main.c        **** //    else if ( apiResult == CYBLE_ERROR_INVALID_OPERATION) 
 952:main.c        **** //        textWrite(operation,strlen(operation));
 953:main.c        **** //    else if ( apiResult == CYBLE_ERROR_MEMORY_ALLOCATION_FAILED) 
 954:main.c        **** //        textWrite(mem,strlen(mem)); 
 955:main.c        **** //    else if ( apiResult == CYBLE_ERROR_INVALID_STATE)                       // ERRORING HERE!
 956:main.c        **** //        textWrite(state,strlen(state)); 
 957:main.c        **** 
 958:main.c        ****     
 959:main.c        ****     //while(1) {
 960:main.c        ****         ble_state = CyBle_GetState();
 3468              		.loc 1 960 0
 3469 00f6 DB23     		movs	r3, #219
 3470 00f8 FB18     		adds	r3, r7, r3
 3471 00fa 114A     		ldr	r2, .L132+28
 3472 00fc 1278     		ldrb	r2, [r2]
 3473 00fe 1A70     		strb	r2, [r3]
 961:main.c        ****         if (ble_state == CYBLE_STATE_CONNECTED ) {
ARM GAS  C:\Users\megan\AppData\Local\Temp\ccrMxWsc.s 			page 81


 3474              		.loc 1 961 0
 3475 0100 DB23     		movs	r3, #219
 3476 0102 FB18     		adds	r3, r7, r3
 3477 0104 1B78     		ldrb	r3, [r3]
 3478 0106 022B     		cmp	r3, #2
 3479 0108 03D1     		bne	.L130
 962:main.c        ****             LED_BLUE_Write(0);   
 3480              		.loc 1 962 0
 3481 010a 0020     		movs	r0, #0
 3482 010c FFF7FEFF 		bl	LED_BLUE_Write
 3483 0110 02E0     		b	.L131
 3484              	.L130:
 963:main.c        **** //                        apiResult = CyBle_GattcReadUsingCharacteristicUuid(cyBle_connHandle,&read
 964:main.c        **** //                    if ( apiResult == CYBLE_ERROR_OK )
 965:main.c        **** //                textWrite(ok,strlen(ok));
 966:main.c        **** //            else if ( apiResult == CYBLE_ERROR_INVALID_PARAMETER )
 967:main.c        **** //                textWrite(param,strlen(param));
 968:main.c        **** //            else if ( apiResult == CYBLE_ERROR_INVALID_OPERATION )
 969:main.c        **** //                textWrite(operation,strlen(operation));
 970:main.c        ****         }
 971:main.c        ****         else {
 972:main.c        ****             LED_BLUE_Write(1);
 3485              		.loc 1 972 0
 3486 0112 0120     		movs	r0, #1
 3487 0114 FFF7FEFF 		bl	LED_BLUE_Write
 3488              	.L131:
 973:main.c        ****         }
 974:main.c        ****             
 975:main.c        ****             
 976:main.c        ****             //textWrite(serviceCount,strlen(serviceCount));
 977:main.c        ****             //PrintInt(CYBLE_SRVI_COUNT);
 978:main.c        ****             
 979:main.c        ****             //apiResult = CyBle_GattcDiscoverAllCharacteristics(connHandle, range);
 980:main.c        ****    
 981:main.c        **** 
 982:main.c        ****         CyBle_ProcessEvents();
 3489              		.loc 1 982 0
 3490 0118 FFF7FEFF 		bl	CyBle_ProcessEvents
 983:main.c        **** //        CyDelay(1000);
 984:main.c        ****     //}
 985:main.c        ****     
 986:main.c        ****     
 987:main.c        **** }
 3491              		.loc 1 987 0
 3492 011c C046     		nop
 3493 011e BD46     		mov	sp, r7
 3494 0120 39B0     		add	sp, sp, #228
 3495              		@ sp needed
 3496 0122 90BD     		pop	{r4, r7, pc}
 3497              	.L133:
 3498              		.align	2
 3499              	.L132:
 3500 0124 00000000 		.word	.LC7
 3501 0128 10000000 		.word	.LC9
 3502 012c 58010000 		.word	.LC74
 3503 0130 78010000 		.word	.LC76
 3504 0134 98010000 		.word	.LC78
ARM GAS  C:\Users\megan\AppData\Local\Temp\ccrMxWsc.s 			page 82


 3505 0138 C0010000 		.word	.LC80
 3506 013c DC010000 		.word	.LC0
 3507 0140 00000000 		.word	cyBle_state
 3508              		.cfi_endproc
 3509              	.LFE55:
 3510              		.size	BLEConnect, .-BLEConnect
 3511              		.section	.text.BLEIndicator,"ax",%progbits
 3512              		.align	2
 3513              		.global	BLEIndicator
 3514              		.code	16
 3515              		.thumb_func
 3516              		.type	BLEIndicator, %function
 3517              	BLEIndicator:
 3518              	.LFB56:
 988:main.c        **** 
 989:main.c        **** void BLEIndicator() {
 3519              		.loc 1 989 0
 3520              		.cfi_startproc
 3521              		@ args = 0, pretend = 0, frame = 8
 3522              		@ frame_needed = 1, uses_anonymous_args = 0
 3523 0000 80B5     		push	{r7, lr}
 3524              		.cfi_def_cfa_offset 8
 3525              		.cfi_offset 7, -8
 3526              		.cfi_offset 14, -4
 3527 0002 82B0     		sub	sp, sp, #8
 3528              		.cfi_def_cfa_offset 16
 3529 0004 00AF     		add	r7, sp, #0
 3530              		.cfi_def_cfa_register 7
 990:main.c        ****     
 991:main.c        ****     CYBLE_STATE_T ble_state;
 992:main.c        ****     
 993:main.c        ****     
 994:main.c        ****     ble_state = CyBle_GetState();
 3531              		.loc 1 994 0
 3532 0006 FB1D     		adds	r3, r7, #7
 3533 0008 084A     		ldr	r2, .L138
 3534 000a 1278     		ldrb	r2, [r2]
 3535 000c 1A70     		strb	r2, [r3]
 995:main.c        ****         if (ble_state == CYBLE_STATE_CONNECTED ) {
 3536              		.loc 1 995 0
 3537 000e FB1D     		adds	r3, r7, #7
 3538 0010 1B78     		ldrb	r3, [r3]
 3539 0012 022B     		cmp	r3, #2
 3540 0014 03D1     		bne	.L135
 996:main.c        ****             LED_BLUE_Write(0);
 3541              		.loc 1 996 0
 3542 0016 0020     		movs	r0, #0
 3543 0018 FFF7FEFF 		bl	LED_BLUE_Write
 997:main.c        ****         }
 998:main.c        ****         else {
 999:main.c        ****             LED_BLUE_Write(1);
1000:main.c        ****         }
1001:main.c        **** }
 3544              		.loc 1 1001 0
 3545 001c 02E0     		b	.L137
 3546              	.L135:
 999:main.c        ****         }
ARM GAS  C:\Users\megan\AppData\Local\Temp\ccrMxWsc.s 			page 83


 3547              		.loc 1 999 0
 3548 001e 0120     		movs	r0, #1
 3549 0020 FFF7FEFF 		bl	LED_BLUE_Write
 3550              	.L137:
 3551              		.loc 1 1001 0
 3552 0024 C046     		nop
 3553 0026 BD46     		mov	sp, r7
 3554 0028 02B0     		add	sp, sp, #8
 3555              		@ sp needed
 3556 002a 80BD     		pop	{r7, pc}
 3557              	.L139:
 3558              		.align	2
 3559              	.L138:
 3560 002c 00000000 		.word	cyBle_state
 3561              		.cfi_endproc
 3562              	.LFE56:
 3563              		.size	BLEIndicator, .-BLEIndicator
 3564              		.section	.text.FanTest,"ax",%progbits
 3565              		.align	2
 3566              		.global	FanTest
 3567              		.code	16
 3568              		.thumb_func
 3569              		.type	FanTest, %function
 3570              	FanTest:
 3571              	.LFB57:
1002:main.c        **** 
1003:main.c        **** void FanTest() {
 3572              		.loc 1 1003 0
 3573              		.cfi_startproc
 3574              		@ args = 0, pretend = 0, frame = 0
 3575              		@ frame_needed = 1, uses_anonymous_args = 0
 3576 0000 80B5     		push	{r7, lr}
 3577              		.cfi_def_cfa_offset 8
 3578              		.cfi_offset 7, -8
 3579              		.cfi_offset 14, -4
 3580 0002 00AF     		add	r7, sp, #0
 3581              		.cfi_def_cfa_register 7
 3582              	.L141:
1004:main.c        ****     while(1) {
1005:main.c        ****         FAN1_Write(1);
 3583              		.loc 1 1005 0 discriminator 1
 3584 0004 0120     		movs	r0, #1
 3585 0006 FFF7FEFF 		bl	FAN1_Write
1006:main.c        ****         FAN2_Write(1);
 3586              		.loc 1 1006 0 discriminator 1
 3587 000a 0120     		movs	r0, #1
 3588 000c FFF7FEFF 		bl	FAN2_Write
1007:main.c        ****         FAN3_Write(1);
 3589              		.loc 1 1007 0 discriminator 1
 3590 0010 0120     		movs	r0, #1
 3591 0012 FFF7FEFF 		bl	FAN3_Write
1008:main.c        ****         CyDelay(1000);
 3592              		.loc 1 1008 0 discriminator 1
 3593 0016 FA23     		movs	r3, #250
 3594 0018 9B00     		lsls	r3, r3, #2
 3595 001a 1800     		movs	r0, r3
 3596 001c FFF7FEFF 		bl	CyDelay
ARM GAS  C:\Users\megan\AppData\Local\Temp\ccrMxWsc.s 			page 84


1009:main.c        ****         FAN1_Write(0);
 3597              		.loc 1 1009 0 discriminator 1
 3598 0020 0020     		movs	r0, #0
 3599 0022 FFF7FEFF 		bl	FAN1_Write
1010:main.c        ****         FAN2_Write(0);
 3600              		.loc 1 1010 0 discriminator 1
 3601 0026 0020     		movs	r0, #0
 3602 0028 FFF7FEFF 		bl	FAN2_Write
1011:main.c        ****         FAN3_Write(0);
 3603              		.loc 1 1011 0 discriminator 1
 3604 002c 0020     		movs	r0, #0
 3605 002e FFF7FEFF 		bl	FAN3_Write
1012:main.c        ****         CyDelay(1000);
 3606              		.loc 1 1012 0 discriminator 1
 3607 0032 FA23     		movs	r3, #250
 3608 0034 9B00     		lsls	r3, r3, #2
 3609 0036 1800     		movs	r0, r3
 3610 0038 FFF7FEFF 		bl	CyDelay
1013:main.c        ****     }
 3611              		.loc 1 1013 0 discriminator 1
 3612 003c E2E7     		b	.L141
 3613              		.cfi_endproc
 3614              	.LFE57:
 3615              		.size	FanTest, .-FanTest
 3616 003e C046     		.section	.text.FanUpdate,"ax",%progbits
 3617              		.align	2
 3618              		.global	FanUpdate
 3619              		.code	16
 3620              		.thumb_func
 3621              		.type	FanUpdate, %function
 3622              	FanUpdate:
 3623              	.LFB58:
1014:main.c        **** }
1015:main.c        **** 
1016:main.c        **** void FanUpdate() {
 3624              		.loc 1 1016 0
 3625              		.cfi_startproc
 3626              		@ args = 0, pretend = 0, frame = 0
 3627              		@ frame_needed = 1, uses_anonymous_args = 0
 3628 0000 80B5     		push	{r7, lr}
 3629              		.cfi_def_cfa_offset 8
 3630              		.cfi_offset 7, -8
 3631              		.cfi_offset 14, -4
 3632 0002 00AF     		add	r7, sp, #0
 3633              		.cfi_def_cfa_register 7
1017:main.c        ****     
1018:main.c        ****     if (bin1.fan_on == true) {
 3634              		.loc 1 1018 0
 3635 0004 064B     		ldr	r3, .L146
 3636 0006 5B79     		ldrb	r3, [r3, #5]
 3637 0008 012B     		cmp	r3, #1
 3638 000a 03D1     		bne	.L143
1019:main.c        ****         FAN1_Write(1);
 3639              		.loc 1 1019 0
 3640 000c 0120     		movs	r0, #1
 3641 000e FFF7FEFF 		bl	FAN1_Write
1020:main.c        ****     } else {
ARM GAS  C:\Users\megan\AppData\Local\Temp\ccrMxWsc.s 			page 85


1021:main.c        ****         FAN1_Write(0);
1022:main.c        ****     }
1023:main.c        **** }
 3642              		.loc 1 1023 0
 3643 0012 02E0     		b	.L145
 3644              	.L143:
1021:main.c        ****     }
 3645              		.loc 1 1021 0
 3646 0014 0020     		movs	r0, #0
 3647 0016 FFF7FEFF 		bl	FAN1_Write
 3648              	.L145:
 3649              		.loc 1 1023 0
 3650 001a C046     		nop
 3651 001c BD46     		mov	sp, r7
 3652              		@ sp needed
 3653 001e 80BD     		pop	{r7, pc}
 3654              	.L147:
 3655              		.align	2
 3656              	.L146:
 3657 0020 00000000 		.word	bin1
 3658              		.cfi_endproc
 3659              	.LFE58:
 3660              		.size	FanUpdate, .-FanUpdate
 3661              		.text
 3662              	.Letext0:
 3663              		.file 2 "c:\\program files (x86)\\cypress\\psoc creator\\4.1\\psoc creator\\import\\gnu\\arm\\5.4.
 3664              		.file 3 "c:\\program files (x86)\\cypress\\psoc creator\\4.1\\psoc creator\\import\\gnu\\arm\\5.4.
 3665              		.file 4 "Generated_Source\\PSoC4/cytypes.h"
 3666              		.file 5 "Generated_Source\\PSoC4/BLE_1_Stack.h"
 3667              		.file 6 "Generated_Source\\PSoC4/BLE_1_StackGap.h"
 3668              		.file 7 "Generated_Source\\PSoC4/BLE_1_StackGatt.h"
 3669              		.file 8 "Generated_Source\\PSoC4/BLE_1_StackGattClient.h"
 3670              		.file 9 "Generated_Source\\PSoC4/BLE_1_eventHandler.h"
 3671              		.file 10 "./RA8875.h"
 3672              		.section	.debug_info,"",%progbits
 3673              	.Ldebug_info0:
 3674 0000 7F1A0000 		.4byte	0x1a7f
 3675 0004 0400     		.2byte	0x4
 3676 0006 00000000 		.4byte	.Ldebug_abbrev0
 3677 000a 04       		.byte	0x4
 3678 000b 01       		.uleb128 0x1
 3679 000c 0C0D0000 		.4byte	.LASF577
 3680 0010 0C       		.byte	0xc
 3681 0011 90380000 		.4byte	.LASF578
 3682 0015 08260000 		.4byte	.LASF579
 3683 0019 00000000 		.4byte	.Ldebug_ranges0+0
 3684 001d 00000000 		.4byte	0
 3685 0021 00000000 		.4byte	.Ldebug_line0
 3686 0025 02       		.uleb128 0x2
 3687 0026 01       		.byte	0x1
 3688 0027 06       		.byte	0x6
 3689 0028 FE1F0000 		.4byte	.LASF0
 3690 002c 03       		.uleb128 0x3
 3691 002d 7D010000 		.4byte	.LASF3
 3692 0031 02       		.byte	0x2
 3693 0032 1D       		.byte	0x1d
 3694 0033 37000000 		.4byte	0x37
ARM GAS  C:\Users\megan\AppData\Local\Temp\ccrMxWsc.s 			page 86


 3695 0037 02       		.uleb128 0x2
 3696 0038 01       		.byte	0x1
 3697 0039 08       		.byte	0x8
 3698 003a A60D0000 		.4byte	.LASF1
 3699 003e 02       		.uleb128 0x2
 3700 003f 02       		.byte	0x2
 3701 0040 05       		.byte	0x5
 3702 0041 CA3B0000 		.4byte	.LASF2
 3703 0045 03       		.uleb128 0x3
 3704 0046 C50B0000 		.4byte	.LASF4
 3705 004a 02       		.byte	0x2
 3706 004b 2B       		.byte	0x2b
 3707 004c 50000000 		.4byte	0x50
 3708 0050 02       		.uleb128 0x2
 3709 0051 02       		.byte	0x2
 3710 0052 07       		.byte	0x7
 3711 0053 D11F0000 		.4byte	.LASF5
 3712 0057 02       		.uleb128 0x2
 3713 0058 04       		.byte	0x4
 3714 0059 05       		.byte	0x5
 3715 005a 68230000 		.4byte	.LASF6
 3716 005e 02       		.uleb128 0x2
 3717 005f 04       		.byte	0x4
 3718 0060 07       		.byte	0x7
 3719 0061 4D270000 		.4byte	.LASF7
 3720 0065 02       		.uleb128 0x2
 3721 0066 08       		.byte	0x8
 3722 0067 05       		.byte	0x5
 3723 0068 FF360000 		.4byte	.LASF8
 3724 006c 02       		.uleb128 0x2
 3725 006d 08       		.byte	0x8
 3726 006e 07       		.byte	0x7
 3727 006f 97320000 		.4byte	.LASF9
 3728 0073 04       		.uleb128 0x4
 3729 0074 04       		.byte	0x4
 3730 0075 05       		.byte	0x5
 3731 0076 696E7400 		.ascii	"int\000"
 3732 007a 02       		.uleb128 0x2
 3733 007b 04       		.byte	0x4
 3734 007c 07       		.byte	0x7
 3735 007d 6F3B0000 		.4byte	.LASF10
 3736 0081 03       		.uleb128 0x3
 3737 0082 77150000 		.4byte	.LASF11
 3738 0086 03       		.byte	0x3
 3739 0087 18       		.byte	0x18
 3740 0088 2C000000 		.4byte	0x2c
 3741 008c 03       		.uleb128 0x3
 3742 008d 0C040000 		.4byte	.LASF12
 3743 0091 03       		.byte	0x3
 3744 0092 24       		.byte	0x24
 3745 0093 45000000 		.4byte	0x45
 3746 0097 05       		.uleb128 0x5
 3747 0098 FF070000 		.4byte	.LASF13
 3748 009c 04       		.byte	0x4
 3749 009d D201     		.2byte	0x1d2
 3750 009f 37000000 		.4byte	0x37
 3751 00a3 05       		.uleb128 0x5
ARM GAS  C:\Users\megan\AppData\Local\Temp\ccrMxWsc.s 			page 87


 3752 00a4 EF260000 		.4byte	.LASF14
 3753 00a8 04       		.byte	0x4
 3754 00a9 D301     		.2byte	0x1d3
 3755 00ab 50000000 		.4byte	0x50
 3756 00af 05       		.uleb128 0x5
 3757 00b0 F3280000 		.4byte	.LASF15
 3758 00b4 04       		.byte	0x4
 3759 00b5 D401     		.2byte	0x1d4
 3760 00b7 5E000000 		.4byte	0x5e
 3761 00bb 05       		.uleb128 0x5
 3762 00bc 5D1A0000 		.4byte	.LASF16
 3763 00c0 04       		.byte	0x4
 3764 00c1 D501     		.2byte	0x1d5
 3765 00c3 25000000 		.4byte	0x25
 3766 00c7 05       		.uleb128 0x5
 3767 00c8 C7130000 		.4byte	.LASF17
 3768 00cc 04       		.byte	0x4
 3769 00cd D801     		.2byte	0x1d8
 3770 00cf D3000000 		.4byte	0xd3
 3771 00d3 02       		.uleb128 0x2
 3772 00d4 04       		.byte	0x4
 3773 00d5 04       		.byte	0x4
 3774 00d6 F80D0000 		.4byte	.LASF18
 3775 00da 02       		.uleb128 0x2
 3776 00db 08       		.byte	0x8
 3777 00dc 04       		.byte	0x4
 3778 00dd D22D0000 		.4byte	.LASF19
 3779 00e1 02       		.uleb128 0x2
 3780 00e2 01       		.byte	0x1
 3781 00e3 08       		.byte	0x8
 3782 00e4 30280000 		.4byte	.LASF20
 3783 00e8 05       		.uleb128 0x5
 3784 00e9 481F0000 		.4byte	.LASF21
 3785 00ed 04       		.byte	0x4
 3786 00ee 7E02     		.2byte	0x27e
 3787 00f0 F4000000 		.4byte	0xf4
 3788 00f4 06       		.uleb128 0x6
 3789 00f5 AF000000 		.4byte	0xaf
 3790 00f9 02       		.uleb128 0x2
 3791 00fa 08       		.byte	0x8
 3792 00fb 04       		.byte	0x4
 3793 00fc 7F260000 		.4byte	.LASF22
 3794 0100 02       		.uleb128 0x2
 3795 0101 04       		.byte	0x4
 3796 0102 07       		.byte	0x7
 3797 0103 8F2F0000 		.4byte	.LASF23
 3798 0107 07       		.uleb128 0x7
 3799 0108 04       		.byte	0x4
 3800 0109 08       		.uleb128 0x8
 3801 010a E1000000 		.4byte	0xe1
 3802 010e 19010000 		.4byte	0x119
 3803 0112 09       		.uleb128 0x9
 3804 0113 00010000 		.4byte	0x100
 3805 0117 19       		.byte	0x19
 3806 0118 00       		.byte	0
 3807 0119 08       		.uleb128 0x8
 3808 011a E1000000 		.4byte	0xe1
ARM GAS  C:\Users\megan\AppData\Local\Temp\ccrMxWsc.s 			page 88


 3809 011e 29010000 		.4byte	0x129
 3810 0122 09       		.uleb128 0x9
 3811 0123 00010000 		.4byte	0x100
 3812 0127 07       		.byte	0x7
 3813 0128 00       		.byte	0
 3814 0129 0A       		.uleb128 0xa
 3815 012a 01       		.byte	0x1
 3816 012b 37000000 		.4byte	0x37
 3817 012f 05       		.byte	0x5
 3818 0130 4D01     		.2byte	0x14d
 3819 0132 E7020000 		.4byte	0x2e7
 3820 0136 0B       		.uleb128 0xb
 3821 0137 A01F0000 		.4byte	.LASF24
 3822 013b 00       		.byte	0
 3823 013c 0B       		.uleb128 0xb
 3824 013d 15040000 		.4byte	.LASF25
 3825 0141 01       		.byte	0x1
 3826 0142 0B       		.uleb128 0xb
 3827 0143 5B120000 		.4byte	.LASF26
 3828 0147 02       		.byte	0x2
 3829 0148 0B       		.uleb128 0xb
 3830 0149 2F090000 		.4byte	.LASF27
 3831 014d 03       		.byte	0x3
 3832 014e 0B       		.uleb128 0xb
 3833 014f AE040000 		.4byte	.LASF28
 3834 0153 04       		.byte	0x4
 3835 0154 0B       		.uleb128 0xb
 3836 0155 DD240000 		.4byte	.LASF29
 3837 0159 05       		.byte	0x5
 3838 015a 0B       		.uleb128 0xb
 3839 015b A2170000 		.4byte	.LASF30
 3840 015f 06       		.byte	0x6
 3841 0160 0B       		.uleb128 0xb
 3842 0161 A0110000 		.4byte	.LASF31
 3843 0165 20       		.byte	0x20
 3844 0166 0B       		.uleb128 0xb
 3845 0167 5B0F0000 		.4byte	.LASF32
 3846 016b 21       		.byte	0x21
 3847 016c 0B       		.uleb128 0xb
 3848 016d EB040000 		.4byte	.LASF33
 3849 0171 22       		.byte	0x22
 3850 0172 0B       		.uleb128 0xb
 3851 0173 EF3B0000 		.4byte	.LASF34
 3852 0177 23       		.byte	0x23
 3853 0178 0B       		.uleb128 0xb
 3854 0179 AB010000 		.4byte	.LASF35
 3855 017d 24       		.byte	0x24
 3856 017e 0B       		.uleb128 0xb
 3857 017f 48310000 		.4byte	.LASF36
 3858 0183 25       		.byte	0x25
 3859 0184 0B       		.uleb128 0xb
 3860 0185 B40D0000 		.4byte	.LASF37
 3861 0189 26       		.byte	0x26
 3862 018a 0B       		.uleb128 0xb
 3863 018b B01E0000 		.4byte	.LASF38
 3864 018f 27       		.byte	0x27
 3865 0190 0B       		.uleb128 0xb
ARM GAS  C:\Users\megan\AppData\Local\Temp\ccrMxWsc.s 			page 89


 3866 0191 C2250000 		.4byte	.LASF39
 3867 0195 28       		.byte	0x28
 3868 0196 0B       		.uleb128 0xb
 3869 0197 931E0000 		.4byte	.LASF40
 3870 019b 29       		.byte	0x29
 3871 019c 0B       		.uleb128 0xb
 3872 019d 04340000 		.4byte	.LASF41
 3873 01a1 2A       		.byte	0x2a
 3874 01a2 0B       		.uleb128 0xb
 3875 01a3 5B370000 		.4byte	.LASF42
 3876 01a7 2B       		.byte	0x2b
 3877 01a8 0B       		.uleb128 0xb
 3878 01a9 DE230000 		.4byte	.LASF43
 3879 01ad 2C       		.byte	0x2c
 3880 01ae 0B       		.uleb128 0xb
 3881 01af 71360000 		.4byte	.LASF44
 3882 01b3 2D       		.byte	0x2d
 3883 01b4 0B       		.uleb128 0xb
 3884 01b5 20220000 		.4byte	.LASF45
 3885 01b9 2E       		.byte	0x2e
 3886 01ba 0B       		.uleb128 0xb
 3887 01bb 133A0000 		.4byte	.LASF46
 3888 01bf 2F       		.byte	0x2f
 3889 01c0 0B       		.uleb128 0xb
 3890 01c1 71160000 		.4byte	.LASF47
 3891 01c5 30       		.byte	0x30
 3892 01c6 0B       		.uleb128 0xb
 3893 01c7 7C3B0000 		.4byte	.LASF48
 3894 01cb 31       		.byte	0x31
 3895 01cc 0B       		.uleb128 0xb
 3896 01cd BC070000 		.4byte	.LASF49
 3897 01d1 32       		.byte	0x32
 3898 01d2 0B       		.uleb128 0xb
 3899 01d3 2E0B0000 		.4byte	.LASF50
 3900 01d7 33       		.byte	0x33
 3901 01d8 0B       		.uleb128 0xb
 3902 01d9 422E0000 		.4byte	.LASF51
 3903 01dd 34       		.byte	0x34
 3904 01de 0B       		.uleb128 0xb
 3905 01df A6330000 		.4byte	.LASF52
 3906 01e3 35       		.byte	0x35
 3907 01e4 0B       		.uleb128 0xb
 3908 01e5 BC360000 		.4byte	.LASF53
 3909 01e9 36       		.byte	0x36
 3910 01ea 0B       		.uleb128 0xb
 3911 01eb A02E0000 		.4byte	.LASF54
 3912 01ef 37       		.byte	0x37
 3913 01f0 0B       		.uleb128 0xb
 3914 01f1 C70C0000 		.4byte	.LASF55
 3915 01f5 40       		.byte	0x40
 3916 01f6 0B       		.uleb128 0xb
 3917 01f7 272E0000 		.4byte	.LASF56
 3918 01fb 41       		.byte	0x41
 3919 01fc 0B       		.uleb128 0xb
 3920 01fd FA190000 		.4byte	.LASF57
 3921 0201 42       		.byte	0x42
 3922 0202 0B       		.uleb128 0xb
ARM GAS  C:\Users\megan\AppData\Local\Temp\ccrMxWsc.s 			page 90


 3923 0203 DE2B0000 		.4byte	.LASF58
 3924 0207 43       		.byte	0x43
 3925 0208 0B       		.uleb128 0xb
 3926 0209 99050000 		.4byte	.LASF59
 3927 020d 44       		.byte	0x44
 3928 020e 0B       		.uleb128 0xb
 3929 020f 1D250000 		.4byte	.LASF60
 3930 0213 45       		.byte	0x45
 3931 0214 0B       		.uleb128 0xb
 3932 0215 03390000 		.4byte	.LASF61
 3933 0219 46       		.byte	0x46
 3934 021a 0B       		.uleb128 0xb
 3935 021b 520E0000 		.4byte	.LASF62
 3936 021f 47       		.byte	0x47
 3937 0220 0B       		.uleb128 0xb
 3938 0221 86220000 		.4byte	.LASF63
 3939 0225 48       		.byte	0x48
 3940 0226 0B       		.uleb128 0xb
 3941 0227 28060000 		.4byte	.LASF64
 3942 022b 49       		.byte	0x49
 3943 022c 0B       		.uleb128 0xb
 3944 022d 60170000 		.4byte	.LASF65
 3945 0231 4A       		.byte	0x4a
 3946 0232 0B       		.uleb128 0xb
 3947 0233 6C0C0000 		.4byte	.LASF66
 3948 0237 4B       		.byte	0x4b
 3949 0238 0B       		.uleb128 0xb
 3950 0239 97380000 		.4byte	.LASF67
 3951 023d 4C       		.byte	0x4c
 3952 023e 0B       		.uleb128 0xb
 3953 023f D5260000 		.4byte	.LASF68
 3954 0243 4D       		.byte	0x4d
 3955 0244 0B       		.uleb128 0xb
 3956 0245 FF0B0000 		.4byte	.LASF69
 3957 0249 4E       		.byte	0x4e
 3958 024a 0B       		.uleb128 0xb
 3959 024b 252A0000 		.4byte	.LASF70
 3960 024f 4F       		.byte	0x4f
 3961 0250 0B       		.uleb128 0xb
 3962 0251 BB170000 		.4byte	.LASF71
 3963 0255 50       		.byte	0x50
 3964 0256 0B       		.uleb128 0xb
 3965 0257 57200000 		.4byte	.LASF72
 3966 025b 51       		.byte	0x51
 3967 025c 0B       		.uleb128 0xb
 3968 025d 30140000 		.4byte	.LASF73
 3969 0261 52       		.byte	0x52
 3970 0262 0B       		.uleb128 0xb
 3971 0263 742D0000 		.4byte	.LASF74
 3972 0267 53       		.byte	0x53
 3973 0268 0B       		.uleb128 0xb
 3974 0269 D2370000 		.4byte	.LASF75
 3975 026d 54       		.byte	0x54
 3976 026e 0B       		.uleb128 0xb
 3977 026f 58030000 		.4byte	.LASF76
 3978 0273 55       		.byte	0x55
 3979 0274 0B       		.uleb128 0xb
ARM GAS  C:\Users\megan\AppData\Local\Temp\ccrMxWsc.s 			page 91


 3980 0275 7F270000 		.4byte	.LASF77
 3981 0279 56       		.byte	0x56
 3982 027a 0B       		.uleb128 0xb
 3983 027b FF310000 		.4byte	.LASF78
 3984 027f 57       		.byte	0x57
 3985 0280 0B       		.uleb128 0xb
 3986 0281 B1380000 		.4byte	.LASF79
 3987 0285 58       		.byte	0x58
 3988 0286 0B       		.uleb128 0xb
 3989 0287 28320000 		.4byte	.LASF80
 3990 028b 70       		.byte	0x70
 3991 028c 0B       		.uleb128 0xb
 3992 028d 541B0000 		.4byte	.LASF81
 3993 0291 71       		.byte	0x71
 3994 0292 0B       		.uleb128 0xb
 3995 0293 780A0000 		.4byte	.LASF82
 3996 0297 72       		.byte	0x72
 3997 0298 0B       		.uleb128 0xb
 3998 0299 7E0E0000 		.4byte	.LASF83
 3999 029d 73       		.byte	0x73
 4000 029e 0B       		.uleb128 0xb
 4001 029f 71280000 		.4byte	.LASF84
 4002 02a3 74       		.byte	0x74
 4003 02a4 0B       		.uleb128 0xb
 4004 02a5 E80E0000 		.4byte	.LASF85
 4005 02a9 75       		.byte	0x75
 4006 02aa 0B       		.uleb128 0xb
 4007 02ab 46290000 		.4byte	.LASF86
 4008 02af 76       		.byte	0x76
 4009 02b0 0B       		.uleb128 0xb
 4010 02b1 9C160000 		.4byte	.LASF87
 4011 02b5 77       		.byte	0x77
 4012 02b6 0B       		.uleb128 0xb
 4013 02b7 41390000 		.4byte	.LASF88
 4014 02bb 78       		.byte	0x78
 4015 02bc 0B       		.uleb128 0xb
 4016 02bd DB3A0000 		.4byte	.LASF89
 4017 02c1 79       		.byte	0x79
 4018 02c2 0B       		.uleb128 0xb
 4019 02c3 EA130000 		.4byte	.LASF90
 4020 02c7 7A       		.byte	0x7a
 4021 02c8 0B       		.uleb128 0xb
 4022 02c9 821F0000 		.4byte	.LASF91
 4023 02cd FA       		.byte	0xfa
 4024 02ce 0B       		.uleb128 0xb
 4025 02cf 68130000 		.4byte	.LASF92
 4026 02d3 FB       		.byte	0xfb
 4027 02d4 0B       		.uleb128 0xb
 4028 02d5 FD0A0000 		.4byte	.LASF93
 4029 02d9 FC       		.byte	0xfc
 4030 02da 0B       		.uleb128 0xb
 4031 02db E4350000 		.4byte	.LASF94
 4032 02df FD       		.byte	0xfd
 4033 02e0 0B       		.uleb128 0xb
 4034 02e1 7F000000 		.4byte	.LASF95
 4035 02e5 FF       		.byte	0xff
 4036 02e6 00       		.byte	0
ARM GAS  C:\Users\megan\AppData\Local\Temp\ccrMxWsc.s 			page 92


 4037 02e7 0A       		.uleb128 0xa
 4038 02e8 02       		.byte	0x2
 4039 02e9 50000000 		.4byte	0x50
 4040 02ed 05       		.byte	0x5
 4041 02ee 0204     		.2byte	0x402
 4042 02f0 C0030000 		.4byte	0x3c0
 4043 02f4 0B       		.uleb128 0xb
 4044 02f5 69020000 		.4byte	.LASF96
 4045 02f9 00       		.byte	0
 4046 02fa 0B       		.uleb128 0xb
 4047 02fb 6D090000 		.4byte	.LASF97
 4048 02ff 01       		.byte	0x1
 4049 0300 0B       		.uleb128 0xb
 4050 0301 CE280000 		.4byte	.LASF98
 4051 0305 02       		.byte	0x2
 4052 0306 0B       		.uleb128 0xb
 4053 0307 7B250000 		.4byte	.LASF99
 4054 030b 03       		.byte	0x3
 4055 030c 0B       		.uleb128 0xb
 4056 030d BA240000 		.4byte	.LASF100
 4057 0311 04       		.byte	0x4
 4058 0312 0B       		.uleb128 0xb
 4059 0313 70300000 		.4byte	.LASF101
 4060 0317 05       		.byte	0x5
 4061 0318 0B       		.uleb128 0xb
 4062 0319 BB260000 		.4byte	.LASF102
 4063 031d 06       		.byte	0x6
 4064 031e 0B       		.uleb128 0xb
 4065 031f 29290000 		.4byte	.LASF103
 4066 0323 07       		.byte	0x7
 4067 0324 0B       		.uleb128 0xb
 4068 0325 A9130000 		.4byte	.LASF104
 4069 0329 08       		.byte	0x8
 4070 032a 0B       		.uleb128 0xb
 4071 032b C5180000 		.4byte	.LASF105
 4072 032f 09       		.byte	0x9
 4073 0330 0B       		.uleb128 0xb
 4074 0331 0C2C0000 		.4byte	.LASF106
 4075 0335 0A       		.byte	0xa
 4076 0336 0B       		.uleb128 0xb
 4077 0337 A9020000 		.4byte	.LASF107
 4078 033b 0B       		.byte	0xb
 4079 033c 0B       		.uleb128 0xb
 4080 033d F6260000 		.4byte	.LASF108
 4081 0341 0C       		.byte	0xc
 4082 0342 0B       		.uleb128 0xb
 4083 0343 23380000 		.4byte	.LASF109
 4084 0347 0D       		.byte	0xd
 4085 0348 0B       		.uleb128 0xb
 4086 0349 30000000 		.4byte	.LASF110
 4087 034d 0E       		.byte	0xe
 4088 034e 0B       		.uleb128 0xb
 4089 034f 9F230000 		.4byte	.LASF111
 4090 0353 0F       		.byte	0xf
 4091 0354 0B       		.uleb128 0xb
 4092 0355 8B180000 		.4byte	.LASF112
 4093 0359 10       		.byte	0x10
ARM GAS  C:\Users\megan\AppData\Local\Temp\ccrMxWsc.s 			page 93


 4094 035a 0B       		.uleb128 0xb
 4095 035b 10330000 		.4byte	.LASF113
 4096 035f 11       		.byte	0x11
 4097 0360 0B       		.uleb128 0xb
 4098 0361 B9100000 		.4byte	.LASF114
 4099 0365 12       		.byte	0x12
 4100 0366 0B       		.uleb128 0xb
 4101 0367 7F040000 		.4byte	.LASF115
 4102 036b 13       		.byte	0x13
 4103 036c 0B       		.uleb128 0xb
 4104 036d 38180000 		.4byte	.LASF116
 4105 0371 27       		.byte	0x27
 4106 0372 0B       		.uleb128 0xb
 4107 0373 C3330000 		.4byte	.LASF117
 4108 0377 28       		.byte	0x28
 4109 0378 0B       		.uleb128 0xb
 4110 0379 BB160000 		.4byte	.LASF118
 4111 037d 29       		.byte	0x29
 4112 037e 0B       		.uleb128 0xb
 4113 037f 24390000 		.4byte	.LASF119
 4114 0383 2A       		.byte	0x2a
 4115 0384 0B       		.uleb128 0xb
 4116 0385 133D0000 		.4byte	.LASF120
 4117 0389 2B       		.byte	0x2b
 4118 038a 0B       		.uleb128 0xb
 4119 038b 44250000 		.4byte	.LASF121
 4120 038f 2C       		.byte	0x2c
 4121 0390 0B       		.uleb128 0xb
 4122 0391 DC0D0000 		.4byte	.LASF122
 4123 0395 FE       		.byte	0xfe
 4124 0396 0B       		.uleb128 0xb
 4125 0397 FC2B0000 		.4byte	.LASF123
 4126 039b FF       		.byte	0xff
 4127 039c 0C       		.uleb128 0xc
 4128 039d 5E150000 		.4byte	.LASF124
 4129 03a1 0001     		.2byte	0x100
 4130 03a3 0C       		.uleb128 0xc
 4131 03a4 C7010000 		.4byte	.LASF125
 4132 03a8 0101     		.2byte	0x101
 4133 03aa 0C       		.uleb128 0xc
 4134 03ab 7C080000 		.4byte	.LASF126
 4135 03af 0201     		.2byte	0x102
 4136 03b1 0C       		.uleb128 0xc
 4137 03b2 B8220000 		.4byte	.LASF127
 4138 03b6 0301     		.2byte	0x103
 4139 03b8 0C       		.uleb128 0xc
 4140 03b9 DC100000 		.4byte	.LASF128
 4141 03bd 0401     		.2byte	0x104
 4142 03bf 00       		.byte	0
 4143 03c0 05       		.uleb128 0x5
 4144 03c1 9A150000 		.4byte	.LASF129
 4145 03c5 05       		.byte	0x5
 4146 03c6 7104     		.2byte	0x471
 4147 03c8 E7020000 		.4byte	0x2e7
 4148 03cc 0D       		.uleb128 0xd
 4149 03cd 07       		.byte	0x7
 4150 03ce 05       		.byte	0x5
ARM GAS  C:\Users\megan\AppData\Local\Temp\ccrMxWsc.s 			page 94


 4151 03cf 3F05     		.2byte	0x53f
 4152 03d1 F0030000 		.4byte	0x3f0
 4153 03d5 0E       		.uleb128 0xe
 4154 03d6 51140000 		.4byte	.LASF130
 4155 03da 05       		.byte	0x5
 4156 03db 4205     		.2byte	0x542
 4157 03dd F0030000 		.4byte	0x3f0
 4158 03e1 00       		.byte	0
 4159 03e2 0E       		.uleb128 0xe
 4160 03e3 290B0000 		.4byte	.LASF131
 4161 03e7 05       		.byte	0x5
 4162 03e8 4405     		.2byte	0x544
 4163 03ea 97000000 		.4byte	0x97
 4164 03ee 06       		.byte	0x6
 4165 03ef 00       		.byte	0
 4166 03f0 08       		.uleb128 0x8
 4167 03f1 97000000 		.4byte	0x97
 4168 03f5 00040000 		.4byte	0x400
 4169 03f9 09       		.uleb128 0x9
 4170 03fa 00010000 		.4byte	0x100
 4171 03fe 05       		.byte	0x5
 4172 03ff 00       		.byte	0
 4173 0400 05       		.uleb128 0x5
 4174 0401 012F0000 		.4byte	.LASF132
 4175 0405 05       		.byte	0x5
 4176 0406 4505     		.2byte	0x545
 4177 0408 CC030000 		.4byte	0x3cc
 4178 040c 0F       		.uleb128 0xf
 4179 040d 04       		.byte	0x4
 4180 040e 97000000 		.4byte	0x97
 4181 0412 10       		.uleb128 0x10
 4182 0413 01       		.byte	0x1
 4183 0414 37000000 		.4byte	0x37
 4184 0418 06       		.byte	0x6
 4185 0419 F4       		.byte	0xf4
 4186 041a 3D040000 		.4byte	0x43d
 4187 041e 0B       		.uleb128 0xb
 4188 041f C3040000 		.4byte	.LASF133
 4189 0423 00       		.byte	0
 4190 0424 0B       		.uleb128 0xb
 4191 0425 793A0000 		.4byte	.LASF134
 4192 0429 01       		.byte	0x1
 4193 042a 0B       		.uleb128 0xb
 4194 042b 982F0000 		.4byte	.LASF135
 4195 042f 02       		.byte	0x2
 4196 0430 0B       		.uleb128 0xb
 4197 0431 963A0000 		.4byte	.LASF136
 4198 0435 03       		.byte	0x3
 4199 0436 0B       		.uleb128 0xb
 4200 0437 191C0000 		.4byte	.LASF137
 4201 043b 04       		.byte	0x4
 4202 043c 00       		.byte	0
 4203 043d 05       		.uleb128 0x5
 4204 043e 40280000 		.4byte	.LASF138
 4205 0442 06       		.byte	0x6
 4206 0443 0401     		.2byte	0x104
 4207 0445 12040000 		.4byte	0x412
ARM GAS  C:\Users\megan\AppData\Local\Temp\ccrMxWsc.s 			page 95


 4208 0449 08       		.uleb128 0x8
 4209 044a 97000000 		.4byte	0x97
 4210 044e 59040000 		.4byte	0x459
 4211 0452 09       		.uleb128 0x9
 4212 0453 00010000 		.4byte	0x100
 4213 0457 0F       		.byte	0xf
 4214 0458 00       		.byte	0
 4215 0459 0D       		.uleb128 0xd
 4216 045a 14       		.byte	0x14
 4217 045b 06       		.byte	0x6
 4218 045c 2403     		.2byte	0x324
 4219 045e B1040000 		.4byte	0x4b1
 4220 0462 0E       		.uleb128 0xe
 4221 0463 56170000 		.4byte	.LASF139
 4222 0467 06       		.byte	0x6
 4223 0468 2D03     		.2byte	0x32d
 4224 046a 3D040000 		.4byte	0x43d
 4225 046e 00       		.byte	0
 4226 046f 0E       		.uleb128 0xe
 4227 0470 72040000 		.4byte	.LASF140
 4228 0474 06       		.byte	0x6
 4229 0475 3503     		.2byte	0x335
 4230 0477 97000000 		.4byte	0x97
 4231 047b 01       		.byte	0x1
 4232 047c 0E       		.uleb128 0xe
 4233 047d EB0F0000 		.4byte	.LASF141
 4234 0481 06       		.byte	0x6
 4235 0482 3903     		.2byte	0x339
 4236 0484 0C040000 		.4byte	0x40c
 4237 0488 04       		.byte	0x4
 4238 0489 0E       		.uleb128 0xe
 4239 048a E30F0000 		.4byte	.LASF142
 4240 048e 06       		.byte	0x6
 4241 048f 3C03     		.2byte	0x33c
 4242 0491 97000000 		.4byte	0x97
 4243 0495 08       		.byte	0x8
 4244 0496 0E       		.uleb128 0xe
 4245 0497 152F0000 		.4byte	.LASF143
 4246 049b 06       		.byte	0x6
 4247 049c 3F03     		.2byte	0x33f
 4248 049e 0C040000 		.4byte	0x40c
 4249 04a2 0C       		.byte	0xc
 4250 04a3 0E       		.uleb128 0xe
 4251 04a4 932A0000 		.4byte	.LASF144
 4252 04a8 06       		.byte	0x6
 4253 04a9 4403     		.2byte	0x344
 4254 04ab BB000000 		.4byte	0xbb
 4255 04af 10       		.byte	0x10
 4256 04b0 00       		.byte	0
 4257 04b1 05       		.uleb128 0x5
 4258 04b2 99370000 		.4byte	.LASF145
 4259 04b6 06       		.byte	0x6
 4260 04b7 4603     		.2byte	0x346
 4261 04b9 59040000 		.4byte	0x459
 4262 04bd 05       		.uleb128 0x5
 4263 04be F6380000 		.4byte	.LASF146
 4264 04c2 07       		.byte	0x7
ARM GAS  C:\Users\megan\AppData\Local\Temp\ccrMxWsc.s 			page 96


 4265 04c3 6D01     		.2byte	0x16d
 4266 04c5 A3000000 		.4byte	0xa3
 4267 04c9 0D       		.uleb128 0xd
 4268 04ca 10       		.byte	0x10
 4269 04cb 07       		.byte	0x7
 4270 04cc 7001     		.2byte	0x170
 4271 04ce E0040000 		.4byte	0x4e0
 4272 04d2 0E       		.uleb128 0xe
 4273 04d3 FE180000 		.4byte	.LASF147
 4274 04d7 07       		.byte	0x7
 4275 04d8 7301     		.2byte	0x173
 4276 04da 49040000 		.4byte	0x449
 4277 04de 00       		.byte	0
 4278 04df 00       		.byte	0
 4279 04e0 05       		.uleb128 0x5
 4280 04e1 0B2D0000 		.4byte	.LASF148
 4281 04e5 07       		.byte	0x7
 4282 04e6 7401     		.2byte	0x174
 4283 04e8 C9040000 		.4byte	0x4c9
 4284 04ec 11       		.uleb128 0x11
 4285 04ed 10       		.byte	0x10
 4286 04ee 07       		.byte	0x7
 4287 04ef 7701     		.2byte	0x177
 4288 04f1 0E050000 		.4byte	0x50e
 4289 04f5 12       		.uleb128 0x12
 4290 04f6 A61A0000 		.4byte	.LASF149
 4291 04fa 07       		.byte	0x7
 4292 04fb 7A01     		.2byte	0x17a
 4293 04fd BD040000 		.4byte	0x4bd
 4294 0501 12       		.uleb128 0x12
 4295 0502 1D0C0000 		.4byte	.LASF150
 4296 0506 07       		.byte	0x7
 4297 0507 7D01     		.2byte	0x17d
 4298 0509 E0040000 		.4byte	0x4e0
 4299 050d 00       		.byte	0
 4300 050e 05       		.uleb128 0x5
 4301 050f 1C290000 		.4byte	.LASF151
 4302 0513 07       		.byte	0x7
 4303 0514 7F01     		.2byte	0x17f
 4304 0516 EC040000 		.4byte	0x4ec
 4305 051a 05       		.uleb128 0x5
 4306 051b 313B0000 		.4byte	.LASF152
 4307 051f 07       		.byte	0x7
 4308 0520 8901     		.2byte	0x189
 4309 0522 A3000000 		.4byte	0xa3
 4310 0526 0D       		.uleb128 0xd
 4311 0527 02       		.byte	0x2
 4312 0528 07       		.byte	0x7
 4313 0529 9301     		.2byte	0x193
 4314 052b 4A050000 		.4byte	0x54a
 4315 052f 0E       		.uleb128 0xe
 4316 0530 FB120000 		.4byte	.LASF153
 4317 0534 07       		.byte	0x7
 4318 0535 9A01     		.2byte	0x19a
 4319 0537 97000000 		.4byte	0x97
 4320 053b 00       		.byte	0
 4321 053c 0E       		.uleb128 0xe
ARM GAS  C:\Users\megan\AppData\Local\Temp\ccrMxWsc.s 			page 97


 4322 053d 02240000 		.4byte	.LASF154
 4323 0541 07       		.byte	0x7
 4324 0542 A001     		.2byte	0x1a0
 4325 0544 97000000 		.4byte	0x97
 4326 0548 01       		.byte	0x1
 4327 0549 00       		.byte	0
 4328 054a 05       		.uleb128 0x5
 4329 054b 3E2D0000 		.4byte	.LASF155
 4330 054f 07       		.byte	0x7
 4331 0550 A201     		.2byte	0x1a2
 4332 0552 26050000 		.4byte	0x526
 4333 0556 0D       		.uleb128 0xd
 4334 0557 08       		.byte	0x8
 4335 0558 07       		.byte	0x7
 4336 0559 BE01     		.2byte	0x1be
 4337 055b 87050000 		.4byte	0x587
 4338 055f 13       		.uleb128 0x13
 4339 0560 76616C00 		.ascii	"val\000"
 4340 0564 07       		.byte	0x7
 4341 0565 C101     		.2byte	0x1c1
 4342 0567 0C040000 		.4byte	0x40c
 4343 056b 00       		.byte	0
 4344 056c 13       		.uleb128 0x13
 4345 056d 6C656E00 		.ascii	"len\000"
 4346 0571 07       		.byte	0x7
 4347 0572 C401     		.2byte	0x1c4
 4348 0574 A3000000 		.4byte	0xa3
 4349 0578 04       		.byte	0x4
 4350 0579 0E       		.uleb128 0xe
 4351 057a F3210000 		.4byte	.LASF156
 4352 057e 07       		.byte	0x7
 4353 057f CB01     		.2byte	0x1cb
 4354 0581 A3000000 		.4byte	0xa3
 4355 0585 06       		.byte	0x6
 4356 0586 00       		.byte	0
 4357 0587 05       		.uleb128 0x5
 4358 0588 930B0000 		.4byte	.LASF157
 4359 058c 07       		.byte	0x7
 4360 058d CD01     		.2byte	0x1cd
 4361 058f 56050000 		.4byte	0x556
 4362 0593 0D       		.uleb128 0xd
 4363 0594 0C       		.byte	0xc
 4364 0595 07       		.byte	0x7
 4365 0596 D001     		.2byte	0x1d0
 4366 0598 B7050000 		.4byte	0x5b7
 4367 059c 0E       		.uleb128 0xe
 4368 059d FE180000 		.4byte	.LASF147
 4369 05a1 07       		.byte	0x7
 4370 05a2 D301     		.2byte	0x1d3
 4371 05a4 87050000 		.4byte	0x587
 4372 05a8 00       		.byte	0
 4373 05a9 0E       		.uleb128 0xe
 4374 05aa 213B0000 		.4byte	.LASF158
 4375 05ae 07       		.byte	0x7
 4376 05af D601     		.2byte	0x1d6
 4377 05b1 1A050000 		.4byte	0x51a
 4378 05b5 08       		.byte	0x8
ARM GAS  C:\Users\megan\AppData\Local\Temp\ccrMxWsc.s 			page 98


 4379 05b6 00       		.byte	0
 4380 05b7 05       		.uleb128 0x5
 4381 05b8 62310000 		.4byte	.LASF159
 4382 05bc 07       		.byte	0x7
 4383 05bd D801     		.2byte	0x1d8
 4384 05bf 93050000 		.4byte	0x593
 4385 05c3 0D       		.uleb128 0xd
 4386 05c4 04       		.byte	0x4
 4387 05c5 07       		.byte	0x7
 4388 05c6 DB01     		.2byte	0x1db
 4389 05c8 E7050000 		.4byte	0x5e7
 4390 05cc 0E       		.uleb128 0xe
 4391 05cd 59080000 		.4byte	.LASF160
 4392 05d1 07       		.byte	0x7
 4393 05d2 DE01     		.2byte	0x1de
 4394 05d4 1A050000 		.4byte	0x51a
 4395 05d8 00       		.byte	0
 4396 05d9 0E       		.uleb128 0xe
 4397 05da DE150000 		.4byte	.LASF161
 4398 05de 07       		.byte	0x7
 4399 05df E101     		.2byte	0x1e1
 4400 05e1 1A050000 		.4byte	0x51a
 4401 05e5 02       		.byte	0x2
 4402 05e6 00       		.byte	0
 4403 05e7 05       		.uleb128 0x5
 4404 05e8 7A370000 		.4byte	.LASF162
 4405 05ec 07       		.byte	0x7
 4406 05ed E301     		.2byte	0x1e3
 4407 05ef C3050000 		.4byte	0x5c3
 4408 05f3 14       		.uleb128 0x14
 4409 05f4 16       		.byte	0x16
 4410 05f5 08       		.byte	0x8
 4411 05f6 41       		.byte	0x41
 4412 05f7 20060000 		.4byte	0x620
 4413 05fb 15       		.uleb128 0x15
 4414 05fc 05080000 		.4byte	.LASF163
 4415 0600 08       		.byte	0x8
 4416 0601 44       		.byte	0x44
 4417 0602 E7050000 		.4byte	0x5e7
 4418 0606 00       		.byte	0
 4419 0607 15       		.uleb128 0x15
 4420 0608 940A0000 		.4byte	.LASF164
 4421 060c 08       		.byte	0x8
 4422 060d 47       		.byte	0x47
 4423 060e 0E050000 		.4byte	0x50e
 4424 0612 04       		.byte	0x4
 4425 0613 15       		.uleb128 0x15
 4426 0614 94230000 		.4byte	.LASF165
 4427 0618 08       		.byte	0x8
 4428 0619 4D       		.byte	0x4d
 4429 061a 97000000 		.4byte	0x97
 4430 061e 14       		.byte	0x14
 4431 061f 00       		.byte	0
 4432 0620 03       		.uleb128 0x3
 4433 0621 5C250000 		.4byte	.LASF166
 4434 0625 08       		.byte	0x8
 4435 0626 4F       		.byte	0x4f
ARM GAS  C:\Users\megan\AppData\Local\Temp\ccrMxWsc.s 			page 99


 4436 0627 F3050000 		.4byte	0x5f3
 4437 062b 14       		.uleb128 0x14
 4438 062c 10       		.byte	0x10
 4439 062d 08       		.byte	0x8
 4440 062e 8B       		.byte	0x8b
 4441 062f 4C060000 		.4byte	0x64c
 4442 0633 15       		.uleb128 0x15
 4443 0634 F7340000 		.4byte	.LASF167
 4444 0638 08       		.byte	0x8
 4445 0639 8E       		.byte	0x8e
 4446 063a 4A050000 		.4byte	0x54a
 4447 063e 00       		.byte	0
 4448 063f 15       		.uleb128 0x15
 4449 0640 5A180000 		.4byte	.LASF168
 4450 0644 08       		.byte	0x8
 4451 0645 91       		.byte	0x91
 4452 0646 B7050000 		.4byte	0x5b7
 4453 064a 04       		.byte	0x4
 4454 064b 00       		.byte	0
 4455 064c 03       		.uleb128 0x3
 4456 064d 482C0000 		.4byte	.LASF169
 4457 0651 08       		.byte	0x8
 4458 0652 93       		.byte	0x93
 4459 0653 2B060000 		.4byte	0x62b
 4460 0657 14       		.uleb128 0x14
 4461 0658 08       		.byte	0x8
 4462 0659 08       		.byte	0x8
 4463 065a 99       		.byte	0x99
 4464 065b 84060000 		.4byte	0x684
 4465 065f 15       		.uleb128 0x15
 4466 0660 09030000 		.4byte	.LASF170
 4467 0664 08       		.byte	0x8
 4468 0665 9C       		.byte	0x9c
 4469 0666 0C040000 		.4byte	0x40c
 4470 066a 00       		.byte	0
 4471 066b 15       		.uleb128 0x15
 4472 066c A7040000 		.4byte	.LASF171
 4473 0670 08       		.byte	0x8
 4474 0671 9F       		.byte	0x9f
 4475 0672 A3000000 		.4byte	0xa3
 4476 0676 04       		.byte	0x4
 4477 0677 15       		.uleb128 0x15
 4478 0678 6C2D0000 		.4byte	.LASF172
 4479 067c 08       		.byte	0x8
 4480 067d A2       		.byte	0xa2
 4481 067e A3000000 		.4byte	0xa3
 4482 0682 06       		.byte	0x6
 4483 0683 00       		.byte	0
 4484 0684 03       		.uleb128 0x3
 4485 0685 B1370000 		.4byte	.LASF173
 4486 0689 08       		.byte	0x8
 4487 068a A3       		.byte	0xa3
 4488 068b 57060000 		.4byte	0x657
 4489 068f 14       		.uleb128 0x14
 4490 0690 0C       		.byte	0xc
 4491 0691 08       		.byte	0x8
 4492 0692 A7       		.byte	0xa7
ARM GAS  C:\Users\megan\AppData\Local\Temp\ccrMxWsc.s 			page 100


 4493 0693 B0060000 		.4byte	0x6b0
 4494 0697 15       		.uleb128 0x15
 4495 0698 F7340000 		.4byte	.LASF167
 4496 069c 08       		.byte	0x8
 4497 069d AA       		.byte	0xaa
 4498 069e 4A050000 		.4byte	0x54a
 4499 06a2 00       		.byte	0
 4500 06a3 15       		.uleb128 0x15
 4501 06a4 0D370000 		.4byte	.LASF174
 4502 06a8 08       		.byte	0x8
 4503 06a9 AD       		.byte	0xad
 4504 06aa 84060000 		.4byte	0x684
 4505 06ae 04       		.byte	0x4
 4506 06af 00       		.byte	0
 4507 06b0 03       		.uleb128 0x3
 4508 06b1 F7060000 		.4byte	.LASF175
 4509 06b5 08       		.byte	0x8
 4510 06b6 AF       		.byte	0xaf
 4511 06b7 8F060000 		.4byte	0x68f
 4512 06bb 03       		.uleb128 0x3
 4513 06bc B0060000 		.4byte	.LASF176
 4514 06c0 08       		.byte	0x8
 4515 06c1 B2       		.byte	0xb2
 4516 06c2 B0060000 		.4byte	0x6b0
 4517 06c6 10       		.uleb128 0x10
 4518 06c7 02       		.byte	0x2
 4519 06c8 50000000 		.4byte	0x50
 4520 06cc 09       		.byte	0x9
 4521 06cd B1       		.byte	0xb1
 4522 06ce CF0E0000 		.4byte	0xecf
 4523 06d2 0C       		.uleb128 0xc
 4524 06d3 7D110000 		.4byte	.LASF177
 4525 06d7 0001     		.2byte	0x100
 4526 06d9 0C       		.uleb128 0xc
 4527 06da B93A0000 		.4byte	.LASF178
 4528 06de 0101     		.2byte	0x101
 4529 06e0 0C       		.uleb128 0xc
 4530 06e1 3B1A0000 		.4byte	.LASF179
 4531 06e5 0201     		.2byte	0x102
 4532 06e7 0C       		.uleb128 0xc
 4533 06e8 E60C0000 		.4byte	.LASF180
 4534 06ec 0301     		.2byte	0x103
 4535 06ee 0C       		.uleb128 0xc
 4536 06ef 38370000 		.4byte	.LASF181
 4537 06f3 0401     		.2byte	0x104
 4538 06f5 0C       		.uleb128 0xc
 4539 06f6 F3370000 		.4byte	.LASF182
 4540 06fa 0501     		.2byte	0x105
 4541 06fc 0C       		.uleb128 0xc
 4542 06fd 02350000 		.4byte	.LASF183
 4543 0701 0601     		.2byte	0x106
 4544 0703 0C       		.uleb128 0xc
 4545 0704 70240000 		.4byte	.LASF184
 4546 0708 0701     		.2byte	0x107
 4547 070a 0C       		.uleb128 0xc
 4548 070b 91350000 		.4byte	.LASF185
 4549 070f 0801     		.2byte	0x108
ARM GAS  C:\Users\megan\AppData\Local\Temp\ccrMxWsc.s 			page 101


 4550 0711 0C       		.uleb128 0xc
 4551 0712 27130000 		.4byte	.LASF186
 4552 0716 0901     		.2byte	0x109
 4553 0718 0C       		.uleb128 0xc
 4554 0719 4A160000 		.4byte	.LASF187
 4555 071d 0A01     		.2byte	0x10a
 4556 071f 0C       		.uleb128 0xc
 4557 0720 501D0000 		.4byte	.LASF188
 4558 0724 0B01     		.2byte	0x10b
 4559 0726 0C       		.uleb128 0xc
 4560 0727 1F2F0000 		.4byte	.LASF189
 4561 072b 0C01     		.2byte	0x10c
 4562 072d 0C       		.uleb128 0xc
 4563 072e 6D2C0000 		.4byte	.LASF190
 4564 0732 0D01     		.2byte	0x10d
 4565 0734 0C       		.uleb128 0xc
 4566 0735 070A0000 		.4byte	.LASF191
 4567 0739 0E01     		.2byte	0x10e
 4568 073b 0C       		.uleb128 0xc
 4569 073c 2D1C0000 		.4byte	.LASF192
 4570 0740 0F01     		.2byte	0x10f
 4571 0742 0C       		.uleb128 0xc
 4572 0743 D70B0000 		.4byte	.LASF193
 4573 0747 1001     		.2byte	0x110
 4574 0749 0C       		.uleb128 0xc
 4575 074a 04130000 		.4byte	.LASF194
 4576 074e 1101     		.2byte	0x111
 4577 0750 0C       		.uleb128 0xc
 4578 0751 84020000 		.4byte	.LASF195
 4579 0755 1201     		.2byte	0x112
 4580 0757 0C       		.uleb128 0xc
 4581 0758 0F150000 		.4byte	.LASF196
 4582 075c 1301     		.2byte	0x113
 4583 075e 0C       		.uleb128 0xc
 4584 075f FE2F0000 		.4byte	.LASF197
 4585 0763 1401     		.2byte	0x114
 4586 0765 0C       		.uleb128 0xc
 4587 0766 8B090000 		.4byte	.LASF198
 4588 076a 1501     		.2byte	0x115
 4589 076c 0C       		.uleb128 0xc
 4590 076d 24210000 		.4byte	.LASF199
 4591 0771 1601     		.2byte	0x116
 4592 0773 0C       		.uleb128 0xc
 4593 0774 0E010000 		.4byte	.LASF200
 4594 0778 1701     		.2byte	0x117
 4595 077a 0C       		.uleb128 0xc
 4596 077b E8330000 		.4byte	.LASF201
 4597 077f 1801     		.2byte	0x118
 4598 0781 0C       		.uleb128 0xc
 4599 0782 043B0000 		.4byte	.LASF202
 4600 0786 1901     		.2byte	0x119
 4601 0788 0C       		.uleb128 0xc
 4602 0789 780B0000 		.4byte	.LASF203
 4603 078d 1A01     		.2byte	0x11a
 4604 078f 0C       		.uleb128 0xc
 4605 0790 9E1B0000 		.4byte	.LASF204
 4606 0794 1B01     		.2byte	0x11b
ARM GAS  C:\Users\megan\AppData\Local\Temp\ccrMxWsc.s 			page 102


 4607 0796 0C       		.uleb128 0xc
 4608 0797 090F0000 		.4byte	.LASF205
 4609 079b 1C01     		.2byte	0x11c
 4610 079d 0C       		.uleb128 0xc
 4611 079e 2D340000 		.4byte	.LASF206
 4612 07a2 1D01     		.2byte	0x11d
 4613 07a4 0C       		.uleb128 0xc
 4614 07a5 A2030000 		.4byte	.LASF207
 4615 07a9 1E01     		.2byte	0x11e
 4616 07ab 0C       		.uleb128 0xc
 4617 07ac 720F0000 		.4byte	.LASF208
 4618 07b0 1F01     		.2byte	0x11f
 4619 07b2 0C       		.uleb128 0xc
 4620 07b3 58140000 		.4byte	.LASF209
 4621 07b7 2001     		.2byte	0x120
 4622 07b9 0C       		.uleb128 0xc
 4623 07ba 7C030000 		.4byte	.LASF210
 4624 07be 2101     		.2byte	0x121
 4625 07c0 0C       		.uleb128 0xc
 4626 07c1 CF130000 		.4byte	.LASF211
 4627 07c5 2201     		.2byte	0x122
 4628 07c7 0C       		.uleb128 0xc
 4629 07c8 DF050000 		.4byte	.LASF212
 4630 07cc 2301     		.2byte	0x123
 4631 07ce 0C       		.uleb128 0xc
 4632 07cf A20E0000 		.4byte	.LASF213
 4633 07d3 2401     		.2byte	0x124
 4634 07d5 0C       		.uleb128 0xc
 4635 07d6 7B330000 		.4byte	.LASF214
 4636 07da 2501     		.2byte	0x125
 4637 07dc 0C       		.uleb128 0xc
 4638 07dd 711D0000 		.4byte	.LASF215
 4639 07e1 2601     		.2byte	0x126
 4640 07e3 0C       		.uleb128 0xc
 4641 07e4 FB2D0000 		.4byte	.LASF216
 4642 07e8 2701     		.2byte	0x127
 4643 07ea 0C       		.uleb128 0xc
 4644 07eb 9A190000 		.4byte	.LASF217
 4645 07ef 2801     		.2byte	0x128
 4646 07f1 0C       		.uleb128 0xc
 4647 07f2 23310000 		.4byte	.LASF218
 4648 07f6 2901     		.2byte	0x129
 4649 07f8 0C       		.uleb128 0xc
 4650 07f9 C4230000 		.4byte	.LASF219
 4651 07fd 2A01     		.2byte	0x12a
 4652 07ff 0C       		.uleb128 0xc
 4653 0800 AE320000 		.4byte	.LASF220
 4654 0804 2B01     		.2byte	0x12b
 4655 0806 0C       		.uleb128 0xc
 4656 0807 46230000 		.4byte	.LASF221
 4657 080b 2C01     		.2byte	0x12c
 4658 080d 0C       		.uleb128 0xc
 4659 080e 1E120000 		.4byte	.LASF222
 4660 0812 2D01     		.2byte	0x12d
 4661 0814 0C       		.uleb128 0xc
 4662 0815 7B1C0000 		.4byte	.LASF223
 4663 0819 2E01     		.2byte	0x12e
ARM GAS  C:\Users\megan\AppData\Local\Temp\ccrMxWsc.s 			page 103


 4664 081b 0C       		.uleb128 0xc
 4665 081c CF210000 		.4byte	.LASF224
 4666 0820 2F01     		.2byte	0x12f
 4667 0822 0C       		.uleb128 0xc
 4668 0823 AB210000 		.4byte	.LASF225
 4669 0827 3001     		.2byte	0x130
 4670 0829 0C       		.uleb128 0xc
 4671 082a 41060000 		.4byte	.LASF226
 4672 082e 3101     		.2byte	0x131
 4673 0830 0C       		.uleb128 0xc
 4674 0831 6A220000 		.4byte	.LASF227
 4675 0835 3201     		.2byte	0x132
 4676 0837 0C       		.uleb128 0xc
 4677 0838 DD360000 		.4byte	.LASF228
 4678 083c 3301     		.2byte	0x133
 4679 083e 0C       		.uleb128 0xc
 4680 083f DB2F0000 		.4byte	.LASF229
 4681 0843 3401     		.2byte	0x134
 4682 0845 0C       		.uleb128 0xc
 4683 0846 C3080000 		.4byte	.LASF230
 4684 084a 3501     		.2byte	0x135
 4685 084c 0C       		.uleb128 0xc
 4686 084d FA280000 		.4byte	.LASF231
 4687 0851 3601     		.2byte	0x136
 4688 0853 0C       		.uleb128 0xc
 4689 0854 CA320000 		.4byte	.LASF232
 4690 0858 3701     		.2byte	0x137
 4691 085a 0C       		.uleb128 0xc
 4692 085b 33200000 		.4byte	.LASF233
 4693 085f 3801     		.2byte	0x138
 4694 0861 0C       		.uleb128 0xc
 4695 0862 57280000 		.4byte	.LASF234
 4696 0866 3901     		.2byte	0x139
 4697 0868 0C       		.uleb128 0xc
 4698 0869 0E140000 		.4byte	.LASF235
 4699 086d 3A01     		.2byte	0x13a
 4700 086f 0C       		.uleb128 0xc
 4701 0870 8F120000 		.4byte	.LASF236
 4702 0874 3B01     		.2byte	0x13b
 4703 0876 0C       		.uleb128 0xc
 4704 0877 06230000 		.4byte	.LASF237
 4705 087b 3C01     		.2byte	0x13c
 4706 087d 0C       		.uleb128 0xc
 4707 087e 910F0000 		.4byte	.LASF238
 4708 0882 3D01     		.2byte	0x13d
 4709 0884 0C       		.uleb128 0xc
 4710 0885 982A0000 		.4byte	.LASF239
 4711 0889 3E01     		.2byte	0x13e
 4712 088b 0C       		.uleb128 0xc
 4713 088c 64390000 		.4byte	.LASF240
 4714 0890 3F01     		.2byte	0x13f
 4715 0892 0C       		.uleb128 0xc
 4716 0893 DA170000 		.4byte	.LASF241
 4717 0897 4001     		.2byte	0x140
 4718 0899 0C       		.uleb128 0xc
 4719 089a 8B0C0000 		.4byte	.LASF242
 4720 089e 4101     		.2byte	0x141
ARM GAS  C:\Users\megan\AppData\Local\Temp\ccrMxWsc.s 			page 104


 4721 08a0 0C       		.uleb128 0xc
 4722 08a1 DC1D0000 		.4byte	.LASF243
 4723 08a5 4201     		.2byte	0x142
 4724 08a7 0C       		.uleb128 0xc
 4725 08a8 ED020000 		.4byte	.LASF244
 4726 08ac 4301     		.2byte	0x143
 4727 08ae 0C       		.uleb128 0xc
 4728 08af D4380000 		.4byte	.LASF245
 4729 08b3 4401     		.2byte	0x144
 4730 08b5 0C       		.uleb128 0xc
 4731 08b6 9A200000 		.4byte	.LASF246
 4732 08ba 4501     		.2byte	0x145
 4733 08bc 0C       		.uleb128 0xc
 4734 08bd EF3C0000 		.4byte	.LASF247
 4735 08c1 4601     		.2byte	0x146
 4736 08c3 0C       		.uleb128 0xc
 4737 08c4 2A0C0000 		.4byte	.LASF248
 4738 08c8 4701     		.2byte	0x147
 4739 08ca 0C       		.uleb128 0xc
 4740 08cb A0250000 		.4byte	.LASF249
 4741 08cf 4801     		.2byte	0x148
 4742 08d1 0C       		.uleb128 0xc
 4743 08d2 1E100000 		.4byte	.LASF250
 4744 08d6 4901     		.2byte	0x149
 4745 08d8 0C       		.uleb128 0xc
 4746 08d9 6F190000 		.4byte	.LASF251
 4747 08dd 4A01     		.2byte	0x14a
 4748 08df 0C       		.uleb128 0xc
 4749 08e0 1B2D0000 		.4byte	.LASF252
 4750 08e4 4B01     		.2byte	0x14b
 4751 08e6 0C       		.uleb128 0xc
 4752 08e7 8A290000 		.4byte	.LASF253
 4753 08eb 4C01     		.2byte	0x14c
 4754 08ed 0C       		.uleb128 0xc
 4755 08ee 48090000 		.4byte	.LASF254
 4756 08f2 4D01     		.2byte	0x14d
 4757 08f4 0C       		.uleb128 0xc
 4758 08f5 21300000 		.4byte	.LASF255
 4759 08f9 4E01     		.2byte	0x14e
 4760 08fb 0C       		.uleb128 0xc
 4761 08fc 81310000 		.4byte	.LASF256
 4762 0900 4F01     		.2byte	0x14f
 4763 0902 0C       		.uleb128 0xc
 4764 0903 742F0000 		.4byte	.LASF257
 4765 0907 5001     		.2byte	0x150
 4766 0909 0C       		.uleb128 0xc
 4767 090a 1D350000 		.4byte	.LASF258
 4768 090e 5101     		.2byte	0x151
 4769 0910 0C       		.uleb128 0xc
 4770 0911 0B060000 		.4byte	.LASF259
 4771 0915 5201     		.2byte	0x152
 4772 0917 0C       		.uleb128 0xc
 4773 0918 33170000 		.4byte	.LASF260
 4774 091c 5301     		.2byte	0x153
 4775 091e 0C       		.uleb128 0xc
 4776 091f 87010000 		.4byte	.LASF261
 4777 0923 5401     		.2byte	0x154
ARM GAS  C:\Users\megan\AppData\Local\Temp\ccrMxWsc.s 			page 105


 4778 0925 0C       		.uleb128 0xc
 4779 0926 2F0A0000 		.4byte	.LASF262
 4780 092a 5501     		.2byte	0x155
 4781 092c 0C       		.uleb128 0xc
 4782 092d F9160000 		.4byte	.LASF263
 4783 0931 5601     		.2byte	0x156
 4784 0933 0C       		.uleb128 0xc
 4785 0934 E7080000 		.4byte	.LASF264
 4786 0938 5701     		.2byte	0x157
 4787 093a 0C       		.uleb128 0xc
 4788 093b DF1B0000 		.4byte	.LASF265
 4789 093f 5801     		.2byte	0x158
 4790 0941 0C       		.uleb128 0xc
 4791 0942 16370000 		.4byte	.LASF266
 4792 0946 5901     		.2byte	0x159
 4793 0948 0C       		.uleb128 0xc
 4794 0949 71230000 		.4byte	.LASF267
 4795 094d 5A01     		.2byte	0x15a
 4796 094f 0C       		.uleb128 0xc
 4797 0950 AA280000 		.4byte	.LASF268
 4798 0954 5B01     		.2byte	0x15b
 4799 0956 0C       		.uleb128 0xc
 4800 0957 0A200000 		.4byte	.LASF269
 4801 095b 5C01     		.2byte	0x15c
 4802 095d 0C       		.uleb128 0xc
 4803 095e 46300000 		.4byte	.LASF270
 4804 0962 5D01     		.2byte	0x15d
 4805 0964 0C       		.uleb128 0xc
 4806 0965 B7350000 		.4byte	.LASF271
 4807 0969 5E01     		.2byte	0x15e
 4808 096b 0C       		.uleb128 0xc
 4809 096c DB340000 		.4byte	.LASF272
 4810 0970 5F01     		.2byte	0x15f
 4811 0972 0C       		.uleb128 0xc
 4812 0973 011F0000 		.4byte	.LASF273
 4813 0977 6001     		.2byte	0x160
 4814 0979 0C       		.uleb128 0xc
 4815 097a 02210000 		.4byte	.LASF274
 4816 097e 6101     		.2byte	0x161
 4817 0980 0C       		.uleb128 0xc
 4818 0981 380F0000 		.4byte	.LASF275
 4819 0985 6201     		.2byte	0x162
 4820 0987 0C       		.uleb128 0xc
 4821 0988 51340000 		.4byte	.LASF276
 4822 098c 6301     		.2byte	0x163
 4823 098e 0C       		.uleb128 0xc
 4824 098f C42C0000 		.4byte	.LASF277
 4825 0993 6401     		.2byte	0x164
 4826 0995 0C       		.uleb128 0xc
 4827 0996 DE110000 		.4byte	.LASF278
 4828 099a 6501     		.2byte	0x165
 4829 099c 0C       		.uleb128 0xc
 4830 099d FE270000 		.4byte	.LASF279
 4831 09a1 6601     		.2byte	0x166
 4832 09a3 0C       		.uleb128 0xc
 4833 09a4 59000000 		.4byte	.LASF280
 4834 09a8 6701     		.2byte	0x167
ARM GAS  C:\Users\megan\AppData\Local\Temp\ccrMxWsc.s 			page 106


 4835 09aa 0C       		.uleb128 0xc
 4836 09ab 4F040000 		.4byte	.LASF281
 4837 09af 6801     		.2byte	0x168
 4838 09b1 0C       		.uleb128 0xc
 4839 09b2 0B080000 		.4byte	.LASF282
 4840 09b6 6901     		.2byte	0x169
 4841 09b8 0C       		.uleb128 0xc
 4842 09b9 4C010000 		.4byte	.LASF283
 4843 09bd 6A01     		.2byte	0x16a
 4844 09bf 0C       		.uleb128 0xc
 4845 09c0 7F150000 		.4byte	.LASF284
 4846 09c4 6B01     		.2byte	0x16b
 4847 09c6 0C       		.uleb128 0xc
 4848 09c7 99340000 		.4byte	.LASF285
 4849 09cb 6C01     		.2byte	0x16c
 4850 09cd 0C       		.uleb128 0xc
 4851 09ce D43B0000 		.4byte	.LASF286
 4852 09d2 6D01     		.2byte	0x16d
 4853 09d4 0C       		.uleb128 0xc
 4854 09d5 172B0000 		.4byte	.LASF287
 4855 09d9 6E01     		.2byte	0x16e
 4856 09db 0C       		.uleb128 0xc
 4857 09dc E0010000 		.4byte	.LASF288
 4858 09e0 6F01     		.2byte	0x16f
 4859 09e2 0C       		.uleb128 0xc
 4860 09e3 D90A0000 		.4byte	.LASF289
 4861 09e7 7001     		.2byte	0x170
 4862 09e9 0C       		.uleb128 0xc
 4863 09ea FE0D0000 		.4byte	.LASF290
 4864 09ee 7101     		.2byte	0x171
 4865 09f0 0C       		.uleb128 0xc
 4866 09f1 3D1E0000 		.4byte	.LASF291
 4867 09f5 7201     		.2byte	0x172
 4868 09f7 0C       		.uleb128 0xc
 4869 09f8 AD1A0000 		.4byte	.LASF292
 4870 09fc 7301     		.2byte	0x173
 4871 09fe 0C       		.uleb128 0xc
 4872 09ff 78050000 		.4byte	.LASF293
 4873 0a03 7401     		.2byte	0x174
 4874 0a05 0C       		.uleb128 0xc
 4875 0a06 02120000 		.4byte	.LASF294
 4876 0a0a 7501     		.2byte	0x175
 4877 0a0c 0C       		.uleb128 0xc
 4878 0a0d B13C0000 		.4byte	.LASF295
 4879 0a11 7601     		.2byte	0x176
 4880 0a13 0C       		.uleb128 0xc
 4881 0a14 181A0000 		.4byte	.LASF296
 4882 0a18 7701     		.2byte	0x177
 4883 0a1a 0C       		.uleb128 0xc
 4884 0a1b F9240000 		.4byte	.LASF297
 4885 0a1f 7801     		.2byte	0x178
 4886 0a21 0C       		.uleb128 0xc
 4887 0a22 96100000 		.4byte	.LASF298
 4888 0a26 7901     		.2byte	0x179
 4889 0a28 0C       		.uleb128 0xc
 4890 0a29 682B0000 		.4byte	.LASF299
 4891 0a2d 7A01     		.2byte	0x17a
ARM GAS  C:\Users\megan\AppData\Local\Temp\ccrMxWsc.s 			page 107


 4892 0a2f 0C       		.uleb128 0xc
 4893 0a30 C9020000 		.4byte	.LASF300
 4894 0a34 7B01     		.2byte	0x17b
 4895 0a36 0C       		.uleb128 0xc
 4896 0a37 231F0000 		.4byte	.LASF301
 4897 0a3b 7C01     		.2byte	0x17c
 4898 0a3d 0C       		.uleb128 0xc
 4899 0a3e DD070000 		.4byte	.LASF302
 4900 0a42 7D01     		.2byte	0x17d
 4901 0a44 0C       		.uleb128 0xc
 4902 0a45 B7050000 		.4byte	.LASF303
 4903 0a49 7E01     		.2byte	0x17e
 4904 0a4b 0C       		.uleb128 0xc
 4905 0a4c 28040000 		.4byte	.LASF304
 4906 0a50 7F01     		.2byte	0x17f
 4907 0a52 0C       		.uleb128 0xc
 4908 0a53 FC350000 		.4byte	.LASF305
 4909 0a57 8001     		.2byte	0x180
 4910 0a59 0C       		.uleb128 0xc
 4911 0a5a F02C0000 		.4byte	.LASF306
 4912 0a5e 8101     		.2byte	0x181
 4913 0a60 0C       		.uleb128 0xc
 4914 0a61 D33C0000 		.4byte	.LASF307
 4915 0a65 8201     		.2byte	0x182
 4916 0a67 0C       		.uleb128 0xc
 4917 0a68 39050000 		.4byte	.LASF308
 4918 0a6c 8301     		.2byte	0x183
 4919 0a6e 0C       		.uleb128 0xc
 4920 0a6f 7E2E0000 		.4byte	.LASF309
 4921 0a73 8401     		.2byte	0x184
 4922 0a75 0C       		.uleb128 0xc
 4923 0a76 313C0000 		.4byte	.LASF310
 4924 0a7a 8501     		.2byte	0x185
 4925 0a7c 0C       		.uleb128 0xc
 4926 0a7d 57210000 		.4byte	.LASF311
 4927 0a81 8601     		.2byte	0x186
 4928 0a83 0C       		.uleb128 0xc
 4929 0a84 08240000 		.4byte	.LASF312
 4930 0a88 8701     		.2byte	0x187
 4931 0a8a 0C       		.uleb128 0xc
 4932 0a8b 36030000 		.4byte	.LASF313
 4933 0a8f 8801     		.2byte	0x188
 4934 0a91 0C       		.uleb128 0xc
 4935 0a92 67290000 		.4byte	.LASF314
 4936 0a96 8901     		.2byte	0x189
 4937 0a98 0C       		.uleb128 0xc
 4938 0a99 9A140000 		.4byte	.LASF315
 4939 0a9d 8A01     		.2byte	0x18a
 4940 0a9f 0C       		.uleb128 0xc
 4941 0aa0 A7310000 		.4byte	.LASF316
 4942 0aa4 8B01     		.2byte	0x18b
 4943 0aa6 0C       		.uleb128 0xc
 4944 0aa7 952D0000 		.4byte	.LASF317
 4945 0aab 8C01     		.2byte	0x18c
 4946 0aad 0C       		.uleb128 0xc
 4947 0aae 3A360000 		.4byte	.LASF318
 4948 0ab2 8D01     		.2byte	0x18d
ARM GAS  C:\Users\megan\AppData\Local\Temp\ccrMxWsc.s 			page 108


 4949 0ab4 0C       		.uleb128 0xc
 4950 0ab5 E41F0000 		.4byte	.LASF319
 4951 0ab9 8E01     		.2byte	0x18e
 4952 0abb 0C       		.uleb128 0xc
 4953 0abc 5F330000 		.4byte	.LASF320
 4954 0ac0 8F01     		.2byte	0x18f
 4955 0ac2 0C       		.uleb128 0xc
 4956 0ac3 442A0000 		.4byte	.LASF321
 4957 0ac7 9001     		.2byte	0x190
 4958 0ac9 0C       		.uleb128 0xc
 4959 0aca FD210000 		.4byte	.LASF322
 4960 0ace 9101     		.2byte	0x191
 4961 0ad0 0C       		.uleb128 0xc
 4962 0ad1 8F2C0000 		.4byte	.LASF323
 4963 0ad5 9201     		.2byte	0x192
 4964 0ad7 0C       		.uleb128 0xc
 4965 0ad8 7E170000 		.4byte	.LASF324
 4966 0adc 9301     		.2byte	0x193
 4967 0ade 0C       		.uleb128 0xc
 4968 0adf 82060000 		.4byte	.LASF325
 4969 0ae3 9401     		.2byte	0x194
 4970 0ae5 0C       		.uleb128 0xc
 4971 0ae6 6A380000 		.4byte	.LASF326
 4972 0aea 9501     		.2byte	0x195
 4973 0aec 0C       		.uleb128 0xc
 4974 0aed 88390000 		.4byte	.LASF327
 4975 0af1 9601     		.2byte	0x196
 4976 0af3 0C       		.uleb128 0xc
 4977 0af4 9E1C0000 		.4byte	.LASF328
 4978 0af8 9701     		.2byte	0x197
 4979 0afa 0C       		.uleb128 0xc
 4980 0afb BA2D0000 		.4byte	.LASF329
 4981 0aff 9801     		.2byte	0x198
 4982 0b01 0C       		.uleb128 0xc
 4983 0b02 D21A0000 		.4byte	.LASF330
 4984 0b06 9901     		.2byte	0x199
 4985 0b08 0C       		.uleb128 0xc
 4986 0b09 E0200000 		.4byte	.LASF331
 4987 0b0d 9A01     		.2byte	0x19a
 4988 0b0f 0C       		.uleb128 0xc
 4989 0b10 30270000 		.4byte	.LASF332
 4990 0b14 9B01     		.2byte	0x19b
 4991 0b16 0C       		.uleb128 0xc
 4992 0b17 F0390000 		.4byte	.LASF333
 4993 0b1b 9C01     		.2byte	0x19c
 4994 0b1d 0C       		.uleb128 0xc
 4995 0b1e 4E1F0000 		.4byte	.LASF334
 4996 0b22 9D01     		.2byte	0x19d
 4997 0b24 0C       		.uleb128 0xc
 4998 0b25 B30F0000 		.4byte	.LASF335
 4999 0b29 9E01     		.2byte	0x19e
 5000 0b2b 0C       		.uleb128 0xc
 5001 0b2c 230E0000 		.4byte	.LASF336
 5002 0b30 9F01     		.2byte	0x19f
 5003 0b32 0C       		.uleb128 0xc
 5004 0b33 C6000000 		.4byte	.LASF337
 5005 0b37 A001     		.2byte	0x1a0
ARM GAS  C:\Users\megan\AppData\Local\Temp\ccrMxWsc.s 			page 109


 5006 0b39 0C       		.uleb128 0xc
 5007 0b3a 00000000 		.4byte	.LASF338
 5008 0b3e A101     		.2byte	0x1a1
 5009 0b40 0C       		.uleb128 0xc
 5010 0b41 3C3A0000 		.4byte	.LASF339
 5011 0b45 A201     		.2byte	0x1a2
 5012 0b47 0C       		.uleb128 0xc
 5013 0b48 E2270000 		.4byte	.LASF340
 5014 0b4c A301     		.2byte	0x1a3
 5015 0b4e 0C       		.uleb128 0xc
 5016 0b4f 9A360000 		.4byte	.LASF341
 5017 0b53 A401     		.2byte	0x1a4
 5018 0b55 0C       		.uleb128 0xc
 5019 0b56 2D1D0000 		.4byte	.LASF342
 5020 0b5a A501     		.2byte	0x1a5
 5021 0b5c 0C       		.uleb128 0xc
 5022 0b5d 9F080000 		.4byte	.LASF343
 5023 0b61 A601     		.2byte	0x1a6
 5024 0b63 0C       		.uleb128 0xc
 5025 0b64 68180000 		.4byte	.LASF344
 5026 0b68 A701     		.2byte	0x1a7
 5027 0b6a 0C       		.uleb128 0xc
 5028 0b6b FE170000 		.4byte	.LASF345
 5029 0b6f A801     		.2byte	0x1a8
 5030 0b71 0C       		.uleb128 0xc
 5031 0b72 7A1B0000 		.4byte	.LASF346
 5032 0b76 A901     		.2byte	0x1a9
 5033 0b78 0C       		.uleb128 0xc
 5034 0b79 E12A0000 		.4byte	.LASF347
 5035 0b7d AA01     		.2byte	0x1aa
 5036 0b7f 0C       		.uleb128 0xc
 5037 0b80 2A230000 		.4byte	.LASF348
 5038 0b84 AB01     		.2byte	0x1ab
 5039 0b86 0C       		.uleb128 0xc
 5040 0b87 87130000 		.4byte	.LASF349
 5041 0b8b AC01     		.2byte	0x1ac
 5042 0b8d 0C       		.uleb128 0xc
 5043 0b8e ED320000 		.4byte	.LASF350
 5044 0b92 AD01     		.2byte	0x1ad
 5045 0b94 0C       		.uleb128 0xc
 5046 0b95 8E3C0000 		.4byte	.LASF351
 5047 0b99 AE01     		.2byte	0x1ae
 5048 0b9b 0C       		.uleb128 0xc
 5049 0b9c 3F020000 		.4byte	.LASF352
 5050 0ba0 AF01     		.2byte	0x1af
 5051 0ba2 0C       		.uleb128 0xc
 5052 0ba3 EF1A0000 		.4byte	.LASF353
 5053 0ba7 B001     		.2byte	0x1b0
 5054 0ba9 0C       		.uleb128 0xc
 5055 0baa 623C0000 		.4byte	.LASF354
 5056 0bae B101     		.2byte	0x1b1
 5057 0bb0 0C       		.uleb128 0xc
 5058 0bb1 D5060000 		.4byte	.LASF355
 5059 0bb5 B201     		.2byte	0x1b2
 5060 0bb7 0C       		.uleb128 0xc
 5061 0bb8 311B0000 		.4byte	.LASF356
 5062 0bbc B301     		.2byte	0x1b3
ARM GAS  C:\Users\megan\AppData\Local\Temp\ccrMxWsc.s 			page 110


 5063 0bbe 0C       		.uleb128 0xc
 5064 0bbf DA180000 		.4byte	.LASF357
 5065 0bc3 B401     		.2byte	0x1b4
 5066 0bc5 0C       		.uleb128 0xc
 5067 0bc6 28070000 		.4byte	.LASF358
 5068 0bca B501     		.2byte	0x1b5
 5069 0bcc 0C       		.uleb128 0xc
 5070 0bcd 66060000 		.4byte	.LASF359
 5071 0bd1 B601     		.2byte	0x1b6
 5072 0bd3 0C       		.uleb128 0xc
 5073 0bd4 41120000 		.4byte	.LASF360
 5074 0bd8 B701     		.2byte	0x1b7
 5075 0bda 0C       		.uleb128 0xc
 5076 0bdb D92D0000 		.4byte	.LASF361
 5077 0bdf B801     		.2byte	0x1b8
 5078 0be1 0C       		.uleb128 0xc
 5079 0be2 3B150000 		.4byte	.LASF362
 5080 0be6 B901     		.2byte	0x1b9
 5081 0be8 0C       		.uleb128 0xc
 5082 0be9 701E0000 		.4byte	.LASF363
 5083 0bed BA01     		.2byte	0x1ba
 5084 0bef 0C       		.uleb128 0xc
 5085 0bf0 FB1D0000 		.4byte	.LASF364
 5086 0bf4 BB01     		.2byte	0x1bb
 5087 0bf6 0C       		.uleb128 0xc
 5088 0bf7 131B0000 		.4byte	.LASF365
 5089 0bfb BC01     		.2byte	0x1bc
 5090 0bfd 0C       		.uleb128 0xc
 5091 0bfe 522D0000 		.4byte	.LASF366
 5092 0c02 BD01     		.2byte	0x1bd
 5093 0c04 0C       		.uleb128 0xc
 5094 0c05 8B260000 		.4byte	.LASF367
 5095 0c09 BE01     		.2byte	0x1be
 5096 0c0b 0C       		.uleb128 0xc
 5097 0c0c AD150000 		.4byte	.LASF368
 5098 0c10 BF01     		.2byte	0x1bf
 5099 0c12 0C       		.uleb128 0xc
 5100 0c13 13030000 		.4byte	.LASF369
 5101 0c17 C001     		.2byte	0x1c0
 5102 0c19 0C       		.uleb128 0xc
 5103 0c1a 550B0000 		.4byte	.LASF370
 5104 0c1e C101     		.2byte	0x1c1
 5105 0c20 0C       		.uleb128 0xc
 5106 0c21 EA000000 		.4byte	.LASF371
 5107 0c25 C201     		.2byte	0x1c2
 5108 0c27 0C       		.uleb128 0xc
 5109 0c28 C11B0000 		.4byte	.LASF372
 5110 0c2c C301     		.2byte	0x1c3
 5111 0c2e 0C       		.uleb128 0xc
 5112 0c2f E5030000 		.4byte	.LASF373
 5113 0c33 C401     		.2byte	0x1c4
 5114 0c35 0C       		.uleb128 0xc
 5115 0c36 C7030000 		.4byte	.LASF374
 5116 0c3a C501     		.2byte	0x1c5
 5117 0c3c 0C       		.uleb128 0xc
 5118 0c3d 0B1D0000 		.4byte	.LASF375
 5119 0c41 C601     		.2byte	0x1c6
ARM GAS  C:\Users\megan\AppData\Local\Temp\ccrMxWsc.s 			page 111


 5120 0c43 0C       		.uleb128 0xc
 5121 0c44 563A0000 		.4byte	.LASF376
 5122 0c48 C701     		.2byte	0x1c7
 5123 0c4a 0C       		.uleb128 0xc
 5124 0c4b C60E0000 		.4byte	.LASF377
 5125 0c4f C801     		.2byte	0x1c8
 5126 0c51 0C       		.uleb128 0xc
 5127 0c52 DB300000 		.4byte	.LASF378
 5128 0c56 C901     		.2byte	0x1c9
 5129 0c58 0C       		.uleb128 0xc
 5130 0c59 96240000 		.4byte	.LASF379
 5131 0c5d CA01     		.2byte	0x1ca
 5132 0c5f 0C       		.uleb128 0xc
 5133 0c60 0B090000 		.4byte	.LASF380
 5134 0c64 CB01     		.2byte	0x1cb
 5135 0c66 0C       		.uleb128 0xc
 5136 0c67 7A210000 		.4byte	.LASF381
 5137 0c6b CC01     		.2byte	0x1cc
 5138 0c6d 0C       		.uleb128 0xc
 5139 0c6e B71F0000 		.4byte	.LASF382
 5140 0c72 CD01     		.2byte	0x1cd
 5141 0c74 0C       		.uleb128 0xc
 5142 0c75 BF0A0000 		.4byte	.LASF383
 5143 0c79 CE01     		.2byte	0x1ce
 5144 0c7b 0C       		.uleb128 0xc
 5145 0c7c 4E220000 		.4byte	.LASF384
 5146 0c80 CF01     		.2byte	0x1cf
 5147 0c82 0C       		.uleb128 0xc
 5148 0c83 48380000 		.4byte	.LASF385
 5149 0c87 D001     		.2byte	0x1d0
 5150 0c89 0C       		.uleb128 0xc
 5151 0c8a 452B0000 		.4byte	.LASF386
 5152 0c8e D101     		.2byte	0x1d1
 5153 0c90 0C       		.uleb128 0xc
 5154 0c91 18110000 		.4byte	.LASF387
 5155 0c95 D201     		.2byte	0x1d2
 5156 0c97 0C       		.uleb128 0xc
 5157 0c98 DC090000 		.4byte	.LASF388
 5158 0c9c D301     		.2byte	0x1d3
 5159 0c9e 0C       		.uleb128 0xc
 5160 0c9f 440C0000 		.4byte	.LASF389
 5161 0ca3 D401     		.2byte	0x1d4
 5162 0ca5 0C       		.uleb128 0xc
 5163 0ca6 8D000000 		.4byte	.LASF390
 5164 0caa D501     		.2byte	0x1d5
 5165 0cac 0C       		.uleb128 0xc
 5166 0cad 551C0000 		.4byte	.LASF391
 5167 0cb1 D601     		.2byte	0x1d6
 5168 0cb3 0C       		.uleb128 0xc
 5169 0cb4 64270000 		.4byte	.LASF392
 5170 0cb8 D701     		.2byte	0x1d7
 5171 0cba 0C       		.uleb128 0xc
 5172 0cbb C9290000 		.4byte	.LASF393
 5173 0cbf D801     		.2byte	0x1d8
 5174 0cc1 0C       		.uleb128 0xc
 5175 0cc2 29010000 		.4byte	.LASF394
 5176 0cc6 D901     		.2byte	0x1d9
ARM GAS  C:\Users\megan\AppData\Local\Temp\ccrMxWsc.s 			page 112


 5177 0cc8 0C       		.uleb128 0xc
 5178 0cc9 D7120000 		.4byte	.LASF395
 5179 0ccd DA01     		.2byte	0x1da
 5180 0ccf 0C       		.uleb128 0xc
 5181 0cd0 AF090000 		.4byte	.LASF396
 5182 0cd4 DB01     		.2byte	0x1db
 5183 0cd6 0C       		.uleb128 0xc
 5184 0cd7 ED250000 		.4byte	.LASF397
 5185 0cdb DC01     		.2byte	0x1dc
 5186 0cdd 0C       		.uleb128 0xc
 5187 0cde 530A0000 		.4byte	.LASF398
 5188 0ce2 DD01     		.2byte	0x1dd
 5189 0ce4 0C       		.uleb128 0xc
 5190 0ce5 4A240000 		.4byte	.LASF399
 5191 0ce9 DE01     		.2byte	0x1de
 5192 0ceb 0C       		.uleb128 0xc
 5193 0cec 4E320000 		.4byte	.LASF400
 5194 0cf0 DF01     		.2byte	0x1df
 5195 0cf2 0C       		.uleb128 0xc
 5196 0cf3 821A0000 		.4byte	.LASF401
 5197 0cf7 E001     		.2byte	0x1e0
 5198 0cf9 0C       		.uleb128 0xc
 5199 0cfa 42070000 		.4byte	.LASF402
 5200 0cfe E101     		.2byte	0x1e1
 5201 0d00 0C       		.uleb128 0xc
 5202 0d01 7C340000 		.4byte	.LASF403
 5203 0d05 E201     		.2byte	0x1e2
 5204 0d07 0C       		.uleb128 0xc
 5205 0d08 7B100000 		.4byte	.LASF404
 5206 0d0c E301     		.2byte	0x1e3
 5207 0d0e 0C       		.uleb128 0xc
 5208 0d0f 961D0000 		.4byte	.LASF405
 5209 0d13 E401     		.2byte	0x1e4
 5210 0d15 0C       		.uleb128 0xc
 5211 0d16 D1140000 		.4byte	.LASF406
 5212 0d1a E501     		.2byte	0x1e5
 5213 0d1c 0C       		.uleb128 0xc
 5214 0d1d CC390000 		.4byte	.LASF407
 5215 0d21 E601     		.2byte	0x1e6
 5216 0d23 0C       		.uleb128 0xc
 5217 0d24 B2120000 		.4byte	.LASF408
 5218 0d28 E701     		.2byte	0x1e7
 5219 0d2a 0C       		.uleb128 0xc
 5220 0d2b AF2B0000 		.4byte	.LASF409
 5221 0d2f E801     		.2byte	0x1e8
 5222 0d31 0C       		.uleb128 0xc
 5223 0d32 71320000 		.4byte	.LASF410
 5224 0d36 E901     		.2byte	0x1e9
 5225 0d38 0C       		.uleb128 0xc
 5226 0d39 512F0000 		.4byte	.LASF411
 5227 0d3d EA01     		.2byte	0x1ea
 5228 0d3f 0C       		.uleb128 0xc
 5229 0d40 B72F0000 		.4byte	.LASF412
 5230 0d44 EB01     		.2byte	0x1eb
 5231 0d46 0C       		.uleb128 0xc
 5232 0d47 D91E0000 		.4byte	.LASF413
 5233 0d4b EC01     		.2byte	0x1ec
ARM GAS  C:\Users\megan\AppData\Local\Temp\ccrMxWsc.s 			page 113


 5234 0d4d 0C       		.uleb128 0xc
 5235 0d4e AE290000 		.4byte	.LASF414
 5236 0d52 ED01     		.2byte	0x1ed
 5237 0d54 0C       		.uleb128 0xc
 5238 0d55 7D140000 		.4byte	.LASF415
 5239 0d59 EE01     		.2byte	0x1ee
 5240 0d5b 0C       		.uleb128 0xc
 5241 0d5c 5D350000 		.4byte	.LASF416
 5242 0d60 EF01     		.2byte	0x1ef
 5243 0d62 0C       		.uleb128 0xc
 5244 0d63 D7190000 		.4byte	.LASF417
 5245 0d67 F001     		.2byte	0x1f0
 5246 0d69 0C       		.uleb128 0xc
 5247 0d6a 6F2A0000 		.4byte	.LASF418
 5248 0d6e F101     		.2byte	0x1f1
 5249 0d70 0C       		.uleb128 0xc
 5250 0d71 57100000 		.4byte	.LASF419
 5251 0d75 F201     		.2byte	0x1f2
 5252 0d77 0C       		.uleb128 0xc
 5253 0d78 B6340000 		.4byte	.LASF420
 5254 0d7c F301     		.2byte	0x1f3
 5255 0d7e 0C       		.uleb128 0xc
 5256 0d7f A60B0000 		.4byte	.LASF421
 5257 0d83 F401     		.2byte	0x1f4
 5258 0d85 0C       		.uleb128 0xc
 5259 0d86 8E300000 		.4byte	.LASF422
 5260 0d8a F501     		.2byte	0x1f5
 5261 0d8c 0C       		.uleb128 0xc
 5262 0d8d 8A2B0000 		.4byte	.LASF423
 5263 0d91 F601     		.2byte	0x1f6
 5264 0d93 0C       		.uleb128 0xc
 5265 0d94 BB2A0000 		.4byte	.LASF424
 5266 0d98 F701     		.2byte	0x1f7
 5267 0d9a 0C       		.uleb128 0xc
 5268 0d9b F60F0000 		.4byte	.LASF425
 5269 0d9f F801     		.2byte	0x1f8
 5270 0da1 0C       		.uleb128 0xc
 5271 0da2 3B110000 		.4byte	.LASF426
 5272 0da6 F901     		.2byte	0x1f9
 5273 0da8 0C       		.uleb128 0xc
 5274 0da9 0F050000 		.4byte	.LASF427
 5275 0dad FA01     		.2byte	0x1fa
 5276 0daf 0C       		.uleb128 0xc
 5277 0db0 58110000 		.4byte	.LASF428
 5278 0db4 FB01     		.2byte	0x1fb
 5279 0db6 0C       		.uleb128 0xc
 5280 0db7 76200000 		.4byte	.LASF429
 5281 0dbb FC01     		.2byte	0x1fc
 5282 0dbd 0C       		.uleb128 0xc
 5283 0dbe 53050000 		.4byte	.LASF430
 5284 0dc2 FD01     		.2byte	0x1fd
 5285 0dc4 0C       		.uleb128 0xc
 5286 0dc5 E6290000 		.4byte	.LASF431
 5287 0dc9 FE01     		.2byte	0x1fe
 5288 0dcb 0C       		.uleb128 0xc
 5289 0dcc 4D3B0000 		.4byte	.LASF432
 5290 0dd0 FF01     		.2byte	0x1ff
ARM GAS  C:\Users\megan\AppData\Local\Temp\ccrMxWsc.s 			page 114


 5291 0dd2 0C       		.uleb128 0xc
 5292 0dd3 1C020000 		.4byte	.LASF433
 5293 0dd7 0002     		.2byte	0x200
 5294 0dd9 0C       		.uleb128 0xc
 5295 0dda 69070000 		.4byte	.LASF434
 5296 0dde 0102     		.2byte	0x201
 5297 0de0 0C       		.uleb128 0xc
 5298 0de1 6D120000 		.4byte	.LASF435
 5299 0de5 0202     		.2byte	0x202
 5300 0de7 0C       		.uleb128 0xc
 5301 0de8 0D270000 		.4byte	.LASF436
 5302 0dec 0302     		.2byte	0x203
 5303 0dee 0C       		.uleb128 0xc
 5304 0def EE150000 		.4byte	.LASF437
 5305 0df3 0402     		.2byte	0x204
 5306 0df5 0C       		.uleb128 0xc
 5307 0df6 3B330000 		.4byte	.LASF438
 5308 0dfa 0502     		.2byte	0x205
 5309 0dfc 0C       		.uleb128 0xc
 5310 0dfd 2F080000 		.4byte	.LASF439
 5311 0e01 0602     		.2byte	0x206
 5312 0e03 0C       		.uleb128 0xc
 5313 0e04 D52E0000 		.4byte	.LASF440
 5314 0e08 0702     		.2byte	0x207
 5315 0e0a 0C       		.uleb128 0xc
 5316 0e0b F5140000 		.4byte	.LASF441
 5317 0e0f 0802     		.2byte	0x208
 5318 0e11 0C       		.uleb128 0xc
 5319 0e12 C4110000 		.4byte	.LASF442
 5320 0e16 0902     		.2byte	0x209
 5321 0e18 0C       		.uleb128 0xc
 5322 0e19 153C0000 		.4byte	.LASF443
 5323 0e1d 0A02     		.2byte	0x20a
 5324 0e1f 0C       		.uleb128 0xc
 5325 0e20 A03B0000 		.4byte	.LASF444
 5326 0e24 0B02     		.2byte	0x20b
 5327 0e26 0C       		.uleb128 0xc
 5328 0e27 BD200000 		.4byte	.LASF445
 5329 0e2b 0C02     		.2byte	0x20c
 5330 0e2d 0C       		.uleb128 0xc
 5331 0e2e 022A0000 		.4byte	.LASF446
 5332 0e32 0D02     		.2byte	0x20d
 5333 0e34 0C       		.uleb128 0xc
 5334 0e35 04190000 		.4byte	.LASF447
 5335 0e39 0E02     		.2byte	0x20e
 5336 0e3b 0C       		.uleb128 0xc
 5337 0e3c 1F1E0000 		.4byte	.LASF448
 5338 0e40 0F02     		.2byte	0x20f
 5339 0e42 0C       		.uleb128 0xc
 5340 0e43 F3100000 		.4byte	.LASF449
 5341 0e47 1002     		.2byte	0x210
 5342 0e49 0C       		.uleb128 0xc
 5343 0e4a 990A0000 		.4byte	.LASF450
 5344 0e4e 1102     		.2byte	0x211
 5345 0e50 0C       		.uleb128 0xc
 5346 0e51 B91D0000 		.4byte	.LASF451
 5347 0e55 1202     		.2byte	0x212
ARM GAS  C:\Users\megan\AppData\Local\Temp\ccrMxWsc.s 			page 115


 5348 0e57 0C       		.uleb128 0xc
 5349 0e58 16360000 		.4byte	.LASF452
 5350 0e5c 1302     		.2byte	0x213
 5351 0e5e 0C       		.uleb128 0xc
 5352 0e5f FE300000 		.4byte	.LASF453
 5353 0e63 1402     		.2byte	0x214
 5354 0e65 0C       		.uleb128 0xc
 5355 0e66 8F280000 		.4byte	.LASF454
 5356 0e6a 1502     		.2byte	0x215
 5357 0e6c 0C       		.uleb128 0xc
 5358 0e6d 54360000 		.4byte	.LASF455
 5359 0e71 1602     		.2byte	0x216
 5360 0e73 0C       		.uleb128 0xc
 5361 0e74 4D130000 		.4byte	.LASF456
 5362 0e78 1702     		.2byte	0x217
 5363 0e7a 0C       		.uleb128 0xc
 5364 0e7b 5A2E0000 		.4byte	.LASF457
 5365 0e7f 1802     		.2byte	0x218
 5366 0e81 0C       		.uleb128 0xc
 5367 0e82 99070000 		.4byte	.LASF458
 5368 0e86 1902     		.2byte	0x219
 5369 0e88 0C       		.uleb128 0xc
 5370 0e89 A8390000 		.4byte	.LASF459
 5371 0e8d 1A02     		.2byte	0x21a
 5372 0e8f 0C       		.uleb128 0xc
 5373 0e90 38350000 		.4byte	.LASF460
 5374 0e94 1B02     		.2byte	0x21b
 5375 0e96 0C       		.uleb128 0xc
 5376 0e97 262C0000 		.4byte	.LASF461
 5377 0e9b 1C02     		.2byte	0x21c
 5378 0e9d 0C       		.uleb128 0xc
 5379 0e9e 28190000 		.4byte	.LASF462
 5380 0ea2 1D02     		.2byte	0x21d
 5381 0ea4 0C       		.uleb128 0xc
 5382 0ea5 12160000 		.4byte	.LASF463
 5383 0ea9 1E02     		.2byte	0x21e
 5384 0eab 0C       		.uleb128 0xc
 5385 0eac EC220000 		.4byte	.LASF464
 5386 0eb0 1F02     		.2byte	0x21f
 5387 0eb2 0C       		.uleb128 0xc
 5388 0eb3 A1270000 		.4byte	.LASF465
 5389 0eb7 2002     		.2byte	0x220
 5390 0eb9 0C       		.uleb128 0xc
 5391 0eba DA1C0000 		.4byte	.LASF466
 5392 0ebe 2102     		.2byte	0x221
 5393 0ec0 0C       		.uleb128 0xc
 5394 0ec1 4B190000 		.4byte	.LASF467
 5395 0ec5 2202     		.2byte	0x222
 5396 0ec7 0C       		.uleb128 0xc
 5397 0ec8 0F0B0000 		.4byte	.LASF468
 5398 0ecc 00E0     		.2byte	0xe000
 5399 0ece 00       		.byte	0
 5400 0ecf 0A       		.uleb128 0xa
 5401 0ed0 01       		.byte	0x1
 5402 0ed1 37000000 		.4byte	0x37
 5403 0ed5 09       		.byte	0x9
 5404 0ed6 5008     		.2byte	0x850
ARM GAS  C:\Users\megan\AppData\Local\Temp\ccrMxWsc.s 			page 116


 5405 0ed8 010F0000 		.4byte	0xf01
 5406 0edc 0B       		.uleb128 0xb
 5407 0edd 36160000 		.4byte	.LASF469
 5408 0ee1 00       		.byte	0
 5409 0ee2 0B       		.uleb128 0xb
 5410 0ee3 78350000 		.4byte	.LASF470
 5411 0ee7 01       		.byte	0x1
 5412 0ee8 0B       		.uleb128 0xb
 5413 0ee9 41100000 		.4byte	.LASF471
 5414 0eed 02       		.byte	0x2
 5415 0eee 0B       		.uleb128 0xb
 5416 0eef 23180000 		.4byte	.LASF472
 5417 0ef3 03       		.byte	0x3
 5418 0ef4 0B       		.uleb128 0xb
 5419 0ef5 B00C0000 		.4byte	.LASF473
 5420 0ef9 04       		.byte	0x4
 5421 0efa 0B       		.uleb128 0xb
 5422 0efb BE190000 		.4byte	.LASF474
 5423 0eff 05       		.byte	0x5
 5424 0f00 00       		.byte	0
 5425 0f01 05       		.uleb128 0x5
 5426 0f02 FD1C0000 		.4byte	.LASF475
 5427 0f06 09       		.byte	0x9
 5428 0f07 5E08     		.2byte	0x85e
 5429 0f09 CF0E0000 		.4byte	0xecf
 5430 0f0d 0A       		.uleb128 0xa
 5431 0f0e 01       		.byte	0x1
 5432 0f0f 37000000 		.4byte	0x37
 5433 0f13 09       		.byte	0x9
 5434 0f14 9308     		.2byte	0x893
 5435 0f16 390F0000 		.4byte	0xf39
 5436 0f1a 0B       		.uleb128 0xb
 5437 0f1b 2C240000 		.4byte	.LASF476
 5438 0f1f 00       		.byte	0
 5439 0f20 0B       		.uleb128 0xb
 5440 0f21 C01C0000 		.4byte	.LASF477
 5441 0f25 01       		.byte	0x1
 5442 0f26 0B       		.uleb128 0xb
 5443 0f27 621A0000 		.4byte	.LASF478
 5444 0f2b 02       		.byte	0x2
 5445 0f2c 0B       		.uleb128 0xb
 5446 0f2d 65080000 		.4byte	.LASF479
 5447 0f31 02       		.byte	0x2
 5448 0f32 0B       		.uleb128 0xb
 5449 0f33 402F0000 		.4byte	.LASF480
 5450 0f37 03       		.byte	0x3
 5451 0f38 00       		.byte	0
 5452 0f39 16       		.uleb128 0x16
 5453 0f3a 9A0D0000 		.4byte	.LASF491
 5454 0f3e 01       		.byte	0x1
 5455 0f3f 37000000 		.4byte	0x37
 5456 0f43 0A       		.byte	0xa
 5457 0f44 30       		.byte	0x30
 5458 0f45 560F0000 		.4byte	0xf56
 5459 0f49 0B       		.uleb128 0xb
 5460 0f4a 3B240000 		.4byte	.LASF481
 5461 0f4e 00       		.byte	0
ARM GAS  C:\Users\megan\AppData\Local\Temp\ccrMxWsc.s 			page 117


 5462 0f4f 0B       		.uleb128 0xb
 5463 0f50 611E0000 		.4byte	.LASF482
 5464 0f54 01       		.byte	0x1
 5465 0f55 00       		.byte	0
 5466 0f56 10       		.uleb128 0x10
 5467 0f57 01       		.byte	0x1
 5468 0f58 37000000 		.4byte	0x37
 5469 0f5c 0A       		.byte	0xa
 5470 0f5d 44       		.byte	0x44
 5471 0f5e 6F0F0000 		.4byte	0xf6f
 5472 0f62 0B       		.uleb128 0xb
 5473 0f63 FE3A0000 		.4byte	.LASF483
 5474 0f67 00       		.byte	0
 5475 0f68 0B       		.uleb128 0xb
 5476 0f69 E7220000 		.4byte	.LASF484
 5477 0f6d 01       		.byte	0x1
 5478 0f6e 00       		.byte	0
 5479 0f6f 03       		.uleb128 0x3
 5480 0f70 DA050000 		.4byte	.LASF485
 5481 0f74 0A       		.byte	0xa
 5482 0f75 47       		.byte	0x47
 5483 0f76 560F0000 		.4byte	0xf56
 5484 0f7a 17       		.uleb128 0x17
 5485 0f7b 42696E00 		.ascii	"Bin\000"
 5486 0f7f 08       		.byte	0x8
 5487 0f80 01       		.byte	0x1
 5488 0f81 12       		.byte	0x12
 5489 0f82 AB0F0000 		.4byte	0xfab
 5490 0f86 15       		.uleb128 0x15
 5491 0f87 8D070000 		.4byte	.LASF486
 5492 0f8b 01       		.byte	0x1
 5493 0f8c 13       		.byte	0x13
 5494 0f8d C7000000 		.4byte	0xc7
 5495 0f91 00       		.byte	0
 5496 0f92 15       		.uleb128 0x15
 5497 0f93 74010000 		.4byte	.LASF487
 5498 0f97 01       		.byte	0x1
 5499 0f98 14       		.byte	0x14
 5500 0f99 81000000 		.4byte	0x81
 5501 0f9d 04       		.byte	0x4
 5502 0f9e 15       		.uleb128 0x15
 5503 0f9f 000A0000 		.4byte	.LASF488
 5504 0fa3 01       		.byte	0x1
 5505 0fa4 15       		.byte	0x15
 5506 0fa5 6F0F0000 		.4byte	0xf6f
 5507 0fa9 05       		.byte	0x5
 5508 0faa 00       		.byte	0
 5509 0fab 18       		.uleb128 0x18
 5510 0fac 42696E00 		.ascii	"Bin\000"
 5511 0fb0 01       		.byte	0x1
 5512 0fb1 16       		.byte	0x16
 5513 0fb2 7A0F0000 		.4byte	0xf7a
 5514 0fb6 19       		.uleb128 0x19
 5515 0fb7 D4090000 		.4byte	.LASF489
 5516 0fbb 04       		.byte	0x4
 5517 0fbc 01       		.byte	0x1
 5518 0fbd 18       		.byte	0x18
ARM GAS  C:\Users\megan\AppData\Local\Temp\ccrMxWsc.s 			page 118


 5519 0fbe CF0F0000 		.4byte	0xfcf
 5520 0fc2 15       		.uleb128 0x15
 5521 0fc3 250C0000 		.4byte	.LASF490
 5522 0fc7 01       		.byte	0x1
 5523 0fc8 19       		.byte	0x19
 5524 0fc9 C7000000 		.4byte	0xc7
 5525 0fcd 00       		.byte	0
 5526 0fce 00       		.byte	0
 5527 0fcf 16       		.uleb128 0x16
 5528 0fd0 1A2F0000 		.4byte	.LASF492
 5529 0fd4 01       		.byte	0x1
 5530 0fd5 37000000 		.4byte	0x37
 5531 0fd9 01       		.byte	0x1
 5532 0fda 1C       		.byte	0x1c
 5533 0fdb EC0F0000 		.4byte	0xfec
 5534 0fdf 0B       		.uleb128 0xb
 5535 0fe0 9F330000 		.4byte	.LASF493
 5536 0fe4 00       		.byte	0
 5537 0fe5 0B       		.uleb128 0xb
 5538 0fe6 D42B0000 		.4byte	.LASF494
 5539 0fea 01       		.byte	0x1
 5540 0feb 00       		.byte	0
 5541 0fec 03       		.uleb128 0x3
 5542 0fed 1A2F0000 		.4byte	.LASF492
 5543 0ff1 01       		.byte	0x1
 5544 0ff2 1F       		.byte	0x1f
 5545 0ff3 CF0F0000 		.4byte	0xfcf
 5546 0ff7 19       		.uleb128 0x19
 5547 0ff8 D2220000 		.4byte	.LASF495
 5548 0ffc 01       		.byte	0x1
 5549 0ffd 01       		.byte	0x1
 5550 0ffe 21       		.byte	0x21
 5551 0fff 10100000 		.4byte	0x1010
 5552 1003 15       		.uleb128 0x15
 5553 1004 670C0000 		.4byte	.LASF496
 5554 1008 01       		.byte	0x1
 5555 1009 22       		.byte	0x22
 5556 100a EC0F0000 		.4byte	0xfec
 5557 100e 00       		.byte	0
 5558 100f 00       		.byte	0
 5559 1010 1A       		.uleb128 0x1a
 5560 1011 2C3B0000 		.4byte	.LASF511
 5561 1015 01       		.byte	0x1
 5562 1016 4A       		.byte	0x4a
 5563 1017 73000000 		.4byte	0x73
 5564 101b 00000000 		.4byte	.LFB35
 5565 101f 58000000 		.4byte	.LFE35-.LFB35
 5566 1023 01       		.uleb128 0x1
 5567 1024 9C       		.byte	0x9c
 5568 1025 1B       		.uleb128 0x1b
 5569 1026 700E0000 		.4byte	.LASF561
 5570 102a 01       		.byte	0x1
 5571 102b 73       		.byte	0x73
 5572 102c 00000000 		.4byte	.LFB36
 5573 1030 34000000 		.4byte	.LFE36-.LFB36
 5574 1034 01       		.uleb128 0x1
 5575 1035 9C       		.byte	0x9c
ARM GAS  C:\Users\megan\AppData\Local\Temp\ccrMxWsc.s 			page 119


 5576 1036 1C       		.uleb128 0x1c
 5577 1037 E7160000 		.4byte	.LASF540
 5578 103b 01       		.byte	0x1
 5579 103c 81       		.byte	0x81
 5580 103d 00000000 		.4byte	.LFB37
 5581 1041 64020000 		.4byte	.LFE37-.LFB37
 5582 1045 01       		.uleb128 0x1
 5583 1046 9C       		.byte	0x9c
 5584 1047 5F110000 		.4byte	0x115f
 5585 104b 1D       		.uleb128 0x1d
 5586 104c 12020000 		.4byte	.LASF497
 5587 1050 01       		.byte	0x1
 5588 1051 81       		.byte	0x81
 5589 1052 AF000000 		.4byte	0xaf
 5590 1056 03       		.uleb128 0x3
 5591 1057 91       		.byte	0x91
 5592 1058 847E     		.sleb128 -252
 5593 105a 1D       		.uleb128 0x1d
 5594 105b 35280000 		.4byte	.LASF498
 5595 105f 01       		.byte	0x1
 5596 1060 81       		.byte	0x81
 5597 1061 07010000 		.4byte	0x107
 5598 1065 03       		.uleb128 0x3
 5599 1066 91       		.byte	0x91
 5600 1067 807E     		.sleb128 -256
 5601 1069 1E       		.uleb128 0x1e
 5602 106a 6F6B00   		.ascii	"ok\000"
 5603 106d 01       		.byte	0x1
 5604 106e 85       		.byte	0x85
 5605 106f 5F110000 		.4byte	0x115f
 5606 1073 02       		.uleb128 0x2
 5607 1074 91       		.byte	0x91
 5608 1075 60       		.sleb128 -32
 5609 1076 1F       		.uleb128 0x1f
 5610 1077 35150000 		.4byte	.LASF499
 5611 107b 01       		.byte	0x1
 5612 107c 86       		.byte	0x86
 5613 107d 6F110000 		.4byte	0x116f
 5614 1081 02       		.uleb128 0x2
 5615 1082 91       		.byte	0x91
 5616 1083 4C       		.sleb128 -52
 5617 1084 1F       		.uleb128 0x1f
 5618 1085 E8150000 		.4byte	.LASF500
 5619 1089 01       		.byte	0x1
 5620 108a 87       		.byte	0x87
 5621 108b 7F110000 		.4byte	0x117f
 5622 108f 03       		.uleb128 0x3
 5623 1090 91       		.byte	0x91
 5624 1091 B87F     		.sleb128 -72
 5625 1093 1F       		.uleb128 0x1f
 5626 1094 44220000 		.4byte	.LASF501
 5627 1098 01       		.byte	0x1
 5628 1099 88       		.byte	0x88
 5629 109a 8F110000 		.4byte	0x118f
 5630 109e 03       		.uleb128 0x3
 5631 109f 91       		.byte	0x91
 5632 10a0 A47F     		.sleb128 -92
ARM GAS  C:\Users\megan\AppData\Local\Temp\ccrMxWsc.s 			page 120


 5633 10a2 1F       		.uleb128 0x1f
 5634 10a3 751A0000 		.4byte	.LASF502
 5635 10a7 01       		.byte	0x1
 5636 10a8 89       		.byte	0x89
 5637 10a9 9F110000 		.4byte	0x119f
 5638 10ad 03       		.uleb128 0x3
 5639 10ae 91       		.byte	0x91
 5640 10af 947F     		.sleb128 -108
 5641 10b1 1F       		.uleb128 0x1f
 5642 10b2 25000000 		.4byte	.LASF503
 5643 10b6 01       		.byte	0x1
 5644 10b7 8A       		.byte	0x8a
 5645 10b8 AF110000 		.4byte	0x11af
 5646 10bc 03       		.uleb128 0x3
 5647 10bd 91       		.byte	0x91
 5648 10be 847F     		.sleb128 -124
 5649 10c0 1F       		.uleb128 0x1f
 5650 10c1 D8150000 		.4byte	.LASF504
 5651 10c5 01       		.byte	0x1
 5652 10c6 8B       		.byte	0x8b
 5653 10c7 BF110000 		.4byte	0x11bf
 5654 10cb 03       		.uleb128 0x3
 5655 10cc 91       		.byte	0x91
 5656 10cd 807F     		.sleb128 -128
 5657 10cf 1F       		.uleb128 0x1f
 5658 10d0 1B070000 		.4byte	.LASF505
 5659 10d4 01       		.byte	0x1
 5660 10d5 8C       		.byte	0x8c
 5661 10d6 CF110000 		.4byte	0x11cf
 5662 10da 03       		.uleb128 0x3
 5663 10db 91       		.byte	0x91
 5664 10dc E87E     		.sleb128 -152
 5665 10de 1F       		.uleb128 0x1f
 5666 10df CF1E0000 		.4byte	.LASF506
 5667 10e3 01       		.byte	0x1
 5668 10e4 8E       		.byte	0x8e
 5669 10e5 B1040000 		.4byte	0x4b1
 5670 10e9 03       		.uleb128 0x3
 5671 10ea 91       		.byte	0x91
 5672 10eb D47E     		.sleb128 -172
 5673 10ed 1F       		.uleb128 0x1f
 5674 10ee BE140000 		.4byte	.LASF507
 5675 10f2 01       		.byte	0x1
 5676 10f3 8F       		.byte	0x8f
 5677 10f4 20060000 		.4byte	0x620
 5678 10f8 03       		.uleb128 0x3
 5679 10f9 91       		.byte	0x91
 5680 10fa BC7E     		.sleb128 -196
 5681 10fc 1F       		.uleb128 0x1f
 5682 10fd 23280000 		.4byte	.LASF508
 5683 1101 01       		.byte	0x1
 5684 1102 90       		.byte	0x90
 5685 1103 BB060000 		.4byte	0x6bb
 5686 1107 03       		.uleb128 0x3
 5687 1108 91       		.byte	0x91
 5688 1109 B07E     		.sleb128 -208
 5689 110b 1F       		.uleb128 0x1f
ARM GAS  C:\Users\megan\AppData\Local\Temp\ccrMxWsc.s 			page 121


 5690 110c C3270000 		.4byte	.LASF509
 5691 1110 01       		.byte	0x1
 5692 1111 91       		.byte	0x91
 5693 1112 4C060000 		.4byte	0x64c
 5694 1116 03       		.uleb128 0x3
 5695 1117 91       		.byte	0x91
 5696 1118 A07E     		.sleb128 -224
 5697 111a 1F       		.uleb128 0x1f
 5698 111b 05080000 		.4byte	.LASF163
 5699 111f 01       		.byte	0x1
 5700 1120 92       		.byte	0x92
 5701 1121 E7050000 		.4byte	0x5e7
 5702 1125 03       		.uleb128 0x3
 5703 1126 91       		.byte	0x91
 5704 1127 9C7E     		.sleb128 -228
 5705 1129 1F       		.uleb128 0x1f
 5706 112a 940A0000 		.4byte	.LASF164
 5707 112e 01       		.byte	0x1
 5708 112f 93       		.byte	0x93
 5709 1130 0E050000 		.4byte	0x50e
 5710 1134 03       		.uleb128 0x3
 5711 1135 91       		.byte	0x91
 5712 1136 8C7E     		.sleb128 -244
 5713 1138 20       		.uleb128 0x20
 5714 1139 92160000 		.4byte	.LASF555
 5715 113d 01       		.byte	0x1
 5716 113e 94       		.byte	0x94
 5717 113f C0030000 		.4byte	0x3c0
 5718 1143 1E       		.uleb128 0x1e
 5719 1144 6900     		.ascii	"i\000"
 5720 1146 01       		.byte	0x1
 5721 1147 96       		.byte	0x96
 5722 1148 97000000 		.4byte	0x97
 5723 114c 02       		.uleb128 0x2
 5724 114d 91       		.byte	0x91
 5725 114e 6F       		.sleb128 -17
 5726 114f 1F       		.uleb128 0x1f
 5727 1150 662A0000 		.4byte	.LASF510
 5728 1154 01       		.byte	0x1
 5729 1155 97       		.byte	0x97
 5730 1156 DF110000 		.4byte	0x11df
 5731 115a 03       		.uleb128 0x3
 5732 115b 91       		.byte	0x91
 5733 115c 887E     		.sleb128 -248
 5734 115e 00       		.byte	0
 5735 115f 08       		.uleb128 0x8
 5736 1160 E1000000 		.4byte	0xe1
 5737 1164 6F110000 		.4byte	0x116f
 5738 1168 09       		.uleb128 0x9
 5739 1169 00010000 		.4byte	0x100
 5740 116d 0E       		.byte	0xe
 5741 116e 00       		.byte	0
 5742 116f 08       		.uleb128 0x8
 5743 1170 E1000000 		.4byte	0xe1
 5744 1174 7F110000 		.4byte	0x117f
 5745 1178 09       		.uleb128 0x9
 5746 1179 00010000 		.4byte	0x100
ARM GAS  C:\Users\megan\AppData\Local\Temp\ccrMxWsc.s 			page 122


 5747 117d 13       		.byte	0x13
 5748 117e 00       		.byte	0
 5749 117f 08       		.uleb128 0x8
 5750 1180 E1000000 		.4byte	0xe1
 5751 1184 8F110000 		.4byte	0x118f
 5752 1188 09       		.uleb128 0x9
 5753 1189 00010000 		.4byte	0x100
 5754 118d 10       		.byte	0x10
 5755 118e 00       		.byte	0
 5756 118f 08       		.uleb128 0x8
 5757 1190 E1000000 		.4byte	0xe1
 5758 1194 9F110000 		.4byte	0x119f
 5759 1198 09       		.uleb128 0x9
 5760 1199 00010000 		.4byte	0x100
 5761 119d 11       		.byte	0x11
 5762 119e 00       		.byte	0
 5763 119f 08       		.uleb128 0x8
 5764 11a0 E1000000 		.4byte	0xe1
 5765 11a4 AF110000 		.4byte	0x11af
 5766 11a8 09       		.uleb128 0x9
 5767 11a9 00010000 		.4byte	0x100
 5768 11ad 0F       		.byte	0xf
 5769 11ae 00       		.byte	0
 5770 11af 08       		.uleb128 0x8
 5771 11b0 E1000000 		.4byte	0xe1
 5772 11b4 BF110000 		.4byte	0x11bf
 5773 11b8 09       		.uleb128 0x9
 5774 11b9 00010000 		.4byte	0x100
 5775 11bd 0D       		.byte	0xd
 5776 11be 00       		.byte	0
 5777 11bf 08       		.uleb128 0x8
 5778 11c0 E1000000 		.4byte	0xe1
 5779 11c4 CF110000 		.4byte	0x11cf
 5780 11c8 09       		.uleb128 0x9
 5781 11c9 00010000 		.4byte	0x100
 5782 11cd 01       		.byte	0x1
 5783 11ce 00       		.byte	0
 5784 11cf 08       		.uleb128 0x8
 5785 11d0 E1000000 		.4byte	0xe1
 5786 11d4 DF110000 		.4byte	0x11df
 5787 11d8 09       		.uleb128 0x9
 5788 11d9 00010000 		.4byte	0x100
 5789 11dd 15       		.byte	0x15
 5790 11de 00       		.byte	0
 5791 11df 08       		.uleb128 0x8
 5792 11e0 81000000 		.4byte	0x81
 5793 11e4 EF110000 		.4byte	0x11ef
 5794 11e8 09       		.uleb128 0x9
 5795 11e9 00010000 		.4byte	0x100
 5796 11ed 03       		.byte	0x3
 5797 11ee 00       		.byte	0
 5798 11ef 21       		.uleb128 0x21
 5799 11f0 2B200000 		.4byte	.LASF512
 5800 11f4 01       		.byte	0x1
 5801 11f5 1301     		.2byte	0x113
 5802 11f7 00000000 		.4byte	.LFB38
 5803 11fb 40000000 		.4byte	.LFE38-.LFB38
ARM GAS  C:\Users\megan\AppData\Local\Temp\ccrMxWsc.s 			page 123


 5804 11ff 01       		.uleb128 0x1
 5805 1200 9C       		.byte	0x9c
 5806 1201 22       		.uleb128 0x22
 5807 1202 D70F0000 		.4byte	.LASF517
 5808 1206 01       		.byte	0x1
 5809 1207 2701     		.2byte	0x127
 5810 1209 00000000 		.4byte	.LFB39
 5811 120d 00010000 		.4byte	.LFE39-.LFB39
 5812 1211 01       		.uleb128 0x1
 5813 1212 9C       		.byte	0x9c
 5814 1213 64120000 		.4byte	0x1264
 5815 1217 23       		.uleb128 0x23
 5816 1218 DB310000 		.4byte	.LASF513
 5817 121c 01       		.byte	0x1
 5818 121d 2B01     		.2byte	0x12b
 5819 121f 64120000 		.4byte	0x1264
 5820 1223 02       		.uleb128 0x2
 5821 1224 91       		.byte	0x91
 5822 1225 60       		.sleb128 -32
 5823 1226 23       		.uleb128 0x23
 5824 1227 E4310000 		.4byte	.LASF514
 5825 122b 01       		.byte	0x1
 5826 122c 2C01     		.2byte	0x12c
 5827 122e 74120000 		.4byte	0x1274
 5828 1232 02       		.uleb128 0x2
 5829 1233 91       		.byte	0x91
 5830 1234 54       		.sleb128 -44
 5831 1235 23       		.uleb128 0x23
 5832 1236 ED310000 		.4byte	.LASF515
 5833 123a 01       		.byte	0x1
 5834 123b 2D01     		.2byte	0x12d
 5835 123d 74120000 		.4byte	0x1274
 5836 1241 02       		.uleb128 0x2
 5837 1242 91       		.byte	0x91
 5838 1243 48       		.sleb128 -56
 5839 1244 24       		.uleb128 0x24
 5840 1245 626C6500 		.ascii	"ble\000"
 5841 1249 01       		.byte	0x1
 5842 124a 2E01     		.2byte	0x12e
 5843 124c 84120000 		.4byte	0x1284
 5844 1250 03       		.uleb128 0x3
 5845 1251 91       		.byte	0x91
 5846 1252 BC7F     		.sleb128 -68
 5847 1254 23       		.uleb128 0x23
 5848 1255 E82C0000 		.4byte	.LASF516
 5849 1259 01       		.byte	0x1
 5850 125a 3001     		.2byte	0x130
 5851 125c A3000000 		.4byte	0xa3
 5852 1260 02       		.uleb128 0x2
 5853 1261 91       		.byte	0x91
 5854 1262 6E       		.sleb128 -18
 5855 1263 00       		.byte	0
 5856 1264 08       		.uleb128 0x8
 5857 1265 E1000000 		.4byte	0xe1
 5858 1269 74120000 		.4byte	0x1274
 5859 126d 09       		.uleb128 0x9
 5860 126e 00010000 		.4byte	0x100
ARM GAS  C:\Users\megan\AppData\Local\Temp\ccrMxWsc.s 			page 124


 5861 1272 0A       		.byte	0xa
 5862 1273 00       		.byte	0
 5863 1274 08       		.uleb128 0x8
 5864 1275 E1000000 		.4byte	0xe1
 5865 1279 84120000 		.4byte	0x1284
 5866 127d 09       		.uleb128 0x9
 5867 127e 00010000 		.4byte	0x100
 5868 1282 09       		.byte	0x9
 5869 1283 00       		.byte	0
 5870 1284 08       		.uleb128 0x8
 5871 1285 E1000000 		.4byte	0xe1
 5872 1289 94120000 		.4byte	0x1294
 5873 128d 09       		.uleb128 0x9
 5874 128e 00010000 		.4byte	0x100
 5875 1292 0B       		.byte	0xb
 5876 1293 00       		.byte	0
 5877 1294 22       		.uleb128 0x22
 5878 1295 EE2E0000 		.4byte	.LASF518
 5879 1299 01       		.byte	0x1
 5880 129a 7801     		.2byte	0x178
 5881 129c 00000000 		.4byte	.LFB40
 5882 12a0 DC000000 		.4byte	.LFE40-.LFB40
 5883 12a4 01       		.uleb128 0x1
 5884 12a5 9C       		.byte	0x9c
 5885 12a6 F4120000 		.4byte	0x12f4
 5886 12aa 24       		.uleb128 0x24
 5887 12ab 747800   		.ascii	"tx\000"
 5888 12ae 01       		.byte	0x1
 5889 12af 7A01     		.2byte	0x17a
 5890 12b1 8C000000 		.4byte	0x8c
 5891 12b5 02       		.uleb128 0x2
 5892 12b6 91       		.byte	0x91
 5893 12b7 62       		.sleb128 -30
 5894 12b8 24       		.uleb128 0x24
 5895 12b9 747900   		.ascii	"ty\000"
 5896 12bc 01       		.byte	0x1
 5897 12bd 7B01     		.2byte	0x17b
 5898 12bf 8C000000 		.4byte	0x8c
 5899 12c3 02       		.uleb128 0x2
 5900 12c4 91       		.byte	0x91
 5901 12c5 60       		.sleb128 -32
 5902 12c6 23       		.uleb128 0x23
 5903 12c7 92190000 		.4byte	.LASF519
 5904 12cb 01       		.byte	0x1
 5905 12cc 7C01     		.2byte	0x17c
 5906 12ce 6F0F0000 		.4byte	0xf6f
 5907 12d2 02       		.uleb128 0x2
 5908 12d3 91       		.byte	0x91
 5909 12d4 6F       		.sleb128 -17
 5910 12d5 23       		.uleb128 0x23
 5911 12d6 873C0000 		.4byte	.LASF520
 5912 12da 01       		.byte	0x1
 5913 12db 7E01     		.2byte	0x17e
 5914 12dd D3000000 		.4byte	0xd3
 5915 12e1 02       		.uleb128 0x2
 5916 12e2 91       		.byte	0x91
 5917 12e3 68       		.sleb128 -24
ARM GAS  C:\Users\megan\AppData\Local\Temp\ccrMxWsc.s 			page 125


 5918 12e4 23       		.uleb128 0x23
 5919 12e5 EC280000 		.4byte	.LASF521
 5920 12e9 01       		.byte	0x1
 5921 12ea 7F01     		.2byte	0x17f
 5922 12ec D3000000 		.4byte	0xd3
 5923 12f0 02       		.uleb128 0x2
 5924 12f1 91       		.byte	0x91
 5925 12f2 64       		.sleb128 -28
 5926 12f3 00       		.byte	0
 5927 12f4 22       		.uleb128 0x22
 5928 12f5 AD260000 		.4byte	.LASF522
 5929 12f9 01       		.byte	0x1
 5930 12fa A601     		.2byte	0x1a6
 5931 12fc 00000000 		.4byte	.LFB41
 5932 1300 6E000000 		.4byte	.LFE41-.LFB41
 5933 1304 01       		.uleb128 0x1
 5934 1305 9C       		.byte	0x9c
 5935 1306 45130000 		.4byte	0x1345
 5936 130a 24       		.uleb128 0x24
 5937 130b 747800   		.ascii	"tx\000"
 5938 130e 01       		.byte	0x1
 5939 130f A801     		.2byte	0x1a8
 5940 1311 8C000000 		.4byte	0x8c
 5941 1315 02       		.uleb128 0x2
 5942 1316 91       		.byte	0x91
 5943 1317 6E       		.sleb128 -18
 5944 1318 24       		.uleb128 0x24
 5945 1319 747900   		.ascii	"ty\000"
 5946 131c 01       		.byte	0x1
 5947 131d A901     		.2byte	0x1a9
 5948 131f 8C000000 		.4byte	0x8c
 5949 1323 02       		.uleb128 0x2
 5950 1324 91       		.byte	0x91
 5951 1325 6C       		.sleb128 -20
 5952 1326 23       		.uleb128 0x23
 5953 1327 873C0000 		.4byte	.LASF520
 5954 132b 01       		.byte	0x1
 5955 132c AA01     		.2byte	0x1aa
 5956 132e D3000000 		.4byte	0xd3
 5957 1332 02       		.uleb128 0x2
 5958 1333 91       		.byte	0x91
 5959 1334 74       		.sleb128 -12
 5960 1335 23       		.uleb128 0x23
 5961 1336 EC280000 		.4byte	.LASF521
 5962 133a 01       		.byte	0x1
 5963 133b AB01     		.2byte	0x1ab
 5964 133d D3000000 		.4byte	0xd3
 5965 1341 02       		.uleb128 0x2
 5966 1342 91       		.byte	0x91
 5967 1343 70       		.sleb128 -16
 5968 1344 00       		.byte	0
 5969 1345 22       		.uleb128 0x22
 5970 1346 721F0000 		.4byte	.LASF523
 5971 134a 01       		.byte	0x1
 5972 134b B901     		.2byte	0x1b9
 5973 134d 00000000 		.4byte	.LFB42
 5974 1351 7C010000 		.4byte	.LFE42-.LFB42
ARM GAS  C:\Users\megan\AppData\Local\Temp\ccrMxWsc.s 			page 126


 5975 1355 01       		.uleb128 0x1
 5976 1356 9C       		.byte	0x9c
 5977 1357 B1130000 		.4byte	0x13b1
 5978 135b 23       		.uleb128 0x23
 5979 135c DB310000 		.4byte	.LASF513
 5980 1360 01       		.byte	0x1
 5981 1361 BD01     		.2byte	0x1bd
 5982 1363 7F110000 		.4byte	0x117f
 5983 1367 02       		.uleb128 0x2
 5984 1368 91       		.byte	0x91
 5985 1369 58       		.sleb128 -40
 5986 136a 23       		.uleb128 0x23
 5987 136b E4310000 		.4byte	.LASF514
 5988 136f 01       		.byte	0x1
 5989 1370 BE01     		.2byte	0x1be
 5990 1372 5F110000 		.4byte	0x115f
 5991 1376 02       		.uleb128 0x2
 5992 1377 91       		.byte	0x91
 5993 1378 48       		.sleb128 -56
 5994 1379 23       		.uleb128 0x23
 5995 137a ED310000 		.4byte	.LASF515
 5996 137e 01       		.byte	0x1
 5997 137f BF01     		.2byte	0x1bf
 5998 1381 B1130000 		.4byte	0x13b1
 5999 1385 03       		.uleb128 0x3
 6000 1386 91       		.byte	0x91
 6001 1387 A87F     		.sleb128 -88
 6002 1389 23       		.uleb128 0x23
 6003 138a F6310000 		.4byte	.LASF524
 6004 138e 01       		.byte	0x1
 6005 138f C001     		.2byte	0x1c0
 6006 1391 C1130000 		.4byte	0x13c1
 6007 1395 03       		.uleb128 0x3
 6008 1396 91       		.byte	0x91
 6009 1397 A47F     		.sleb128 -92
 6010 1399 25       		.uleb128 0x25
 6011 139a 5E000000 		.4byte	.LBB2
 6012 139e 22000000 		.4byte	.LBE2-.LBB2
 6013 13a2 24       		.uleb128 0x24
 6014 13a3 6900     		.ascii	"i\000"
 6015 13a5 01       		.byte	0x1
 6016 13a6 C701     		.2byte	0x1c7
 6017 13a8 73000000 		.4byte	0x73
 6018 13ac 02       		.uleb128 0x2
 6019 13ad 91       		.byte	0x91
 6020 13ae 6C       		.sleb128 -20
 6021 13af 00       		.byte	0
 6022 13b0 00       		.byte	0
 6023 13b1 08       		.uleb128 0x8
 6024 13b2 E1000000 		.4byte	0xe1
 6025 13b6 C1130000 		.4byte	0x13c1
 6026 13ba 09       		.uleb128 0x9
 6027 13bb 00010000 		.4byte	0x100
 6028 13bf 1E       		.byte	0x1e
 6029 13c0 00       		.byte	0
 6030 13c1 08       		.uleb128 0x8
 6031 13c2 E1000000 		.4byte	0xe1
ARM GAS  C:\Users\megan\AppData\Local\Temp\ccrMxWsc.s 			page 127


 6032 13c6 D1130000 		.4byte	0x13d1
 6033 13ca 09       		.uleb128 0x9
 6034 13cb 00010000 		.4byte	0x100
 6035 13cf 02       		.byte	0x2
 6036 13d0 00       		.byte	0
 6037 13d1 22       		.uleb128 0x22
 6038 13d2 C23B0000 		.4byte	.LASF525
 6039 13d6 01       		.byte	0x1
 6040 13d7 E601     		.2byte	0x1e6
 6041 13d9 00000000 		.4byte	.LFB43
 6042 13dd 68030000 		.4byte	.LFE43-.LFB43
 6043 13e1 01       		.uleb128 0x1
 6044 13e2 9C       		.byte	0x9c
 6045 13e3 74140000 		.4byte	0x1474
 6046 13e7 23       		.uleb128 0x23
 6047 13e8 92050000 		.4byte	.LASF526
 6048 13ec 01       		.byte	0x1
 6049 13ed EA01     		.2byte	0x1ea
 6050 13ef 74140000 		.4byte	0x1474
 6051 13f3 02       		.uleb128 0x2
 6052 13f4 91       		.byte	0x91
 6053 13f5 48       		.sleb128 -56
 6054 13f6 23       		.uleb128 0x23
 6055 13f7 33050000 		.4byte	.LASF527
 6056 13fb 01       		.byte	0x1
 6057 13fc EB01     		.2byte	0x1eb
 6058 13fe 84140000 		.4byte	0x1484
 6059 1402 02       		.uleb128 0x2
 6060 1403 91       		.byte	0x91
 6061 1404 40       		.sleb128 -64
 6062 1405 23       		.uleb128 0x23
 6063 1406 34330000 		.4byte	.LASF528
 6064 140a 01       		.byte	0x1
 6065 140b EC01     		.2byte	0x1ec
 6066 140d 94140000 		.4byte	0x1494
 6067 1411 03       		.uleb128 0x3
 6068 1412 91       		.byte	0x91
 6069 1413 B87F     		.sleb128 -72
 6070 1415 23       		.uleb128 0x23
 6071 1416 480E0000 		.4byte	.LASF529
 6072 141a 01       		.byte	0x1
 6073 141b ED01     		.2byte	0x1ed
 6074 141d A4140000 		.4byte	0x14a4
 6075 1421 03       		.uleb128 0x3
 6076 1422 91       		.byte	0x91
 6077 1423 B07F     		.sleb128 -80
 6078 1425 23       		.uleb128 0x23
 6079 1426 E10C0000 		.4byte	.LASF530
 6080 142a 01       		.byte	0x1
 6081 142b EE01     		.2byte	0x1ee
 6082 142d A4140000 		.4byte	0x14a4
 6083 1431 03       		.uleb128 0x3
 6084 1432 91       		.byte	0x91
 6085 1433 A87F     		.sleb128 -88
 6086 1435 23       		.uleb128 0x23
 6087 1436 74340000 		.4byte	.LASF531
 6088 143a 01       		.byte	0x1
ARM GAS  C:\Users\megan\AppData\Local\Temp\ccrMxWsc.s 			page 128


 6089 143b EF01     		.2byte	0x1ef
 6090 143d 19010000 		.4byte	0x119
 6091 1441 03       		.uleb128 0x3
 6092 1442 91       		.byte	0x91
 6093 1443 A07F     		.sleb128 -96
 6094 1445 23       		.uleb128 0x23
 6095 1446 BD2C0000 		.4byte	.LASF532
 6096 144a 01       		.byte	0x1
 6097 144b F001     		.2byte	0x1f0
 6098 144d 94140000 		.4byte	0x1494
 6099 1451 03       		.uleb128 0x3
 6100 1452 91       		.byte	0x91
 6101 1453 987F     		.sleb128 -104
 6102 1455 23       		.uleb128 0x23
 6103 1456 D01C0000 		.4byte	.LASF533
 6104 145a 01       		.byte	0x1
 6105 145b F201     		.2byte	0x1f2
 6106 145d 73000000 		.4byte	0x73
 6107 1461 02       		.uleb128 0x2
 6108 1462 91       		.byte	0x91
 6109 1463 6C       		.sleb128 -20
 6110 1464 23       		.uleb128 0x23
 6111 1465 28170000 		.4byte	.LASF534
 6112 1469 01       		.byte	0x1
 6113 146a F301     		.2byte	0x1f3
 6114 146c 73000000 		.4byte	0x73
 6115 1470 02       		.uleb128 0x2
 6116 1471 91       		.byte	0x91
 6117 1472 68       		.sleb128 -24
 6118 1473 00       		.byte	0
 6119 1474 08       		.uleb128 0x8
 6120 1475 E1000000 		.4byte	0xe1
 6121 1479 84140000 		.4byte	0x1484
 6122 147d 09       		.uleb128 0x9
 6123 147e 00010000 		.4byte	0x100
 6124 1482 1F       		.byte	0x1f
 6125 1483 00       		.byte	0
 6126 1484 08       		.uleb128 0x8
 6127 1485 E1000000 		.4byte	0xe1
 6128 1489 94140000 		.4byte	0x1494
 6129 148d 09       		.uleb128 0x9
 6130 148e 00010000 		.4byte	0x100
 6131 1492 05       		.byte	0x5
 6132 1493 00       		.byte	0
 6133 1494 08       		.uleb128 0x8
 6134 1495 E1000000 		.4byte	0xe1
 6135 1499 A4140000 		.4byte	0x14a4
 6136 149d 09       		.uleb128 0x9
 6137 149e 00010000 		.4byte	0x100
 6138 14a2 06       		.byte	0x6
 6139 14a3 00       		.byte	0
 6140 14a4 08       		.uleb128 0x8
 6141 14a5 E1000000 		.4byte	0xe1
 6142 14a9 B4140000 		.4byte	0x14b4
 6143 14ad 09       		.uleb128 0x9
 6144 14ae 00010000 		.4byte	0x100
 6145 14b2 04       		.byte	0x4
ARM GAS  C:\Users\megan\AppData\Local\Temp\ccrMxWsc.s 			page 129


 6146 14b3 00       		.byte	0
 6147 14b4 22       		.uleb128 0x22
 6148 14b5 04020000 		.4byte	.LASF535
 6149 14b9 01       		.byte	0x1
 6150 14ba 3D02     		.2byte	0x23d
 6151 14bc 00000000 		.4byte	.LFB44
 6152 14c0 90010000 		.4byte	.LFE44-.LFB44
 6153 14c4 01       		.uleb128 0x1
 6154 14c5 9C       		.byte	0x9c
 6155 14c6 16150000 		.4byte	0x1516
 6156 14ca 23       		.uleb128 0x23
 6157 14cb 33050000 		.4byte	.LASF527
 6158 14cf 01       		.byte	0x1
 6159 14d0 4002     		.2byte	0x240
 6160 14d2 84140000 		.4byte	0x1484
 6161 14d6 02       		.uleb128 0x2
 6162 14d7 91       		.byte	0x91
 6163 14d8 68       		.sleb128 -24
 6164 14d9 23       		.uleb128 0x23
 6165 14da 34330000 		.4byte	.LASF528
 6166 14de 01       		.byte	0x1
 6167 14df 4102     		.2byte	0x241
 6168 14e1 94140000 		.4byte	0x1494
 6169 14e5 02       		.uleb128 0x2
 6170 14e6 91       		.byte	0x91
 6171 14e7 60       		.sleb128 -32
 6172 14e8 23       		.uleb128 0x23
 6173 14e9 480E0000 		.4byte	.LASF529
 6174 14ed 01       		.byte	0x1
 6175 14ee 4202     		.2byte	0x242
 6176 14f0 A4140000 		.4byte	0x14a4
 6177 14f4 02       		.uleb128 0x2
 6178 14f5 91       		.byte	0x91
 6179 14f6 58       		.sleb128 -40
 6180 14f7 23       		.uleb128 0x23
 6181 14f8 D01C0000 		.4byte	.LASF533
 6182 14fc 01       		.byte	0x1
 6183 14fd 4402     		.2byte	0x244
 6184 14ff 73000000 		.4byte	0x73
 6185 1503 02       		.uleb128 0x2
 6186 1504 91       		.byte	0x91
 6187 1505 74       		.sleb128 -12
 6188 1506 23       		.uleb128 0x23
 6189 1507 28170000 		.4byte	.LASF534
 6190 150b 01       		.byte	0x1
 6191 150c 4502     		.2byte	0x245
 6192 150e 73000000 		.4byte	0x73
 6193 1512 02       		.uleb128 0x2
 6194 1513 91       		.byte	0x91
 6195 1514 70       		.sleb128 -16
 6196 1515 00       		.byte	0
 6197 1516 22       		.uleb128 0x22
 6198 1517 B1300000 		.4byte	.LASF536
 6199 151b 01       		.byte	0x1
 6200 151c 7602     		.2byte	0x276
 6201 151e 00000000 		.4byte	.LFB45
 6202 1522 74000000 		.4byte	.LFE45-.LFB45
ARM GAS  C:\Users\megan\AppData\Local\Temp\ccrMxWsc.s 			page 130


 6203 1526 01       		.uleb128 0x1
 6204 1527 9C       		.byte	0x9c
 6205 1528 4B150000 		.4byte	0x154b
 6206 152c 23       		.uleb128 0x23
 6207 152d D8150000 		.4byte	.LASF504
 6208 1531 01       		.byte	0x1
 6209 1532 7802     		.2byte	0x278
 6210 1534 BF110000 		.4byte	0x11bf
 6211 1538 02       		.uleb128 0x2
 6212 1539 91       		.byte	0x91
 6213 153a 70       		.sleb128 -16
 6214 153b 23       		.uleb128 0x23
 6215 153c D01C0000 		.4byte	.LASF533
 6216 1540 01       		.byte	0x1
 6217 1541 7902     		.2byte	0x279
 6218 1543 73000000 		.4byte	0x73
 6219 1547 02       		.uleb128 0x2
 6220 1548 91       		.byte	0x91
 6221 1549 74       		.sleb128 -12
 6222 154a 00       		.byte	0
 6223 154b 22       		.uleb128 0x22
 6224 154c 041C0000 		.4byte	.LASF537
 6225 1550 01       		.byte	0x1
 6226 1551 8402     		.2byte	0x284
 6227 1553 00000000 		.4byte	.LFB46
 6228 1557 74000000 		.4byte	.LFE46-.LFB46
 6229 155b 01       		.uleb128 0x1
 6230 155c 9C       		.byte	0x9c
 6231 155d 80150000 		.4byte	0x1580
 6232 1561 23       		.uleb128 0x23
 6233 1562 D8150000 		.4byte	.LASF504
 6234 1566 01       		.byte	0x1
 6235 1567 8602     		.2byte	0x286
 6236 1569 BF110000 		.4byte	0x11bf
 6237 156d 02       		.uleb128 0x2
 6238 156e 91       		.byte	0x91
 6239 156f 70       		.sleb128 -16
 6240 1570 23       		.uleb128 0x23
 6241 1571 D01C0000 		.4byte	.LASF533
 6242 1575 01       		.byte	0x1
 6243 1576 8702     		.2byte	0x287
 6244 1578 73000000 		.4byte	0x73
 6245 157c 02       		.uleb128 0x2
 6246 157d 91       		.byte	0x91
 6247 157e 74       		.sleb128 -12
 6248 157f 00       		.byte	0
 6249 1580 22       		.uleb128 0x22
 6250 1581 C9300000 		.4byte	.LASF538
 6251 1585 01       		.byte	0x1
 6252 1586 9302     		.2byte	0x293
 6253 1588 00000000 		.4byte	.LFB47
 6254 158c 28030000 		.4byte	.LFE47-.LFB47
 6255 1590 01       		.uleb128 0x1
 6256 1591 9C       		.byte	0x9c
 6257 1592 E1150000 		.4byte	0x15e1
 6258 1596 24       		.uleb128 0x24
 6259 1597 6F6E00   		.ascii	"on\000"
ARM GAS  C:\Users\megan\AppData\Local\Temp\ccrMxWsc.s 			page 131


 6260 159a 01       		.byte	0x1
 6261 159b 9602     		.2byte	0x296
 6262 159d C1130000 		.4byte	0x13c1
 6263 15a1 02       		.uleb128 0x2
 6264 15a2 91       		.byte	0x91
 6265 15a3 64       		.sleb128 -28
 6266 15a4 24       		.uleb128 0x24
 6267 15a5 6F666600 		.ascii	"off\000"
 6268 15a9 01       		.byte	0x1
 6269 15aa 9702     		.2byte	0x297
 6270 15ac E1150000 		.4byte	0x15e1
 6271 15b0 02       		.uleb128 0x2
 6272 15b1 91       		.byte	0x91
 6273 15b2 60       		.sleb128 -32
 6274 15b3 23       		.uleb128 0x23
 6275 15b4 5F270000 		.4byte	.LASF539
 6276 15b8 01       		.byte	0x1
 6277 15b9 9802     		.2byte	0x298
 6278 15bb A4140000 		.4byte	0x14a4
 6279 15bf 02       		.uleb128 0x2
 6280 15c0 91       		.byte	0x91
 6281 15c1 58       		.sleb128 -40
 6282 15c2 23       		.uleb128 0x23
 6283 15c3 D01C0000 		.4byte	.LASF533
 6284 15c7 01       		.byte	0x1
 6285 15c8 9A02     		.2byte	0x29a
 6286 15ca 73000000 		.4byte	0x73
 6287 15ce 02       		.uleb128 0x2
 6288 15cf 91       		.byte	0x91
 6289 15d0 6C       		.sleb128 -20
 6290 15d1 23       		.uleb128 0x23
 6291 15d2 28170000 		.4byte	.LASF534
 6292 15d6 01       		.byte	0x1
 6293 15d7 9B02     		.2byte	0x29b
 6294 15d9 73000000 		.4byte	0x73
 6295 15dd 02       		.uleb128 0x2
 6296 15de 91       		.byte	0x91
 6297 15df 68       		.sleb128 -24
 6298 15e0 00       		.byte	0
 6299 15e1 08       		.uleb128 0x8
 6300 15e2 E1000000 		.4byte	0xe1
 6301 15e6 F1150000 		.4byte	0x15f1
 6302 15ea 09       		.uleb128 0x9
 6303 15eb 00010000 		.4byte	0x100
 6304 15ef 03       		.byte	0x3
 6305 15f0 00       		.byte	0
 6306 15f1 26       		.uleb128 0x26
 6307 15f2 CB310000 		.4byte	.LASF541
 6308 15f6 01       		.byte	0x1
 6309 15f7 D202     		.2byte	0x2d2
 6310 15f9 00000000 		.4byte	.LFB48
 6311 15fd 20020000 		.4byte	.LFE48-.LFB48
 6312 1601 01       		.uleb128 0x1
 6313 1602 9C       		.byte	0x9c
 6314 1603 7A160000 		.4byte	0x167a
 6315 1607 27       		.uleb128 0x27
 6316 1608 747800   		.ascii	"tx\000"
ARM GAS  C:\Users\megan\AppData\Local\Temp\ccrMxWsc.s 			page 132


 6317 160b 01       		.byte	0x1
 6318 160c D202     		.2byte	0x2d2
 6319 160e 7A160000 		.4byte	0x167a
 6320 1612 02       		.uleb128 0x2
 6321 1613 91       		.byte	0x91
 6322 1614 54       		.sleb128 -44
 6323 1615 27       		.uleb128 0x27
 6324 1616 747900   		.ascii	"ty\000"
 6325 1619 01       		.byte	0x1
 6326 161a D202     		.2byte	0x2d2
 6327 161c 7A160000 		.4byte	0x167a
 6328 1620 02       		.uleb128 0x2
 6329 1621 91       		.byte	0x91
 6330 1622 50       		.sleb128 -48
 6331 1623 23       		.uleb128 0x23
 6332 1624 873C0000 		.4byte	.LASF520
 6333 1628 01       		.byte	0x1
 6334 1629 D402     		.2byte	0x2d4
 6335 162b D3000000 		.4byte	0xd3
 6336 162f 02       		.uleb128 0x2
 6337 1630 91       		.byte	0x91
 6338 1631 6C       		.sleb128 -20
 6339 1632 23       		.uleb128 0x23
 6340 1633 EC280000 		.4byte	.LASF521
 6341 1637 01       		.byte	0x1
 6342 1638 D502     		.2byte	0x2d5
 6343 163a D3000000 		.4byte	0xd3
 6344 163e 02       		.uleb128 0x2
 6345 163f 91       		.byte	0x91
 6346 1640 68       		.sleb128 -24
 6347 1641 24       		.uleb128 0x24
 6348 1642 7800     		.ascii	"x\000"
 6349 1644 01       		.byte	0x1
 6350 1645 D702     		.2byte	0x2d7
 6351 1647 8C000000 		.4byte	0x8c
 6352 164b 02       		.uleb128 0x2
 6353 164c 91       		.byte	0x91
 6354 164d 66       		.sleb128 -26
 6355 164e 24       		.uleb128 0x24
 6356 164f 7900     		.ascii	"y\000"
 6357 1651 01       		.byte	0x1
 6358 1652 D802     		.2byte	0x2d8
 6359 1654 8C000000 		.4byte	0x8c
 6360 1658 02       		.uleb128 0x2
 6361 1659 91       		.byte	0x91
 6362 165a 64       		.sleb128 -28
 6363 165b 23       		.uleb128 0x23
 6364 165c D01C0000 		.4byte	.LASF533
 6365 1660 01       		.byte	0x1
 6366 1661 DA02     		.2byte	0x2da
 6367 1663 73000000 		.4byte	0x73
 6368 1667 02       		.uleb128 0x2
 6369 1668 91       		.byte	0x91
 6370 1669 60       		.sleb128 -32
 6371 166a 23       		.uleb128 0x23
 6372 166b 28170000 		.4byte	.LASF534
 6373 166f 01       		.byte	0x1
ARM GAS  C:\Users\megan\AppData\Local\Temp\ccrMxWsc.s 			page 133


 6374 1670 DB02     		.2byte	0x2db
 6375 1672 73000000 		.4byte	0x73
 6376 1676 02       		.uleb128 0x2
 6377 1677 91       		.byte	0x91
 6378 1678 5C       		.sleb128 -36
 6379 1679 00       		.byte	0
 6380 167a 0F       		.uleb128 0xf
 6381 167b 04       		.byte	0x4
 6382 167c 8C000000 		.4byte	0x8c
 6383 1680 22       		.uleb128 0x22
 6384 1681 49210000 		.4byte	.LASF542
 6385 1685 01       		.byte	0x1
 6386 1686 FF02     		.2byte	0x2ff
 6387 1688 00000000 		.4byte	.LFB49
 6388 168c 60000000 		.4byte	.LFE49-.LFB49
 6389 1690 01       		.uleb128 0x1
 6390 1691 9C       		.byte	0x9c
 6391 1692 BD160000 		.4byte	0x16bd
 6392 1696 23       		.uleb128 0x23
 6393 1697 250C0000 		.4byte	.LASF490
 6394 169b 01       		.byte	0x1
 6395 169c 0303     		.2byte	0x303
 6396 169e E1150000 		.4byte	0x15e1
 6397 16a2 02       		.uleb128 0x2
 6398 16a3 91       		.byte	0x91
 6399 16a4 70       		.sleb128 -16
 6400 16a5 25       		.uleb128 0x25
 6401 16a6 1A000000 		.4byte	.LBB3
 6402 16aa 22000000 		.4byte	.LBE3-.LBB3
 6403 16ae 24       		.uleb128 0x24
 6404 16af 6900     		.ascii	"i\000"
 6405 16b1 01       		.byte	0x1
 6406 16b2 0A03     		.2byte	0x30a
 6407 16b4 73000000 		.4byte	0x73
 6408 16b8 02       		.uleb128 0x2
 6409 16b9 91       		.byte	0x91
 6410 16ba 74       		.sleb128 -12
 6411 16bb 00       		.byte	0
 6412 16bc 00       		.byte	0
 6413 16bd 26       		.uleb128 0x26
 6414 16be 9F210000 		.4byte	.LASF543
 6415 16c2 01       		.byte	0x1
 6416 16c3 1703     		.2byte	0x317
 6417 16c5 00000000 		.4byte	.LFB50
 6418 16c9 26000000 		.4byte	.LFE50-.LFB50
 6419 16cd 01       		.uleb128 0x1
 6420 16ce 9C       		.byte	0x9c
 6421 16cf 01170000 		.4byte	0x1701
 6422 16d3 27       		.uleb128 0x27
 6423 16d4 62696E00 		.ascii	"bin\000"
 6424 16d8 01       		.byte	0x1
 6425 16d9 1703     		.2byte	0x317
 6426 16db 01170000 		.4byte	0x1701
 6427 16df 02       		.uleb128 0x2
 6428 16e0 91       		.byte	0x91
 6429 16e1 6C       		.sleb128 -20
 6430 16e2 28       		.uleb128 0x28
ARM GAS  C:\Users\megan\AppData\Local\Temp\ccrMxWsc.s 			page 134


 6431 16e3 662A0000 		.4byte	.LASF510
 6432 16e7 01       		.byte	0x1
 6433 16e8 1703     		.2byte	0x317
 6434 16ea 07170000 		.4byte	0x1707
 6435 16ee 02       		.uleb128 0x2
 6436 16ef 91       		.byte	0x91
 6437 16f0 68       		.sleb128 -24
 6438 16f1 23       		.uleb128 0x23
 6439 16f2 D8150000 		.4byte	.LASF504
 6440 16f6 01       		.byte	0x1
 6441 16f7 1903     		.2byte	0x319
 6442 16f9 BF110000 		.4byte	0x11bf
 6443 16fd 02       		.uleb128 0x2
 6444 16fe 91       		.byte	0x91
 6445 16ff 74       		.sleb128 -12
 6446 1700 00       		.byte	0
 6447 1701 0F       		.uleb128 0xf
 6448 1702 04       		.byte	0x4
 6449 1703 AB0F0000 		.4byte	0xfab
 6450 1707 0F       		.uleb128 0xf
 6451 1708 04       		.byte	0x4
 6452 1709 81000000 		.4byte	0x81
 6453 170d 26       		.uleb128 0x26
 6454 170e D1350000 		.4byte	.LASF544
 6455 1712 01       		.byte	0x1
 6456 1713 2303     		.2byte	0x323
 6457 1715 00000000 		.4byte	.LFB51
 6458 1719 28000000 		.4byte	.LFE51-.LFB51
 6459 171d 01       		.uleb128 0x1
 6460 171e 9C       		.byte	0x9c
 6461 171f 42170000 		.4byte	0x1742
 6462 1723 28       		.uleb128 0x28
 6463 1724 662A0000 		.4byte	.LASF510
 6464 1728 01       		.byte	0x1
 6465 1729 2303     		.2byte	0x323
 6466 172b 07170000 		.4byte	0x1707
 6467 172f 02       		.uleb128 0x2
 6468 1730 91       		.byte	0x91
 6469 1731 6C       		.sleb128 -20
 6470 1732 23       		.uleb128 0x23
 6471 1733 D8150000 		.4byte	.LASF504
 6472 1737 01       		.byte	0x1
 6473 1738 2503     		.2byte	0x325
 6474 173a BF110000 		.4byte	0x11bf
 6475 173e 02       		.uleb128 0x2
 6476 173f 91       		.byte	0x91
 6477 1740 74       		.sleb128 -12
 6478 1741 00       		.byte	0
 6479 1742 26       		.uleb128 0x26
 6480 1743 A7060000 		.4byte	.LASF545
 6481 1747 01       		.byte	0x1
 6482 1748 2F03     		.2byte	0x32f
 6483 174a 00000000 		.4byte	.LFB52
 6484 174e 78000000 		.4byte	.LFE52-.LFB52
 6485 1752 01       		.uleb128 0x1
 6486 1753 9C       		.byte	0x9c
 6487 1754 80170000 		.4byte	0x1780
ARM GAS  C:\Users\megan\AppData\Local\Temp\ccrMxWsc.s 			page 135


 6488 1758 27       		.uleb128 0x27
 6489 1759 6E00     		.ascii	"n\000"
 6490 175b 01       		.byte	0x1
 6491 175c 2F03     		.2byte	0x32f
 6492 175e 81000000 		.4byte	0x81
 6493 1762 02       		.uleb128 0x2
 6494 1763 91       		.byte	0x91
 6495 1764 67       		.sleb128 -25
 6496 1765 24       		.uleb128 0x24
 6497 1766 6400     		.ascii	"d\000"
 6498 1768 01       		.byte	0x1
 6499 1769 3103     		.2byte	0x331
 6500 176b 81000000 		.4byte	0x81
 6501 176f 02       		.uleb128 0x2
 6502 1770 91       		.byte	0x91
 6503 1771 6F       		.sleb128 -17
 6504 1772 24       		.uleb128 0x24
 6505 1773 7000     		.ascii	"p\000"
 6506 1775 01       		.byte	0x1
 6507 1776 3203     		.2byte	0x332
 6508 1778 BF110000 		.4byte	0x11bf
 6509 177c 02       		.uleb128 0x2
 6510 177d 91       		.byte	0x91
 6511 177e 6C       		.sleb128 -20
 6512 177f 00       		.byte	0
 6513 1780 26       		.uleb128 0x26
 6514 1781 B22C0000 		.4byte	.LASF546
 6515 1785 01       		.byte	0x1
 6516 1786 4303     		.2byte	0x343
 6517 1788 00000000 		.4byte	.LFB53
 6518 178c A8000000 		.4byte	.LFE53-.LFB53
 6519 1790 01       		.uleb128 0x1
 6520 1791 9C       		.byte	0x9c
 6521 1792 E0170000 		.4byte	0x17e0
 6522 1796 27       		.uleb128 0x27
 6523 1797 6E00     		.ascii	"n\000"
 6524 1799 01       		.byte	0x1
 6525 179a 4303     		.2byte	0x343
 6526 179c D3000000 		.4byte	0xd3
 6527 17a0 02       		.uleb128 0x2
 6528 17a1 91       		.byte	0x91
 6529 17a2 64       		.sleb128 -28
 6530 17a3 23       		.uleb128 0x23
 6531 17a4 E2040000 		.4byte	.LASF547
 6532 17a8 01       		.byte	0x1
 6533 17a9 4503     		.2byte	0x345
 6534 17ab BF110000 		.4byte	0x11bf
 6535 17af 02       		.uleb128 0x2
 6536 17b0 91       		.byte	0x91
 6537 17b1 6C       		.sleb128 -20
 6538 17b2 24       		.uleb128 0x24
 6539 17b3 646F7400 		.ascii	"dot\000"
 6540 17b7 01       		.byte	0x1
 6541 17b8 4603     		.2byte	0x346
 6542 17ba BF110000 		.4byte	0x11bf
 6543 17be 02       		.uleb128 0x2
 6544 17bf 91       		.byte	0x91
ARM GAS  C:\Users\megan\AppData\Local\Temp\ccrMxWsc.s 			page 136


 6545 17c0 68       		.sleb128 -24
 6546 17c1 23       		.uleb128 0x23
 6547 17c2 63020000 		.4byte	.LASF548
 6548 17c6 01       		.byte	0x1
 6549 17c7 4A03     		.2byte	0x34a
 6550 17c9 73000000 		.4byte	0x73
 6551 17cd 02       		.uleb128 0x2
 6552 17ce 91       		.byte	0x91
 6553 17cf 74       		.sleb128 -12
 6554 17d0 23       		.uleb128 0x23
 6555 17d1 05060000 		.4byte	.LASF549
 6556 17d5 01       		.byte	0x1
 6557 17d6 4D03     		.2byte	0x34d
 6558 17d8 D3000000 		.4byte	0xd3
 6559 17dc 02       		.uleb128 0x2
 6560 17dd 91       		.byte	0x91
 6561 17de 70       		.sleb128 -16
 6562 17df 00       		.byte	0
 6563 17e0 22       		.uleb128 0x22
 6564 17e1 DB220000 		.4byte	.LASF550
 6565 17e5 01       		.byte	0x1
 6566 17e6 6003     		.2byte	0x360
 6567 17e8 00000000 		.4byte	.LFB54
 6568 17ec 40000000 		.4byte	.LFE54-.LFB54
 6569 17f0 01       		.uleb128 0x1
 6570 17f1 9C       		.byte	0x9c
 6571 17f2 15180000 		.4byte	0x1815
 6572 17f6 23       		.uleb128 0x23
 6573 17f7 B9180000 		.4byte	.LASF551
 6574 17fb 01       		.byte	0x1
 6575 17fc 6103     		.2byte	0x361
 6576 17fe AF000000 		.4byte	0xaf
 6577 1802 02       		.uleb128 0x2
 6578 1803 91       		.byte	0x91
 6579 1804 74       		.sleb128 -12
 6580 1805 23       		.uleb128 0x23
 6581 1806 2D0F0000 		.4byte	.LASF552
 6582 180a 01       		.byte	0x1
 6583 180b 6203     		.2byte	0x362
 6584 180d AF000000 		.4byte	0xaf
 6585 1811 02       		.uleb128 0x2
 6586 1812 91       		.byte	0x91
 6587 1813 70       		.sleb128 -16
 6588 1814 00       		.byte	0
 6589 1815 22       		.uleb128 0x22
 6590 1816 3A2B0000 		.4byte	.LASF553
 6591 181a 01       		.byte	0x1
 6592 181b 7003     		.2byte	0x370
 6593 181d 00000000 		.4byte	.LFB55
 6594 1821 44010000 		.4byte	.LFE55-.LFB55
 6595 1825 01       		.uleb128 0x1
 6596 1826 9C       		.byte	0x9c
 6597 1827 02190000 		.4byte	0x1902
 6598 182b 24       		.uleb128 0x24
 6599 182c 6F6B00   		.ascii	"ok\000"
 6600 182f 01       		.byte	0x1
 6601 1830 7403     		.2byte	0x374
ARM GAS  C:\Users\megan\AppData\Local\Temp\ccrMxWsc.s 			page 137


 6602 1832 5F110000 		.4byte	0x115f
 6603 1836 02       		.uleb128 0x2
 6604 1837 91       		.byte	0x91
 6605 1838 5C       		.sleb128 -36
 6606 1839 23       		.uleb128 0x23
 6607 183a 35150000 		.4byte	.LASF499
 6608 183e 01       		.byte	0x1
 6609 183f 7503     		.2byte	0x375
 6610 1841 6F110000 		.4byte	0x116f
 6611 1845 02       		.uleb128 0x2
 6612 1846 91       		.byte	0x91
 6613 1847 48       		.sleb128 -56
 6614 1848 23       		.uleb128 0x23
 6615 1849 E8150000 		.4byte	.LASF500
 6616 184d 01       		.byte	0x1
 6617 184e 7603     		.2byte	0x376
 6618 1850 02190000 		.4byte	0x1902
 6619 1854 03       		.uleb128 0x3
 6620 1855 91       		.byte	0x91
 6621 1856 A87F     		.sleb128 -88
 6622 1858 23       		.uleb128 0x23
 6623 1859 44220000 		.4byte	.LASF501
 6624 185d 01       		.byte	0x1
 6625 185e 7703     		.2byte	0x377
 6626 1860 02190000 		.4byte	0x1902
 6627 1864 03       		.uleb128 0x3
 6628 1865 91       		.byte	0x91
 6629 1866 887F     		.sleb128 -120
 6630 1868 24       		.uleb128 0x24
 6631 1869 6D656D00 		.ascii	"mem\000"
 6632 186d 01       		.byte	0x1
 6633 186e 7803     		.2byte	0x378
 6634 1870 12190000 		.4byte	0x1912
 6635 1874 03       		.uleb128 0x3
 6636 1875 91       		.byte	0x91
 6637 1876 E07E     		.sleb128 -160
 6638 1878 23       		.uleb128 0x23
 6639 1879 51210000 		.4byte	.LASF554
 6640 187d 01       		.byte	0x1
 6641 187e 7903     		.2byte	0x379
 6642 1880 09010000 		.4byte	0x109
 6643 1884 03       		.uleb128 0x3
 6644 1885 91       		.byte	0x91
 6645 1886 C47E     		.sleb128 -188
 6646 1888 29       		.uleb128 0x29
 6647 1889 92160000 		.4byte	.LASF555
 6648 188d 01       		.byte	0x1
 6649 188e 7B03     		.2byte	0x37b
 6650 1890 C0030000 		.4byte	0x3c0
 6651 1894 23       		.uleb128 0x23
 6652 1895 05080000 		.4byte	.LASF163
 6653 1899 01       		.byte	0x1
 6654 189a 7E03     		.2byte	0x37e
 6655 189c E7050000 		.4byte	0x5e7
 6656 18a0 03       		.uleb128 0x3
 6657 18a1 91       		.byte	0x91
 6658 18a2 C07E     		.sleb128 -192
ARM GAS  C:\Users\megan\AppData\Local\Temp\ccrMxWsc.s 			page 138


 6659 18a4 23       		.uleb128 0x23
 6660 18a5 940A0000 		.4byte	.LASF164
 6661 18a9 01       		.byte	0x1
 6662 18aa 7F03     		.2byte	0x37f
 6663 18ac 0E050000 		.4byte	0x50e
 6664 18b0 03       		.uleb128 0x3
 6665 18b1 91       		.byte	0x91
 6666 18b2 B07E     		.sleb128 -208
 6667 18b4 23       		.uleb128 0x23
 6668 18b5 BE140000 		.4byte	.LASF507
 6669 18b9 01       		.byte	0x1
 6670 18ba 8003     		.2byte	0x380
 6671 18bc 20060000 		.4byte	0x620
 6672 18c0 03       		.uleb128 0x3
 6673 18c1 91       		.byte	0x91
 6674 18c2 987E     		.sleb128 -232
 6675 18c4 23       		.uleb128 0x23
 6676 18c5 17380000 		.4byte	.LASF556
 6677 18c9 01       		.byte	0x1
 6678 18ca 8203     		.2byte	0x382
 6679 18cc C0030000 		.4byte	0x3c0
 6680 18d0 02       		.uleb128 0x2
 6681 18d1 91       		.byte	0x91
 6682 18d2 6E       		.sleb128 -18
 6683 18d3 23       		.uleb128 0x23
 6684 18d4 B2000000 		.4byte	.LASF557
 6685 18d8 01       		.byte	0x1
 6686 18d9 8303     		.2byte	0x383
 6687 18db C0030000 		.4byte	0x3c0
 6688 18df 02       		.uleb128 0x2
 6689 18e0 91       		.byte	0x91
 6690 18e1 6C       		.sleb128 -20
 6691 18e2 23       		.uleb128 0x23
 6692 18e3 02040000 		.4byte	.LASF558
 6693 18e7 01       		.byte	0x1
 6694 18e8 8403     		.2byte	0x384
 6695 18ea 010F0000 		.4byte	0xf01
 6696 18ee 02       		.uleb128 0x2
 6697 18ef 91       		.byte	0x91
 6698 18f0 6B       		.sleb128 -21
 6699 18f1 23       		.uleb128 0x23
 6700 18f2 D7160000 		.4byte	.LASF559
 6701 18f6 01       		.byte	0x1
 6702 18f7 8903     		.2byte	0x389
 6703 18f9 00040000 		.4byte	0x400
 6704 18fd 03       		.uleb128 0x3
 6705 18fe 91       		.byte	0x91
 6706 18ff 907E     		.sleb128 -240
 6707 1901 00       		.byte	0
 6708 1902 08       		.uleb128 0x8
 6709 1903 E1000000 		.4byte	0xe1
 6710 1907 12190000 		.4byte	0x1912
 6711 190b 09       		.uleb128 0x9
 6712 190c 00010000 		.4byte	0x100
 6713 1910 1D       		.byte	0x1d
 6714 1911 00       		.byte	0
 6715 1912 08       		.uleb128 0x8
ARM GAS  C:\Users\megan\AppData\Local\Temp\ccrMxWsc.s 			page 139


 6716 1913 E1000000 		.4byte	0xe1
 6717 1917 22190000 		.4byte	0x1922
 6718 191b 09       		.uleb128 0x9
 6719 191c 00010000 		.4byte	0x100
 6720 1920 24       		.byte	0x24
 6721 1921 00       		.byte	0
 6722 1922 22       		.uleb128 0x22
 6723 1923 1A2E0000 		.4byte	.LASF560
 6724 1927 01       		.byte	0x1
 6725 1928 DD03     		.2byte	0x3dd
 6726 192a 00000000 		.4byte	.LFB56
 6727 192e 30000000 		.4byte	.LFE56-.LFB56
 6728 1932 01       		.uleb128 0x1
 6729 1933 9C       		.byte	0x9c
 6730 1934 48190000 		.4byte	0x1948
 6731 1938 23       		.uleb128 0x23
 6732 1939 02040000 		.4byte	.LASF558
 6733 193d 01       		.byte	0x1
 6734 193e DF03     		.2byte	0x3df
 6735 1940 010F0000 		.4byte	0xf01
 6736 1944 02       		.uleb128 0x2
 6737 1945 91       		.byte	0x91
 6738 1946 77       		.sleb128 -9
 6739 1947 00       		.byte	0
 6740 1948 2A       		.uleb128 0x2a
 6741 1949 1B1F0000 		.4byte	.LASF562
 6742 194d 01       		.byte	0x1
 6743 194e EB03     		.2byte	0x3eb
 6744 1950 00000000 		.4byte	.LFB57
 6745 1954 3E000000 		.4byte	.LFE57-.LFB57
 6746 1958 01       		.uleb128 0x1
 6747 1959 9C       		.byte	0x9c
 6748 195a 2A       		.uleb128 0x2a
 6749 195b 1E170000 		.4byte	.LASF563
 6750 195f 01       		.byte	0x1
 6751 1960 F803     		.2byte	0x3f8
 6752 1962 00000000 		.4byte	.LFB58
 6753 1966 24000000 		.4byte	.LFE58-.LFB58
 6754 196a 01       		.uleb128 0x1
 6755 196b 9C       		.byte	0x9c
 6756 196c 2B       		.uleb128 0x2b
 6757 196d 78020000 		.4byte	.LASF564
 6758 1971 09       		.byte	0x9
 6759 1972 A90A     		.2byte	0xaa9
 6760 1974 010F0000 		.4byte	0xf01
 6761 1978 2B       		.uleb128 0x2b
 6762 1979 062B0000 		.4byte	.LASF565
 6763 197d 09       		.byte	0x9
 6764 197e AA0A     		.2byte	0xaaa
 6765 1980 4A050000 		.4byte	0x54a
 6766 1984 2C       		.uleb128 0x2c
 6767 1985 5F637300 		.ascii	"_cs\000"
 6768 1989 0A       		.byte	0xa
 6769 198a 9F       		.byte	0x9f
 6770 198b 81000000 		.4byte	0x81
 6771 198f 05       		.uleb128 0x5
 6772 1990 03       		.byte	0x3
ARM GAS  C:\Users\megan\AppData\Local\Temp\ccrMxWsc.s 			page 140


 6773 1991 00000000 		.4byte	_cs
 6774 1995 2D       		.uleb128 0x2d
 6775 1996 C1000000 		.4byte	.LASF566
 6776 199a 0A       		.byte	0xa
 6777 199b 9F       		.byte	0x9f
 6778 199c 81000000 		.4byte	0x81
 6779 19a0 05       		.uleb128 0x5
 6780 19a1 03       		.byte	0x3
 6781 19a2 00000000 		.4byte	_rst
 6782 19a6 2D       		.uleb128 0x2d
 6783 19a7 D00B0000 		.4byte	.LASF567
 6784 19ab 0A       		.byte	0xa
 6785 19ac A0       		.byte	0xa0
 6786 19ad 8C000000 		.4byte	0x8c
 6787 19b1 05       		.uleb128 0x5
 6788 19b2 03       		.byte	0x3
 6789 19b3 00000000 		.4byte	_width
 6790 19b7 2D       		.uleb128 0x2d
 6791 19b8 68300000 		.4byte	.LASF568
 6792 19bc 0A       		.byte	0xa
 6793 19bd A0       		.byte	0xa0
 6794 19be 8C000000 		.4byte	0x8c
 6795 19c2 05       		.uleb128 0x5
 6796 19c3 03       		.byte	0x3
 6797 19c4 00000000 		.4byte	_height
 6798 19c8 2D       		.uleb128 0x2d
 6799 19c9 AD220000 		.4byte	.LASF569
 6800 19cd 0A       		.byte	0xa
 6801 19ce A1       		.byte	0xa1
 6802 19cf 81000000 		.4byte	0x81
 6803 19d3 05       		.uleb128 0x5
 6804 19d4 03       		.byte	0x3
 6805 19d5 00000000 		.4byte	_textScale
 6806 19d9 2D       		.uleb128 0x2d
 6807 19da 9C0E0000 		.4byte	.LASF570
 6808 19de 0A       		.byte	0xa
 6809 19df A2       		.byte	0xa2
 6810 19e0 390F0000 		.4byte	0xf39
 6811 19e4 05       		.uleb128 0x5
 6812 19e5 03       		.byte	0x3
 6813 19e6 00000000 		.4byte	_size
 6814 19ea 2D       		.uleb128 0x2d
 6815 19eb 74340000 		.4byte	.LASF531
 6816 19ef 01       		.byte	0x1
 6817 19f0 1A       		.byte	0x1a
 6818 19f1 B60F0000 		.4byte	0xfb6
 6819 19f5 05       		.uleb128 0x5
 6820 19f6 03       		.byte	0x3
 6821 19f7 00000000 		.4byte	outside
 6822 19fb 2D       		.uleb128 0x2d
 6823 19fc E4250000 		.4byte	.LASF571
 6824 1a00 01       		.byte	0x1
 6825 1a01 23       		.byte	0x23
 6826 1a02 F70F0000 		.4byte	0xff7
 6827 1a06 05       		.uleb128 0x5
 6828 1a07 03       		.byte	0x3
 6829 1a08 00000000 		.4byte	settings
ARM GAS  C:\Users\megan\AppData\Local\Temp\ccrMxWsc.s 			page 141


 6830 1a0c 2D       		.uleb128 0x2d
 6831 1a0d 02040000 		.4byte	.LASF558
 6832 1a11 01       		.byte	0x1
 6833 1a12 43       		.byte	0x43
 6834 1a13 010F0000 		.4byte	0xf01
 6835 1a17 05       		.uleb128 0x5
 6836 1a18 03       		.byte	0x3
 6837 1a19 00000000 		.4byte	ble_state
 6838 1a1d 08       		.uleb128 0x8
 6839 1a1e 00040000 		.4byte	0x400
 6840 1a22 2D1A0000 		.4byte	0x1a2d
 6841 1a26 09       		.uleb128 0x9
 6842 1a27 00010000 		.4byte	0x100
 6843 1a2b FE       		.byte	0xfe
 6844 1a2c 00       		.byte	0
 6845 1a2d 2D       		.uleb128 0x2d
 6846 1a2e FC050000 		.4byte	.LASF572
 6847 1a32 01       		.byte	0x1
 6848 1a33 44       		.byte	0x44
 6849 1a34 1D1A0000 		.4byte	0x1a1d
 6850 1a38 05       		.uleb128 0x5
 6851 1a39 03       		.byte	0x3
 6852 1a3a 00000000 		.4byte	peerAddr
 6853 1a3e 2D       		.uleb128 0x2d
 6854 1a3f 543C0000 		.4byte	.LASF573
 6855 1a43 01       		.byte	0x1
 6856 1a44 45       		.byte	0x45
 6857 1a45 97000000 		.4byte	0x97
 6858 1a49 05       		.uleb128 0x5
 6859 1a4a 03       		.byte	0x3
 6860 1a4b 00000000 		.4byte	DevicesNearBy
 6861 1a4f 2D       		.uleb128 0x2d
 6862 1a50 D4270000 		.4byte	.LASF574
 6863 1a54 01       		.byte	0x1
 6864 1a55 46       		.byte	0x46
 6865 1a56 DF110000 		.4byte	0x11df
 6866 1a5a 05       		.uleb128 0x5
 6867 1a5b 03       		.byte	0x3
 6868 1a5c 00000000 		.4byte	fl_temp_bytes
 6869 1a60 2D       		.uleb128 0x2d
 6870 1a61 54080000 		.4byte	.LASF575
 6871 1a65 01       		.byte	0x1
 6872 1a66 47       		.byte	0x47
 6873 1a67 81000000 		.4byte	0x81
 6874 1a6b 05       		.uleb128 0x5
 6875 1a6c 03       		.byte	0x3
 6876 1a6d 00000000 		.4byte	byte
 6877 1a71 2D       		.uleb128 0x2d
 6878 1a72 F61D0000 		.4byte	.LASF576
 6879 1a76 01       		.byte	0x1
 6880 1a77 48       		.byte	0x48
 6881 1a78 AB0F0000 		.4byte	0xfab
 6882 1a7c 05       		.uleb128 0x5
 6883 1a7d 03       		.byte	0x3
 6884 1a7e 00000000 		.4byte	bin1
 6885 1a82 00       		.byte	0
 6886              		.section	.debug_abbrev,"",%progbits
ARM GAS  C:\Users\megan\AppData\Local\Temp\ccrMxWsc.s 			page 142


 6887              	.Ldebug_abbrev0:
 6888 0000 01       		.uleb128 0x1
 6889 0001 11       		.uleb128 0x11
 6890 0002 01       		.byte	0x1
 6891 0003 25       		.uleb128 0x25
 6892 0004 0E       		.uleb128 0xe
 6893 0005 13       		.uleb128 0x13
 6894 0006 0B       		.uleb128 0xb
 6895 0007 03       		.uleb128 0x3
 6896 0008 0E       		.uleb128 0xe
 6897 0009 1B       		.uleb128 0x1b
 6898 000a 0E       		.uleb128 0xe
 6899 000b 55       		.uleb128 0x55
 6900 000c 17       		.uleb128 0x17
 6901 000d 11       		.uleb128 0x11
 6902 000e 01       		.uleb128 0x1
 6903 000f 10       		.uleb128 0x10
 6904 0010 17       		.uleb128 0x17
 6905 0011 00       		.byte	0
 6906 0012 00       		.byte	0
 6907 0013 02       		.uleb128 0x2
 6908 0014 24       		.uleb128 0x24
 6909 0015 00       		.byte	0
 6910 0016 0B       		.uleb128 0xb
 6911 0017 0B       		.uleb128 0xb
 6912 0018 3E       		.uleb128 0x3e
 6913 0019 0B       		.uleb128 0xb
 6914 001a 03       		.uleb128 0x3
 6915 001b 0E       		.uleb128 0xe
 6916 001c 00       		.byte	0
 6917 001d 00       		.byte	0
 6918 001e 03       		.uleb128 0x3
 6919 001f 16       		.uleb128 0x16
 6920 0020 00       		.byte	0
 6921 0021 03       		.uleb128 0x3
 6922 0022 0E       		.uleb128 0xe
 6923 0023 3A       		.uleb128 0x3a
 6924 0024 0B       		.uleb128 0xb
 6925 0025 3B       		.uleb128 0x3b
 6926 0026 0B       		.uleb128 0xb
 6927 0027 49       		.uleb128 0x49
 6928 0028 13       		.uleb128 0x13
 6929 0029 00       		.byte	0
 6930 002a 00       		.byte	0
 6931 002b 04       		.uleb128 0x4
 6932 002c 24       		.uleb128 0x24
 6933 002d 00       		.byte	0
 6934 002e 0B       		.uleb128 0xb
 6935 002f 0B       		.uleb128 0xb
 6936 0030 3E       		.uleb128 0x3e
 6937 0031 0B       		.uleb128 0xb
 6938 0032 03       		.uleb128 0x3
 6939 0033 08       		.uleb128 0x8
 6940 0034 00       		.byte	0
 6941 0035 00       		.byte	0
 6942 0036 05       		.uleb128 0x5
 6943 0037 16       		.uleb128 0x16
ARM GAS  C:\Users\megan\AppData\Local\Temp\ccrMxWsc.s 			page 143


 6944 0038 00       		.byte	0
 6945 0039 03       		.uleb128 0x3
 6946 003a 0E       		.uleb128 0xe
 6947 003b 3A       		.uleb128 0x3a
 6948 003c 0B       		.uleb128 0xb
 6949 003d 3B       		.uleb128 0x3b
 6950 003e 05       		.uleb128 0x5
 6951 003f 49       		.uleb128 0x49
 6952 0040 13       		.uleb128 0x13
 6953 0041 00       		.byte	0
 6954 0042 00       		.byte	0
 6955 0043 06       		.uleb128 0x6
 6956 0044 35       		.uleb128 0x35
 6957 0045 00       		.byte	0
 6958 0046 49       		.uleb128 0x49
 6959 0047 13       		.uleb128 0x13
 6960 0048 00       		.byte	0
 6961 0049 00       		.byte	0
 6962 004a 07       		.uleb128 0x7
 6963 004b 0F       		.uleb128 0xf
 6964 004c 00       		.byte	0
 6965 004d 0B       		.uleb128 0xb
 6966 004e 0B       		.uleb128 0xb
 6967 004f 00       		.byte	0
 6968 0050 00       		.byte	0
 6969 0051 08       		.uleb128 0x8
 6970 0052 01       		.uleb128 0x1
 6971 0053 01       		.byte	0x1
 6972 0054 49       		.uleb128 0x49
 6973 0055 13       		.uleb128 0x13
 6974 0056 01       		.uleb128 0x1
 6975 0057 13       		.uleb128 0x13
 6976 0058 00       		.byte	0
 6977 0059 00       		.byte	0
 6978 005a 09       		.uleb128 0x9
 6979 005b 21       		.uleb128 0x21
 6980 005c 00       		.byte	0
 6981 005d 49       		.uleb128 0x49
 6982 005e 13       		.uleb128 0x13
 6983 005f 2F       		.uleb128 0x2f
 6984 0060 0B       		.uleb128 0xb
 6985 0061 00       		.byte	0
 6986 0062 00       		.byte	0
 6987 0063 0A       		.uleb128 0xa
 6988 0064 04       		.uleb128 0x4
 6989 0065 01       		.byte	0x1
 6990 0066 0B       		.uleb128 0xb
 6991 0067 0B       		.uleb128 0xb
 6992 0068 49       		.uleb128 0x49
 6993 0069 13       		.uleb128 0x13
 6994 006a 3A       		.uleb128 0x3a
 6995 006b 0B       		.uleb128 0xb
 6996 006c 3B       		.uleb128 0x3b
 6997 006d 05       		.uleb128 0x5
 6998 006e 01       		.uleb128 0x1
 6999 006f 13       		.uleb128 0x13
 7000 0070 00       		.byte	0
ARM GAS  C:\Users\megan\AppData\Local\Temp\ccrMxWsc.s 			page 144


 7001 0071 00       		.byte	0
 7002 0072 0B       		.uleb128 0xb
 7003 0073 28       		.uleb128 0x28
 7004 0074 00       		.byte	0
 7005 0075 03       		.uleb128 0x3
 7006 0076 0E       		.uleb128 0xe
 7007 0077 1C       		.uleb128 0x1c
 7008 0078 0B       		.uleb128 0xb
 7009 0079 00       		.byte	0
 7010 007a 00       		.byte	0
 7011 007b 0C       		.uleb128 0xc
 7012 007c 28       		.uleb128 0x28
 7013 007d 00       		.byte	0
 7014 007e 03       		.uleb128 0x3
 7015 007f 0E       		.uleb128 0xe
 7016 0080 1C       		.uleb128 0x1c
 7017 0081 05       		.uleb128 0x5
 7018 0082 00       		.byte	0
 7019 0083 00       		.byte	0
 7020 0084 0D       		.uleb128 0xd
 7021 0085 13       		.uleb128 0x13
 7022 0086 01       		.byte	0x1
 7023 0087 0B       		.uleb128 0xb
 7024 0088 0B       		.uleb128 0xb
 7025 0089 3A       		.uleb128 0x3a
 7026 008a 0B       		.uleb128 0xb
 7027 008b 3B       		.uleb128 0x3b
 7028 008c 05       		.uleb128 0x5
 7029 008d 01       		.uleb128 0x1
 7030 008e 13       		.uleb128 0x13
 7031 008f 00       		.byte	0
 7032 0090 00       		.byte	0
 7033 0091 0E       		.uleb128 0xe
 7034 0092 0D       		.uleb128 0xd
 7035 0093 00       		.byte	0
 7036 0094 03       		.uleb128 0x3
 7037 0095 0E       		.uleb128 0xe
 7038 0096 3A       		.uleb128 0x3a
 7039 0097 0B       		.uleb128 0xb
 7040 0098 3B       		.uleb128 0x3b
 7041 0099 05       		.uleb128 0x5
 7042 009a 49       		.uleb128 0x49
 7043 009b 13       		.uleb128 0x13
 7044 009c 38       		.uleb128 0x38
 7045 009d 0B       		.uleb128 0xb
 7046 009e 00       		.byte	0
 7047 009f 00       		.byte	0
 7048 00a0 0F       		.uleb128 0xf
 7049 00a1 0F       		.uleb128 0xf
 7050 00a2 00       		.byte	0
 7051 00a3 0B       		.uleb128 0xb
 7052 00a4 0B       		.uleb128 0xb
 7053 00a5 49       		.uleb128 0x49
 7054 00a6 13       		.uleb128 0x13
 7055 00a7 00       		.byte	0
 7056 00a8 00       		.byte	0
 7057 00a9 10       		.uleb128 0x10
ARM GAS  C:\Users\megan\AppData\Local\Temp\ccrMxWsc.s 			page 145


 7058 00aa 04       		.uleb128 0x4
 7059 00ab 01       		.byte	0x1
 7060 00ac 0B       		.uleb128 0xb
 7061 00ad 0B       		.uleb128 0xb
 7062 00ae 49       		.uleb128 0x49
 7063 00af 13       		.uleb128 0x13
 7064 00b0 3A       		.uleb128 0x3a
 7065 00b1 0B       		.uleb128 0xb
 7066 00b2 3B       		.uleb128 0x3b
 7067 00b3 0B       		.uleb128 0xb
 7068 00b4 01       		.uleb128 0x1
 7069 00b5 13       		.uleb128 0x13
 7070 00b6 00       		.byte	0
 7071 00b7 00       		.byte	0
 7072 00b8 11       		.uleb128 0x11
 7073 00b9 17       		.uleb128 0x17
 7074 00ba 01       		.byte	0x1
 7075 00bb 0B       		.uleb128 0xb
 7076 00bc 0B       		.uleb128 0xb
 7077 00bd 3A       		.uleb128 0x3a
 7078 00be 0B       		.uleb128 0xb
 7079 00bf 3B       		.uleb128 0x3b
 7080 00c0 05       		.uleb128 0x5
 7081 00c1 01       		.uleb128 0x1
 7082 00c2 13       		.uleb128 0x13
 7083 00c3 00       		.byte	0
 7084 00c4 00       		.byte	0
 7085 00c5 12       		.uleb128 0x12
 7086 00c6 0D       		.uleb128 0xd
 7087 00c7 00       		.byte	0
 7088 00c8 03       		.uleb128 0x3
 7089 00c9 0E       		.uleb128 0xe
 7090 00ca 3A       		.uleb128 0x3a
 7091 00cb 0B       		.uleb128 0xb
 7092 00cc 3B       		.uleb128 0x3b
 7093 00cd 05       		.uleb128 0x5
 7094 00ce 49       		.uleb128 0x49
 7095 00cf 13       		.uleb128 0x13
 7096 00d0 00       		.byte	0
 7097 00d1 00       		.byte	0
 7098 00d2 13       		.uleb128 0x13
 7099 00d3 0D       		.uleb128 0xd
 7100 00d4 00       		.byte	0
 7101 00d5 03       		.uleb128 0x3
 7102 00d6 08       		.uleb128 0x8
 7103 00d7 3A       		.uleb128 0x3a
 7104 00d8 0B       		.uleb128 0xb
 7105 00d9 3B       		.uleb128 0x3b
 7106 00da 05       		.uleb128 0x5
 7107 00db 49       		.uleb128 0x49
 7108 00dc 13       		.uleb128 0x13
 7109 00dd 38       		.uleb128 0x38
 7110 00de 0B       		.uleb128 0xb
 7111 00df 00       		.byte	0
 7112 00e0 00       		.byte	0
 7113 00e1 14       		.uleb128 0x14
 7114 00e2 13       		.uleb128 0x13
ARM GAS  C:\Users\megan\AppData\Local\Temp\ccrMxWsc.s 			page 146


 7115 00e3 01       		.byte	0x1
 7116 00e4 0B       		.uleb128 0xb
 7117 00e5 0B       		.uleb128 0xb
 7118 00e6 3A       		.uleb128 0x3a
 7119 00e7 0B       		.uleb128 0xb
 7120 00e8 3B       		.uleb128 0x3b
 7121 00e9 0B       		.uleb128 0xb
 7122 00ea 01       		.uleb128 0x1
 7123 00eb 13       		.uleb128 0x13
 7124 00ec 00       		.byte	0
 7125 00ed 00       		.byte	0
 7126 00ee 15       		.uleb128 0x15
 7127 00ef 0D       		.uleb128 0xd
 7128 00f0 00       		.byte	0
 7129 00f1 03       		.uleb128 0x3
 7130 00f2 0E       		.uleb128 0xe
 7131 00f3 3A       		.uleb128 0x3a
 7132 00f4 0B       		.uleb128 0xb
 7133 00f5 3B       		.uleb128 0x3b
 7134 00f6 0B       		.uleb128 0xb
 7135 00f7 49       		.uleb128 0x49
 7136 00f8 13       		.uleb128 0x13
 7137 00f9 38       		.uleb128 0x38
 7138 00fa 0B       		.uleb128 0xb
 7139 00fb 00       		.byte	0
 7140 00fc 00       		.byte	0
 7141 00fd 16       		.uleb128 0x16
 7142 00fe 04       		.uleb128 0x4
 7143 00ff 01       		.byte	0x1
 7144 0100 03       		.uleb128 0x3
 7145 0101 0E       		.uleb128 0xe
 7146 0102 0B       		.uleb128 0xb
 7147 0103 0B       		.uleb128 0xb
 7148 0104 49       		.uleb128 0x49
 7149 0105 13       		.uleb128 0x13
 7150 0106 3A       		.uleb128 0x3a
 7151 0107 0B       		.uleb128 0xb
 7152 0108 3B       		.uleb128 0x3b
 7153 0109 0B       		.uleb128 0xb
 7154 010a 01       		.uleb128 0x1
 7155 010b 13       		.uleb128 0x13
 7156 010c 00       		.byte	0
 7157 010d 00       		.byte	0
 7158 010e 17       		.uleb128 0x17
 7159 010f 13       		.uleb128 0x13
 7160 0110 01       		.byte	0x1
 7161 0111 03       		.uleb128 0x3
 7162 0112 08       		.uleb128 0x8
 7163 0113 0B       		.uleb128 0xb
 7164 0114 0B       		.uleb128 0xb
 7165 0115 3A       		.uleb128 0x3a
 7166 0116 0B       		.uleb128 0xb
 7167 0117 3B       		.uleb128 0x3b
 7168 0118 0B       		.uleb128 0xb
 7169 0119 01       		.uleb128 0x1
 7170 011a 13       		.uleb128 0x13
 7171 011b 00       		.byte	0
ARM GAS  C:\Users\megan\AppData\Local\Temp\ccrMxWsc.s 			page 147


 7172 011c 00       		.byte	0
 7173 011d 18       		.uleb128 0x18
 7174 011e 16       		.uleb128 0x16
 7175 011f 00       		.byte	0
 7176 0120 03       		.uleb128 0x3
 7177 0121 08       		.uleb128 0x8
 7178 0122 3A       		.uleb128 0x3a
 7179 0123 0B       		.uleb128 0xb
 7180 0124 3B       		.uleb128 0x3b
 7181 0125 0B       		.uleb128 0xb
 7182 0126 49       		.uleb128 0x49
 7183 0127 13       		.uleb128 0x13
 7184 0128 00       		.byte	0
 7185 0129 00       		.byte	0
 7186 012a 19       		.uleb128 0x19
 7187 012b 13       		.uleb128 0x13
 7188 012c 01       		.byte	0x1
 7189 012d 03       		.uleb128 0x3
 7190 012e 0E       		.uleb128 0xe
 7191 012f 0B       		.uleb128 0xb
 7192 0130 0B       		.uleb128 0xb
 7193 0131 3A       		.uleb128 0x3a
 7194 0132 0B       		.uleb128 0xb
 7195 0133 3B       		.uleb128 0x3b
 7196 0134 0B       		.uleb128 0xb
 7197 0135 01       		.uleb128 0x1
 7198 0136 13       		.uleb128 0x13
 7199 0137 00       		.byte	0
 7200 0138 00       		.byte	0
 7201 0139 1A       		.uleb128 0x1a
 7202 013a 2E       		.uleb128 0x2e
 7203 013b 00       		.byte	0
 7204 013c 3F       		.uleb128 0x3f
 7205 013d 19       		.uleb128 0x19
 7206 013e 03       		.uleb128 0x3
 7207 013f 0E       		.uleb128 0xe
 7208 0140 3A       		.uleb128 0x3a
 7209 0141 0B       		.uleb128 0xb
 7210 0142 3B       		.uleb128 0x3b
 7211 0143 0B       		.uleb128 0xb
 7212 0144 49       		.uleb128 0x49
 7213 0145 13       		.uleb128 0x13
 7214 0146 11       		.uleb128 0x11
 7215 0147 01       		.uleb128 0x1
 7216 0148 12       		.uleb128 0x12
 7217 0149 06       		.uleb128 0x6
 7218 014a 40       		.uleb128 0x40
 7219 014b 18       		.uleb128 0x18
 7220 014c 9642     		.uleb128 0x2116
 7221 014e 19       		.uleb128 0x19
 7222 014f 00       		.byte	0
 7223 0150 00       		.byte	0
 7224 0151 1B       		.uleb128 0x1b
 7225 0152 2E       		.uleb128 0x2e
 7226 0153 00       		.byte	0
 7227 0154 3F       		.uleb128 0x3f
 7228 0155 19       		.uleb128 0x19
ARM GAS  C:\Users\megan\AppData\Local\Temp\ccrMxWsc.s 			page 148


 7229 0156 03       		.uleb128 0x3
 7230 0157 0E       		.uleb128 0xe
 7231 0158 3A       		.uleb128 0x3a
 7232 0159 0B       		.uleb128 0xb
 7233 015a 3B       		.uleb128 0x3b
 7234 015b 0B       		.uleb128 0xb
 7235 015c 11       		.uleb128 0x11
 7236 015d 01       		.uleb128 0x1
 7237 015e 12       		.uleb128 0x12
 7238 015f 06       		.uleb128 0x6
 7239 0160 40       		.uleb128 0x40
 7240 0161 18       		.uleb128 0x18
 7241 0162 9742     		.uleb128 0x2117
 7242 0164 19       		.uleb128 0x19
 7243 0165 00       		.byte	0
 7244 0166 00       		.byte	0
 7245 0167 1C       		.uleb128 0x1c
 7246 0168 2E       		.uleb128 0x2e
 7247 0169 01       		.byte	0x1
 7248 016a 3F       		.uleb128 0x3f
 7249 016b 19       		.uleb128 0x19
 7250 016c 03       		.uleb128 0x3
 7251 016d 0E       		.uleb128 0xe
 7252 016e 3A       		.uleb128 0x3a
 7253 016f 0B       		.uleb128 0xb
 7254 0170 3B       		.uleb128 0x3b
 7255 0171 0B       		.uleb128 0xb
 7256 0172 27       		.uleb128 0x27
 7257 0173 19       		.uleb128 0x19
 7258 0174 11       		.uleb128 0x11
 7259 0175 01       		.uleb128 0x1
 7260 0176 12       		.uleb128 0x12
 7261 0177 06       		.uleb128 0x6
 7262 0178 40       		.uleb128 0x40
 7263 0179 18       		.uleb128 0x18
 7264 017a 9642     		.uleb128 0x2116
 7265 017c 19       		.uleb128 0x19
 7266 017d 01       		.uleb128 0x1
 7267 017e 13       		.uleb128 0x13
 7268 017f 00       		.byte	0
 7269 0180 00       		.byte	0
 7270 0181 1D       		.uleb128 0x1d
 7271 0182 05       		.uleb128 0x5
 7272 0183 00       		.byte	0
 7273 0184 03       		.uleb128 0x3
 7274 0185 0E       		.uleb128 0xe
 7275 0186 3A       		.uleb128 0x3a
 7276 0187 0B       		.uleb128 0xb
 7277 0188 3B       		.uleb128 0x3b
 7278 0189 0B       		.uleb128 0xb
 7279 018a 49       		.uleb128 0x49
 7280 018b 13       		.uleb128 0x13
 7281 018c 02       		.uleb128 0x2
 7282 018d 18       		.uleb128 0x18
 7283 018e 00       		.byte	0
 7284 018f 00       		.byte	0
 7285 0190 1E       		.uleb128 0x1e
ARM GAS  C:\Users\megan\AppData\Local\Temp\ccrMxWsc.s 			page 149


 7286 0191 34       		.uleb128 0x34
 7287 0192 00       		.byte	0
 7288 0193 03       		.uleb128 0x3
 7289 0194 08       		.uleb128 0x8
 7290 0195 3A       		.uleb128 0x3a
 7291 0196 0B       		.uleb128 0xb
 7292 0197 3B       		.uleb128 0x3b
 7293 0198 0B       		.uleb128 0xb
 7294 0199 49       		.uleb128 0x49
 7295 019a 13       		.uleb128 0x13
 7296 019b 02       		.uleb128 0x2
 7297 019c 18       		.uleb128 0x18
 7298 019d 00       		.byte	0
 7299 019e 00       		.byte	0
 7300 019f 1F       		.uleb128 0x1f
 7301 01a0 34       		.uleb128 0x34
 7302 01a1 00       		.byte	0
 7303 01a2 03       		.uleb128 0x3
 7304 01a3 0E       		.uleb128 0xe
 7305 01a4 3A       		.uleb128 0x3a
 7306 01a5 0B       		.uleb128 0xb
 7307 01a6 3B       		.uleb128 0x3b
 7308 01a7 0B       		.uleb128 0xb
 7309 01a8 49       		.uleb128 0x49
 7310 01a9 13       		.uleb128 0x13
 7311 01aa 02       		.uleb128 0x2
 7312 01ab 18       		.uleb128 0x18
 7313 01ac 00       		.byte	0
 7314 01ad 00       		.byte	0
 7315 01ae 20       		.uleb128 0x20
 7316 01af 34       		.uleb128 0x34
 7317 01b0 00       		.byte	0
 7318 01b1 03       		.uleb128 0x3
 7319 01b2 0E       		.uleb128 0xe
 7320 01b3 3A       		.uleb128 0x3a
 7321 01b4 0B       		.uleb128 0xb
 7322 01b5 3B       		.uleb128 0x3b
 7323 01b6 0B       		.uleb128 0xb
 7324 01b7 49       		.uleb128 0x49
 7325 01b8 13       		.uleb128 0x13
 7326 01b9 00       		.byte	0
 7327 01ba 00       		.byte	0
 7328 01bb 21       		.uleb128 0x21
 7329 01bc 2E       		.uleb128 0x2e
 7330 01bd 00       		.byte	0
 7331 01be 3F       		.uleb128 0x3f
 7332 01bf 19       		.uleb128 0x19
 7333 01c0 03       		.uleb128 0x3
 7334 01c1 0E       		.uleb128 0xe
 7335 01c2 3A       		.uleb128 0x3a
 7336 01c3 0B       		.uleb128 0xb
 7337 01c4 3B       		.uleb128 0x3b
 7338 01c5 05       		.uleb128 0x5
 7339 01c6 27       		.uleb128 0x27
 7340 01c7 19       		.uleb128 0x19
 7341 01c8 11       		.uleb128 0x11
 7342 01c9 01       		.uleb128 0x1
ARM GAS  C:\Users\megan\AppData\Local\Temp\ccrMxWsc.s 			page 150


 7343 01ca 12       		.uleb128 0x12
 7344 01cb 06       		.uleb128 0x6
 7345 01cc 40       		.uleb128 0x40
 7346 01cd 18       		.uleb128 0x18
 7347 01ce 9642     		.uleb128 0x2116
 7348 01d0 19       		.uleb128 0x19
 7349 01d1 00       		.byte	0
 7350 01d2 00       		.byte	0
 7351 01d3 22       		.uleb128 0x22
 7352 01d4 2E       		.uleb128 0x2e
 7353 01d5 01       		.byte	0x1
 7354 01d6 3F       		.uleb128 0x3f
 7355 01d7 19       		.uleb128 0x19
 7356 01d8 03       		.uleb128 0x3
 7357 01d9 0E       		.uleb128 0xe
 7358 01da 3A       		.uleb128 0x3a
 7359 01db 0B       		.uleb128 0xb
 7360 01dc 3B       		.uleb128 0x3b
 7361 01dd 05       		.uleb128 0x5
 7362 01de 11       		.uleb128 0x11
 7363 01df 01       		.uleb128 0x1
 7364 01e0 12       		.uleb128 0x12
 7365 01e1 06       		.uleb128 0x6
 7366 01e2 40       		.uleb128 0x40
 7367 01e3 18       		.uleb128 0x18
 7368 01e4 9642     		.uleb128 0x2116
 7369 01e6 19       		.uleb128 0x19
 7370 01e7 01       		.uleb128 0x1
 7371 01e8 13       		.uleb128 0x13
 7372 01e9 00       		.byte	0
 7373 01ea 00       		.byte	0
 7374 01eb 23       		.uleb128 0x23
 7375 01ec 34       		.uleb128 0x34
 7376 01ed 00       		.byte	0
 7377 01ee 03       		.uleb128 0x3
 7378 01ef 0E       		.uleb128 0xe
 7379 01f0 3A       		.uleb128 0x3a
 7380 01f1 0B       		.uleb128 0xb
 7381 01f2 3B       		.uleb128 0x3b
 7382 01f3 05       		.uleb128 0x5
 7383 01f4 49       		.uleb128 0x49
 7384 01f5 13       		.uleb128 0x13
 7385 01f6 02       		.uleb128 0x2
 7386 01f7 18       		.uleb128 0x18
 7387 01f8 00       		.byte	0
 7388 01f9 00       		.byte	0
 7389 01fa 24       		.uleb128 0x24
 7390 01fb 34       		.uleb128 0x34
 7391 01fc 00       		.byte	0
 7392 01fd 03       		.uleb128 0x3
 7393 01fe 08       		.uleb128 0x8
 7394 01ff 3A       		.uleb128 0x3a
 7395 0200 0B       		.uleb128 0xb
 7396 0201 3B       		.uleb128 0x3b
 7397 0202 05       		.uleb128 0x5
 7398 0203 49       		.uleb128 0x49
 7399 0204 13       		.uleb128 0x13
ARM GAS  C:\Users\megan\AppData\Local\Temp\ccrMxWsc.s 			page 151


 7400 0205 02       		.uleb128 0x2
 7401 0206 18       		.uleb128 0x18
 7402 0207 00       		.byte	0
 7403 0208 00       		.byte	0
 7404 0209 25       		.uleb128 0x25
 7405 020a 0B       		.uleb128 0xb
 7406 020b 01       		.byte	0x1
 7407 020c 11       		.uleb128 0x11
 7408 020d 01       		.uleb128 0x1
 7409 020e 12       		.uleb128 0x12
 7410 020f 06       		.uleb128 0x6
 7411 0210 00       		.byte	0
 7412 0211 00       		.byte	0
 7413 0212 26       		.uleb128 0x26
 7414 0213 2E       		.uleb128 0x2e
 7415 0214 01       		.byte	0x1
 7416 0215 3F       		.uleb128 0x3f
 7417 0216 19       		.uleb128 0x19
 7418 0217 03       		.uleb128 0x3
 7419 0218 0E       		.uleb128 0xe
 7420 0219 3A       		.uleb128 0x3a
 7421 021a 0B       		.uleb128 0xb
 7422 021b 3B       		.uleb128 0x3b
 7423 021c 05       		.uleb128 0x5
 7424 021d 27       		.uleb128 0x27
 7425 021e 19       		.uleb128 0x19
 7426 021f 11       		.uleb128 0x11
 7427 0220 01       		.uleb128 0x1
 7428 0221 12       		.uleb128 0x12
 7429 0222 06       		.uleb128 0x6
 7430 0223 40       		.uleb128 0x40
 7431 0224 18       		.uleb128 0x18
 7432 0225 9642     		.uleb128 0x2116
 7433 0227 19       		.uleb128 0x19
 7434 0228 01       		.uleb128 0x1
 7435 0229 13       		.uleb128 0x13
 7436 022a 00       		.byte	0
 7437 022b 00       		.byte	0
 7438 022c 27       		.uleb128 0x27
 7439 022d 05       		.uleb128 0x5
 7440 022e 00       		.byte	0
 7441 022f 03       		.uleb128 0x3
 7442 0230 08       		.uleb128 0x8
 7443 0231 3A       		.uleb128 0x3a
 7444 0232 0B       		.uleb128 0xb
 7445 0233 3B       		.uleb128 0x3b
 7446 0234 05       		.uleb128 0x5
 7447 0235 49       		.uleb128 0x49
 7448 0236 13       		.uleb128 0x13
 7449 0237 02       		.uleb128 0x2
 7450 0238 18       		.uleb128 0x18
 7451 0239 00       		.byte	0
 7452 023a 00       		.byte	0
 7453 023b 28       		.uleb128 0x28
 7454 023c 05       		.uleb128 0x5
 7455 023d 00       		.byte	0
 7456 023e 03       		.uleb128 0x3
ARM GAS  C:\Users\megan\AppData\Local\Temp\ccrMxWsc.s 			page 152


 7457 023f 0E       		.uleb128 0xe
 7458 0240 3A       		.uleb128 0x3a
 7459 0241 0B       		.uleb128 0xb
 7460 0242 3B       		.uleb128 0x3b
 7461 0243 05       		.uleb128 0x5
 7462 0244 49       		.uleb128 0x49
 7463 0245 13       		.uleb128 0x13
 7464 0246 02       		.uleb128 0x2
 7465 0247 18       		.uleb128 0x18
 7466 0248 00       		.byte	0
 7467 0249 00       		.byte	0
 7468 024a 29       		.uleb128 0x29
 7469 024b 34       		.uleb128 0x34
 7470 024c 00       		.byte	0
 7471 024d 03       		.uleb128 0x3
 7472 024e 0E       		.uleb128 0xe
 7473 024f 3A       		.uleb128 0x3a
 7474 0250 0B       		.uleb128 0xb
 7475 0251 3B       		.uleb128 0x3b
 7476 0252 05       		.uleb128 0x5
 7477 0253 49       		.uleb128 0x49
 7478 0254 13       		.uleb128 0x13
 7479 0255 00       		.byte	0
 7480 0256 00       		.byte	0
 7481 0257 2A       		.uleb128 0x2a
 7482 0258 2E       		.uleb128 0x2e
 7483 0259 00       		.byte	0
 7484 025a 3F       		.uleb128 0x3f
 7485 025b 19       		.uleb128 0x19
 7486 025c 03       		.uleb128 0x3
 7487 025d 0E       		.uleb128 0xe
 7488 025e 3A       		.uleb128 0x3a
 7489 025f 0B       		.uleb128 0xb
 7490 0260 3B       		.uleb128 0x3b
 7491 0261 05       		.uleb128 0x5
 7492 0262 11       		.uleb128 0x11
 7493 0263 01       		.uleb128 0x1
 7494 0264 12       		.uleb128 0x12
 7495 0265 06       		.uleb128 0x6
 7496 0266 40       		.uleb128 0x40
 7497 0267 18       		.uleb128 0x18
 7498 0268 9642     		.uleb128 0x2116
 7499 026a 19       		.uleb128 0x19
 7500 026b 00       		.byte	0
 7501 026c 00       		.byte	0
 7502 026d 2B       		.uleb128 0x2b
 7503 026e 34       		.uleb128 0x34
 7504 026f 00       		.byte	0
 7505 0270 03       		.uleb128 0x3
 7506 0271 0E       		.uleb128 0xe
 7507 0272 3A       		.uleb128 0x3a
 7508 0273 0B       		.uleb128 0xb
 7509 0274 3B       		.uleb128 0x3b
 7510 0275 05       		.uleb128 0x5
 7511 0276 49       		.uleb128 0x49
 7512 0277 13       		.uleb128 0x13
 7513 0278 3F       		.uleb128 0x3f
ARM GAS  C:\Users\megan\AppData\Local\Temp\ccrMxWsc.s 			page 153


 7514 0279 19       		.uleb128 0x19
 7515 027a 3C       		.uleb128 0x3c
 7516 027b 19       		.uleb128 0x19
 7517 027c 00       		.byte	0
 7518 027d 00       		.byte	0
 7519 027e 2C       		.uleb128 0x2c
 7520 027f 34       		.uleb128 0x34
 7521 0280 00       		.byte	0
 7522 0281 03       		.uleb128 0x3
 7523 0282 08       		.uleb128 0x8
 7524 0283 3A       		.uleb128 0x3a
 7525 0284 0B       		.uleb128 0xb
 7526 0285 3B       		.uleb128 0x3b
 7527 0286 0B       		.uleb128 0xb
 7528 0287 49       		.uleb128 0x49
 7529 0288 13       		.uleb128 0x13
 7530 0289 3F       		.uleb128 0x3f
 7531 028a 19       		.uleb128 0x19
 7532 028b 02       		.uleb128 0x2
 7533 028c 18       		.uleb128 0x18
 7534 028d 00       		.byte	0
 7535 028e 00       		.byte	0
 7536 028f 2D       		.uleb128 0x2d
 7537 0290 34       		.uleb128 0x34
 7538 0291 00       		.byte	0
 7539 0292 03       		.uleb128 0x3
 7540 0293 0E       		.uleb128 0xe
 7541 0294 3A       		.uleb128 0x3a
 7542 0295 0B       		.uleb128 0xb
 7543 0296 3B       		.uleb128 0x3b
 7544 0297 0B       		.uleb128 0xb
 7545 0298 49       		.uleb128 0x49
 7546 0299 13       		.uleb128 0x13
 7547 029a 3F       		.uleb128 0x3f
 7548 029b 19       		.uleb128 0x19
 7549 029c 02       		.uleb128 0x2
 7550 029d 18       		.uleb128 0x18
 7551 029e 00       		.byte	0
 7552 029f 00       		.byte	0
 7553 02a0 00       		.byte	0
 7554              		.section	.debug_aranges,"",%progbits
 7555 0000 D4000000 		.4byte	0xd4
 7556 0004 0200     		.2byte	0x2
 7557 0006 00000000 		.4byte	.Ldebug_info0
 7558 000a 04       		.byte	0x4
 7559 000b 00       		.byte	0
 7560 000c 0000     		.2byte	0
 7561 000e 0000     		.2byte	0
 7562 0010 00000000 		.4byte	.LFB35
 7563 0014 58000000 		.4byte	.LFE35-.LFB35
 7564 0018 00000000 		.4byte	.LFB36
 7565 001c 34000000 		.4byte	.LFE36-.LFB36
 7566 0020 00000000 		.4byte	.LFB37
 7567 0024 64020000 		.4byte	.LFE37-.LFB37
 7568 0028 00000000 		.4byte	.LFB38
 7569 002c 40000000 		.4byte	.LFE38-.LFB38
 7570 0030 00000000 		.4byte	.LFB39
ARM GAS  C:\Users\megan\AppData\Local\Temp\ccrMxWsc.s 			page 154


 7571 0034 00010000 		.4byte	.LFE39-.LFB39
 7572 0038 00000000 		.4byte	.LFB40
 7573 003c DC000000 		.4byte	.LFE40-.LFB40
 7574 0040 00000000 		.4byte	.LFB41
 7575 0044 6E000000 		.4byte	.LFE41-.LFB41
 7576 0048 00000000 		.4byte	.LFB42
 7577 004c 7C010000 		.4byte	.LFE42-.LFB42
 7578 0050 00000000 		.4byte	.LFB43
 7579 0054 68030000 		.4byte	.LFE43-.LFB43
 7580 0058 00000000 		.4byte	.LFB44
 7581 005c 90010000 		.4byte	.LFE44-.LFB44
 7582 0060 00000000 		.4byte	.LFB45
 7583 0064 74000000 		.4byte	.LFE45-.LFB45
 7584 0068 00000000 		.4byte	.LFB46
 7585 006c 74000000 		.4byte	.LFE46-.LFB46
 7586 0070 00000000 		.4byte	.LFB47
 7587 0074 28030000 		.4byte	.LFE47-.LFB47
 7588 0078 00000000 		.4byte	.LFB48
 7589 007c 20020000 		.4byte	.LFE48-.LFB48
 7590 0080 00000000 		.4byte	.LFB49
 7591 0084 60000000 		.4byte	.LFE49-.LFB49
 7592 0088 00000000 		.4byte	.LFB50
 7593 008c 26000000 		.4byte	.LFE50-.LFB50
 7594 0090 00000000 		.4byte	.LFB51
 7595 0094 28000000 		.4byte	.LFE51-.LFB51
 7596 0098 00000000 		.4byte	.LFB52
 7597 009c 78000000 		.4byte	.LFE52-.LFB52
 7598 00a0 00000000 		.4byte	.LFB53
 7599 00a4 A8000000 		.4byte	.LFE53-.LFB53
 7600 00a8 00000000 		.4byte	.LFB54
 7601 00ac 40000000 		.4byte	.LFE54-.LFB54
 7602 00b0 00000000 		.4byte	.LFB55
 7603 00b4 44010000 		.4byte	.LFE55-.LFB55
 7604 00b8 00000000 		.4byte	.LFB56
 7605 00bc 30000000 		.4byte	.LFE56-.LFB56
 7606 00c0 00000000 		.4byte	.LFB57
 7607 00c4 3E000000 		.4byte	.LFE57-.LFB57
 7608 00c8 00000000 		.4byte	.LFB58
 7609 00cc 24000000 		.4byte	.LFE58-.LFB58
 7610 00d0 00000000 		.4byte	0
 7611 00d4 00000000 		.4byte	0
 7612              		.section	.debug_ranges,"",%progbits
 7613              	.Ldebug_ranges0:
 7614 0000 00000000 		.4byte	.LFB35
 7615 0004 58000000 		.4byte	.LFE35
 7616 0008 00000000 		.4byte	.LFB36
 7617 000c 34000000 		.4byte	.LFE36
 7618 0010 00000000 		.4byte	.LFB37
 7619 0014 64020000 		.4byte	.LFE37
 7620 0018 00000000 		.4byte	.LFB38
 7621 001c 40000000 		.4byte	.LFE38
 7622 0020 00000000 		.4byte	.LFB39
 7623 0024 00010000 		.4byte	.LFE39
 7624 0028 00000000 		.4byte	.LFB40
 7625 002c DC000000 		.4byte	.LFE40
 7626 0030 00000000 		.4byte	.LFB41
 7627 0034 6E000000 		.4byte	.LFE41
ARM GAS  C:\Users\megan\AppData\Local\Temp\ccrMxWsc.s 			page 155


 7628 0038 00000000 		.4byte	.LFB42
 7629 003c 7C010000 		.4byte	.LFE42
 7630 0040 00000000 		.4byte	.LFB43
 7631 0044 68030000 		.4byte	.LFE43
 7632 0048 00000000 		.4byte	.LFB44
 7633 004c 90010000 		.4byte	.LFE44
 7634 0050 00000000 		.4byte	.LFB45
 7635 0054 74000000 		.4byte	.LFE45
 7636 0058 00000000 		.4byte	.LFB46
 7637 005c 74000000 		.4byte	.LFE46
 7638 0060 00000000 		.4byte	.LFB47
 7639 0064 28030000 		.4byte	.LFE47
 7640 0068 00000000 		.4byte	.LFB48
 7641 006c 20020000 		.4byte	.LFE48
 7642 0070 00000000 		.4byte	.LFB49
 7643 0074 60000000 		.4byte	.LFE49
 7644 0078 00000000 		.4byte	.LFB50
 7645 007c 26000000 		.4byte	.LFE50
 7646 0080 00000000 		.4byte	.LFB51
 7647 0084 28000000 		.4byte	.LFE51
 7648 0088 00000000 		.4byte	.LFB52
 7649 008c 78000000 		.4byte	.LFE52
 7650 0090 00000000 		.4byte	.LFB53
 7651 0094 A8000000 		.4byte	.LFE53
 7652 0098 00000000 		.4byte	.LFB54
 7653 009c 40000000 		.4byte	.LFE54
 7654 00a0 00000000 		.4byte	.LFB55
 7655 00a4 44010000 		.4byte	.LFE55
 7656 00a8 00000000 		.4byte	.LFB56
 7657 00ac 30000000 		.4byte	.LFE56
 7658 00b0 00000000 		.4byte	.LFB57
 7659 00b4 3E000000 		.4byte	.LFE57
 7660 00b8 00000000 		.4byte	.LFB58
 7661 00bc 24000000 		.4byte	.LFE58
 7662 00c0 00000000 		.4byte	0
 7663 00c4 00000000 		.4byte	0
 7664              		.section	.debug_line,"",%progbits
 7665              	.Ldebug_line0:
 7666 0000 DA050000 		.section	.debug_str,"MS",%progbits,1
 7666      0200B901 
 7666      00000201 
 7666      FB0E0D00 
 7666      01010101 
 7667              	.LASF338:
 7668 0000 4359424C 		.ascii	"CYBLE_EVT_HPSS_NOTIFICATION_DISABLED\000"
 7668      455F4556 
 7668      545F4850 
 7668      53535F4E 
 7668      4F544946 
 7669              	.LASF503:
 7670 0025 64617461 		.ascii	"dataLength\000"
 7670      4C656E67 
 7670      746800
 7671              	.LASF110:
 7672 0030 4359424C 		.ascii	"CYBLE_ERROR_L2CAP_PSM_ALREADY_REGISTERED\000"
 7672      455F4552 
 7672      524F525F 
ARM GAS  C:\Users\megan\AppData\Local\Temp\ccrMxWsc.s 			page 156


 7672      4C324341 
 7672      505F5053 
 7673              	.LASF280:
 7674 0059 4359424C 		.ascii	"CYBLE_EVT_CSCSS_NOTIFICATION_DISABLED\000"
 7674      455F4556 
 7674      545F4353 
 7674      4353535F 
 7674      4E4F5449 
 7675              	.LASF95:
 7676 007f 4359424C 		.ascii	"CYBLE_EVT_MAX\000"
 7676      455F4556 
 7676      545F4D41 
 7676      5800
 7677              	.LASF390:
 7678 008d 4359424C 		.ascii	"CYBLE_EVT_PASSS_NOTIFICATION_ENABLED\000"
 7678      455F4556 
 7678      545F5041 
 7678      5353535F 
 7678      4E4F5449 
 7679              	.LASF557:
 7680 00b2 636F6E6E 		.ascii	"connect_result\000"
 7680      6563745F 
 7680      72657375 
 7680      6C7400
 7681              	.LASF566:
 7682 00c1 5F727374 		.ascii	"_rst\000"
 7682      00
 7683              	.LASF337:
 7684 00c6 4359424C 		.ascii	"CYBLE_EVT_HPSS_NOTIFICATION_ENABLED\000"
 7684      455F4556 
 7684      545F4850 
 7684      53535F4E 
 7684      4F544946 
 7685              	.LASF371:
 7686 00ea 4359424C 		.ascii	"CYBLE_EVT_IPSC_WRITE_DESCR_RESPONSE\000"
 7686      455F4556 
 7686      545F4950 
 7686      53435F57 
 7686      52495445 
 7687              	.LASF200:
 7688 010e 4359424C 		.ascii	"CYBLE_EVT_AIOSS_CHAR_WRITE\000"
 7688      455F4556 
 7688      545F4149 
 7688      4F53535F 
 7688      43484152 
 7689              	.LASF394:
 7690 0129 4359424C 		.ascii	"CYBLE_EVT_PASSC_READ_CHAR_RESPONSE\000"
 7690      455F4556 
 7690      545F5041 
 7690      5353435F 
 7690      52454144 
 7691              	.LASF283:
 7692 014c 4359424C 		.ascii	"CYBLE_EVT_CSCSS_INDICATION_CONFIRMATION\000"
 7692      455F4556 
 7692      545F4353 
 7692      4353535F 
 7692      494E4449 
ARM GAS  C:\Users\megan\AppData\Local\Temp\ccrMxWsc.s 			page 157


 7693              	.LASF487:
 7694 0174 7365745F 		.ascii	"set_temp\000"
 7694      74656D70 
 7694      00
 7695              	.LASF3:
 7696 017d 5F5F7569 		.ascii	"__uint8_t\000"
 7696      6E74385F 
 7696      7400
 7697              	.LASF261:
 7698 0187 4359424C 		.ascii	"CYBLE_EVT_CGMSC_WRITE_CHAR_RESPONSE\000"
 7698      455F4556 
 7698      545F4347 
 7698      4D53435F 
 7698      57524954 
 7699              	.LASF35:
 7700 01ab 4359424C 		.ascii	"CYBLE_EVT_GAP_AUTH_COMPLETE\000"
 7700      455F4556 
 7700      545F4741 
 7700      505F4155 
 7700      54485F43 
 7701              	.LASF125:
 7702 01c7 4359424C 		.ascii	"CYBLE_ERROR_IND_DISABLED\000"
 7702      455F4552 
 7702      524F525F 
 7702      494E445F 
 7702      44495341 
 7703              	.LASF288:
 7704 01e0 4359424C 		.ascii	"CYBLE_EVT_CSCSC_WRITE_CHAR_RESPONSE\000"
 7704      455F4556 
 7704      545F4353 
 7704      4353435F 
 7704      57524954 
 7705              	.LASF535:
 7706 0204 47554955 		.ascii	"GUIUpdateMode\000"
 7706      70646174 
 7706      654D6F64 
 7706      6500
 7707              	.LASF497:
 7708 0212 6576656E 		.ascii	"eventCode\000"
 7708      74436F64 
 7708      6500
 7709              	.LASF433:
 7710 021c 4359424C 		.ascii	"CYBLE_EVT_TPSC_READ_DESCR_RESPONSE\000"
 7710      455F4556 
 7710      545F5450 
 7710      53435F52 
 7710      4541445F 
 7711              	.LASF352:
 7712 023f 4359424C 		.ascii	"CYBLE_EVT_HRSC_WRITE_DESCR_RESPONSE\000"
 7712      455F4556 
 7712      545F4852 
 7712      53435F57 
 7712      52495445 
 7713              	.LASF548:
 7714 0263 69706172 		.ascii	"ipart\000"
 7714      7400
 7715              	.LASF96:
ARM GAS  C:\Users\megan\AppData\Local\Temp\ccrMxWsc.s 			page 158


 7716 0269 4359424C 		.ascii	"CYBLE_ERROR_OK\000"
 7716      455F4552 
 7716      524F525F 
 7716      4F4B00
 7717              	.LASF564:
 7718 0278 6379426C 		.ascii	"cyBle_state\000"
 7718      655F7374 
 7718      61746500 
 7719              	.LASF195:
 7720 0284 4359424C 		.ascii	"CYBLE_EVT_AIOSS_NOTIFICATION_ENABLED\000"
 7720      455F4556 
 7720      545F4149 
 7720      4F53535F 
 7720      4E4F5449 
 7721              	.LASF107:
 7722 02a9 4359424C 		.ascii	"CYBLE_ERROR_BT_ON_NOT_COMPLETED\000"
 7722      455F4552 
 7722      524F525F 
 7722      42545F4F 
 7722      4E5F4E4F 
 7723              	.LASF300:
 7724 02c9 4359424C 		.ascii	"CYBLE_EVT_ESSS_NOTIFICATION_ENABLED\000"
 7724      455F4556 
 7724      545F4553 
 7724      53535F4E 
 7724      4F544946 
 7725              	.LASF244:
 7726 02ed 4359424C 		.ascii	"CYBLE_EVT_BLSC_NOTIFICATION\000"
 7726      455F4556 
 7726      545F424C 
 7726      53435F4E 
 7726      4F544946 
 7727              	.LASF170:
 7728 0309 61747472 		.ascii	"attrValue\000"
 7728      56616C75 
 7728      6500
 7729              	.LASF369:
 7730 0313 4359424C 		.ascii	"CYBLE_EVT_IPSC_WRITE_CHAR_RESPONSE\000"
 7730      455F4556 
 7730      545F4950 
 7730      53435F57 
 7730      52495445 
 7731              	.LASF313:
 7732 0336 4359424C 		.ascii	"CYBLE_EVT_GLSS_INDICATION_ENABLED\000"
 7732      455F4556 
 7732      545F474C 
 7732      53535F49 
 7732      4E444943 
 7733              	.LASF76:
 7734 0358 4359424C 		.ascii	"CYBLE_EVT_GATTS_DATA_SIGNED_CMD_REQ\000"
 7734      455F4556 
 7734      545F4741 
 7734      5454535F 
 7734      44415441 
 7735              	.LASF210:
 7736 037c 4359424C 		.ascii	"CYBLE_EVT_ANCSS_NOTIFICATION_DISABLED\000"
 7736      455F4556 
ARM GAS  C:\Users\megan\AppData\Local\Temp\ccrMxWsc.s 			page 159


 7736      545F414E 
 7736      4353535F 
 7736      4E4F5449 
 7737              	.LASF207:
 7738 03a2 4359424C 		.ascii	"CYBLE_EVT_AIOSC_WRITE_DESCR_RESPONSE\000"
 7738      455F4556 
 7738      545F4149 
 7738      4F53435F 
 7738      57524954 
 7739              	.LASF374:
 7740 03c7 4359424C 		.ascii	"CYBLE_EVT_LLSS_WRITE_CHAR_REQ\000"
 7740      455F4556 
 7740      545F4C4C 
 7740      53535F57 
 7740      52495445 
 7741              	.LASF373:
 7742 03e5 4359424C 		.ascii	"CYBLE_EVT_IPSC_READ_BLOB_RSP\000"
 7742      455F4556 
 7742      545F4950 
 7742      53435F52 
 7742      4541445F 
 7743              	.LASF558:
 7744 0402 626C655F 		.ascii	"ble_state\000"
 7744      73746174 
 7744      6500
 7745              	.LASF12:
 7746 040c 75696E74 		.ascii	"uint16_t\000"
 7746      31365F74 
 7746      00
 7747              	.LASF25:
 7748 0415 4359424C 		.ascii	"CYBLE_EVT_STACK_ON\000"
 7748      455F4556 
 7748      545F5354 
 7748      41434B5F 
 7748      4F4E00
 7749              	.LASF304:
 7750 0428 4359424C 		.ascii	"CYBLE_EVT_ESSS_INDICATION_CONFIRMATION\000"
 7750      455F4556 
 7750      545F4553 
 7750      53535F49 
 7750      4E444943 
 7751              	.LASF281:
 7752 044f 4359424C 		.ascii	"CYBLE_EVT_CSCSS_INDICATION_ENABLED\000"
 7752      455F4556 
 7752      545F4353 
 7752      4353535F 
 7752      494E4449 
 7753              	.LASF140:
 7754 0472 70656572 		.ascii	"peerAddrType\000"
 7754      41646472 
 7754      54797065 
 7754      00
 7755              	.LASF115:
 7756 047f 4359424C 		.ascii	"CYBLE_ERROR_GATT_DB_INVALID_ATTR_HANDLE\000"
 7756      455F4552 
 7756      524F525F 
 7756      47415454 
ARM GAS  C:\Users\megan\AppData\Local\Temp\ccrMxWsc.s 			page 160


 7756      5F44425F 
 7757              	.LASF171:
 7758 04a7 6C656E67 		.ascii	"length\000"
 7758      746800
 7759              	.LASF28:
 7760 04ae 4359424C 		.ascii	"CYBLE_EVT_HCI_STATUS\000"
 7760      455F4556 
 7760      545F4843 
 7760      495F5354 
 7760      41545553 
 7761              	.LASF133:
 7762 04c3 4359424C 		.ascii	"CYBLE_GAPC_CONN_UNDIRECTED_ADV\000"
 7762      455F4741 
 7762      50435F43 
 7762      4F4E4E5F 
 7762      554E4449 
 7763              	.LASF547:
 7764 04e2 6E656761 		.ascii	"negative\000"
 7764      74697665 
 7764      00
 7765              	.LASF33:
 7766 04eb 4359424C 		.ascii	"CYBLE_EVT_GAP_PASSKEY_ENTRY_REQUEST\000"
 7766      455F4556 
 7766      545F4741 
 7766      505F5041 
 7766      53534B45 
 7767              	.LASF427:
 7768 050f 4359424C 		.ascii	"CYBLE_EVT_SCPSC_READ_DESCR_RESPONSE\000"
 7768      455F4556 
 7768      545F5343 
 7768      5053435F 
 7768      52454144 
 7769              	.LASF527:
 7770 0533 6D6F6465 		.ascii	"modes\000"
 7770      7300
 7771              	.LASF308:
 7772 0539 4359424C 		.ascii	"CYBLE_EVT_ESSC_INDICATION\000"
 7772      455F4556 
 7772      545F4553 
 7772      53435F49 
 7772      4E444943 
 7773              	.LASF430:
 7774 0553 4359424C 		.ascii	"CYBLE_EVT_TPSS_NOTIFICATION_DISABLED\000"
 7774      455F4556 
 7774      545F5450 
 7774      53535F4E 
 7774      4F544946 
 7775              	.LASF293:
 7776 0578 4359424C 		.ascii	"CYBLE_EVT_CTSS_CHAR_WRITE\000"
 7776      455F4556 
 7776      545F4354 
 7776      53535F43 
 7776      4841525F 
 7777              	.LASF526:
 7778 0592 62616E6E 		.ascii	"banner\000"
 7778      657200
 7779              	.LASF59:
ARM GAS  C:\Users\megan\AppData\Local\Temp\ccrMxWsc.s 			page 161


 7780 0599 4359424C 		.ascii	"CYBLE_EVT_GATTC_XCHNG_MTU_RSP\000"
 7780      455F4556 
 7780      545F4741 
 7780      5454435F 
 7780      5843484E 
 7781              	.LASF303:
 7782 05b7 4359424C 		.ascii	"CYBLE_EVT_ESSS_INDICATION_DISABLED\000"
 7782      455F4556 
 7782      545F4553 
 7782      53535F49 
 7782      4E444943 
 7783              	.LASF485:
 7784 05da 626F6F6C 		.ascii	"bool\000"
 7784      00
 7785              	.LASF212:
 7786 05df 4359424C 		.ascii	"CYBLE_EVT_ANCSC_NOTIFICATION\000"
 7786      455F4556 
 7786      545F414E 
 7786      4353435F 
 7786      4E4F5449 
 7787              	.LASF572:
 7788 05fc 70656572 		.ascii	"peerAddr\000"
 7788      41646472 
 7788      00
 7789              	.LASF549:
 7790 0605 66706172 		.ascii	"fpart\000"
 7790      7400
 7791              	.LASF259:
 7792 060b 4359424C 		.ascii	"CYBLE_EVT_CGMSC_NOTIFICATION\000"
 7792      455F4556 
 7792      545F4347 
 7792      4D53435F 
 7792      4E4F5449 
 7793              	.LASF64:
 7794 0628 4359424C 		.ascii	"CYBLE_EVT_GATTC_READ_RSP\000"
 7794      455F4556 
 7794      545F4741 
 7794      5454435F 
 7794      52454144 
 7795              	.LASF226:
 7796 0641 4359424C 		.ascii	"CYBLE_EVT_BASS_NOTIFICATION_DISABLED\000"
 7796      455F4556 
 7796      545F4241 
 7796      53535F4E 
 7796      4F544946 
 7797              	.LASF359:
 7798 0666 4359424C 		.ascii	"CYBLE_EVT_HTSC_NOTIFICATION\000"
 7798      455F4556 
 7798      545F4854 
 7798      53435F4E 
 7798      4F544946 
 7799              	.LASF325:
 7800 0682 4359424C 		.ascii	"CYBLE_EVT_HIDSS_NOTIFICATION_ENABLED\000"
 7800      455F4556 
 7800      545F4849 
 7800      4453535F 
 7800      4E4F5449 
ARM GAS  C:\Users\megan\AppData\Local\Temp\ccrMxWsc.s 			page 162


 7801              	.LASF545:
 7802 06a7 5072696E 		.ascii	"PrintInt\000"
 7802      74496E74 
 7802      00
 7803              	.LASF176:
 7804 06b0 4359424C 		.ascii	"CYBLE_GATTC_READ_BY_TYPE_RSP_PARAM_T\000"
 7804      455F4741 
 7804      5454435F 
 7804      52454144 
 7804      5F42595F 
 7805              	.LASF355:
 7806 06d5 4359424C 		.ascii	"CYBLE_EVT_HTSS_INDICATION_ENABLED\000"
 7806      455F4556 
 7806      545F4854 
 7806      53535F49 
 7806      4E444943 
 7807              	.LASF175:
 7808 06f7 4359424C 		.ascii	"CYBLE_GATTC_READ_BY_GRP_RSP_PARAM_T\000"
 7808      455F4741 
 7808      5454435F 
 7808      52454144 
 7808      5F42595F 
 7809              	.LASF505:
 7810 071b 6E6F7469 		.ascii	"notification\000"
 7810      66696361 
 7810      74696F6E 
 7810      00
 7811              	.LASF358:
 7812 0728 4359424C 		.ascii	"CYBLE_EVT_HTSS_CHAR_WRITE\000"
 7812      455F4556 
 7812      545F4854 
 7812      53535F43 
 7812      4841525F 
 7813              	.LASF402:
 7814 0742 4359424C 		.ascii	"CYBLE_EVT_PLXS_INDICATION_CONFIRMATION\000"
 7814      455F4556 
 7814      545F504C 
 7814      58535F49 
 7814      4E444943 
 7815              	.LASF434:
 7816 0769 4359424C 		.ascii	"CYBLE_EVT_TPSC_WRITE_DESCR_RESPONSE\000"
 7816      455F4556 
 7816      545F5450 
 7816      53435F57 
 7816      52495445 
 7817              	.LASF486:
 7818 078d 61637475 		.ascii	"actual_temp\000"
 7818      616C5F74 
 7818      656D7000 
 7819              	.LASF458:
 7820 0799 4359424C 		.ascii	"CYBLE_EVT_WPTSC_READ_CHAR_RESPONSE\000"
 7820      455F4556 
 7820      545F5750 
 7820      5453435F 
 7820      52454144 
 7821              	.LASF49:
 7822 07bc 4359424C 		.ascii	"CYBLE_EVT_GAPC_DIRECT_ADV_REPORT\000"
ARM GAS  C:\Users\megan\AppData\Local\Temp\ccrMxWsc.s 			page 163


 7822      455F4556 
 7822      545F4741 
 7822      50435F44 
 7822      49524543 
 7823              	.LASF302:
 7824 07dd 4359424C 		.ascii	"CYBLE_EVT_ESSS_INDICATION_ENABLED\000"
 7824      455F4556 
 7824      545F4553 
 7824      53535F49 
 7824      4E444943 
 7825              	.LASF13:
 7826 07ff 75696E74 		.ascii	"uint8\000"
 7826      3800
 7827              	.LASF163:
 7828 0805 72616E67 		.ascii	"range\000"
 7828      6500
 7829              	.LASF282:
 7830 080b 4359424C 		.ascii	"CYBLE_EVT_CSCSS_INDICATION_DISABLED\000"
 7830      455F4556 
 7830      545F4353 
 7830      4353535F 
 7830      494E4449 
 7831              	.LASF439:
 7832 082f 4359424C 		.ascii	"CYBLE_EVT_UDSS_NOTIFICATION_DISABLED\000"
 7832      455F4556 
 7832      545F5544 
 7832      53535F4E 
 7832      4F544946 
 7833              	.LASF575:
 7834 0854 62797465 		.ascii	"byte\000"
 7834      00
 7835              	.LASF160:
 7836 0859 73746172 		.ascii	"startHandle\000"
 7836      7448616E 
 7836      646C6500 
 7837              	.LASF479:
 7838 0865 4359424C 		.ascii	"CYBLE_SRVI_CUSTOMS_END\000"
 7838      455F5352 
 7838      56495F43 
 7838      5553544F 
 7838      4D535F45 
 7839              	.LASF126:
 7840 087c 4359424C 		.ascii	"CYBLE_ERROR_CHAR_IS_NOT_DISCOVERED\000"
 7840      455F4552 
 7840      524F525F 
 7840      43484152 
 7840      5F49535F 
 7841              	.LASF343:
 7842 089f 4359424C 		.ascii	"CYBLE_EVT_HPSC_WRITE_DESCR_RESPONSE\000"
 7842      455F4556 
 7842      545F4850 
 7842      53435F57 
 7842      52495445 
 7843              	.LASF230:
 7844 08c3 4359424C 		.ascii	"CYBLE_EVT_BASC_WRITE_DESCR_RESPONSE\000"
 7844      455F4556 
 7844      545F4241 
ARM GAS  C:\Users\megan\AppData\Local\Temp\ccrMxWsc.s 			page 164


 7844      53435F57 
 7844      52495445 
 7845              	.LASF264:
 7846 08e7 4359424C 		.ascii	"CYBLE_EVT_CPSS_NOTIFICATION_ENABLED\000"
 7846      455F4556 
 7846      545F4350 
 7846      53535F4E 
 7846      4F544946 
 7847              	.LASF380:
 7848 090b 4359424C 		.ascii	"CYBLE_EVT_LNSS_NOTIFICATION_ENABLED\000"
 7848      455F4556 
 7848      545F4C4E 
 7848      53535F4E 
 7848      4F544946 
 7849              	.LASF27:
 7850 092f 4359424C 		.ascii	"CYBLE_EVT_HARDWARE_ERROR\000"
 7850      455F4556 
 7850      545F4841 
 7850      52445741 
 7850      52455F45 
 7851              	.LASF254:
 7852 0948 4359424C 		.ascii	"CYBLE_EVT_CGMSS_INDICATION_CONFIRMED\000"
 7852      455F4556 
 7852      545F4347 
 7852      4D53535F 
 7852      494E4449 
 7853              	.LASF97:
 7854 096d 4359424C 		.ascii	"CYBLE_ERROR_INVALID_PARAMETER\000"
 7854      455F4552 
 7854      524F525F 
 7854      494E5641 
 7854      4C49445F 
 7855              	.LASF198:
 7856 098b 4359424C 		.ascii	"CYBLE_EVT_AIOSS_INDICATION_DISABLED\000"
 7856      455F4556 
 7856      545F4149 
 7856      4F53535F 
 7856      494E4449 
 7857              	.LASF396:
 7858 09af 4359424C 		.ascii	"CYBLE_EVT_PASSC_WRITE_DESCR_RESPONSE\000"
 7858      455F4556 
 7858      545F5041 
 7858      5353435F 
 7858      57524954 
 7859              	.LASF489:
 7860 09d4 4F757473 		.ascii	"Outside\000"
 7860      69646500 
 7861              	.LASF388:
 7862 09dc 4359424C 		.ascii	"CYBLE_EVT_LNSC_WRITE_DESCR_RESPONSE\000"
 7862      455F4556 
 7862      545F4C4E 
 7862      53435F57 
 7862      52495445 
 7863              	.LASF488:
 7864 0a00 66616E5F 		.ascii	"fan_on\000"
 7864      6F6E00
 7865              	.LASF191:
ARM GAS  C:\Users\megan\AppData\Local\Temp\ccrMxWsc.s 			page 165


 7866 0a07 4359424C 		.ascii	"CYBLE_EVT_GATTC_SRVC_DISCOVERY_COMPLETE\000"
 7866      455F4556 
 7866      545F4741 
 7866      5454435F 
 7866      53525643 
 7867              	.LASF262:
 7868 0a2f 4359424C 		.ascii	"CYBLE_EVT_CGMSC_READ_DESCR_RESPONSE\000"
 7868      455F4556 
 7868      545F4347 
 7868      4D53435F 
 7868      52454144 
 7869              	.LASF398:
 7870 0a53 4359424C 		.ascii	"CYBLE_EVT_PLXSS_NOTIFICATION_ENABLED\000"
 7870      455F4556 
 7870      545F504C 
 7870      5853535F 
 7870      4E4F5449 
 7871              	.LASF82:
 7872 0a78 4359424C 		.ascii	"CYBLE_EVT_L2CAP_COMMAND_REJ\000"
 7872      455F4556 
 7872      545F4C32 
 7872      4341505F 
 7872      434F4D4D 
 7873              	.LASF164:
 7874 0a94 75756964 		.ascii	"uuid\000"
 7874      00
 7875              	.LASF450:
 7876 0a99 4359424C 		.ascii	"CYBLE_EVT_WPTSS_NOTIFICATION_DISABLED\000"
 7876      455F4556 
 7876      545F5750 
 7876      5453535F 
 7876      4E4F5449 
 7877              	.LASF383:
 7878 0abf 4359424C 		.ascii	"CYBLE_EVT_LNSC_INDICATION\000"
 7878      455F4556 
 7878      545F4C4E 
 7878      53435F49 
 7878      4E444943 
 7879              	.LASF289:
 7880 0ad9 4359424C 		.ascii	"CYBLE_EVT_CSCSC_READ_DESCR_RESPONSE\000"
 7880      455F4556 
 7880      545F4353 
 7880      4353435F 
 7880      52454144 
 7881              	.LASF93:
 7882 0afd 4359424C 		.ascii	"CYBLE_EVT_HCI_PKT\000"
 7882      455F4556 
 7882      545F4843 
 7882      495F504B 
 7882      5400
 7883              	.LASF468:
 7884 0b0f 4359424C 		.ascii	"CYBLE_DEBUG_EVT_BLESS_INT\000"
 7884      455F4445 
 7884      4255475F 
 7884      4556545F 
 7884      424C4553 
 7885              	.LASF131:
ARM GAS  C:\Users\megan\AppData\Local\Temp\ccrMxWsc.s 			page 166


 7886 0b29 74797065 		.ascii	"type\000"
 7886      00
 7887              	.LASF50:
 7888 0b2e 4359424C 		.ascii	"CYBLE_EVT_GAP_SMP_NEGOTIATED_AUTH_INFO\000"
 7888      455F4556 
 7888      545F4741 
 7888      505F534D 
 7888      505F4E45 
 7889              	.LASF370:
 7890 0b55 4359424C 		.ascii	"CYBLE_EVT_IPSC_READ_DESCR_RESPONSE\000"
 7890      455F4556 
 7890      545F4950 
 7890      53435F52 
 7890      4541445F 
 7891              	.LASF203:
 7892 0b78 4359424C 		.ascii	"CYBLE_EVT_AIOSC_INDICATION\000"
 7892      455F4556 
 7892      545F4149 
 7892      4F53435F 
 7892      494E4449 
 7893              	.LASF157:
 7894 0b93 4359424C 		.ascii	"CYBLE_GATT_VALUE_T\000"
 7894      455F4741 
 7894      54545F56 
 7894      414C5545 
 7894      5F5400
 7895              	.LASF421:
 7896 0ba6 4359424C 		.ascii	"CYBLE_EVT_RTUSS_WRITE_CHAR_CMD\000"
 7896      455F4556 
 7896      545F5254 
 7896      5553535F 
 7896      57524954 
 7897              	.LASF4:
 7898 0bc5 5F5F7569 		.ascii	"__uint16_t\000"
 7898      6E743136 
 7898      5F7400
 7899              	.LASF567:
 7900 0bd0 5F776964 		.ascii	"_width\000"
 7900      746800
 7901              	.LASF193:
 7902 0bd7 4359424C 		.ascii	"CYBLE_EVT_GATTC_CHAR_DISCOVERY_COMPLETE\000"
 7902      455F4556 
 7902      545F4741 
 7902      5454435F 
 7902      43484152 
 7903              	.LASF69:
 7904 0bff 4359424C 		.ascii	"CYBLE_EVT_GATTS_WRITE_CMD_REQ\000"
 7904      455F4556 
 7904      545F4741 
 7904      5454535F 
 7904      57524954 
 7905              	.LASF150:
 7906 0c1d 75756964 		.ascii	"uuid128\000"
 7906      31323800 
 7907              	.LASF490:
 7908 0c25 74656D70 		.ascii	"temp\000"
 7908      00
ARM GAS  C:\Users\megan\AppData\Local\Temp\ccrMxWsc.s 			page 167


 7909              	.LASF248:
 7910 0c2a 4359424C 		.ascii	"CYBLE_EVT_BMSS_WRITE_CHAR\000"
 7910      455F4556 
 7910      545F424D 
 7910      53535F57 
 7910      52495445 
 7911              	.LASF389:
 7912 0c44 4359424C 		.ascii	"CYBLE_EVT_NDCSC_READ_CHAR_RESPONSE\000"
 7912      455F4556 
 7912      545F4E44 
 7912      4353435F 
 7912      52454144 
 7913              	.LASF496:
 7914 0c67 6D6F6465 		.ascii	"mode\000"
 7914      00
 7915              	.LASF66:
 7916 0c6c 4359424C 		.ascii	"CYBLE_EVT_GATTC_READ_MULTI_RSP\000"
 7916      455F4556 
 7916      545F4741 
 7916      5454435F 
 7916      52454144 
 7917              	.LASF242:
 7918 0c8b 4359424C 		.ascii	"CYBLE_EVT_BLSS_NOTIFICATION_DISABLED\000"
 7918      455F4556 
 7918      545F424C 
 7918      53535F4E 
 7918      4F544946 
 7919              	.LASF473:
 7920 0cb0 4359424C 		.ascii	"CYBLE_STATE_CONNECTING\000"
 7920      455F5354 
 7920      4154455F 
 7920      434F4E4E 
 7920      45435449 
 7921              	.LASF55:
 7922 0cc7 4359424C 		.ascii	"CYBLE_EVT_GATTC_ERROR_RSP\000"
 7922      455F4556 
 7922      545F4741 
 7922      5454435F 
 7922      4552524F 
 7923              	.LASF530:
 7924 0ce1 696E666F 		.ascii	"info\000"
 7924      00
 7925              	.LASF180:
 7926 0ce6 4359424C 		.ascii	"CYBLE_KEY_EXCHANGE_INFO_REQUEST_REPLY\000"
 7926      455F4B45 
 7926      595F4558 
 7926      4348414E 
 7926      47455F49 
 7927              	.LASF577:
 7928 0d0c 474E5520 		.ascii	"GNU C11 5.4.1 20160609 (release) [ARM/embedded-5-br"
 7928      43313120 
 7928      352E342E 
 7928      31203230 
 7928      31363036 
 7929 0d3f 616E6368 		.ascii	"anch revision 237715] -mcpu=cortex-m0 -mthumb -g -O"
 7929      20726576 
 7929      6973696F 
ARM GAS  C:\Users\megan\AppData\Local\Temp\ccrMxWsc.s 			page 168


 7929      6E203233 
 7929      37373135 
 7930 0d72 30202D66 		.ascii	"0 -ffunction-sections -ffat-lto-objects\000"
 7930      66756E63 
 7930      74696F6E 
 7930      2D736563 
 7930      74696F6E 
 7931              	.LASF491:
 7932 0d9a 52413838 		.ascii	"RA8875sizes\000"
 7932      37357369 
 7932      7A657300 
 7933              	.LASF1:
 7934 0da6 756E7369 		.ascii	"unsigned char\000"
 7934      676E6564 
 7934      20636861 
 7934      7200
 7935              	.LASF37:
 7936 0db4 4359424C 		.ascii	"CYBLE_EVT_GAPP_ADVERTISEMENT_START_STOP\000"
 7936      455F4556 
 7936      545F4741 
 7936      50505F41 
 7936      44564552 
 7937              	.LASF122:
 7938 0ddc 4359424C 		.ascii	"CYBLE_ERROR_CONTROLLER_BUSY\000"
 7938      455F4552 
 7938      524F525F 
 7938      434F4E54 
 7938      524F4C4C 
 7939              	.LASF18:
 7940 0df8 666C6F61 		.ascii	"float\000"
 7940      7400
 7941              	.LASF290:
 7942 0dfe 4359424C 		.ascii	"CYBLE_EVT_CSCSC_WRITE_DESCR_RESPONSE\000"
 7942      455F4556 
 7942      545F4353 
 7942      4353435F 
 7942      57524954 
 7943              	.LASF336:
 7944 0e23 4359424C 		.ascii	"CYBLE_EVT_HIDSC_WRITE_DESCR_RESPONSE\000"
 7944      455F4556 
 7944      545F4849 
 7944      4453435F 
 7944      57524954 
 7945              	.LASF529:
 7946 0e48 6175746F 		.ascii	"automatic\000"
 7946      6D617469 
 7946      6300
 7947              	.LASF62:
 7948 0e52 4359424C 		.ascii	"CYBLE_EVT_GATTC_FIND_INFO_RSP\000"
 7948      455F4556 
 7948      545F4741 
 7948      5454435F 
 7948      46494E44 
 7949              	.LASF561:
 7950 0e70 44656661 		.ascii	"DefaultValues\000"
 7950      756C7456 
 7950      616C7565 
ARM GAS  C:\Users\megan\AppData\Local\Temp\ccrMxWsc.s 			page 169


 7950      7300
 7951              	.LASF83:
 7952 0e7e 4359424C 		.ascii	"CYBLE_EVT_L2CAP_CBFC_CONN_IND\000"
 7952      455F4556 
 7952      545F4C32 
 7952      4341505F 
 7952      43424643 
 7953              	.LASF570:
 7954 0e9c 5F73697A 		.ascii	"_size\000"
 7954      6500
 7955              	.LASF213:
 7956 0ea2 4359424C 		.ascii	"CYBLE_EVT_ANCSC_WRITE_CHAR_RESPONSE\000"
 7956      455F4556 
 7956      545F414E 
 7956      4353435F 
 7956      57524954 
 7957              	.LASF377:
 7958 0ec6 4359424C 		.ascii	"CYBLE_EVT_LNSS_INDICATION_ENABLED\000"
 7958      455F4556 
 7958      545F4C4E 
 7958      53535F49 
 7958      4E444943 
 7959              	.LASF85:
 7960 0ee8 4359424C 		.ascii	"CYBLE_EVT_L2CAP_CBFC_DISCONN_IND\000"
 7960      455F4556 
 7960      545F4C32 
 7960      4341505F 
 7960      43424643 
 7961              	.LASF205:
 7962 0f09 4359424C 		.ascii	"CYBLE_EVT_AIOSC_WRITE_CHAR_RESPONSE\000"
 7962      455F4556 
 7962      545F4149 
 7962      4F53435F 
 7962      57524954 
 7963              	.LASF552:
 7964 0f2d 7265675F 		.ascii	"reg_result\000"
 7964      72657375 
 7964      6C7400
 7965              	.LASF275:
 7966 0f38 4359424C 		.ascii	"CYBLE_EVT_CPSC_WRITE_CHAR_RESPONSE\000"
 7966      455F4556 
 7966      545F4350 
 7966      53435F57 
 7966      52495445 
 7967              	.LASF32:
 7968 0f5b 4359424C 		.ascii	"CYBLE_EVT_GAP_AUTH_REQ\000"
 7968      455F4556 
 7968      545F4741 
 7968      505F4155 
 7968      54485F52 
 7969              	.LASF208:
 7970 0f72 4359424C 		.ascii	"CYBLE_EVT_AIOSC_ERROR_RESPONSE\000"
 7970      455F4556 
 7970      545F4149 
 7970      4F53435F 
 7970      4552524F 
 7971              	.LASF238:
ARM GAS  C:\Users\megan\AppData\Local\Temp\ccrMxWsc.s 			page 170


 7972 0f91 4359424C 		.ascii	"CYBLE_EVT_BLSS_INDICATION_ENABLED\000"
 7972      455F4556 
 7972      545F424C 
 7972      53535F49 
 7972      4E444943 
 7973              	.LASF335:
 7974 0fb3 4359424C 		.ascii	"CYBLE_EVT_HIDSC_READ_DESCR_RESPONSE\000"
 7974      455F4556 
 7974      545F4849 
 7974      4453435F 
 7974      52454144 
 7975              	.LASF517:
 7976 0fd7 4C434449 		.ascii	"LCDInitDemo\000"
 7976      6E697444 
 7976      656D6F00 
 7977              	.LASF142:
 7978 0fe3 64617461 		.ascii	"dataLen\000"
 7978      4C656E00 
 7979              	.LASF141:
 7980 0feb 70656572 		.ascii	"peerBdAddr\000"
 7980      42644164 
 7980      647200
 7981              	.LASF425:
 7982 0ff6 4359424C 		.ascii	"CYBLE_EVT_SCPSS_SCAN_INT_WIN_CHAR_WRITE\000"
 7982      455F4556 
 7982      545F5343 
 7982      5053535F 
 7982      5343414E 
 7983              	.LASF250:
 7984 101e 4359424C 		.ascii	"CYBLE_EVT_BMSC_WRITE_CHAR_RESPONSE\000"
 7984      455F4556 
 7984      545F424D 
 7984      53435F57 
 7984      52495445 
 7985              	.LASF471:
 7986 1041 4359424C 		.ascii	"CYBLE_STATE_CONNECTED\000"
 7986      455F5354 
 7986      4154455F 
 7986      434F4E4E 
 7986      45435445 
 7987              	.LASF419:
 7988 1057 4359424C 		.ascii	"CYBLE_EVT_RSCSC_READ_DESCR_RESPONSE\000"
 7988      455F4556 
 7988      545F5253 
 7988      4353435F 
 7988      52454144 
 7989              	.LASF404:
 7990 107b 4359424C 		.ascii	"CYBLE_EVT_PLXSC_INDICATION\000"
 7990      455F4556 
 7990      545F504C 
 7990      5853435F 
 7990      494E4449 
 7991              	.LASF298:
 7992 1096 4359424C 		.ascii	"CYBLE_EVT_CTSC_WRITE_CHAR_RESPONSE\000"
 7992      455F4556 
 7992      545F4354 
 7992      53435F57 
ARM GAS  C:\Users\megan\AppData\Local\Temp\ccrMxWsc.s 			page 171


 7992      52495445 
 7993              	.LASF114:
 7994 10b9 4359424C 		.ascii	"CYBLE_ERROR_L2CAP_PSM_NOT_IN_RANGE\000"
 7994      455F4552 
 7994      524F525F 
 7994      4C324341 
 7994      505F5053 
 7995              	.LASF128:
 7996 10dc 4359424C 		.ascii	"CYBLE_ERROR_STACK_BUSY\000"
 7996      455F4552 
 7996      524F525F 
 7996      53544143 
 7996      4B5F4255 
 7997              	.LASF449:
 7998 10f3 4359424C 		.ascii	"CYBLE_EVT_WPTSS_NOTIFICATION_ENABLED\000"
 7998      455F4556 
 7998      545F5750 
 7998      5453535F 
 7998      4E4F5449 
 7999              	.LASF387:
 8000 1118 4359424C 		.ascii	"CYBLE_EVT_LNSC_READ_DESCR_RESPONSE\000"
 8000      455F4556 
 8000      545F4C4E 
 8000      53435F52 
 8000      4541445F 
 8001              	.LASF426:
 8002 113b 4359424C 		.ascii	"CYBLE_EVT_SCPSC_NOTIFICATION\000"
 8002      455F4556 
 8002      545F5343 
 8002      5053435F 
 8002      4E4F5449 
 8003              	.LASF428:
 8004 1158 4359424C 		.ascii	"CYBLE_EVT_SCPSC_WRITE_DESCR_RESPONSE\000"
 8004      455F4556 
 8004      545F5343 
 8004      5053435F 
 8004      57524954 
 8005              	.LASF177:
 8006 117d 4359424C 		.ascii	"CYBLE_AUTHENTICATION_REQUEST_REPLY\000"
 8006      455F4155 
 8006      5448454E 
 8006      54494341 
 8006      54494F4E 
 8007              	.LASF31:
 8008 11a0 4359424C 		.ascii	"CYBLE_EVT_GAPC_SCAN_PROGRESS_RESULT\000"
 8008      455F4556 
 8008      545F4741 
 8008      50435F53 
 8008      43414E5F 
 8009              	.LASF442:
 8010 11c4 4359424C 		.ascii	"CYBLE_EVT_UDSC_INDICATION\000"
 8010      455F4556 
 8010      545F5544 
 8010      53435F49 
 8010      4E444943 
 8011              	.LASF278:
 8012 11de 4359424C 		.ascii	"CYBLE_EVT_CPSC_SCAN_PROGRESS_RESULT\000"
ARM GAS  C:\Users\megan\AppData\Local\Temp\ccrMxWsc.s 			page 172


 8012      455F4556 
 8012      545F4350 
 8012      53435F53 
 8012      43414E5F 
 8013              	.LASF294:
 8014 1202 4359424C 		.ascii	"CYBLE_EVT_CTSC_NOTIFICATION\000"
 8014      455F4556 
 8014      545F4354 
 8014      53435F4E 
 8014      4F544946 
 8015              	.LASF222:
 8016 121e 4359424C 		.ascii	"CYBLE_EVT_ANSC_WRITE_CHAR_RESPONSE\000"
 8016      455F4556 
 8016      545F414E 
 8016      53435F57 
 8016      52495445 
 8017              	.LASF360:
 8018 1241 4359424C 		.ascii	"CYBLE_EVT_HTSC_INDICATION\000"
 8018      455F4556 
 8018      545F4854 
 8018      53435F49 
 8018      4E444943 
 8019              	.LASF26:
 8020 125b 4359424C 		.ascii	"CYBLE_EVT_TIMEOUT\000"
 8020      455F4556 
 8020      545F5449 
 8020      4D454F55 
 8020      5400
 8021              	.LASF435:
 8022 126d 4359424C 		.ascii	"CYBLE_EVT_UDSS_INDICATION_ENABLED\000"
 8022      455F4556 
 8022      545F5544 
 8022      53535F49 
 8022      4E444943 
 8023              	.LASF236:
 8024 128f 4359424C 		.ascii	"CYBLE_EVT_BCSC_READ_DESCR_RESPONSE\000"
 8024      455F4556 
 8024      545F4243 
 8024      53435F52 
 8024      4541445F 
 8025              	.LASF408:
 8026 12b2 4359424C 		.ascii	"CYBLE_EVT_PLXSC_WRITE_DESCR_RESPONSE\000"
 8026      455F4556 
 8026      545F504C 
 8026      5853435F 
 8026      57524954 
 8027              	.LASF395:
 8028 12d7 4359424C 		.ascii	"CYBLE_EVT_PASSC_READ_DESCR_RESPONSE\000"
 8028      455F4556 
 8028      545F5041 
 8028      5353435F 
 8028      52454144 
 8029              	.LASF153:
 8030 12fb 62644861 		.ascii	"bdHandle\000"
 8030      6E646C65 
 8030      00
 8031              	.LASF194:
ARM GAS  C:\Users\megan\AppData\Local\Temp\ccrMxWsc.s 			page 173


 8032 1304 4359424C 		.ascii	"CYBLE_EVT_GATTC_DISCOVERY_COMPLETE\000"
 8032      455F4556 
 8032      545F4741 
 8032      5454435F 
 8032      44495343 
 8033              	.LASF186:
 8034 1327 4359424C 		.ascii	"CYBLE_EVT_GATTC_CHAR_DISCOVERY_FAILED\000"
 8034      455F4556 
 8034      545F4741 
 8034      5454435F 
 8034      43484152 
 8035              	.LASF456:
 8036 134d 4359424C 		.ascii	"CYBLE_EVT_WPTSC_INDICATION\000"
 8036      455F4556 
 8036      545F5750 
 8036      5453435F 
 8036      494E4449 
 8037              	.LASF92:
 8038 1368 4359424C 		.ascii	"CYBLE_EVT_LE_PING_AUTH_TIMEOUT\000"
 8038      455F4556 
 8038      545F4C45 
 8038      5F50494E 
 8038      475F4155 
 8039              	.LASF349:
 8040 1387 4359424C 		.ascii	"CYBLE_EVT_HRSC_READ_CHAR_RESPONSE\000"
 8040      455F4556 
 8040      545F4852 
 8040      53435F52 
 8040      4541445F 
 8041              	.LASF104:
 8042 13a9 4359424C 		.ascii	"CYBLE_ERROR_REPEATED_ATTEMPTS\000"
 8042      455F4552 
 8042      524F525F 
 8042      52455045 
 8042      41544544 
 8043              	.LASF17:
 8044 13c7 666C6F61 		.ascii	"float32\000"
 8044      74333200 
 8045              	.LASF211:
 8046 13cf 4359424C 		.ascii	"CYBLE_EVT_ANCSS_WRITE_CHAR\000"
 8046      455F4556 
 8046      545F414E 
 8046      4353535F 
 8046      57524954 
 8047              	.LASF90:
 8048 13ea 4359424C 		.ascii	"CYBLE_EVT_L2CAP_CBFC_DATA_WRITE_IND\000"
 8048      455F4556 
 8048      545F4C32 
 8048      4341505F 
 8048      43424643 
 8049              	.LASF235:
 8050 140e 4359424C 		.ascii	"CYBLE_EVT_BCSC_READ_CHAR_RESPONSE\000"
 8050      455F4556 
 8050      545F4243 
 8050      53435F52 
 8050      4541445F 
 8051              	.LASF73:
ARM GAS  C:\Users\megan\AppData\Local\Temp\ccrMxWsc.s 			page 174


 8052 1430 4359424C 		.ascii	"CYBLE_EVT_GATTC_HANDLE_VALUE_NTF\000"
 8052      455F4556 
 8052      545F4741 
 8052      5454435F 
 8052      48414E44 
 8053              	.LASF130:
 8054 1451 62644164 		.ascii	"bdAddr\000"
 8054      647200
 8055              	.LASF209:
 8056 1458 4359424C 		.ascii	"CYBLE_EVT_ANCSS_NOTIFICATION_ENABLED\000"
 8056      455F4556 
 8056      545F414E 
 8056      4353535F 
 8056      4E4F5449 
 8057              	.LASF415:
 8058 147d 4359424C 		.ascii	"CYBLE_EVT_RSCSC_NOTIFICATION\000"
 8058      455F4556 
 8058      545F5253 
 8058      4353435F 
 8058      4E4F5449 
 8059              	.LASF315:
 8060 149a 4359424C 		.ascii	"CYBLE_EVT_GLSS_INDICATION_CONFIRMED\000"
 8060      455F4556 
 8060      545F474C 
 8060      53535F49 
 8060      4E444943 
 8061              	.LASF507:
 8062 14be 72656164 		.ascii	"readByTypeReqParam\000"
 8062      42795479 
 8062      70655265 
 8062      71506172 
 8062      616D00
 8063              	.LASF406:
 8064 14d1 4359424C 		.ascii	"CYBLE_EVT_PLXSC_WRITE_CHAR_RESPONSE\000"
 8064      455F4556 
 8064      545F504C 
 8064      5853435F 
 8064      57524954 
 8065              	.LASF441:
 8066 14f5 4359424C 		.ascii	"CYBLE_EVT_UDSS_WRITE_CHAR\000"
 8066      455F4556 
 8066      545F5544 
 8066      53535F57 
 8066      52495445 
 8067              	.LASF196:
 8068 150f 4359424C 		.ascii	"CYBLE_EVT_AIOSS_NOTIFICATION_DISABLED\000"
 8068      455F4556 
 8068      545F4149 
 8068      4F53535F 
 8068      4E4F5449 
 8069              	.LASF499:
 8070 1535 6572726F 		.ascii	"error\000"
 8070      7200
 8071              	.LASF362:
 8072 153b 4359424C 		.ascii	"CYBLE_EVT_HTSC_WRITE_CHAR_RESPONSE\000"
 8072      455F4556 
 8072      545F4854 
ARM GAS  C:\Users\megan\AppData\Local\Temp\ccrMxWsc.s 			page 175


 8072      53435F57 
 8072      52495445 
 8073              	.LASF124:
 8074 155e 4359424C 		.ascii	"CYBLE_ERROR_NTF_DISABLED\000"
 8074      455F4552 
 8074      524F525F 
 8074      4E54465F 
 8074      44495341 
 8075              	.LASF11:
 8076 1577 75696E74 		.ascii	"uint8_t\000"
 8076      385F7400 
 8077              	.LASF284:
 8078 157f 4359424C 		.ascii	"CYBLE_EVT_CSCSS_CHAR_WRITE\000"
 8078      455F4556 
 8078      545F4353 
 8078      4353535F 
 8078      43484152 
 8079              	.LASF129:
 8080 159a 4359424C 		.ascii	"CYBLE_API_RESULT_T\000"
 8080      455F4150 
 8080      495F5245 
 8080      53554C54 
 8080      5F5400
 8081              	.LASF368:
 8082 15ad 4359424C 		.ascii	"CYBLE_EVT_IPSC_READ_MULTIPLE_CHAR_RESPONSE\000"
 8082      455F4556 
 8082      545F4950 
 8082      53435F52 
 8082      4541445F 
 8083              	.LASF504:
 8084 15d8 73706163 		.ascii	"space\000"
 8084      6500
 8085              	.LASF161:
 8086 15de 656E6448 		.ascii	"endHandle\000"
 8086      616E646C 
 8086      6500
 8087              	.LASF500:
 8088 15e8 70617261 		.ascii	"param\000"
 8088      6D00
 8089              	.LASF437:
 8090 15ee 4359424C 		.ascii	"CYBLE_EVT_UDSS_INDICATION_CONFIRMED\000"
 8090      455F4556 
 8090      545F5544 
 8090      53535F49 
 8090      4E444943 
 8091              	.LASF463:
 8092 1612 4359424C 		.ascii	"CYBLE_EVT_WSSS_INDICATION_CONFIRMED\000"
 8092      455F4556 
 8092      545F5753 
 8092      53535F49 
 8092      4E444943 
 8093              	.LASF469:
 8094 1636 4359424C 		.ascii	"CYBLE_STATE_STOPPED\000"
 8094      455F5354 
 8094      4154455F 
 8094      53544F50 
 8094      50454400 
ARM GAS  C:\Users\megan\AppData\Local\Temp\ccrMxWsc.s 			page 176


 8095              	.LASF187:
 8096 164a 4359424C 		.ascii	"CYBLE_EVT_GATTC_DESCR_DISCOVERY_FAILED\000"
 8096      455F4556 
 8096      545F4741 
 8096      5454435F 
 8096      44455343 
 8097              	.LASF47:
 8098 1671 4359424C 		.ascii	"CYBLE_EVT_GAP_DATA_LENGTH_CHANGE\000"
 8098      455F4556 
 8098      545F4741 
 8098      505F4441 
 8098      54415F4C 
 8099              	.LASF555:
 8100 1692 61706952 		.ascii	"apiResult\000"
 8100      6573756C 
 8100      7400
 8101              	.LASF87:
 8102 169c 4359424C 		.ascii	"CYBLE_EVT_L2CAP_CBFC_DATA_READ\000"
 8102      455F4556 
 8102      545F4C32 
 8102      4341505F 
 8102      43424643 
 8103              	.LASF118:
 8104 16bb 4359424C 		.ascii	"CYBLE_ERROR_MIC_AUTH_FAILED\000"
 8104      455F4552 
 8104      524F525F 
 8104      4D49435F 
 8104      41555448 
 8105              	.LASF559:
 8106 16d7 70657269 		.ascii	"peripheral_addr\000"
 8106      70686572 
 8106      616C5F61 
 8106      64647200 
 8107              	.LASF540:
 8108 16e7 53746163 		.ascii	"StackEventHandler\000"
 8108      6B457665 
 8108      6E744861 
 8108      6E646C65 
 8108      7200
 8109              	.LASF263:
 8110 16f9 4359424C 		.ascii	"CYBLE_EVT_CGMSC_WRITE_DESCR_RESPONSE\000"
 8110      455F4556 
 8110      545F4347 
 8110      4D53435F 
 8110      57524954 
 8111              	.LASF563:
 8112 171e 46616E55 		.ascii	"FanUpdate\000"
 8112      70646174 
 8112      6500
 8113              	.LASF534:
 8114 1728 7363725F 		.ascii	"scr_height\000"
 8114      68656967 
 8114      687400
 8115              	.LASF260:
 8116 1733 4359424C 		.ascii	"CYBLE_EVT_CGMSC_READ_CHAR_RESPONSE\000"
 8116      455F4556 
 8116      545F4347 
ARM GAS  C:\Users\megan\AppData\Local\Temp\ccrMxWsc.s 			page 177


 8116      4D53435F 
 8116      52454144 
 8117              	.LASF139:
 8118 1756 6576656E 		.ascii	"eventType\000"
 8118      74547970 
 8118      6500
 8119              	.LASF65:
 8120 1760 4359424C 		.ascii	"CYBLE_EVT_GATTC_READ_BLOB_RSP\000"
 8120      455F4556 
 8120      545F4741 
 8120      5454435F 
 8120      52454144 
 8121              	.LASF324:
 8122 177e 4359424C 		.ascii	"CYBLE_EVT_GLSC_WRITE_DESCR_RESPONSE\000"
 8122      455F4556 
 8122      545F474C 
 8122      53435F57 
 8122      52495445 
 8123              	.LASF30:
 8124 17a2 4359424C 		.ascii	"CYBLE_EVT_MEMORY_REQUEST\000"
 8124      455F4556 
 8124      545F4D45 
 8124      4D4F5259 
 8124      5F524551 
 8125              	.LASF71:
 8126 17bb 4359424C 		.ascii	"CYBLE_EVT_GATTS_EXEC_WRITE_REQ\000"
 8126      455F4556 
 8126      545F4741 
 8126      5454535F 
 8126      45584543 
 8127              	.LASF241:
 8128 17da 4359424C 		.ascii	"CYBLE_EVT_BLSS_NOTIFICATION_ENABLED\000"
 8128      455F4556 
 8128      545F424C 
 8128      53535F4E 
 8128      4F544946 
 8129              	.LASF345:
 8130 17fe 4359424C 		.ascii	"CYBLE_EVT_HRSS_ENERGY_EXPENDED_RESET\000"
 8130      455F4556 
 8130      545F4852 
 8130      53535F45 
 8130      4E455247 
 8131              	.LASF472:
 8132 1823 4359424C 		.ascii	"CYBLE_STATE_SCANNING\000"
 8132      455F5354 
 8132      4154455F 
 8132      5343414E 
 8132      4E494E47 
 8133              	.LASF116:
 8134 1838 4359424C 		.ascii	"CYBLE_ERROR_DEVICE_ALREADY_EXISTS\000"
 8134      455F4552 
 8134      524F525F 
 8134      44455649 
 8134      43455F41 
 8135              	.LASF168:
 8136 185a 68616E64 		.ascii	"handleValPair\000"
 8136      6C655661 
ARM GAS  C:\Users\megan\AppData\Local\Temp\ccrMxWsc.s 			page 178


 8136      6C506169 
 8136      7200
 8137              	.LASF344:
 8138 1868 4359424C 		.ascii	"CYBLE_EVT_HPSC_WRITE_CHAR_RESPONSE\000"
 8138      455F4556 
 8138      545F4850 
 8138      53435F57 
 8138      52495445 
 8139              	.LASF112:
 8140 188b 4359424C 		.ascii	"CYBLE_ERROR_L2CAP_CONNECTION_ENTITY_NOT_FOUND\000"
 8140      455F4552 
 8140      524F525F 
 8140      4C324341 
 8140      505F434F 
 8141              	.LASF551:
 8142 18b9 73697A65 		.ascii	"size_result\000"
 8142      5F726573 
 8142      756C7400 
 8143              	.LASF105:
 8144 18c5 4359424C 		.ascii	"CYBLE_ERROR_GAP_ROLE\000"
 8144      455F4552 
 8144      524F525F 
 8144      4741505F 
 8144      524F4C45 
 8145              	.LASF357:
 8146 18da 4359424C 		.ascii	"CYBLE_EVT_HTSS_INDICATION_CONFIRMED\000"
 8146      455F4556 
 8146      545F4854 
 8146      53535F49 
 8146      4E444943 
 8147              	.LASF147:
 8148 18fe 76616C75 		.ascii	"value\000"
 8148      6500
 8149              	.LASF447:
 8150 1904 4359424C 		.ascii	"CYBLE_EVT_UDSC_WRITE_DESCR_RESPONSE\000"
 8150      455F4556 
 8150      545F5544 
 8150      53435F57 
 8150      52495445 
 8151              	.LASF462:
 8152 1928 4359424C 		.ascii	"CYBLE_EVT_WSSS_INDICATION_DISABLED\000"
 8152      455F4556 
 8152      545F5753 
 8152      53535F49 
 8152      4E444943 
 8153              	.LASF467:
 8154 194b 4359424C 		.ascii	"CYBLE_EVT_WSSC_WRITE_DESCR_RESPONSE\000"
 8154      455F4556 
 8154      545F5753 
 8154      53435F57 
 8154      52495445 
 8155              	.LASF251:
 8156 196f 4359424C 		.ascii	"CYBLE_EVT_BMSC_READ_DESCR_RESPONSE\000"
 8156      455F4556 
 8156      545F424D 
 8156      53435F52 
 8156      4541445F 
ARM GAS  C:\Users\megan\AppData\Local\Temp\ccrMxWsc.s 			page 179


 8157              	.LASF519:
 8158 1992 77616974 		.ascii	"waiting\000"
 8158      696E6700 
 8159              	.LASF217:
 8160 199a 4359424C 		.ascii	"CYBLE_EVT_ANSS_NOTIFICATION_ENABLED\000"
 8160      455F4556 
 8160      545F414E 
 8160      53535F4E 
 8160      4F544946 
 8161              	.LASF474:
 8162 19be 4359424C 		.ascii	"CYBLE_STATE_DISCONNECTED\000"
 8162      455F5354 
 8162      4154455F 
 8162      44495343 
 8162      4F4E4E45 
 8163              	.LASF417:
 8164 19d7 4359424C 		.ascii	"CYBLE_EVT_RSCSC_READ_CHAR_RESPONSE\000"
 8164      455F4556 
 8164      545F5253 
 8164      4353435F 
 8164      52454144 
 8165              	.LASF57:
 8166 19fa 4359424C 		.ascii	"CYBLE_EVT_GATT_DISCONNECT_IND\000"
 8166      455F4556 
 8166      545F4741 
 8166      54545F44 
 8166      4953434F 
 8167              	.LASF296:
 8168 1a18 4359424C 		.ascii	"CYBLE_EVT_CTSC_READ_DESCR_RESPONSE\000"
 8168      455F4556 
 8168      545F4354 
 8168      53435F52 
 8168      4541445F 
 8169              	.LASF179:
 8170 1a3b 4359424C 		.ascii	"CYBLE_LONG_TERM_KEY_REQUEST_REPLY\000"
 8170      455F4C4F 
 8170      4E475F54 
 8170      45524D5F 
 8170      4B45595F 
 8171              	.LASF16:
 8172 1a5d 696E7438 		.ascii	"int8\000"
 8172      00
 8173              	.LASF478:
 8174 1a62 4359424C 		.ascii	"CYBLE_SRVI_CUSTOMS\000"
 8174      455F5352 
 8174      56495F43 
 8174      5553544F 
 8174      4D5300
 8175              	.LASF502:
 8176 1a75 73657276 		.ascii	"serviceCount\000"
 8176      69636543 
 8176      6F756E74 
 8176      00
 8177              	.LASF401:
 8178 1a82 4359424C 		.ascii	"CYBLE_EVT_PLXSS_INDICATION_DISABLED\000"
 8178      455F4556 
 8178      545F504C 
ARM GAS  C:\Users\megan\AppData\Local\Temp\ccrMxWsc.s 			page 180


 8178      5853535F 
 8178      494E4449 
 8179              	.LASF149:
 8180 1aa6 75756964 		.ascii	"uuid16\000"
 8180      313600
 8181              	.LASF292:
 8182 1aad 4359424C 		.ascii	"CYBLE_EVT_CTSS_NOTIFICATION_DISABLED\000"
 8182      455F4556 
 8182      545F4354 
 8182      53535F4E 
 8182      4F544946 
 8183              	.LASF330:
 8184 1ad2 4359424C 		.ascii	"CYBLE_EVT_HIDSS_EXIT_SUSPEND\000"
 8184      455F4556 
 8184      545F4849 
 8184      4453535F 
 8184      45584954 
 8185              	.LASF353:
 8186 1aef 4359424C 		.ascii	"CYBLE_EVT_HTSS_NOTIFICATION_ENABLED\000"
 8186      455F4556 
 8186      545F4854 
 8186      53535F4E 
 8186      4F544946 
 8187              	.LASF365:
 8188 1b13 4359424C 		.ascii	"CYBLE_EVT_IASS_WRITE_CHAR_CMD\000"
 8188      455F4556 
 8188      545F4941 
 8188      53535F57 
 8188      52495445 
 8189              	.LASF356:
 8190 1b31 4359424C 		.ascii	"CYBLE_EVT_HTSS_INDICATION_DISABLED\000"
 8190      455F4556 
 8190      545F4854 
 8190      53535F49 
 8190      4E444943 
 8191              	.LASF81:
 8192 1b54 4359424C 		.ascii	"CYBLE_EVT_L2CAP_CONN_PARAM_UPDATE_RSP\000"
 8192      455F4556 
 8192      545F4C32 
 8192      4341505F 
 8192      434F4E4E 
 8193              	.LASF346:
 8194 1b7a 4359424C 		.ascii	"CYBLE_EVT_HRSS_NOTIFICATION_ENABLED\000"
 8194      455F4556 
 8194      545F4852 
 8194      53535F4E 
 8194      4F544946 
 8195              	.LASF204:
 8196 1b9e 4359424C 		.ascii	"CYBLE_EVT_AIOSC_READ_CHAR_RESPONSE\000"
 8196      455F4556 
 8196      545F4149 
 8196      4F53435F 
 8196      52454144 
 8197              	.LASF372:
 8198 1bc1 4359424C 		.ascii	"CYBLE_EVT_IPSC_ERROR_RESPONSE\000"
 8198      455F4556 
 8198      545F4950 
ARM GAS  C:\Users\megan\AppData\Local\Temp\ccrMxWsc.s 			page 181


 8198      53435F45 
 8198      52524F52 
 8199              	.LASF265:
 8200 1bdf 4359424C 		.ascii	"CYBLE_EVT_CPSS_NOTIFICATION_DISABLED\000"
 8200      455F4556 
 8200      545F4350 
 8200      53535F4E 
 8200      4F544946 
 8201              	.LASF537:
 8202 1c04 47554955 		.ascii	"GUIUpdateOutsideTemp\000"
 8202      70646174 
 8202      654F7574 
 8202      73696465 
 8202      54656D70 
 8203              	.LASF137:
 8204 1c19 4359424C 		.ascii	"CYBLE_GAPC_SCAN_RSP\000"
 8204      455F4741 
 8204      50435F53 
 8204      43414E5F 
 8204      52535000 
 8205              	.LASF192:
 8206 1c2d 4359424C 		.ascii	"CYBLE_EVT_GATTC_INCL_DISCOVERY_COMPLETE\000"
 8206      455F4556 
 8206      545F4741 
 8206      5454435F 
 8206      494E434C 
 8207              	.LASF391:
 8208 1c55 4359424C 		.ascii	"CYBLE_EVT_PASSS_NOTIFICATION_DISABLED\000"
 8208      455F4556 
 8208      545F5041 
 8208      5353535F 
 8208      4E4F5449 
 8209              	.LASF223:
 8210 1c7b 4359424C 		.ascii	"CYBLE_EVT_ANSC_READ_DESCR_RESPONSE\000"
 8210      455F4556 
 8210      545F414E 
 8210      53435F52 
 8210      4541445F 
 8211              	.LASF328:
 8212 1c9e 4359424C 		.ascii	"CYBLE_EVT_HIDSS_REPORT_MODE_ENTER\000"
 8212      455F4556 
 8212      545F4849 
 8212      4453535F 
 8212      5245504F 
 8213              	.LASF477:
 8214 1cc0 4359424C 		.ascii	"CYBLE_SRVI_GATT\000"
 8214      455F5352 
 8214      56495F47 
 8214      41545400 
 8215              	.LASF533:
 8216 1cd0 7363725F 		.ascii	"scr_width\000"
 8216      77696474 
 8216      6800
 8217              	.LASF466:
 8218 1cda 4359424C 		.ascii	"CYBLE_EVT_WSSC_READ_DESCR_RESPONSE\000"
 8218      455F4556 
 8218      545F5753 
ARM GAS  C:\Users\megan\AppData\Local\Temp\ccrMxWsc.s 			page 182


 8218      53435F52 
 8218      4541445F 
 8219              	.LASF475:
 8220 1cfd 4359424C 		.ascii	"CYBLE_STATE_T\000"
 8220      455F5354 
 8220      4154455F 
 8220      5400
 8221              	.LASF375:
 8222 1d0b 4359424C 		.ascii	"CYBLE_EVT_LLSC_READ_CHAR_RESPONSE\000"
 8222      455F4556 
 8222      545F4C4C 
 8222      53435F52 
 8222      4541445F 
 8223              	.LASF342:
 8224 1d2d 4359424C 		.ascii	"CYBLE_EVT_HPSC_READ_DESCR_RESPONSE\000"
 8224      455F4556 
 8224      545F4850 
 8224      53435F52 
 8224      4541445F 
 8225              	.LASF188:
 8226 1d50 4359424C 		.ascii	"CYBLE_EVT_GATTC_SRVC_DUPLICATION\000"
 8226      455F4556 
 8226      545F4741 
 8226      5454435F 
 8226      53525643 
 8227              	.LASF215:
 8228 1d71 4359424C 		.ascii	"CYBLE_EVT_ANCSC_WRITE_DESCR_RESPONSE\000"
 8228      455F4556 
 8228      545F414E 
 8228      4353435F 
 8228      57524954 
 8229              	.LASF405:
 8230 1d96 4359424C 		.ascii	"CYBLE_EVT_PLXSC_READ_CHAR_RESPONSE\000"
 8230      455F4556 
 8230      545F504C 
 8230      5853435F 
 8230      52454144 
 8231              	.LASF451:
 8232 1db9 4359424C 		.ascii	"CYBLE_EVT_WPTSS_INDICATION_ENABLED\000"
 8232      455F4556 
 8232      545F5750 
 8232      5453535F 
 8232      494E4449 
 8233              	.LASF243:
 8234 1ddc 4359424C 		.ascii	"CYBLE_EVT_BLSC_INDICATION\000"
 8234      455F4556 
 8234      545F424C 
 8234      53435F49 
 8234      4E444943 
 8235              	.LASF576:
 8236 1df6 62696E31 		.ascii	"bin1\000"
 8236      00
 8237              	.LASF364:
 8238 1dfb 4359424C 		.ascii	"CYBLE_EVT_HTSC_WRITE_DESCR_RESPONSE\000"
 8238      455F4556 
 8238      545F4854 
 8238      53435F57 
ARM GAS  C:\Users\megan\AppData\Local\Temp\ccrMxWsc.s 			page 183


 8238      52495445 
 8239              	.LASF448:
 8240 1e1f 4359424C 		.ascii	"CYBLE_EVT_UDSC_ERROR_RESPONSE\000"
 8240      455F4556 
 8240      545F5544 
 8240      53435F45 
 8240      52524F52 
 8241              	.LASF291:
 8242 1e3d 4359424C 		.ascii	"CYBLE_EVT_CTSS_NOTIFICATION_ENABLED\000"
 8242      455F4556 
 8242      545F4354 
 8242      53535F4E 
 8242      4F544946 
 8243              	.LASF482:
 8244 1e61 52413838 		.ascii	"RA8875_800x480\000"
 8244      37355F38 
 8244      30307834 
 8244      383000
 8245              	.LASF363:
 8246 1e70 4359424C 		.ascii	"CYBLE_EVT_HTSC_READ_DESCR_RESPONSE\000"
 8246      455F4556 
 8246      545F4854 
 8246      53435F52 
 8246      4541445F 
 8247              	.LASF40:
 8248 1e93 4359424C 		.ascii	"CYBLE_EVT_GAP_ENCRYPT_CHANGE\000"
 8248      455F4556 
 8248      545F4741 
 8248      505F454E 
 8248      43525950 
 8249              	.LASF38:
 8250 1eb0 4359424C 		.ascii	"CYBLE_EVT_GAP_DEVICE_CONNECTED\000"
 8250      455F4556 
 8250      545F4741 
 8250      505F4445 
 8250      56494345 
 8251              	.LASF506:
 8252 1ecf 61647652 		.ascii	"advReport\000"
 8252      65706F72 
 8252      7400
 8253              	.LASF413:
 8254 1ed9 4359424C 		.ascii	"CYBLE_EVT_RSCSS_INDICATION_CONFIRMATION\000"
 8254      455F4556 
 8254      545F5253 
 8254      4353535F 
 8254      494E4449 
 8255              	.LASF273:
 8256 1f01 4359424C 		.ascii	"CYBLE_EVT_CPSC_INDICATION\000"
 8256      455F4556 
 8256      545F4350 
 8256      53435F49 
 8256      4E444943 
 8257              	.LASF562:
 8258 1f1b 46616E54 		.ascii	"FanTest\000"
 8258      65737400 
 8259              	.LASF301:
 8260 1f23 4359424C 		.ascii	"CYBLE_EVT_ESSS_NOTIFICATION_DISABLED\000"
ARM GAS  C:\Users\megan\AppData\Local\Temp\ccrMxWsc.s 			page 184


 8260      455F4556 
 8260      545F4553 
 8260      53535F4E 
 8260      4F544946 
 8261              	.LASF21:
 8262 1f48 72656733 		.ascii	"reg32\000"
 8262      3200
 8263              	.LASF334:
 8264 1f4e 4359424C 		.ascii	"CYBLE_EVT_HIDSC_WRITE_CHAR_RESPONSE\000"
 8264      455F4556 
 8264      545F4849 
 8264      4453435F 
 8264      57524954 
 8265              	.LASF523:
 8266 1f72 47554953 		.ascii	"GUISplashscreen\000"
 8266      706C6173 
 8266      68736372 
 8266      65656E00 
 8267              	.LASF91:
 8268 1f82 4359424C 		.ascii	"CYBLE_EVT_PENDING_FLASH_WRITE\000"
 8268      455F4556 
 8268      545F5045 
 8268      4E44494E 
 8268      475F464C 
 8269              	.LASF24:
 8270 1fa0 4359424C 		.ascii	"CYBLE_EVT_HOST_INVALID\000"
 8270      455F4556 
 8270      545F484F 
 8270      53545F49 
 8270      4E56414C 
 8271              	.LASF382:
 8272 1fb7 4359424C 		.ascii	"CYBLE_EVT_LNSS_WRITE_CHAR\000"
 8272      455F4556 
 8272      545F4C4E 
 8272      53535F57 
 8272      52495445 
 8273              	.LASF5:
 8274 1fd1 73686F72 		.ascii	"short unsigned int\000"
 8274      7420756E 
 8274      7369676E 
 8274      65642069 
 8274      6E7400
 8275              	.LASF319:
 8276 1fe4 4359424C 		.ascii	"CYBLE_EVT_GLSC_INDICATION\000"
 8276      455F4556 
 8276      545F474C 
 8276      53435F49 
 8276      4E444943 
 8277              	.LASF0:
 8278 1ffe 7369676E 		.ascii	"signed char\000"
 8278      65642063 
 8278      68617200 
 8279              	.LASF269:
 8280 200a 4359424C 		.ascii	"CYBLE_EVT_CPSS_BROADCAST_ENABLED\000"
 8280      455F4556 
 8280      545F4350 
 8280      53535F42 
ARM GAS  C:\Users\megan\AppData\Local\Temp\ccrMxWsc.s 			page 185


 8280      524F4144 
 8281              	.LASF512:
 8282 202b 4C434449 		.ascii	"LCDInit\000"
 8282      6E697400 
 8283              	.LASF233:
 8284 2033 4359424C 		.ascii	"CYBLE_EVT_BCSS_INDICATION_CONFIRMED\000"
 8284      455F4556 
 8284      545F4243 
 8284      53535F49 
 8284      4E444943 
 8285              	.LASF72:
 8286 2057 4359424C 		.ascii	"CYBLE_EVT_GATTC_EXEC_WRITE_RSP\000"
 8286      455F4556 
 8286      545F4741 
 8286      5454435F 
 8286      45584543 
 8287              	.LASF429:
 8288 2076 4359424C 		.ascii	"CYBLE_EVT_TPSS_NOTIFICATION_ENABLED\000"
 8288      455F4556 
 8288      545F5450 
 8288      53535F4E 
 8288      4F544946 
 8289              	.LASF246:
 8290 209a 4359424C 		.ascii	"CYBLE_EVT_BLSC_READ_DESCR_RESPONSE\000"
 8290      455F4556 
 8290      545F424C 
 8290      53435F52 
 8290      4541445F 
 8291              	.LASF445:
 8292 20bd 4359424C 		.ascii	"CYBLE_EVT_UDSC_WRITE_CHAR_RESPONSE\000"
 8292      455F4556 
 8292      545F5544 
 8292      53435F57 
 8292      52495445 
 8293              	.LASF331:
 8294 20e0 4359424C 		.ascii	"CYBLE_EVT_HIDSS_REPORT_CHAR_WRITE\000"
 8294      455F4556 
 8294      545F4849 
 8294      4453535F 
 8294      5245504F 
 8295              	.LASF274:
 8296 2102 4359424C 		.ascii	"CYBLE_EVT_CPSC_READ_CHAR_RESPONSE\000"
 8296      455F4556 
 8296      545F4350 
 8296      53435F52 
 8296      4541445F 
 8297              	.LASF199:
 8298 2124 4359424C 		.ascii	"CYBLE_EVT_AIOSS_INDICATION_CONFIRMED\000"
 8298      455F4556 
 8298      545F4149 
 8298      4F53535F 
 8298      494E4449 
 8299              	.LASF542:
 8300 2149 47554954 		.ascii	"GUITest\000"
 8300      65737400 
 8301              	.LASF554:
 8302 2151 73746174 		.ascii	"state\000"
ARM GAS  C:\Users\megan\AppData\Local\Temp\ccrMxWsc.s 			page 186


 8302      6500
 8303              	.LASF311:
 8304 2157 4359424C 		.ascii	"CYBLE_EVT_ESSC_READ_DESCR_RESPONSE\000"
 8304      455F4556 
 8304      545F4553 
 8304      53435F52 
 8304      4541445F 
 8305              	.LASF381:
 8306 217a 4359424C 		.ascii	"CYBLE_EVT_LNSS_NOTIFICATION_DISABLED\000"
 8306      455F4556 
 8306      545F4C4E 
 8306      53535F4E 
 8306      4F544946 
 8307              	.LASF543:
 8308 219f 54656D70 		.ascii	"TempReceive\000"
 8308      52656365 
 8308      69766500 
 8309              	.LASF225:
 8310 21ab 4359424C 		.ascii	"CYBLE_EVT_BASS_NOTIFICATION_ENABLED\000"
 8310      455F4556 
 8310      545F4241 
 8310      53535F4E 
 8310      4F544946 
 8311              	.LASF224:
 8312 21cf 4359424C 		.ascii	"CYBLE_EVT_ANSC_WRITE_DESCR_RESPONSE\000"
 8312      455F4556 
 8312      545F414E 
 8312      53435F57 
 8312      52495445 
 8313              	.LASF156:
 8314 21f3 61637475 		.ascii	"actualLen\000"
 8314      616C4C65 
 8314      6E00
 8315              	.LASF322:
 8316 21fd 4359424C 		.ascii	"CYBLE_EVT_GLSC_WRITE_CHAR_RESPONSE\000"
 8316      455F4556 
 8316      545F474C 
 8316      53435F57 
 8316      52495445 
 8317              	.LASF45:
 8318 2220 4359424C 		.ascii	"CYBLE_EVT_GAP_KEYPRESS_NOTIFICATION\000"
 8318      455F4556 
 8318      545F4741 
 8318      505F4B45 
 8318      59505245 
 8319              	.LASF501:
 8320 2244 6F706572 		.ascii	"operation\000"
 8320      6174696F 
 8320      6E00
 8321              	.LASF384:
 8322 224e 4359424C 		.ascii	"CYBLE_EVT_LNSC_NOTIFICATION\000"
 8322      455F4556 
 8322      545F4C4E 
 8322      53435F4E 
 8322      4F544946 
 8323              	.LASF227:
 8324 226a 4359424C 		.ascii	"CYBLE_EVT_BASC_NOTIFICATION\000"
ARM GAS  C:\Users\megan\AppData\Local\Temp\ccrMxWsc.s 			page 187


 8324      455F4556 
 8324      545F4241 
 8324      53435F4E 
 8324      4F544946 
 8325              	.LASF63:
 8326 2286 4359424C 		.ascii	"CYBLE_EVT_GATTC_FIND_BY_TYPE_VALUE_RSP\000"
 8326      455F4556 
 8326      545F4741 
 8326      5454435F 
 8326      46494E44 
 8327              	.LASF569:
 8328 22ad 5F746578 		.ascii	"_textScale\000"
 8328      74536361 
 8328      6C6500
 8329              	.LASF127:
 8330 22b8 4359424C 		.ascii	"CYBLE_ERROR_INVALID_STATE\000"
 8330      455F4552 
 8330      524F525F 
 8330      494E5641 
 8330      4C49445F 
 8331              	.LASF495:
 8332 22d2 53657474 		.ascii	"Settings\000"
 8332      696E6773 
 8332      00
 8333              	.LASF550:
 8334 22db 52656752 		.ascii	"RegReadTest\000"
 8334      65616454 
 8334      65737400 
 8335              	.LASF484:
 8336 22e7 74727565 		.ascii	"true\000"
 8336      00
 8337              	.LASF464:
 8338 22ec 4359424C 		.ascii	"CYBLE_EVT_WSSC_INDICATION\000"
 8338      455F4556 
 8338      545F5753 
 8338      53435F49 
 8338      4E444943 
 8339              	.LASF237:
 8340 2306 4359424C 		.ascii	"CYBLE_EVT_BCSC_WRITE_DESCR_RESPONSE\000"
 8340      455F4556 
 8340      545F4243 
 8340      53435F57 
 8340      52495445 
 8341              	.LASF348:
 8342 232a 4359424C 		.ascii	"CYBLE_EVT_HRSC_NOTIFICATION\000"
 8342      455F4556 
 8342      545F4852 
 8342      53435F4E 
 8342      4F544946 
 8343              	.LASF221:
 8344 2346 4359424C 		.ascii	"CYBLE_EVT_ANSC_READ_CHAR_RESPONSE\000"
 8344      455F4556 
 8344      545F414E 
 8344      53435F52 
 8344      4541445F 
 8345              	.LASF6:
 8346 2368 6C6F6E67 		.ascii	"long int\000"
ARM GAS  C:\Users\megan\AppData\Local\Temp\ccrMxWsc.s 			page 188


 8346      20696E74 
 8346      00
 8347              	.LASF267:
 8348 2371 4359424C 		.ascii	"CYBLE_EVT_CPSS_INDICATION_DISABLED\000"
 8348      455F4556 
 8348      545F4350 
 8348      53535F49 
 8348      4E444943 
 8349              	.LASF165:
 8350 2394 75756964 		.ascii	"uuidFormat\000"
 8350      466F726D 
 8350      617400
 8351              	.LASF111:
 8352 239f 4359424C 		.ascii	"CYBLE_ERROR_L2CAP_PSM_NOT_REGISTERED\000"
 8352      455F4552 
 8352      524F525F 
 8352      4C324341 
 8352      505F5053 
 8353              	.LASF219:
 8354 23c4 4359424C 		.ascii	"CYBLE_EVT_ANSS_CHAR_WRITE\000"
 8354      455F4556 
 8354      545F414E 
 8354      53535F43 
 8354      4841525F 
 8355              	.LASF43:
 8356 23de 4359424C 		.ascii	"CYBLE_EVT_GAP_KEYINFO_EXCHNGE_CMPLT\000"
 8356      455F4556 
 8356      545F4741 
 8356      505F4B45 
 8356      59494E46 
 8357              	.LASF154:
 8358 2402 61747449 		.ascii	"attId\000"
 8358      6400
 8359              	.LASF312:
 8360 2408 4359424C 		.ascii	"CYBLE_EVT_ESSC_WRITE_DESCR_RESPONSE\000"
 8360      455F4556 
 8360      545F4553 
 8360      53435F57 
 8360      52495445 
 8361              	.LASF476:
 8362 242c 4359424C 		.ascii	"CYBLE_SRVI_GAP\000"
 8362      455F5352 
 8362      56495F47 
 8362      415000
 8363              	.LASF481:
 8364 243b 52413838 		.ascii	"RA8875_480x272\000"
 8364      37355F34 
 8364      38307832 
 8364      373200
 8365              	.LASF399:
 8366 244a 4359424C 		.ascii	"CYBLE_EVT_PLXSS_NOTIFICATION_DISABLED\000"
 8366      455F4556 
 8366      545F504C 
 8366      5853535F 
 8366      4E4F5449 
 8367              	.LASF184:
 8368 2470 4359424C 		.ascii	"CYBLE_EVT_GATTC_SRVC_DISCOVERY_FAILED\000"
ARM GAS  C:\Users\megan\AppData\Local\Temp\ccrMxWsc.s 			page 189


 8368      455F4556 
 8368      545F4741 
 8368      5454435F 
 8368      53525643 
 8369              	.LASF379:
 8370 2496 4359424C 		.ascii	"CYBLE_EVT_LNSS_INDICATION_CONFIRMED\000"
 8370      455F4556 
 8370      545F4C4E 
 8370      53535F49 
 8370      4E444943 
 8371              	.LASF100:
 8372 24ba 4359424C 		.ascii	"CYBLE_ERROR_INSUFFICIENT_RESOURCES\000"
 8372      455F4552 
 8372      524F525F 
 8372      494E5355 
 8372      46464943 
 8373              	.LASF29:
 8374 24dd 4359424C 		.ascii	"CYBLE_EVT_STACK_BUSY_STATUS\000"
 8374      455F4556 
 8374      545F5354 
 8374      41434B5F 
 8374      42555359 
 8375              	.LASF297:
 8376 24f9 4359424C 		.ascii	"CYBLE_EVT_CTSC_WRITE_DESCR_RESPONSE\000"
 8376      455F4556 
 8376      545F4354 
 8376      53435F57 
 8376      52495445 
 8377              	.LASF60:
 8378 251d 4359424C 		.ascii	"CYBLE_EVT_GATTC_READ_BY_GROUP_TYPE_RSP\000"
 8378      455F4556 
 8378      545F4741 
 8378      5454435F 
 8378      52454144 
 8379              	.LASF121:
 8380 2544 4359424C 		.ascii	"CYBLE_ERROR_FLASH_WRITE\000"
 8380      455F4552 
 8380      524F525F 
 8380      464C4153 
 8380      485F5752 
 8381              	.LASF166:
 8382 255c 4359424C 		.ascii	"CYBLE_GATTC_READ_BY_TYPE_REQ_T\000"
 8382      455F4741 
 8382      5454435F 
 8382      52454144 
 8382      5F42595F 
 8383              	.LASF99:
 8384 257b 4359424C 		.ascii	"CYBLE_ERROR_MEMORY_ALLOCATION_FAILED\000"
 8384      455F4552 
 8384      524F525F 
 8384      4D454D4F 
 8384      52595F41 
 8385              	.LASF249:
 8386 25a0 4359424C 		.ascii	"CYBLE_EVT_BMSC_READ_CHAR_RESPONSE\000"
 8386      455F4556 
 8386      545F424D 
 8386      53435F52 
ARM GAS  C:\Users\megan\AppData\Local\Temp\ccrMxWsc.s 			page 190


 8386      4541445F 
 8387              	.LASF39:
 8388 25c2 4359424C 		.ascii	"CYBLE_EVT_GAP_DEVICE_DISCONNECTED\000"
 8388      455F4556 
 8388      545F4741 
 8388      505F4445 
 8388      56494345 
 8389              	.LASF571:
 8390 25e4 73657474 		.ascii	"settings\000"
 8390      696E6773 
 8390      00
 8391              	.LASF397:
 8392 25ed 4359424C 		.ascii	"CYBLE_EVT_PLXSS_WRITE_CHAR\000"
 8392      455F4556 
 8392      545F504C 
 8392      5853535F 
 8392      57524954 
 8393              	.LASF579:
 8394 2608 433A5C55 		.ascii	"C:\\Users\\megan\\Google Drive\\College\\S11 - Spri"
 8394      73657273 
 8394      5C6D6567 
 8394      616E5C47 
 8394      6F6F676C 
 8395 2636 6E672032 		.ascii	"ng 2018\\ECEN 4990\\Github\\ECEN4990-CapstoneII\\Ca"
 8395      3031385C 
 8395      4543454E 
 8395      20343939 
 8395      305C4769 
 8396 2665 7073746F 		.ascii	"pstoneII\\CentralBLE.cydsn\000"
 8396      6E654949 
 8396      5C43656E 
 8396      7472616C 
 8396      424C452E 
 8397              	.LASF22:
 8398 267f 6C6F6E67 		.ascii	"long double\000"
 8398      20646F75 
 8398      626C6500 
 8399              	.LASF367:
 8400 268b 4359424C 		.ascii	"CYBLE_EVT_IPSC_READ_CHAR_RESPONSE\000"
 8400      455F4556 
 8400      545F4950 
 8400      53435F52 
 8400      4541445F 
 8401              	.LASF522:
 8402 26ad 4C434443 		.ascii	"LCDCheckTouch\000"
 8402      6865636B 
 8402      546F7563 
 8402      6800
 8403              	.LASF102:
 8404 26bb 4359424C 		.ascii	"CYBLE_ERROR_NO_CONNECTION\000"
 8404      455F4552 
 8404      524F525F 
 8404      4E4F5F43 
 8404      4F4E4E45 
 8405              	.LASF68:
 8406 26d5 4359424C 		.ascii	"CYBLE_EVT_GATTC_WRITE_RSP\000"
 8406      455F4556 
ARM GAS  C:\Users\megan\AppData\Local\Temp\ccrMxWsc.s 			page 191


 8406      545F4741 
 8406      5454435F 
 8406      57524954 
 8407              	.LASF14:
 8408 26ef 75696E74 		.ascii	"uint16\000"
 8408      313600
 8409              	.LASF108:
 8410 26f6 4359424C 		.ascii	"CYBLE_ERROR_SEC_FAILED\000"
 8410      455F4552 
 8410      524F525F 
 8410      5345435F 
 8410      4641494C 
 8411              	.LASF436:
 8412 270d 4359424C 		.ascii	"CYBLE_EVT_UDSS_INDICATION_DISABLED\000"
 8412      455F4556 
 8412      545F5544 
 8412      53535F49 
 8412      4E444943 
 8413              	.LASF332:
 8414 2730 4359424C 		.ascii	"CYBLE_EVT_HIDSC_NOTIFICATION\000"
 8414      455F4556 
 8414      545F4849 
 8414      4453435F 
 8414      4E4F5449 
 8415              	.LASF7:
 8416 274d 6C6F6E67 		.ascii	"long unsigned int\000"
 8416      20756E73 
 8416      69676E65 
 8416      6420696E 
 8416      7400
 8417              	.LASF539:
 8418 275f 66616E73 		.ascii	"fans\000"
 8418      00
 8419              	.LASF392:
 8420 2764 4359424C 		.ascii	"CYBLE_EVT_PASSS_WRITE_CHAR\000"
 8420      455F4556 
 8420      545F5041 
 8420      5353535F 
 8420      57524954 
 8421              	.LASF77:
 8422 277f 4359424C 		.ascii	"CYBLE_EVT_GATTC_STOP_CMD_COMPLETE\000"
 8422      455F4556 
 8422      545F4741 
 8422      5454435F 
 8422      53544F50 
 8423              	.LASF465:
 8424 27a1 4359424C 		.ascii	"CYBLE_EVT_WSSC_READ_CHAR_RESPONSE\000"
 8424      455F4556 
 8424      545F5753 
 8424      53435F52 
 8424      4541445F 
 8425              	.LASF509:
 8426 27c3 6E6F7469 		.ascii	"notificationData\000"
 8426      66696361 
 8426      74696F6E 
 8426      44617461 
 8426      00
ARM GAS  C:\Users\megan\AppData\Local\Temp\ccrMxWsc.s 			page 192


 8427              	.LASF574:
 8428 27d4 666C5F74 		.ascii	"fl_temp_bytes\000"
 8428      656D705F 
 8428      62797465 
 8428      7300
 8429              	.LASF340:
 8430 27e2 4359424C 		.ascii	"CYBLE_EVT_HPSC_NOTIFICATION\000"
 8430      455F4556 
 8430      545F4850 
 8430      53435F4E 
 8430      4F544946 
 8431              	.LASF279:
 8432 27fe 4359424C 		.ascii	"CYBLE_EVT_CSCSS_NOTIFICATION_ENABLED\000"
 8432      455F4556 
 8432      545F4353 
 8432      4353535F 
 8432      4E4F5449 
 8433              	.LASF508:
 8434 2823 72656164 		.ascii	"readResponse\000"
 8434      52657370 
 8434      6F6E7365 
 8434      00
 8435              	.LASF20:
 8436 2830 63686172 		.ascii	"char\000"
 8436      00
 8437              	.LASF498:
 8438 2835 6576656E 		.ascii	"eventParam\000"
 8438      74506172 
 8438      616D00
 8439              	.LASF138:
 8440 2840 4359424C 		.ascii	"CYBLE_GAPC_ADV_EVENT_T\000"
 8440      455F4741 
 8440      50435F41 
 8440      44565F45 
 8440      56454E54 
 8441              	.LASF234:
 8442 2857 4359424C 		.ascii	"CYBLE_EVT_BCSC_INDICATION\000"
 8442      455F4556 
 8442      545F4243 
 8442      53435F49 
 8442      4E444943 
 8443              	.LASF84:
 8444 2871 4359424C 		.ascii	"CYBLE_EVT_L2CAP_CBFC_CONN_CNF\000"
 8444      455F4556 
 8444      545F4C32 
 8444      4341505F 
 8444      43424643 
 8445              	.LASF454:
 8446 288f 4359424C 		.ascii	"CYBLE_EVT_WPTSS_WRITE_CHAR\000"
 8446      455F4556 
 8446      545F5750 
 8446      5453535F 
 8446      57524954 
 8447              	.LASF268:
 8448 28aa 4359424C 		.ascii	"CYBLE_EVT_CPSS_INDICATION_CONFIRMED\000"
 8448      455F4556 
 8448      545F4350 
ARM GAS  C:\Users\megan\AppData\Local\Temp\ccrMxWsc.s 			page 193


 8448      53535F49 
 8448      4E444943 
 8449              	.LASF98:
 8450 28ce 4359424C 		.ascii	"CYBLE_ERROR_INVALID_OPERATION\000"
 8450      455F4552 
 8450      524F525F 
 8450      494E5641 
 8450      4C49445F 
 8451              	.LASF521:
 8452 28ec 79536361 		.ascii	"yScale\000"
 8452      6C6500
 8453              	.LASF15:
 8454 28f3 75696E74 		.ascii	"uint32\000"
 8454      333200
 8455              	.LASF231:
 8456 28fa 4359424C 		.ascii	"CYBLE_EVT_BCSS_INDICATION_ENABLED\000"
 8456      455F4556 
 8456      545F4243 
 8456      53535F49 
 8456      4E444943 
 8457              	.LASF151:
 8458 291c 4359424C 		.ascii	"CYBLE_UUID_T\000"
 8458      455F5555 
 8458      49445F54 
 8458      00
 8459              	.LASF103:
 8460 2929 4359424C 		.ascii	"CYBLE_ERROR_NO_DEVICE_ENTITY\000"
 8460      455F4552 
 8460      524F525F 
 8460      4E4F5F44 
 8460      45564943 
 8461              	.LASF86:
 8462 2946 4359424C 		.ascii	"CYBLE_EVT_L2CAP_CBFC_DISCONN_CNF\000"
 8462      455F4556 
 8462      545F4C32 
 8462      4341505F 
 8462      43424643 
 8463              	.LASF314:
 8464 2967 4359424C 		.ascii	"CYBLE_EVT_GLSS_INDICATION_DISABLED\000"
 8464      455F4556 
 8464      545F474C 
 8464      53535F49 
 8464      4E444943 
 8465              	.LASF253:
 8466 298a 4359424C 		.ascii	"CYBLE_EVT_CGMSS_INDICATION_DISABLED\000"
 8466      455F4556 
 8466      545F4347 
 8466      4D53535F 
 8466      494E4449 
 8467              	.LASF414:
 8468 29ae 4359424C 		.ascii	"CYBLE_EVT_RSCSS_CHAR_WRITE\000"
 8468      455F4556 
 8468      545F5253 
 8468      4353535F 
 8468      43484152 
 8469              	.LASF393:
 8470 29c9 4359424C 		.ascii	"CYBLE_EVT_PASSC_NOTIFICATION\000"
ARM GAS  C:\Users\megan\AppData\Local\Temp\ccrMxWsc.s 			page 194


 8470      455F4556 
 8470      545F5041 
 8470      5353435F 
 8470      4E4F5449 
 8471              	.LASF431:
 8472 29e6 4359424C 		.ascii	"CYBLE_EVT_TPSC_NOTIFICATION\000"
 8472      455F4556 
 8472      545F5450 
 8472      53435F4E 
 8472      4F544946 
 8473              	.LASF446:
 8474 2a02 4359424C 		.ascii	"CYBLE_EVT_UDSC_READ_DESCR_RESPONSE\000"
 8474      455F4556 
 8474      545F5544 
 8474      53435F52 
 8474      4541445F 
 8475              	.LASF70:
 8476 2a25 4359424C 		.ascii	"CYBLE_EVT_GATTS_PREP_WRITE_REQ\000"
 8476      455F4556 
 8476      545F4741 
 8476      5454535F 
 8476      50524550 
 8477              	.LASF321:
 8478 2a44 4359424C 		.ascii	"CYBLE_EVT_GLSC_READ_CHAR_RESPONSE\000"
 8478      455F4556 
 8478      545F474C 
 8478      53435F52 
 8478      4541445F 
 8479              	.LASF510:
 8480 2a66 666C5F62 		.ascii	"fl_bytes\000"
 8480      79746573 
 8480      00
 8481              	.LASF418:
 8482 2a6f 4359424C 		.ascii	"CYBLE_EVT_RSCSC_WRITE_CHAR_RESPONSE\000"
 8482      455F4556 
 8482      545F5253 
 8482      4353435F 
 8482      57524954 
 8483              	.LASF144:
 8484 2a93 72737369 		.ascii	"rssi\000"
 8484      00
 8485              	.LASF239:
 8486 2a98 4359424C 		.ascii	"CYBLE_EVT_BLSS_INDICATION_DISABLED\000"
 8486      455F4556 
 8486      545F424C 
 8486      53535F49 
 8486      4E444943 
 8487              	.LASF424:
 8488 2abb 4359424C 		.ascii	"CYBLE_EVT_SCPSS_NOTIFICATION_DISABLED\000"
 8488      455F4556 
 8488      545F5343 
 8488      5053535F 
 8488      4E4F5449 
 8489              	.LASF347:
 8490 2ae1 4359424C 		.ascii	"CYBLE_EVT_HRSS_NOTIFICATION_DISABLED\000"
 8490      455F4556 
 8490      545F4852 
ARM GAS  C:\Users\megan\AppData\Local\Temp\ccrMxWsc.s 			page 195


 8490      53535F4E 
 8490      4F544946 
 8491              	.LASF565:
 8492 2b06 6379426C 		.ascii	"cyBle_connHandle\000"
 8492      655F636F 
 8492      6E6E4861 
 8492      6E646C65 
 8492      00
 8493              	.LASF287:
 8494 2b17 4359424C 		.ascii	"CYBLE_EVT_CSCSC_READ_CHAR_RESPONSE\000"
 8494      455F4556 
 8494      545F4353 
 8494      4353435F 
 8494      52454144 
 8495              	.LASF553:
 8496 2b3a 424C4543 		.ascii	"BLEConnect\000"
 8496      6F6E6E65 
 8496      637400
 8497              	.LASF386:
 8498 2b45 4359424C 		.ascii	"CYBLE_EVT_LNSC_WRITE_CHAR_RESPONSE\000"
 8498      455F4556 
 8498      545F4C4E 
 8498      53435F57 
 8498      52495445 
 8499              	.LASF299:
 8500 2b68 4359424C 		.ascii	"CYBLE_EVT_DISC_READ_CHAR_RESPONSE\000"
 8500      455F4556 
 8500      545F4449 
 8500      53435F52 
 8500      4541445F 
 8501              	.LASF423:
 8502 2b8a 4359424C 		.ascii	"CYBLE_EVT_SCPSS_NOTIFICATION_ENABLED\000"
 8502      455F4556 
 8502      545F5343 
 8502      5053535F 
 8502      4E4F5449 
 8503              	.LASF409:
 8504 2baf 4359424C 		.ascii	"CYBLE_EVT_RSCSS_NOTIFICATION_ENABLED\000"
 8504      455F4556 
 8504      545F5253 
 8504      4353535F 
 8504      4E4F5449 
 8505              	.LASF494:
 8506 2bd4 4155544F 		.ascii	"AUTOMATIC\000"
 8506      4D415449 
 8506      4300
 8507              	.LASF58:
 8508 2bde 4359424C 		.ascii	"CYBLE_EVT_GATTS_XCNHG_MTU_REQ\000"
 8508      455F4556 
 8508      545F4741 
 8508      5454535F 
 8508      58434E48 
 8509              	.LASF123:
 8510 2bfc 4359424C 		.ascii	"CYBLE_ERROR_MAX\000"
 8510      455F4552 
 8510      524F525F 
 8510      4D415800 
ARM GAS  C:\Users\megan\AppData\Local\Temp\ccrMxWsc.s 			page 196


 8511              	.LASF106:
 8512 2c0c 4359424C 		.ascii	"CYBLE_ERROR_TX_POWER_READ\000"
 8512      455F4552 
 8512      524F525F 
 8512      54585F50 
 8512      4F574552 
 8513              	.LASF461:
 8514 2c26 4359424C 		.ascii	"CYBLE_EVT_WSSS_INDICATION_ENABLED\000"
 8514      455F4556 
 8514      545F5753 
 8514      53535F49 
 8514      4E444943 
 8515              	.LASF169:
 8516 2c48 4359424C 		.ascii	"CYBLE_GATTC_HANDLE_VALUE_NTF_PARAM_T\000"
 8516      455F4741 
 8516      5454435F 
 8516      48414E44 
 8516      4C455F56 
 8517              	.LASF190:
 8518 2c6d 4359424C 		.ascii	"CYBLE_EVT_GATTC_DESCR_DUPLICATION\000"
 8518      455F4556 
 8518      545F4741 
 8518      5454435F 
 8518      44455343 
 8519              	.LASF323:
 8520 2c8f 4359424C 		.ascii	"CYBLE_EVT_GLSC_READ_DESCR_RESPONSE\000"
 8520      455F4556 
 8520      545F474C 
 8520      53435F52 
 8520      4541445F 
 8521              	.LASF546:
 8522 2cb2 5072696E 		.ascii	"PrintFloat\000"
 8522      74466C6F 
 8522      617400
 8523              	.LASF532:
 8524 2cbd 62696E6E 		.ascii	"binno1\000"
 8524      6F3100
 8525              	.LASF277:
 8526 2cc4 4359424C 		.ascii	"CYBLE_EVT_CPSC_WRITE_DESCR_RESPONSE\000"
 8526      455F4556 
 8526      545F4350 
 8526      53435F57 
 8526      52495445 
 8527              	.LASF516:
 8528 2ce8 6D794465 		.ascii	"myDelay\000"
 8528      6C617900 
 8529              	.LASF306:
 8530 2cf0 4359424C 		.ascii	"CYBLE_EVT_ESSS_DESCR_WRITE\000"
 8530      455F4556 
 8530      545F4553 
 8530      53535F44 
 8530      45534352 
 8531              	.LASF148:
 8532 2d0b 4359424C 		.ascii	"CYBLE_UUID128_T\000"
 8532      455F5555 
 8532      49443132 
 8532      385F5400 
ARM GAS  C:\Users\megan\AppData\Local\Temp\ccrMxWsc.s 			page 197


 8533              	.LASF252:
 8534 2d1b 4359424C 		.ascii	"CYBLE_EVT_CGMSS_INDICATION_ENABLED\000"
 8534      455F4556 
 8534      545F4347 
 8534      4D53535F 
 8534      494E4449 
 8535              	.LASF155:
 8536 2d3e 4359424C 		.ascii	"CYBLE_CONN_HANDLE_T\000"
 8536      455F434F 
 8536      4E4E5F48 
 8536      414E444C 
 8536      455F5400 
 8537              	.LASF366:
 8538 2d52 4359424C 		.ascii	"CYBLE_EVT_IPSS_WRITE_CHAR\000"
 8538      455F4556 
 8538      545F4950 
 8538      53535F57 
 8538      52495445 
 8539              	.LASF172:
 8540 2d6c 61747472 		.ascii	"attrLen\000"
 8540      4C656E00 
 8541              	.LASF74:
 8542 2d74 4359424C 		.ascii	"CYBLE_EVT_GATTC_HANDLE_VALUE_IND\000"
 8542      455F4556 
 8542      545F4741 
 8542      5454435F 
 8542      48414E44 
 8543              	.LASF317:
 8544 2d95 4359424C 		.ascii	"CYBLE_EVT_GLSS_NOTIFICATION_DISABLED\000"
 8544      455F4556 
 8544      545F474C 
 8544      53535F4E 
 8544      4F544946 
 8545              	.LASF329:
 8546 2dba 4359424C 		.ascii	"CYBLE_EVT_HIDSS_SUSPEND\000"
 8546      455F4556 
 8546      545F4849 
 8546      4453535F 
 8546      53555350 
 8547              	.LASF19:
 8548 2dd2 646F7562 		.ascii	"double\000"
 8548      6C6500
 8549              	.LASF361:
 8550 2dd9 4359424C 		.ascii	"CYBLE_EVT_HTSC_READ_CHAR_RESPONSE\000"
 8550      455F4556 
 8550      545F4854 
 8550      53435F52 
 8550      4541445F 
 8551              	.LASF216:
 8552 2dfb 4359424C 		.ascii	"CYBLE_EVT_ANCSC_ERROR_RESPONSE\000"
 8552      455F4556 
 8552      545F414E 
 8552      4353435F 
 8552      4552524F 
 8553              	.LASF560:
 8554 2e1a 424C4549 		.ascii	"BLEIndicator\000"
 8554      6E646963 
ARM GAS  C:\Users\megan\AppData\Local\Temp\ccrMxWsc.s 			page 198


 8554      61746F72 
 8554      00
 8555              	.LASF56:
 8556 2e27 4359424C 		.ascii	"CYBLE_EVT_GATT_CONNECT_IND\000"
 8556      455F4556 
 8556      545F4741 
 8556      54545F43 
 8556      4F4E4E45 
 8557              	.LASF51:
 8558 2e42 4359424C 		.ascii	"CYBLE_EVT_GAP_CONN_ESTB\000"
 8558      455F4556 
 8558      545F4741 
 8558      505F434F 
 8558      4E4E5F45 
 8559              	.LASF457:
 8560 2e5a 4359424C 		.ascii	"CYBLE_EVT_WPTSC_WRITE_CHAR_RESPONSE\000"
 8560      455F4556 
 8560      545F5750 
 8560      5453435F 
 8560      57524954 
 8561              	.LASF309:
 8562 2e7e 4359424C 		.ascii	"CYBLE_EVT_ESSC_READ_CHAR_RESPONSE\000"
 8562      455F4556 
 8562      545F4553 
 8562      53435F52 
 8562      4541445F 
 8563              	.LASF54:
 8564 2ea0 4359424C 		.ascii	"CYBLE_EVT_GAP_SMP_LOC_P256_KEYS_GEN_AND_SET_COMPLET"
 8564      455F4556 
 8564      545F4741 
 8564      505F534D 
 8564      505F4C4F 
 8565 2ed3 4500     		.ascii	"E\000"
 8566              	.LASF440:
 8567 2ed5 4359424C 		.ascii	"CYBLE_EVT_UDSS_READ_CHAR\000"
 8567      455F4556 
 8567      545F5544 
 8567      53535F52 
 8567      4541445F 
 8568              	.LASF518:
 8569 2eee 4C434454 		.ascii	"LCDTouchscreenDemo\000"
 8569      6F756368 
 8569      73637265 
 8569      656E4465 
 8569      6D6F00
 8570              	.LASF132:
 8571 2f01 4359424C 		.ascii	"CYBLE_GAP_BD_ADDR_T\000"
 8571      455F4741 
 8571      505F4244 
 8571      5F414444 
 8571      525F5400 
 8572              	.LASF143:
 8573 2f15 64617461 		.ascii	"data\000"
 8573      00
 8574              	.LASF492:
 8575 2f1a 4D6F6465 		.ascii	"Mode\000"
 8575      00
ARM GAS  C:\Users\megan\AppData\Local\Temp\ccrMxWsc.s 			page 199


 8576              	.LASF189:
 8577 2f1f 4359424C 		.ascii	"CYBLE_EVT_GATTC_CHAR_DUPLICATION\000"
 8577      455F4556 
 8577      545F4741 
 8577      5454435F 
 8577      43484152 
 8578              	.LASF480:
 8579 2f40 4359424C 		.ascii	"CYBLE_SRVI_COUNT\000"
 8579      455F5352 
 8579      56495F43 
 8579      4F554E54 
 8579      00
 8580              	.LASF411:
 8581 2f51 4359424C 		.ascii	"CYBLE_EVT_RSCSS_INDICATION_ENABLED\000"
 8581      455F4556 
 8581      545F5253 
 8581      4353535F 
 8581      494E4449 
 8582              	.LASF257:
 8583 2f74 4359424C 		.ascii	"CYBLE_EVT_CGMSS_WRITE_CHAR\000"
 8583      455F4556 
 8583      545F4347 
 8583      4D53535F 
 8583      57524954 
 8584              	.LASF23:
 8585 2f8f 73697A65 		.ascii	"sizetype\000"
 8585      74797065 
 8585      00
 8586              	.LASF135:
 8587 2f98 4359424C 		.ascii	"CYBLE_GAPC_SCAN_UNDIRECTED_ADV\000"
 8587      455F4741 
 8587      50435F53 
 8587      43414E5F 
 8587      554E4449 
 8588              	.LASF412:
 8589 2fb7 4359424C 		.ascii	"CYBLE_EVT_RSCSS_INDICATION_DISABLED\000"
 8589      455F4556 
 8589      545F5253 
 8589      4353535F 
 8589      494E4449 
 8590              	.LASF229:
 8591 2fdb 4359424C 		.ascii	"CYBLE_EVT_BASC_READ_DESCR_RESPONSE\000"
 8591      455F4556 
 8591      545F4241 
 8591      53435F52 
 8591      4541445F 
 8592              	.LASF197:
 8593 2ffe 4359424C 		.ascii	"CYBLE_EVT_AIOSS_INDICATION_ENABLED\000"
 8593      455F4556 
 8593      545F4149 
 8593      4F53535F 
 8593      494E4449 
 8594              	.LASF255:
 8595 3021 4359424C 		.ascii	"CYBLE_EVT_CGMSS_NOTIFICATION_ENABLED\000"
 8595      455F4556 
 8595      545F4347 
 8595      4D53535F 
ARM GAS  C:\Users\megan\AppData\Local\Temp\ccrMxWsc.s 			page 200


 8595      4E4F5449 
 8596              	.LASF270:
 8597 3046 4359424C 		.ascii	"CYBLE_EVT_CPSS_BROADCAST_DISABLED\000"
 8597      455F4556 
 8597      545F4350 
 8597      53535F42 
 8597      524F4144 
 8598              	.LASF568:
 8599 3068 5F686569 		.ascii	"_height\000"
 8599      67687400 
 8600              	.LASF101:
 8601 3070 4359424C 		.ascii	"CYBLE_ERROR_OOB_NOT_AVAILABLE\000"
 8601      455F4552 
 8601      524F525F 
 8601      4F4F425F 
 8601      4E4F545F 
 8602              	.LASF422:
 8603 308e 4359424C 		.ascii	"CYBLE_EVT_RTUSC_READ_CHAR_RESPONSE\000"
 8603      455F4556 
 8603      545F5254 
 8603      5553435F 
 8603      52454144 
 8604              	.LASF536:
 8605 30b1 47554955 		.ascii	"GUIUpdateBin1ActualTemp\000"
 8605      70646174 
 8605      6542696E 
 8605      31416374 
 8605      75616C54 
 8606              	.LASF538:
 8607 30c9 47554955 		.ascii	"GUIUpdateControls\000"
 8607      70646174 
 8607      65436F6E 
 8607      74726F6C 
 8607      7300
 8608              	.LASF378:
 8609 30db 4359424C 		.ascii	"CYBLE_EVT_LNSS_INDICATION_DISABLED\000"
 8609      455F4556 
 8609      545F4C4E 
 8609      53535F49 
 8609      4E444943 
 8610              	.LASF453:
 8611 30fe 4359424C 		.ascii	"CYBLE_EVT_WPTSS_INDICATION_CONFIRMED\000"
 8611      455F4556 
 8611      545F5750 
 8611      5453535F 
 8611      494E4449 
 8612              	.LASF218:
 8613 3123 4359424C 		.ascii	"CYBLE_EVT_ANSS_NOTIFICATION_DISABLED\000"
 8613      455F4556 
 8613      545F414E 
 8613      53535F4E 
 8613      4F544946 
 8614              	.LASF36:
 8615 3148 4359424C 		.ascii	"CYBLE_EVT_GAP_AUTH_FAILED\000"
 8615      455F4556 
 8615      545F4741 
 8615      505F4155 
ARM GAS  C:\Users\megan\AppData\Local\Temp\ccrMxWsc.s 			page 201


 8615      54485F46 
 8616              	.LASF159:
 8617 3162 4359424C 		.ascii	"CYBLE_GATT_HANDLE_VALUE_PAIR_T\000"
 8617      455F4741 
 8617      54545F48 
 8617      414E444C 
 8617      455F5641 
 8618              	.LASF256:
 8619 3181 4359424C 		.ascii	"CYBLE_EVT_CGMSS_NOTIFICATION_DISABLED\000"
 8619      455F4556 
 8619      545F4347 
 8619      4D53535F 
 8619      4E4F5449 
 8620              	.LASF316:
 8621 31a7 4359424C 		.ascii	"CYBLE_EVT_GLSS_NOTIFICATION_ENABLED\000"
 8621      455F4556 
 8621      545F474C 
 8621      53535F4E 
 8621      4F544946 
 8622              	.LASF541:
 8623 31cb 47554954 		.ascii	"GUITouchHandler\000"
 8623      6F756368 
 8623      48616E64 
 8623      6C657200 
 8624              	.LASF513:
 8625 31db 77656C63 		.ascii	"welcome1\000"
 8625      6F6D6531 
 8625      00
 8626              	.LASF514:
 8627 31e4 77656C63 		.ascii	"welcome2\000"
 8627      6F6D6532 
 8627      00
 8628              	.LASF515:
 8629 31ed 77656C63 		.ascii	"welcome3\000"
 8629      6F6D6533 
 8629      00
 8630              	.LASF524:
 8631 31f6 77656C63 		.ascii	"welcome4\000"
 8631      6F6D6534 
 8631      00
 8632              	.LASF78:
 8633 31ff 4359424C 		.ascii	"CYBLE_EVT_GATTS_READ_CHAR_VAL_ACCESS_REQ\000"
 8633      455F4556 
 8633      545F4741 
 8633      5454535F 
 8633      52454144 
 8634              	.LASF80:
 8635 3228 4359424C 		.ascii	"CYBLE_EVT_L2CAP_CONN_PARAM_UPDATE_REQ\000"
 8635      455F4556 
 8635      545F4C32 
 8635      4341505F 
 8635      434F4E4E 
 8636              	.LASF400:
 8637 324e 4359424C 		.ascii	"CYBLE_EVT_PLXSS_INDICATION_ENABLED\000"
 8637      455F4556 
 8637      545F504C 
 8637      5853535F 
ARM GAS  C:\Users\megan\AppData\Local\Temp\ccrMxWsc.s 			page 202


 8637      494E4449 
 8638              	.LASF410:
 8639 3271 4359424C 		.ascii	"CYBLE_EVT_RSCSS_NOTIFICATION_DISABLED\000"
 8639      455F4556 
 8639      545F5253 
 8639      4353535F 
 8639      4E4F5449 
 8640              	.LASF9:
 8641 3297 6C6F6E67 		.ascii	"long long unsigned int\000"
 8641      206C6F6E 
 8641      6720756E 
 8641      7369676E 
 8641      65642069 
 8642              	.LASF220:
 8643 32ae 4359424C 		.ascii	"CYBLE_EVT_ANSC_NOTIFICATION\000"
 8643      455F4556 
 8643      545F414E 
 8643      53435F4E 
 8643      4F544946 
 8644              	.LASF232:
 8645 32ca 4359424C 		.ascii	"CYBLE_EVT_BCSS_INDICATION_DISABLED\000"
 8645      455F4556 
 8645      545F4243 
 8645      53535F49 
 8645      4E444943 
 8646              	.LASF350:
 8647 32ed 4359424C 		.ascii	"CYBLE_EVT_HRSC_WRITE_CHAR_RESPONSE\000"
 8647      455F4556 
 8647      545F4852 
 8647      53435F57 
 8647      52495445 
 8648              	.LASF113:
 8649 3310 4359424C 		.ascii	"CYBLE_ERROR_L2CAP_CHANNEL_NOT_FOUND\000"
 8649      455F4552 
 8649      524F525F 
 8649      4C324341 
 8649      505F4348 
 8650              	.LASF528:
 8651 3334 6D616E75 		.ascii	"manual\000"
 8651      616C00
 8652              	.LASF438:
 8653 333b 4359424C 		.ascii	"CYBLE_EVT_UDSS_NOTIFICATION_ENABLED\000"
 8653      455F4556 
 8653      545F5544 
 8653      53535F4E 
 8653      4F544946 
 8654              	.LASF320:
 8655 335f 4359424C 		.ascii	"CYBLE_EVT_GLSC_NOTIFICATION\000"
 8655      455F4556 
 8655      545F474C 
 8655      53435F4E 
 8655      4F544946 
 8656              	.LASF214:
 8657 337b 4359424C 		.ascii	"CYBLE_EVT_ANCSC_READ_DESCR_RESPONSE\000"
 8657      455F4556 
 8657      545F414E 
 8657      4353435F 
ARM GAS  C:\Users\megan\AppData\Local\Temp\ccrMxWsc.s 			page 203


 8657      52454144 
 8658              	.LASF493:
 8659 339f 4D414E55 		.ascii	"MANUAL\000"
 8659      414C00
 8660              	.LASF52:
 8661 33a6 4359424C 		.ascii	"CYBLE_EVT_GAP_SCAN_REQ_RECVD\000"
 8661      455F4556 
 8661      545F4741 
 8661      505F5343 
 8661      414E5F52 
 8662              	.LASF117:
 8663 33c3 4359424C 		.ascii	"CYBLE_ERROR_FLASH_WRITE_NOT_PERMITED\000"
 8663      455F4552 
 8663      524F525F 
 8663      464C4153 
 8663      485F5752 
 8664              	.LASF201:
 8665 33e8 4359424C 		.ascii	"CYBLE_EVT_AIOSS_DESCR_WRITE\000"
 8665      455F4556 
 8665      545F4149 
 8665      4F53535F 
 8665      44455343 
 8666              	.LASF41:
 8667 3404 4359424C 		.ascii	"CYBLE_EVT_GAP_CONNECTION_UPDATE_COMPLETE\000"
 8667      455F4556 
 8667      545F4741 
 8667      505F434F 
 8667      4E4E4543 
 8668              	.LASF206:
 8669 342d 4359424C 		.ascii	"CYBLE_EVT_AIOSC_READ_DESCR_RESPONSE\000"
 8669      455F4556 
 8669      545F4149 
 8669      4F53435F 
 8669      52454144 
 8670              	.LASF276:
 8671 3451 4359424C 		.ascii	"CYBLE_EVT_CPSC_READ_DESCR_RESPONSE\000"
 8671      455F4556 
 8671      545F4350 
 8671      53435F52 
 8671      4541445F 
 8672              	.LASF531:
 8673 3474 6F757473 		.ascii	"outside\000"
 8673      69646500 
 8674              	.LASF403:
 8675 347c 4359424C 		.ascii	"CYBLE_EVT_PLXSC_NOTIFICATION\000"
 8675      455F4556 
 8675      545F504C 
 8675      5853435F 
 8675      4E4F5449 
 8676              	.LASF285:
 8677 3499 4359424C 		.ascii	"CYBLE_EVT_CSCSC_NOTIFICATION\000"
 8677      455F4556 
 8677      545F4353 
 8677      4353435F 
 8677      4E4F5449 
 8678              	.LASF420:
 8679 34b6 4359424C 		.ascii	"CYBLE_EVT_RSCSC_WRITE_DESCR_RESPONSE\000"
ARM GAS  C:\Users\megan\AppData\Local\Temp\ccrMxWsc.s 			page 204


 8679      455F4556 
 8679      545F5253 
 8679      4353435F 
 8679      57524954 
 8680              	.LASF272:
 8681 34db 4359424C 		.ascii	"CYBLE_EVT_CPSC_NOTIFICATION\000"
 8681      455F4556 
 8681      545F4350 
 8681      53435F4E 
 8681      4F544946 
 8682              	.LASF167:
 8683 34f7 636F6E6E 		.ascii	"connHandle\000"
 8683      48616E64 
 8683      6C6500
 8684              	.LASF183:
 8685 3502 4359424C 		.ascii	"CYBLE_EVT_GATTC_INDICATION\000"
 8685      455F4556 
 8685      545F4741 
 8685      5454435F 
 8685      494E4449 
 8686              	.LASF258:
 8687 351d 4359424C 		.ascii	"CYBLE_EVT_CGMSC_INDICATION\000"
 8687      455F4556 
 8687      545F4347 
 8687      4D53435F 
 8687      494E4449 
 8688              	.LASF460:
 8689 3538 4359424C 		.ascii	"CYBLE_EVT_WPTSC_WRITE_DESCR_RESPONSE\000"
 8689      455F4556 
 8689      545F5750 
 8689      5453435F 
 8689      57524954 
 8690              	.LASF416:
 8691 355d 4359424C 		.ascii	"CYBLE_EVT_RSCSC_INDICATION\000"
 8691      455F4556 
 8691      545F5253 
 8691      4353435F 
 8691      494E4449 
 8692              	.LASF470:
 8693 3578 4359424C 		.ascii	"CYBLE_STATE_INITIALIZING\000"
 8693      455F5354 
 8693      4154455F 
 8693      494E4954 
 8693      49414C49 
 8694              	.LASF185:
 8695 3591 4359424C 		.ascii	"CYBLE_EVT_GATTC_INCL_DISCOVERY_FAILED\000"
 8695      455F4556 
 8695      545F4741 
 8695      5454435F 
 8695      494E434C 
 8696              	.LASF271:
 8697 35b7 4359424C 		.ascii	"CYBLE_EVT_CPSS_CHAR_WRITE\000"
 8697      455F4556 
 8697      545F4350 
 8697      53535F43 
 8697      4841525F 
 8698              	.LASF544:
ARM GAS  C:\Users\megan\AppData\Local\Temp\ccrMxWsc.s 			page 205


 8699 35d1 54656D70 		.ascii	"TempOutsideReceive\000"
 8699      4F757473 
 8699      69646552 
 8699      65636569 
 8699      766500
 8700              	.LASF94:
 8701 35e4 4359424C 		.ascii	"CYBLE_EVT_FLASH_CORRUPT\000"
 8701      455F4556 
 8701      545F464C 
 8701      4153485F 
 8701      434F5252 
 8702              	.LASF305:
 8703 35fc 4359424C 		.ascii	"CYBLE_EVT_ESSS_CHAR_WRITE\000"
 8703      455F4556 
 8703      545F4553 
 8703      53535F43 
 8703      4841525F 
 8704              	.LASF452:
 8705 3616 4359424C 		.ascii	"CYBLE_EVT_WPTSS_INDICATION_DISABLED\000"
 8705      455F4556 
 8705      545F5750 
 8705      5453535F 
 8705      494E4449 
 8706              	.LASF318:
 8707 363a 4359424C 		.ascii	"CYBLE_EVT_GLSS_WRITE_CHAR\000"
 8707      455F4556 
 8707      545F474C 
 8707      53535F57 
 8707      52495445 
 8708              	.LASF455:
 8709 3654 4359424C 		.ascii	"CYBLE_EVT_WPTSC_NOTIFICATION\000"
 8709      455F4556 
 8709      545F5750 
 8709      5453435F 
 8709      4E4F5449 
 8710              	.LASF44:
 8711 3671 4359424C 		.ascii	"CYBLE_EVT_GAP_NUMERIC_COMPARISON_REQUEST\000"
 8711      455F4556 
 8711      545F4741 
 8711      505F4E55 
 8711      4D455249 
 8712              	.LASF341:
 8713 369a 4359424C 		.ascii	"CYBLE_EVT_HPSC_READ_CHAR_RESPONSE\000"
 8713      455F4556 
 8713      545F4850 
 8713      53435F52 
 8713      4541445F 
 8714              	.LASF53:
 8715 36bc 4359424C 		.ascii	"CYBLE_EVT_GAP_AUTH_REQ_REPLY_ERR\000"
 8715      455F4556 
 8715      545F4741 
 8715      505F4155 
 8715      54485F52 
 8716              	.LASF228:
 8717 36dd 4359424C 		.ascii	"CYBLE_EVT_BASC_READ_CHAR_RESPONSE\000"
 8717      455F4556 
 8717      545F4241 
ARM GAS  C:\Users\megan\AppData\Local\Temp\ccrMxWsc.s 			page 206


 8717      53435F52 
 8717      4541445F 
 8718              	.LASF8:
 8719 36ff 6C6F6E67 		.ascii	"long long int\000"
 8719      206C6F6E 
 8719      6720696E 
 8719      7400
 8720              	.LASF174:
 8721 370d 61747472 		.ascii	"attrData\000"
 8721      44617461 
 8721      00
 8722              	.LASF266:
 8723 3716 4359424C 		.ascii	"CYBLE_EVT_CPSS_INDICATION_ENABLED\000"
 8723      455F4556 
 8723      545F4350 
 8723      53535F49 
 8723      4E444943 
 8724              	.LASF181:
 8725 3738 4359424C 		.ascii	"CYBLE_EVT_GATTS_INDICATION_ENABLED\000"
 8725      455F4556 
 8725      545F4741 
 8725      5454535F 
 8725      494E4449 
 8726              	.LASF42:
 8727 375b 4359424C 		.ascii	"CYBLE_EVT_GAPC_SCAN_START_STOP\000"
 8727      455F4556 
 8727      545F4741 
 8727      50435F53 
 8727      43414E5F 
 8728              	.LASF162:
 8729 377a 4359424C 		.ascii	"CYBLE_GATT_ATTR_HANDLE_RANGE_T\000"
 8729      455F4741 
 8729      54545F41 
 8729      5454525F 
 8729      48414E44 
 8730              	.LASF145:
 8731 3799 4359424C 		.ascii	"CYBLE_GAPC_ADV_REPORT_T\000"
 8731      455F4741 
 8731      50435F41 
 8731      44565F52 
 8731      45504F52 
 8732              	.LASF173:
 8733 37b1 4359424C 		.ascii	"CYBLE_GATTC_GRP_ATTR_DATA_LIST_T\000"
 8733      455F4741 
 8733      5454435F 
 8733      4752505F 
 8733      41545452 
 8734              	.LASF75:
 8735 37d2 4359424C 		.ascii	"CYBLE_EVT_GATTS_HANDLE_VALUE_CNF\000"
 8735      455F4556 
 8735      545F4741 
 8735      5454535F 
 8735      48414E44 
 8736              	.LASF182:
 8737 37f3 4359424C 		.ascii	"CYBLE_EVT_GATTS_INDICATION_DISABLED\000"
 8737      455F4556 
 8737      545F4741 
ARM GAS  C:\Users\megan\AppData\Local\Temp\ccrMxWsc.s 			page 207


 8737      5454535F 
 8737      494E4449 
 8738              	.LASF556:
 8739 3817 7363616E 		.ascii	"scan_result\000"
 8739      5F726573 
 8739      756C7400 
 8740              	.LASF109:
 8741 3823 4359424C 		.ascii	"CYBLE_ERROR_L2CAP_PSM_WRONG_ENCODING\000"
 8741      455F4552 
 8741      524F525F 
 8741      4C324341 
 8741      505F5053 
 8742              	.LASF385:
 8743 3848 4359424C 		.ascii	"CYBLE_EVT_LNSC_READ_CHAR_RESPONSE\000"
 8743      455F4556 
 8743      545F4C4E 
 8743      53435F52 
 8743      4541445F 
 8744              	.LASF326:
 8745 386a 4359424C 		.ascii	"CYBLE_EVT_HIDSS_NOTIFICATION_DISABLED\000"
 8745      455F4556 
 8745      545F4849 
 8745      4453535F 
 8745      4E4F5449 
 8746              	.LASF578:
 8747 3890 6D61696E 		.ascii	"main.c\000"
 8747      2E6300
 8748              	.LASF67:
 8749 3897 4359424C 		.ascii	"CYBLE_EVT_GATTS_WRITE_REQ\000"
 8749      455F4556 
 8749      545F4741 
 8749      5454535F 
 8749      57524954 
 8750              	.LASF79:
 8751 38b1 4359424C 		.ascii	"CYBLE_EVT_GATTC_LONG_PROCEDURE_END\000"
 8751      455F4556 
 8751      545F4741 
 8751      5454435F 
 8751      4C4F4E47 
 8752              	.LASF245:
 8753 38d4 4359424C 		.ascii	"CYBLE_EVT_BLSC_READ_CHAR_RESPONSE\000"
 8753      455F4556 
 8753      545F424C 
 8753      53435F52 
 8753      4541445F 
 8754              	.LASF146:
 8755 38f6 4359424C 		.ascii	"CYBLE_UUID16\000"
 8755      455F5555 
 8755      49443136 
 8755      00
 8756              	.LASF61:
 8757 3903 4359424C 		.ascii	"CYBLE_EVT_GATTC_READ_BY_TYPE_RSP\000"
 8757      455F4556 
 8757      545F4741 
 8757      5454435F 
 8757      52454144 
 8758              	.LASF119:
ARM GAS  C:\Users\megan\AppData\Local\Temp\ccrMxWsc.s 			page 208


 8759 3924 4359424C 		.ascii	"CYBLE_ERROR_HARDWARE_FAILURE\000"
 8759      455F4552 
 8759      524F525F 
 8759      48415244 
 8759      57415245 
 8760              	.LASF88:
 8761 3941 4359424C 		.ascii	"CYBLE_EVT_L2CAP_CBFC_RX_CREDIT_IND\000"
 8761      455F4556 
 8761      545F4C32 
 8761      4341505F 
 8761      43424643 
 8762              	.LASF240:
 8763 3964 4359424C 		.ascii	"CYBLE_EVT_BLSS_INDICATION_CONFIRMED\000"
 8763      455F4556 
 8763      545F424C 
 8763      53535F49 
 8763      4E444943 
 8764              	.LASF327:
 8765 3988 4359424C 		.ascii	"CYBLE_EVT_HIDSS_BOOT_MODE_ENTER\000"
 8765      455F4556 
 8765      545F4849 
 8765      4453535F 
 8765      424F4F54 
 8766              	.LASF459:
 8767 39a8 4359424C 		.ascii	"CYBLE_EVT_WPTSC_READ_DESCR_RESPONSE\000"
 8767      455F4556 
 8767      545F5750 
 8767      5453435F 
 8767      52454144 
 8768              	.LASF407:
 8769 39cc 4359424C 		.ascii	"CYBLE_EVT_PLXSC_READ_DESCR_RESPONSE\000"
 8769      455F4556 
 8769      545F504C 
 8769      5853435F 
 8769      52454144 
 8770              	.LASF333:
 8771 39f0 4359424C 		.ascii	"CYBLE_EVT_HIDSC_READ_CHAR_RESPONSE\000"
 8771      455F4556 
 8771      545F4849 
 8771      4453435F 
 8771      52454144 
 8772              	.LASF46:
 8773 3a13 4359424C 		.ascii	"CYBLE_EVT_GAP_OOB_GENERATED_NOTIFICATION\000"
 8773      455F4556 
 8773      545F4741 
 8773      505F4F4F 
 8773      425F4745 
 8774              	.LASF339:
 8775 3a3c 4359424C 		.ascii	"CYBLE_EVT_HPSS_CHAR_WRITE\000"
 8775      455F4556 
 8775      545F4850 
 8775      53535F43 
 8775      4841525F 
 8776              	.LASF376:
 8777 3a56 4359424C 		.ascii	"CYBLE_EVT_LLSC_WRITE_CHAR_RESPONSE\000"
 8777      455F4556 
 8777      545F4C4C 
ARM GAS  C:\Users\megan\AppData\Local\Temp\ccrMxWsc.s 			page 209


 8777      53435F57 
 8777      52495445 
 8778              	.LASF134:
 8779 3a79 4359424C 		.ascii	"CYBLE_GAPC_CONN_DIRECTED_ADV\000"
 8779      455F4741 
 8779      50435F43 
 8779      4F4E4E5F 
 8779      44495245 
 8780              	.LASF136:
 8781 3a96 4359424C 		.ascii	"CYBLE_GAPC_NON_CONN_UNDIRECTED_ADV\000"
 8781      455F4741 
 8781      50435F4E 
 8781      4F4E5F43 
 8781      4F4E4E5F 
 8782              	.LASF178:
 8783 3ab9 4359424C 		.ascii	"CYBLE_PASSKEY_ENTRY_REQUEST_REPLY\000"
 8783      455F5041 
 8783      53534B45 
 8783      595F454E 
 8783      5452595F 
 8784              	.LASF89:
 8785 3adb 4359424C 		.ascii	"CYBLE_EVT_L2CAP_CBFC_TX_CREDIT_IND\000"
 8785      455F4556 
 8785      545F4C32 
 8785      4341505F 
 8785      43424643 
 8786              	.LASF483:
 8787 3afe 66616C73 		.ascii	"false\000"
 8787      6500
 8788              	.LASF202:
 8789 3b04 4359424C 		.ascii	"CYBLE_EVT_AIOSC_NOTIFICATION\000"
 8789      455F4556 
 8789      545F4149 
 8789      4F53435F 
 8789      4E4F5449 
 8790              	.LASF158:
 8791 3b21 61747472 		.ascii	"attrHandle\000"
 8791      48616E64 
 8791      6C6500
 8792              	.LASF511:
 8793 3b2c 6D61696E 		.ascii	"main\000"
 8793      00
 8794              	.LASF152:
 8795 3b31 4359424C 		.ascii	"CYBLE_GATT_DB_ATTR_HANDLE_T\000"
 8795      455F4741 
 8795      54545F44 
 8795      425F4154 
 8795      54525F48 
 8796              	.LASF432:
 8797 3b4d 4359424C 		.ascii	"CYBLE_EVT_TPSC_READ_CHAR_RESPONSE\000"
 8797      455F4556 
 8797      545F5450 
 8797      53435F52 
 8797      4541445F 
 8798              	.LASF10:
 8799 3b6f 756E7369 		.ascii	"unsigned int\000"
 8799      676E6564 
ARM GAS  C:\Users\megan\AppData\Local\Temp\ccrMxWsc.s 			page 210


 8799      20696E74 
 8799      00
 8800              	.LASF48:
 8801 3b7c 4359424C 		.ascii	"CYBLE_EVT_GAP_ENHANCE_CONN_COMPLETE\000"
 8801      455F4556 
 8801      545F4741 
 8801      505F454E 
 8801      48414E43 
 8802              	.LASF444:
 8803 3ba0 4359424C 		.ascii	"CYBLE_EVT_UDSC_READ_CHAR_RESPONSE\000"
 8803      455F4556 
 8803      545F5544 
 8803      53435F52 
 8803      4541445F 
 8804              	.LASF525:
 8805 3bc2 47554949 		.ascii	"GUIInit\000"
 8805      6E697400 
 8806              	.LASF2:
 8807 3bca 73686F72 		.ascii	"short int\000"
 8807      7420696E 
 8807      7400
 8808              	.LASF286:
 8809 3bd4 4359424C 		.ascii	"CYBLE_EVT_CSCSC_INDICATION\000"
 8809      455F4556 
 8809      545F4353 
 8809      4353435F 
 8809      494E4449 
 8810              	.LASF34:
 8811 3bef 4359424C 		.ascii	"CYBLE_EVT_GAP_PASSKEY_DISPLAY_REQUEST\000"
 8811      455F4556 
 8811      545F4741 
 8811      505F5041 
 8811      53534B45 
 8812              	.LASF443:
 8813 3c15 4359424C 		.ascii	"CYBLE_EVT_UDSC_NOTIFICATION\000"
 8813      455F4556 
 8813      545F5544 
 8813      53435F4E 
 8813      4F544946 
 8814              	.LASF310:
 8815 3c31 4359424C 		.ascii	"CYBLE_EVT_ESSC_WRITE_CHAR_RESPONSE\000"
 8815      455F4556 
 8815      545F4553 
 8815      53435F57 
 8815      52495445 
 8816              	.LASF573:
 8817 3c54 44657669 		.ascii	"DevicesNearBy\000"
 8817      6365734E 
 8817      65617242 
 8817      7900
 8818              	.LASF354:
 8819 3c62 4359424C 		.ascii	"CYBLE_EVT_HTSS_NOTIFICATION_DISABLED\000"
 8819      455F4556 
 8819      545F4854 
 8819      53535F4E 
 8819      4F544946 
 8820              	.LASF520:
ARM GAS  C:\Users\megan\AppData\Local\Temp\ccrMxWsc.s 			page 211


 8821 3c87 78536361 		.ascii	"xScale\000"
 8821      6C6500
 8822              	.LASF351:
 8823 3c8e 4359424C 		.ascii	"CYBLE_EVT_HRSC_READ_DESCR_RESPONSE\000"
 8823      455F4556 
 8823      545F4852 
 8823      53435F52 
 8823      4541445F 
 8824              	.LASF295:
 8825 3cb1 4359424C 		.ascii	"CYBLE_EVT_CTSC_READ_CHAR_RESPONSE\000"
 8825      455F4556 
 8825      545F4354 
 8825      53435F52 
 8825      4541445F 
 8826              	.LASF307:
 8827 3cd3 4359424C 		.ascii	"CYBLE_EVT_ESSC_NOTIFICATION\000"
 8827      455F4556 
 8827      545F4553 
 8827      53435F4E 
 8827      4F544946 
 8828              	.LASF247:
 8829 3cef 4359424C 		.ascii	"CYBLE_EVT_BLSC_WRITE_DESCR_RESPONSE\000"
 8829      455F4556 
 8829      545F424C 
 8829      53435F57 
 8829      52495445 
 8830              	.LASF120:
 8831 3d13 4359424C 		.ascii	"CYBLE_ERROR_UNSUPPORTED_FEATURE_OR_PARAMETER_VALUE\000"
 8831      455F4552 
 8831      524F525F 
 8831      554E5355 
 8831      50504F52 
 8832              		.ident	"GCC: (GNU Tools for ARM Embedded Processors) 5.4.1 20160609 (release) [ARM/embedded-5-bran
