ARM GAS  C:\Users\megan\AppData\Local\Temp\ccqJAT7j.s 			page 1


   1              		.syntax unified
   2              		.cpu cortex-m0
   3              		.fpu softvfp
   4              		.eabi_attribute 20, 1
   5              		.eabi_attribute 21, 1
   6              		.eabi_attribute 23, 3
   7              		.eabi_attribute 24, 1
   8              		.eabi_attribute 25, 1
   9              		.eabi_attribute 26, 1
  10              		.eabi_attribute 30, 6
  11              		.eabi_attribute 34, 0
  12              		.eabi_attribute 18, 4
  13              		.thumb
  14              		.syntax unified
  15              		.file	"main.c"
  16              		.text
  17              	.Ltext0:
  18              		.cfi_sections	.debug_frame
  19              		.comm	_cs,1,1
  20              		.comm	_rst,1,1
  21              		.comm	_width,2,2
  22              		.comm	_height,2,2
  23              		.comm	_textScale,1,1
  24              		.comm	_size,1,1
  25              		.comm	outside,4,4
  26              		.comm	settings,1,4
  27              		.comm	peerAddr,1785,4
  28              		.global	DevicesNearBy
  29              		.bss
  30              		.type	DevicesNearBy, %object
  31              		.size	DevicesNearBy, 1
  32              	DevicesNearBy:
  33 0000 00       		.space	1
  34              		.comm	fl_temp_bytes,4,4
  35              		.global	byte
  36              		.type	byte, %object
  37              		.size	byte, 1
  38              	byte:
  39 0001 00       		.space	1
  40              		.comm	bin1,8,4
  41              		.section	.text.main,"ax",%progbits
  42              		.align	2
  43              		.global	main
  44              		.code	16
  45              		.thumb_func
  46              		.type	main, %function
  47              	main:
  48              	.LFB35:
  49              		.file 1 "main.c"
   1:main.c        **** /* ========================================
   2:main.c        ****  *
   3:main.c        ****  * Copyright Megan Bird, 2018
   4:main.c        ****  * All Rights Reserved
   5:main.c        ****  * UNPUBLISHED, LICENSED SOFTWARE.
   6:main.c        ****  *
   7:main.c        ****  * CONFIDENTIAL AND PROPRIETARY INFORMATION
   8:main.c        ****  * WHICH IS THE PROPERTY OF Megan Bird.
ARM GAS  C:\Users\megan\AppData\Local\Temp\ccqJAT7j.s 			page 2


   9:main.c        ****  *
  10:main.c        ****  * ========================================
  11:main.c        **** */
  12:main.c        **** 
  13:main.c        **** #include <project.h>
  14:main.c        **** #include <RA8875.h>
  15:main.c        **** #include <math.h>
  16:main.c        **** 
  17:main.c        **** /*  Declarations    */
  18:main.c        **** typedef struct Bin {
  19:main.c        ****     float32 actual_temp;
  20:main.c        ****     uint8_t set_temp;
  21:main.c        ****     bool    fan_on;
  22:main.c        **** } Bin;
  23:main.c        **** 
  24:main.c        **** struct Outside {
  25:main.c        ****     float32 temp;
  26:main.c        **** } outside;
  27:main.c        **** 
  28:main.c        **** typedef enum Mode {
  29:main.c        ****     manual,
  30:main.c        ****     automatic
  31:main.c        **** } Mode;
  32:main.c        **** 
  33:main.c        **** struct Settings {
  34:main.c        ****     Mode   mode;
  35:main.c        **** } settings;
  36:main.c        **** 
  37:main.c        **** void StackEventHandler( uint32 eventCode, void *eventParam );
  38:main.c        **** void LCDInit(void);
  39:main.c        **** void LCDInitDemo();
  40:main.c        **** void LCDTouchscreenDemo();
  41:main.c        **** void GUISplashscreen();
  42:main.c        **** void GUIInit();
  43:main.c        **** void GUIUpdateBin1ActualTemp();
  44:main.c        **** void GUITest();
  45:main.c        **** void TempReceive(Bin * bin, uint8_t * fl_bytes);
  46:main.c        **** void PrintInt(uint8_t n);
  47:main.c        **** void PrintFloat(float n);
  48:main.c        **** void RegReadTest();
  49:main.c        **** void BLEStayConnected();
  50:main.c        **** void FanTest();
  51:main.c        **** 
  52:main.c        **** /* define the test register to switch the PA/LNA hardware control pins */
  53:main.c        **** #define CYREG_SRSS_TST_DDFT_CTRL        0x40030008
  54:main.c        **** 
  55:main.c        **** /* Global Variables */
  56:main.c        **** #define CYBLE_MAX_ADV_DEVICES           255
  57:main.c        **** 
  58:main.c        **** CYBLE_GAP_BD_ADDR_T                     peerAddr[CYBLE_MAX_ADV_DEVICES];
  59:main.c        **** uint8                                   DevicesNearBy = 0;
  60:main.c        **** uint8_t                                 fl_temp_bytes[4];
  61:main.c        **** uint8_t                                 byte = 0;
  62:main.c        **** Bin                                     bin1;
  63:main.c        **** 
  64:main.c        **** int main()
  65:main.c        **** {
ARM GAS  C:\Users\megan\AppData\Local\Temp\ccqJAT7j.s 			page 3


  50              		.loc 1 65 0
  51              		.cfi_startproc
  52              		@ args = 0, pretend = 0, frame = 0
  53              		@ frame_needed = 1, uses_anonymous_args = 0
  54 0000 80B5     		push	{r7, lr}
  55              		.cfi_def_cfa_offset 8
  56              		.cfi_offset 7, -8
  57              		.cfi_offset 14, -4
  58 0002 00AF     		add	r7, sp, #0
  59              		.cfi_def_cfa_register 7
  66:main.c        ****     // Defaults
  67:main.c        ****     bin1.actual_temp = 0;
  60              		.loc 1 67 0
  61 0004 084B     		ldr	r3, .L3
  62 0006 0022     		movs	r2, #0
  63 0008 1A60     		str	r2, [r3]
  68:main.c        ****     
  69:main.c        ****     
  70:main.c        ****     CyGlobalIntEnable;   /* Enable global interrupts */
  64              		.loc 1 70 0
  65              		.syntax divided
  66              	@ 70 "main.c" 1
  67 000a 62B6     		CPSIE   i
  68              	@ 0 "" 2
  71:main.c        ****     
  72:main.c        ****     /*  LCD Setup   */
  73:main.c        ****     LCDInit();
  69              		.loc 1 73 0
  70              		.thumb
  71              		.syntax unified
  72 000c FFF7FEFF 		bl	LCDInit
  74:main.c        ****     //RegReadTest();
  75:main.c        ****     //CyDelay(10000);
  76:main.c        ****     //LCDInitDemo();
  77:main.c        ****     //LCDTouchscreenDemo();
  78:main.c        ****     //RegReadTest();
  79:main.c        ****     //GUITest();
  80:main.c        ****     
  81:main.c        ****     //GUISplashscreen();
  82:main.c        ****     GUIInit();
  73              		.loc 1 82 0
  74 0010 FFF7FEFF 		bl	GUIInit
  83:main.c        ****     
  84:main.c        ****     /* BLE Setup    */
  85:main.c        ****     CyBle_Start( StackEventHandler );
  75              		.loc 1 85 0
  76 0014 054B     		ldr	r3, .L3+4
  77 0016 1800     		movs	r0, r3
  78 0018 FFF7FEFF 		bl	CyBle_Start
  79              	.L2:
  86:main.c        ****     
  87:main.c        ****     
  88:main.c        ****     /* Fan Test     */
  89:main.c        ****     //FanTest();
  90:main.c        ****     
  91:main.c        ****     for(;;)
  92:main.c        ****     {
ARM GAS  C:\Users\megan\AppData\Local\Temp\ccqJAT7j.s 			page 4


  93:main.c        ****         BLEStayConnected();
  80              		.loc 1 93 0 discriminator 1
  81 001c FFF7FEFF 		bl	BLEStayConnected
  94:main.c        ****         CyBle_ProcessEvents();
  82              		.loc 1 94 0 discriminator 1
  83 0020 FFF7FEFF 		bl	CyBle_ProcessEvents
  95:main.c        ****     }
  84              		.loc 1 95 0 discriminator 1
  85 0024 FAE7     		b	.L2
  86              	.L4:
  87 0026 C046     		.align	2
  88              	.L3:
  89 0028 00000000 		.word	bin1
  90 002c 00000000 		.word	StackEventHandler
  91              		.cfi_endproc
  92              	.LFE35:
  93              		.size	main, .-main
  94              		.section	.rodata
  95              		.align	2
  96              	.LC3:
  97 0000 4359424C 		.ascii	"CYBLE_ERROR_OK\000"
  97      455F4552 
  97      524F525F 
  97      4F4B00
  98 000f 00       		.align	2
  99              	.LC5:
 100 0010 4359424C 		.ascii	"CYBLE_ERROR_OCCURED\000"
 100      455F4552 
 100      524F525F 
 100      4F434355 
 100      52454400 
 101              		.align	2
 102              	.LC7:
 103 0024 494E5641 		.ascii	"INVALID PARAMTER\000"
 103      4C494420 
 103      50415241 
 103      4D544552 
 103      00
 104 0035 000000   		.align	2
 105              	.LC9:
 106 0038 494E5641 		.ascii	"INVALID OPERATION\000"
 106      4C494420 
 106      4F504552 
 106      4154494F 
 106      4E00
 107 004a 0000     		.align	2
 108              	.LC11:
 109 004c 53657276 		.ascii	"Service Count: \000"
 109      69636520 
 109      436F756E 
 109      743A2000 
 110              		.align	2
 111              	.LC13:
 112 005c 44617461 		.ascii	"Data Length: \000"
 112      204C656E 
 112      6774683A 
 112      2000
ARM GAS  C:\Users\megan\AppData\Local\Temp\ccqJAT7j.s 			page 5


 113 006a 0000     		.align	2
 114              	.LC15:
 115 006c 4E6F7469 		.ascii	"Notification Received\000"
 115      66696361 
 115      74696F6E 
 115      20526563 
 115      65697665 
 116              		.section	.text.StackEventHandler,"ax",%progbits
 117              		.align	2
 118              		.global	StackEventHandler
 119              		.code	16
 120              		.thumb_func
 121              		.type	StackEventHandler, %function
 122              	StackEventHandler:
 123              	.LFB36:
  96:main.c        **** }
  97:main.c        **** 
  98:main.c        **** 
  99:main.c        **** void StackEventHandler( uint32 eventCode, void *eventParam ) {
 124              		.loc 1 99 0
 125              		.cfi_startproc
 126              		@ args = 0, pretend = 0, frame = 248
 127              		@ frame_needed = 1, uses_anonymous_args = 0
 128 0000 90B5     		push	{r4, r7, lr}
 129              		.cfi_def_cfa_offset 12
 130              		.cfi_offset 4, -12
 131              		.cfi_offset 7, -8
 132              		.cfi_offset 14, -4
 133 0002 BFB0     		sub	sp, sp, #252
 134              		.cfi_def_cfa_offset 264
 135 0004 00AF     		add	r7, sp, #0
 136              		.cfi_def_cfa_register 7
 137 0006 7860     		str	r0, [r7, #4]
 138 0008 3960     		str	r1, [r7]
 100:main.c        ****     
 101:main.c        ****      //------ Declarations ------/
 102:main.c        ****     // LCD Strings
 103:main.c        ****     char ok[] = "CYBLE_ERROR_OK";
 139              		.loc 1 103 0
 140 000a E423     		movs	r3, #228
 141 000c FB18     		adds	r3, r7, r3
 142 000e 9F4A     		ldr	r2, .L28
 143 0010 13CA     		ldmia	r2!, {r0, r1, r4}
 144 0012 13C3     		stmia	r3!, {r0, r1, r4}
 145 0014 1188     		ldrh	r1, [r2]
 146 0016 1980     		strh	r1, [r3]
 147 0018 9278     		ldrb	r2, [r2, #2]
 148 001a 9A70     		strb	r2, [r3, #2]
 104:main.c        ****     char error[] = "CYBLE_ERROR_OCCURED";
 149              		.loc 1 104 0
 150 001c D023     		movs	r3, #208
 151 001e FB18     		adds	r3, r7, r3
 152 0020 9B4A     		ldr	r2, .L28+4
 153 0022 13CA     		ldmia	r2!, {r0, r1, r4}
 154 0024 13C3     		stmia	r3!, {r0, r1, r4}
 155 0026 03CA     		ldmia	r2!, {r0, r1}
 156 0028 03C3     		stmia	r3!, {r0, r1}
ARM GAS  C:\Users\megan\AppData\Local\Temp\ccqJAT7j.s 			page 6


 105:main.c        ****     char param[] = "INVALID PARAMTER";
 157              		.loc 1 105 0
 158 002a BC23     		movs	r3, #188
 159 002c FB18     		adds	r3, r7, r3
 160 002e 994A     		ldr	r2, .L28+8
 161 0030 13CA     		ldmia	r2!, {r0, r1, r4}
 162 0032 13C3     		stmia	r3!, {r0, r1, r4}
 163 0034 1168     		ldr	r1, [r2]
 164 0036 1960     		str	r1, [r3]
 165 0038 1279     		ldrb	r2, [r2, #4]
 166 003a 1A71     		strb	r2, [r3, #4]
 106:main.c        ****     char operation[] = "INVALID OPERATION";
 167              		.loc 1 106 0
 168 003c A823     		movs	r3, #168
 169 003e FB18     		adds	r3, r7, r3
 170 0040 954A     		ldr	r2, .L28+12
 171 0042 13CA     		ldmia	r2!, {r0, r1, r4}
 172 0044 13C3     		stmia	r3!, {r0, r1, r4}
 173 0046 1168     		ldr	r1, [r2]
 174 0048 1960     		str	r1, [r3]
 175 004a 9288     		ldrh	r2, [r2, #4]
 176 004c 9A80     		strh	r2, [r3, #4]
 107:main.c        ****     char serviceCount[] = "Service Count: ";
 177              		.loc 1 107 0
 178 004e 9823     		movs	r3, #152
 179 0050 FB18     		adds	r3, r7, r3
 180 0052 924A     		ldr	r2, .L28+16
 181 0054 13CA     		ldmia	r2!, {r0, r1, r4}
 182 0056 13C3     		stmia	r3!, {r0, r1, r4}
 183 0058 1268     		ldr	r2, [r2]
 184 005a 1A60     		str	r2, [r3]
 108:main.c        ****     char dataLength[] = "Data Length: ";
 185              		.loc 1 108 0
 186 005c 8823     		movs	r3, #136
 187 005e FB18     		adds	r3, r7, r3
 188 0060 8F4A     		ldr	r2, .L28+20
 189 0062 13CA     		ldmia	r2!, {r0, r1, r4}
 190 0064 13C3     		stmia	r3!, {r0, r1, r4}
 191 0066 1288     		ldrh	r2, [r2]
 192 0068 1A80     		strh	r2, [r3]
 109:main.c        ****     char space[] = " ";
 193              		.loc 1 109 0
 194 006a 8423     		movs	r3, #132
 195 006c FB18     		adds	r3, r7, r3
 196 006e 2022     		movs	r2, #32
 197 0070 1A80     		strh	r2, [r3]
 110:main.c        ****     char notification[] = "Notification Received";
 198              		.loc 1 110 0
 199 0072 6C23     		movs	r3, #108
 200 0074 FB18     		adds	r3, r7, r3
 201 0076 8B4A     		ldr	r2, .L28+24
 202 0078 13CA     		ldmia	r2!, {r0, r1, r4}
 203 007a 13C3     		stmia	r3!, {r0, r1, r4}
 204 007c 03CA     		ldmia	r2!, {r0, r1}
 205 007e 03C3     		stmia	r3!, {r0, r1}
 206 0080 1288     		ldrh	r2, [r2]
 207 0082 1A80     		strh	r2, [r3]
ARM GAS  C:\Users\megan\AppData\Local\Temp\ccqJAT7j.s 			page 7


 111:main.c        ****     
 112:main.c        ****     CYBLE_GAPC_ADV_REPORT_T                 advReport;
 113:main.c        ****     CYBLE_GATTC_READ_BY_TYPE_REQ_T          readByTypeReqParam;
 114:main.c        ****     CYBLE_GATTC_READ_BY_TYPE_RSP_PARAM_T    readResponse;
 115:main.c        ****     CYBLE_GATTC_HANDLE_VALUE_NTF_PARAM_T    notificationData;
 116:main.c        ****     CYBLE_GATT_ATTR_HANDLE_RANGE_T          range;
 117:main.c        ****     CYBLE_UUID_T                            uuid;
 118:main.c        ****     CYBLE_API_RESULT_T                      apiResult;
 119:main.c        ****    
 120:main.c        ****     uint8                                   i;
 121:main.c        ****     uint8_t                                 fl_bytes[4];
 122:main.c        ****     
 123:main.c        ****     
 124:main.c        ****     switch( eventCode )
 208              		.loc 1 124 0
 209 0084 7B68     		ldr	r3, [r7, #4]
 210 0086 412B     		cmp	r3, #65
 211 0088 00D1     		bne	.LCB102
 212 008a F3E0     		b	.L24	@long jump
 213              	.LCB102:
 214 008c 06D8     		bhi	.L8
 215 008e 202B     		cmp	r3, #32
 216 0090 16D0     		beq	.L9
 217 0092 272B     		cmp	r3, #39
 218 0094 4ED0     		beq	.L10
 219 0096 012B     		cmp	r3, #1
 220 0098 0BD0     		beq	.L11
 125:main.c        ****     {
 126:main.c        ****         /* Generic events */
 127:main.c        **** 
 128:main.c        ****         case CYBLE_EVT_STACK_ON:
 129:main.c        ****             /* Configure the Link Layer to automatically switch PA
 130:main.c        ****              * control pin P3[2] and LNA control pin P3[3] */
 131:main.c        ****             CY_SET_XTND_REG32((void CYFAR *)(CYREG_BLE_BLESS_RF_CONFIG), 0x0331);
 132:main.c        ****             CY_SET_XTND_REG32((void CYFAR *)(CYREG_SRSS_TST_DDFT_CTRL), 0x80000302);
 133:main.c        ****             /* CyBle_GappStartAdvertisement( CYBLE_ADVERTISING_FAST ); */
 134:main.c        ****         break;
 135:main.c        ****             
 136:main.c        ****         case CYBLE_EVT_GAPC_SCAN_PROGRESS_RESULT:
 137:main.c        ****             
 138:main.c        ****             /*copy the advertising packet recieved to advReport*/
 139:main.c        ****             advReport=*(CYBLE_GAPC_ADV_REPORT_T *)eventParam;
 140:main.c        ****             
 141:main.c        ****             if((DevicesNearBy <= CYBLE_MAX_ADV_DEVICES) && (advReport.eventType!=CYBLE_GAPC_SCAN_RS
 142:main.c        ****             {
 143:main.c        ****                 for(i = 0u; i < CYBLE_GAP_BD_ADDR_SIZE; i++)
 144:main.c        ****                 {
 145:main.c        ****                     peerAddr[DevicesNearBy].bdAddr[i] = advReport.peerBdAddr[i];
 146:main.c        ****                 }                    
 147:main.c        ****                 
 148:main.c        ****                 /* Increase the number of peer devices when 
 149:main.c        ****                  * received aadvertising packet from different peer devices.*/
 150:main.c        ****                 ++DevicesNearBy;
 151:main.c        ****             }  
 152:main.c        ****             
 153:main.c        ****         break;
 154:main.c        ****             
ARM GAS  C:\Users\megan\AppData\Local\Temp\ccqJAT7j.s 			page 8


 155:main.c        ****         /* This event is received when connection is established */
 156:main.c        ****         case CYBLE_EVT_GATT_CONNECT_IND:
 157:main.c        ****   
 158:main.c        ****              /* Retrieve BLE connection handle */
 159:main.c        ****              //connHandle = *(CYBLE_CONN_HANDLE_T *) eventParam;
 160:main.c        ****             
 161:main.c        ****          break;
 162:main.c        ****             
 163:main.c        ****         case CYBLE_EVT_GAP_DEVICE_CONNECTED:
 164:main.c        ****                 /*Start to dicovery the servioes of the serve after connection*/
 165:main.c        ****                 CyBle_GattcStartDiscovery(cyBle_connHandle);  
 166:main.c        ****         break;
 167:main.c        ****             
 168:main.c        ****         case CYBLE_EVT_GATTC_DISCOVERY_COMPLETE:
 169:main.c        ****            // printf("\r\nDiscovery complete.\r\n");
 170:main.c        ****             
 171:main.c        ****             range.startHandle   = 0x0001;
 172:main.c        ****             range.endHandle     = 0xFFFF;
 173:main.c        ****             uuid.uuid16         = 0x14BF; 
 174:main.c        ****    
 175:main.c        ****             readByTypeReqParam.range = range;
 176:main.c        ****             readByTypeReqParam.uuid = uuid;
 177:main.c        ****             readByTypeReqParam.uuidFormat = 0x01;
 178:main.c        ****             
 179:main.c        ****             //textWrite(serviceCount,strlen(serviceCount));
 180:main.c        ****             //PrintInt(CYBLE_SRVI_COUNT);
 181:main.c        ****             
 182:main.c        ****             //apiResult = CyBle_GattcDiscoverAllCharacteristics(connHandle, range);
 183:main.c        ****    
 184:main.c        ****             apiResult = CyBle_GattcReadUsingCharacteristicUuid(cyBle_connHandle,&readByTypeReqParam
 185:main.c        ****             
 186:main.c        **** //            if ( apiResult == CYBLE_ERROR_OK )
 187:main.c        **** //                textWrite(ok,strlen(ok));
 188:main.c        **** 
 189:main.c        ****         break;
 190:main.c        ****         
 191:main.c        ****         case CYBLE_EVT_GATTC_READ_BY_TYPE_RSP:
 192:main.c        ****             
 193:main.c        ****             readResponse = *(CYBLE_GATTC_READ_BY_TYPE_RSP_PARAM_T *) eventParam;
 194:main.c        ****             
 195:main.c        ****             //textWrite(dataLength,strlen(dataLength));
 196:main.c        ****             //PrintInt(readResponse.attrData.length - 2);
 197:main.c        ****             
 198:main.c        ****             for( i=2 ; i < readResponse.attrData.length; i++)
 199:main.c        ****             {
 200:main.c        ****                 //PrintInt(readResponse.attrData.attrValue[i]);
 201:main.c        ****                 //textWrite(space,strlen(space));
 202:main.c        ****                 
 203:main.c        ****                 fl_bytes[i-2] = readResponse.attrData.attrValue[i];
 204:main.c        ****             }
 205:main.c        ****             
 206:main.c        ****             // convert 4 bytes to float
 207:main.c        ****            // PrintFloat( *(float32*)(fl_bytes) );
 208:main.c        ****             if (notificationData.handleValPair.attrHandle == 0x0012) {
 209:main.c        ****                     TempReceive(&bin1,fl_temp_bytes);
 210:main.c        ****             }
 211:main.c        ****             
ARM GAS  C:\Users\megan\AppData\Local\Temp\ccqJAT7j.s 			page 9


 212:main.c        ****         break;
 213:main.c        ****                 
 214:main.c        ****         case CYBLE_EVT_GATTC_HANDLE_VALUE_NTF:
 215:main.c        ****                 
 216:main.c        ****             //textWrite(notification,strlen(notification));
 217:main.c        ****             
 218:main.c        ****             notificationData = *(CYBLE_GATTC_HANDLE_VALUE_NTF_PARAM_T *) eventParam;
 219:main.c        ****             
 220:main.c        ****             fl_temp_bytes[byte++] = * notificationData.handleValPair.value.val;
 221:main.c        **** 
 222:main.c        ****             // convert 4 bytes to float
 223:main.c        ****             if (byte == 4) {
 224:main.c        ****                 //PrintFloat( *(float32*)(fl_temp_bytes) );
 225:main.c        ****                 //textWrite(space,strlen(space));  
 226:main.c        ****                 
 227:main.c        ****                 if (notificationData.handleValPair.attrHandle == 0x0012) {
 228:main.c        ****                     TempReceive(&bin1,fl_temp_bytes);
 229:main.c        ****                 }
 230:main.c        ****                 
 231:main.c        ****                 byte = 0;
 232:main.c        ****             }
 233:main.c        ****                 
 234:main.c        ****         break;
 235:main.c        ****             
 236:main.c        ****         /* default catch-all case */
 237:main.c        ****         default:
 238:main.c        ****         break;    
 221              		.loc 1 238 0
 222 009a F2E0     		b	.L15
 223              	.L8:
 124:main.c        ****     {
 224              		.loc 1 124 0
 225 009c 522B     		cmp	r3, #82
 226 009e 00D1     		bne	.LCB116
 227 00a0 C1E0     		b	.L12	@long jump
 228              	.LCB116:
 229 00a2 1222     		movs	r2, #18
 230 00a4 FF32     		adds	r2, r2, #255
 231 00a6 9342     		cmp	r3, r2
 232 00a8 53D0     		beq	.L13
 233 00aa 462B     		cmp	r3, #70
 234 00ac 00D1     		bne	.LCB122
 235 00ae 85E0     		b	.L14	@long jump
 236              	.LCB122:
 237              		.loc 1 238 0
 238 00b0 E7E0     		b	.L15
 239              	.L11:
 131:main.c        ****             CY_SET_XTND_REG32((void CYFAR *)(CYREG_SRSS_TST_DDFT_CTRL), 0x80000302);
 240              		.loc 1 131 0
 241 00b2 7D4B     		ldr	r3, .L28+28
 242 00b4 7D4A     		ldr	r2, .L28+32
 243 00b6 1A60     		str	r2, [r3]
 132:main.c        ****             /* CyBle_GappStartAdvertisement( CYBLE_ADVERTISING_FAST ); */
 244              		.loc 1 132 0
 245 00b8 7D4B     		ldr	r3, .L28+36
 246 00ba 7E4A     		ldr	r2, .L28+40
 247 00bc 1A60     		str	r2, [r3]
ARM GAS  C:\Users\megan\AppData\Local\Temp\ccqJAT7j.s 			page 10


 134:main.c        ****             
 248              		.loc 1 134 0
 249 00be E0E0     		b	.L15
 250              	.L9:
 139:main.c        ****             
 251              		.loc 1 139 0
 252 00c0 5823     		movs	r3, #88
 253 00c2 FB18     		adds	r3, r7, r3
 254 00c4 3A68     		ldr	r2, [r7]
 255 00c6 13CA     		ldmia	r2!, {r0, r1, r4}
 256 00c8 13C3     		stmia	r3!, {r0, r1, r4}
 257 00ca 03CA     		ldmia	r2!, {r0, r1}
 258 00cc 03C3     		stmia	r3!, {r0, r1}
 141:main.c        ****             {
 259              		.loc 1 141 0
 260 00ce 5823     		movs	r3, #88
 261 00d0 FB18     		adds	r3, r7, r3
 262 00d2 1B78     		ldrb	r3, [r3]
 263 00d4 042B     		cmp	r3, #4
 264 00d6 00D1     		bne	.LCB146
 265 00d8 CEE0     		b	.L25	@long jump
 266              	.LCB146:
 143:main.c        ****                 {
 267              		.loc 1 143 0
 268 00da F723     		movs	r3, #247
 269 00dc FB18     		adds	r3, r7, r3
 270 00de 0022     		movs	r2, #0
 271 00e0 1A70     		strb	r2, [r3]
 272 00e2 1BE0     		b	.L17
 273              	.L18:
 145:main.c        ****                 }                    
 274              		.loc 1 145 0 discriminator 3
 275 00e4 744B     		ldr	r3, .L28+44
 276 00e6 1B78     		ldrb	r3, [r3]
 277 00e8 1800     		movs	r0, r3
 278 00ea F723     		movs	r3, #247
 279 00ec FB18     		adds	r3, r7, r3
 280 00ee 1A78     		ldrb	r2, [r3]
 281 00f0 5823     		movs	r3, #88
 282 00f2 FB18     		adds	r3, r7, r3
 283 00f4 5968     		ldr	r1, [r3, #4]
 284 00f6 F723     		movs	r3, #247
 285 00f8 FB18     		adds	r3, r7, r3
 286 00fa 1B78     		ldrb	r3, [r3]
 287 00fc CB18     		adds	r3, r1, r3
 288 00fe 1C78     		ldrb	r4, [r3]
 289 0100 6E49     		ldr	r1, .L28+48
 290 0102 0300     		movs	r3, r0
 291 0104 DB00     		lsls	r3, r3, #3
 292 0106 1B1A     		subs	r3, r3, r0
 293 0108 CB18     		adds	r3, r1, r3
 294 010a 211C     		adds	r1, r4, #0
 295 010c 9954     		strb	r1, [r3, r2]
 143:main.c        ****                 {
 296              		.loc 1 143 0 discriminator 3
 297 010e F723     		movs	r3, #247
 298 0110 FB18     		adds	r3, r7, r3
ARM GAS  C:\Users\megan\AppData\Local\Temp\ccqJAT7j.s 			page 11


 299 0112 1A78     		ldrb	r2, [r3]
 300 0114 F723     		movs	r3, #247
 301 0116 FB18     		adds	r3, r7, r3
 302 0118 0132     		adds	r2, r2, #1
 303 011a 1A70     		strb	r2, [r3]
 304              	.L17:
 143:main.c        ****                 {
 305              		.loc 1 143 0 is_stmt 0 discriminator 1
 306 011c F723     		movs	r3, #247
 307 011e FB18     		adds	r3, r7, r3
 308 0120 1B78     		ldrb	r3, [r3]
 309 0122 052B     		cmp	r3, #5
 310 0124 DED9     		bls	.L18
 150:main.c        ****             }  
 311              		.loc 1 150 0 is_stmt 1
 312 0126 644B     		ldr	r3, .L28+44
 313 0128 1B78     		ldrb	r3, [r3]
 314 012a 0133     		adds	r3, r3, #1
 315 012c DAB2     		uxtb	r2, r3
 316 012e 624B     		ldr	r3, .L28+44
 317 0130 1A70     		strb	r2, [r3]
 153:main.c        ****             
 318              		.loc 1 153 0
 319 0132 A1E0     		b	.L25
 320              	.L10:
 165:main.c        ****         break;
 321              		.loc 1 165 0
 322 0134 624B     		ldr	r3, .L28+52
 323 0136 1A78     		ldrb	r2, [r3]
 324 0138 5B78     		ldrb	r3, [r3, #1]
 325 013a 1B02     		lsls	r3, r3, #8
 326 013c 1A43     		orrs	r2, r3
 327 013e 0023     		movs	r3, #0
 328 0140 1204     		lsls	r2, r2, #16
 329 0142 120C     		lsrs	r2, r2, #16
 330 0144 1B0C     		lsrs	r3, r3, #16
 331 0146 1B04     		lsls	r3, r3, #16
 332 0148 1343     		orrs	r3, r2
 333 014a 1800     		movs	r0, r3
 334 014c FFF7FEFF 		bl	CyBle_GattcStartDiscovery
 166:main.c        ****             
 335              		.loc 1 166 0
 336 0150 97E0     		b	.L15
 337              	.L13:
 171:main.c        ****             range.endHandle     = 0xFFFF;
 338              		.loc 1 171 0
 339 0152 2023     		movs	r3, #32
 340 0154 FB18     		adds	r3, r7, r3
 341 0156 0122     		movs	r2, #1
 342 0158 1A80     		strh	r2, [r3]
 172:main.c        ****             uuid.uuid16         = 0x14BF; 
 343              		.loc 1 172 0
 344 015a 2023     		movs	r3, #32
 345 015c FB18     		adds	r3, r7, r3
 346 015e 0122     		movs	r2, #1
 347 0160 5242     		rsbs	r2, r2, #0
 348 0162 5A80     		strh	r2, [r3, #2]
ARM GAS  C:\Users\megan\AppData\Local\Temp\ccqJAT7j.s 			page 12


 173:main.c        ****    
 349              		.loc 1 173 0
 350 0164 1023     		movs	r3, #16
 351 0166 FB18     		adds	r3, r7, r3
 352 0168 564A     		ldr	r2, .L28+56
 353 016a 1A80     		strh	r2, [r3]
 175:main.c        ****             readByTypeReqParam.uuid = uuid;
 354              		.loc 1 175 0
 355 016c 4023     		movs	r3, #64
 356 016e FB18     		adds	r3, r7, r3
 357 0170 2022     		movs	r2, #32
 358 0172 BA18     		adds	r2, r7, r2
 359 0174 1268     		ldr	r2, [r2]
 360 0176 1A60     		str	r2, [r3]
 176:main.c        ****             readByTypeReqParam.uuidFormat = 0x01;
 361              		.loc 1 176 0
 362 0178 4023     		movs	r3, #64
 363 017a FB18     		adds	r3, r7, r3
 364 017c 1022     		movs	r2, #16
 365 017e BA18     		adds	r2, r7, r2
 366 0180 0433     		adds	r3, r3, #4
 367 0182 13CA     		ldmia	r2!, {r0, r1, r4}
 368 0184 13C3     		stmia	r3!, {r0, r1, r4}
 369 0186 1268     		ldr	r2, [r2]
 370 0188 1A60     		str	r2, [r3]
 177:main.c        ****             
 371              		.loc 1 177 0
 372 018a 4023     		movs	r3, #64
 373 018c FB18     		adds	r3, r7, r3
 374 018e 0122     		movs	r2, #1
 375 0190 1A75     		strb	r2, [r3, #20]
 184:main.c        ****             
 376              		.loc 1 184 0
 377 0192 F423     		movs	r3, #244
 378 0194 FC18     		adds	r4, r7, r3
 379 0196 4023     		movs	r3, #64
 380 0198 F918     		adds	r1, r7, r3
 381 019a 494B     		ldr	r3, .L28+52
 382 019c 1A78     		ldrb	r2, [r3]
 383 019e 5B78     		ldrb	r3, [r3, #1]
 384 01a0 1B02     		lsls	r3, r3, #8
 385 01a2 1A43     		orrs	r2, r3
 386 01a4 0023     		movs	r3, #0
 387 01a6 1204     		lsls	r2, r2, #16
 388 01a8 120C     		lsrs	r2, r2, #16
 389 01aa 1B0C     		lsrs	r3, r3, #16
 390 01ac 1B04     		lsls	r3, r3, #16
 391 01ae 1343     		orrs	r3, r2
 392 01b0 1800     		movs	r0, r3
 393 01b2 FFF7FEFF 		bl	CyBle_GattcReadUsingCharacteristicUuid
 394 01b6 0300     		movs	r3, r0
 395 01b8 2380     		strh	r3, [r4]
 189:main.c        ****         
 396              		.loc 1 189 0
 397 01ba 62E0     		b	.L15
 398              	.L14:
 193:main.c        ****             
ARM GAS  C:\Users\megan\AppData\Local\Temp\ccqJAT7j.s 			page 13


 399              		.loc 1 193 0
 400 01bc 3423     		movs	r3, #52
 401 01be FB18     		adds	r3, r7, r3
 402 01c0 3A68     		ldr	r2, [r7]
 403 01c2 13CA     		ldmia	r2!, {r0, r1, r4}
 404 01c4 13C3     		stmia	r3!, {r0, r1, r4}
 198:main.c        ****             {
 405              		.loc 1 198 0
 406 01c6 F723     		movs	r3, #247
 407 01c8 FB18     		adds	r3, r7, r3
 408 01ca 0222     		movs	r2, #2
 409 01cc 1A70     		strb	r2, [r3]
 410 01ce 15E0     		b	.L19
 411              	.L20:
 203:main.c        ****             }
 412              		.loc 1 203 0 discriminator 3
 413 01d0 F723     		movs	r3, #247
 414 01d2 FB18     		adds	r3, r7, r3
 415 01d4 1B78     		ldrb	r3, [r3]
 416 01d6 9A1E     		subs	r2, r3, #2
 417 01d8 3423     		movs	r3, #52
 418 01da FB18     		adds	r3, r7, r3
 419 01dc 5968     		ldr	r1, [r3, #4]
 420 01de F723     		movs	r3, #247
 421 01e0 FB18     		adds	r3, r7, r3
 422 01e2 1B78     		ldrb	r3, [r3]
 423 01e4 CB18     		adds	r3, r1, r3
 424 01e6 1978     		ldrb	r1, [r3]
 425 01e8 0C23     		movs	r3, #12
 426 01ea FB18     		adds	r3, r7, r3
 427 01ec 9954     		strb	r1, [r3, r2]
 198:main.c        ****             {
 428              		.loc 1 198 0 discriminator 3
 429 01ee F723     		movs	r3, #247
 430 01f0 FB18     		adds	r3, r7, r3
 431 01f2 1A78     		ldrb	r2, [r3]
 432 01f4 F723     		movs	r3, #247
 433 01f6 FB18     		adds	r3, r7, r3
 434 01f8 0132     		adds	r2, r2, #1
 435 01fa 1A70     		strb	r2, [r3]
 436              	.L19:
 198:main.c        ****             {
 437              		.loc 1 198 0 is_stmt 0 discriminator 1
 438 01fc F723     		movs	r3, #247
 439 01fe FB18     		adds	r3, r7, r3
 440 0200 1B78     		ldrb	r3, [r3]
 441 0202 9AB2     		uxth	r2, r3
 442 0204 3423     		movs	r3, #52
 443 0206 FB18     		adds	r3, r7, r3
 444 0208 1B89     		ldrh	r3, [r3, #8]
 445 020a 9A42     		cmp	r2, r3
 446 020c E0D3     		bcc	.L20
 208:main.c        ****                     TempReceive(&bin1,fl_temp_bytes);
 447              		.loc 1 208 0 is_stmt 1
 448 020e 2423     		movs	r3, #36
 449 0210 FB18     		adds	r3, r7, r3
 450 0212 9B89     		ldrh	r3, [r3, #12]
ARM GAS  C:\Users\megan\AppData\Local\Temp\ccqJAT7j.s 			page 14


 451 0214 122B     		cmp	r3, #18
 452 0216 31D1     		bne	.L26
 209:main.c        ****             }
 453              		.loc 1 209 0
 454 0218 2B4A     		ldr	r2, .L28+60
 455 021a 2C4B     		ldr	r3, .L28+64
 456 021c 1100     		movs	r1, r2
 457 021e 1800     		movs	r0, r3
 458 0220 FFF7FEFF 		bl	TempReceive
 212:main.c        ****                 
 459              		.loc 1 212 0
 460 0224 2AE0     		b	.L26
 461              	.L12:
 218:main.c        ****             
 462              		.loc 1 218 0
 463 0226 2423     		movs	r3, #36
 464 0228 FB18     		adds	r3, r7, r3
 465 022a 3A68     		ldr	r2, [r7]
 466 022c 13CA     		ldmia	r2!, {r0, r1, r4}
 467 022e 13C3     		stmia	r3!, {r0, r1, r4}
 468 0230 1268     		ldr	r2, [r2]
 469 0232 1A60     		str	r2, [r3]
 220:main.c        **** 
 470              		.loc 1 220 0
 471 0234 264B     		ldr	r3, .L28+68
 472 0236 1B78     		ldrb	r3, [r3]
 473 0238 5A1C     		adds	r2, r3, #1
 474 023a D1B2     		uxtb	r1, r2
 475 023c 244A     		ldr	r2, .L28+68
 476 023e 1170     		strb	r1, [r2]
 477 0240 1A00     		movs	r2, r3
 478 0242 2423     		movs	r3, #36
 479 0244 FB18     		adds	r3, r7, r3
 480 0246 5B68     		ldr	r3, [r3, #4]
 481 0248 1978     		ldrb	r1, [r3]
 482 024a 1F4B     		ldr	r3, .L28+60
 483 024c 9954     		strb	r1, [r3, r2]
 223:main.c        ****                 //PrintFloat( *(float32*)(fl_temp_bytes) );
 484              		.loc 1 223 0
 485 024e 204B     		ldr	r3, .L28+68
 486 0250 1B78     		ldrb	r3, [r3]
 487 0252 042B     		cmp	r3, #4
 488 0254 14D1     		bne	.L27
 227:main.c        ****                     TempReceive(&bin1,fl_temp_bytes);
 489              		.loc 1 227 0
 490 0256 2423     		movs	r3, #36
 491 0258 FB18     		adds	r3, r7, r3
 492 025a 9B89     		ldrh	r3, [r3, #12]
 493 025c 122B     		cmp	r3, #18
 494 025e 05D1     		bne	.L23
 228:main.c        ****                 }
 495              		.loc 1 228 0
 496 0260 194A     		ldr	r2, .L28+60
 497 0262 1A4B     		ldr	r3, .L28+64
 498 0264 1100     		movs	r1, r2
 499 0266 1800     		movs	r0, r3
 500 0268 FFF7FEFF 		bl	TempReceive
ARM GAS  C:\Users\megan\AppData\Local\Temp\ccqJAT7j.s 			page 15


 501              	.L23:
 231:main.c        ****             }
 502              		.loc 1 231 0
 503 026c 184B     		ldr	r3, .L28+68
 504 026e 0022     		movs	r2, #0
 505 0270 1A70     		strb	r2, [r3]
 234:main.c        ****             
 506              		.loc 1 234 0
 507 0272 05E0     		b	.L27
 508              	.L24:
 161:main.c        ****             
 509              		.loc 1 161 0
 510 0274 C046     		nop
 511 0276 04E0     		b	.L15
 512              	.L25:
 153:main.c        ****             
 513              		.loc 1 153 0
 514 0278 C046     		nop
 515 027a 02E0     		b	.L15
 516              	.L26:
 212:main.c        ****                 
 517              		.loc 1 212 0
 518 027c C046     		nop
 519 027e 00E0     		b	.L15
 520              	.L27:
 234:main.c        ****             
 521              		.loc 1 234 0
 522 0280 C046     		nop
 523              	.L15:
 239:main.c        ****     }
 240:main.c        **** }    
 524              		.loc 1 240 0 discriminator 1
 525 0282 C046     		nop
 526 0284 BD46     		mov	sp, r7
 527 0286 3FB0     		add	sp, sp, #252
 528              		@ sp needed
 529 0288 90BD     		pop	{r4, r7, pc}
 530              	.L29:
 531 028a C046     		.align	2
 532              	.L28:
 533 028c 00000000 		.word	.LC3
 534 0290 10000000 		.word	.LC5
 535 0294 24000000 		.word	.LC7
 536 0298 38000000 		.word	.LC9
 537 029c 4C000000 		.word	.LC11
 538 02a0 5C000000 		.word	.LC13
 539 02a4 6C000000 		.word	.LC15
 540 02a8 60F02E40 		.word	1076818016
 541 02ac 31030000 		.word	817
 542 02b0 08000340 		.word	1073938440
 543 02b4 02030080 		.word	-2147482878
 544 02b8 00000000 		.word	DevicesNearBy
 545 02bc 00000000 		.word	peerAddr
 546 02c0 00000000 		.word	cyBle_connHandle
 547 02c4 BF140000 		.word	5311
 548 02c8 00000000 		.word	fl_temp_bytes
 549 02cc 00000000 		.word	bin1
ARM GAS  C:\Users\megan\AppData\Local\Temp\ccqJAT7j.s 			page 16


 550 02d0 00000000 		.word	byte
 551              		.cfi_endproc
 552              	.LFE36:
 553              		.size	StackEventHandler, .-StackEventHandler
 554              		.section	.text.LCDInit,"ax",%progbits
 555              		.align	2
 556              		.global	LCDInit
 557              		.code	16
 558              		.thumb_func
 559              		.type	LCDInit, %function
 560              	LCDInit:
 561              	.LFB37:
 241:main.c        **** 
 242:main.c        **** void LCDInit() {
 562              		.loc 1 242 0
 563              		.cfi_startproc
 564              		@ args = 0, pretend = 0, frame = 0
 565              		@ frame_needed = 1, uses_anonymous_args = 0
 566 0000 80B5     		push	{r7, lr}
 567              		.cfi_def_cfa_offset 8
 568              		.cfi_offset 7, -8
 569              		.cfi_offset 14, -4
 570 0002 00AF     		add	r7, sp, #0
 571              		.cfi_def_cfa_register 7
 243:main.c        ****     
 244:main.c        ****     LCDSPI_Start();
 572              		.loc 1 244 0
 573 0004 FFF7FEFF 		bl	LCDSPI_Start
 245:main.c        ****     
 246:main.c        ****     //------ LCD Setup ------//  
 247:main.c        ****     
 248:main.c        ****     rst0_m_Write(1u);
 574              		.loc 1 248 0
 575 0008 0120     		movs	r0, #1
 576 000a FFF7FEFF 		bl	rst0_m_Write
 249:main.c        ****     
 250:main.c        ****     begin(RA8875_800x480);
 577              		.loc 1 250 0
 578 000e 0120     		movs	r0, #1
 579 0010 FFF7FEFF 		bl	begin
 251:main.c        ****     displayOn(true);
 580              		.loc 1 251 0
 581 0014 0120     		movs	r0, #1
 582 0016 FFF7FEFF 		bl	displayOn
 252:main.c        ****     GPIOX(true);      // Enable TFT - display enable tied to GPIOX
 583              		.loc 1 252 0
 584 001a 0120     		movs	r0, #1
 585 001c FFF7FEFF 		bl	GPIOX
 253:main.c        ****     
 254:main.c        ****     PWM1config(true, RA8875_PWM_CLK_DIV1024); // PWM output for backlight  
 586              		.loc 1 254 0
 587 0020 0A21     		movs	r1, #10
 588 0022 0120     		movs	r0, #1
 589 0024 FFF7FEFF 		bl	PWM1config
 255:main.c        ****     PWM1out(255);
 590              		.loc 1 255 0
 591 0028 FF20     		movs	r0, #255
ARM GAS  C:\Users\megan\AppData\Local\Temp\ccqJAT7j.s 			page 17


 592 002a FFF7FEFF 		bl	PWM1out
 256:main.c        ****     
 257:main.c        ****     LCD_int_Write(1u); 
 593              		.loc 1 257 0
 594 002e 0120     		movs	r0, #1
 595 0030 FFF7FEFF 		bl	LCD_int_Write
 258:main.c        **** }
 596              		.loc 1 258 0
 597 0034 C046     		nop
 598 0036 BD46     		mov	sp, r7
 599              		@ sp needed
 600 0038 80BD     		pop	{r7, pc}
 601              		.cfi_endproc
 602              	.LFE37:
 603              		.size	LCDInit, .-LCDInit
 604 003a C046     		.section	.rodata
 605 0082 0000     		.align	2
 606              	.LC23:
 607 0084 4D656761 		.ascii	"Megan Bird\000"
 607      6E204269 
 607      726400
 608 008f 00       		.align	2
 609              	.LC25:
 610 0090 4543454E 		.ascii	"ECEN 4350\000"
 610      20343335 
 610      3000
 611 009a 0000     		.align	2
 612              	.LC27:
 613 009c 46616C6C 		.ascii	"Fall 2017\000"
 613      20323031 
 613      3700
 614 00a6 0000     		.align	2
 615              	.LC29:
 616 00a8 424C455F 		.ascii	"BLE_Central\000"
 616      43656E74 
 616      72616C00 
 617              		.section	.text.LCDInitDemo,"ax",%progbits
 618              		.align	2
 619              		.global	LCDInitDemo
 620              		.code	16
 621              		.thumb_func
 622              		.type	LCDInitDemo, %function
 623              	LCDInitDemo:
 624              	.LFB38:
 259:main.c        **** 
 260:main.c        **** void LCDInitDemo() {
 625              		.loc 1 260 0
 626              		.cfi_startproc
 627              		@ args = 0, pretend = 0, frame = 56
 628              		@ frame_needed = 1, uses_anonymous_args = 0
 629 0000 90B5     		push	{r4, r7, lr}
 630              		.cfi_def_cfa_offset 12
 631              		.cfi_offset 4, -12
 632              		.cfi_offset 7, -8
 633              		.cfi_offset 14, -4
 634 0002 8FB0     		sub	sp, sp, #60
 635              		.cfi_def_cfa_offset 72
ARM GAS  C:\Users\megan\AppData\Local\Temp\ccqJAT7j.s 			page 18


 636 0004 00AF     		add	r7, sp, #0
 637              		.cfi_def_cfa_register 7
 261:main.c        ****     
 262:main.c        ****     //------ Declarations ------/
 263:main.c        ****     // LCD Strings
 264:main.c        ****     char welcome1[] = "Megan Bird";
 638              		.loc 1 264 0
 639 0006 2823     		movs	r3, #40
 640 0008 FB18     		adds	r3, r7, r3
 641 000a 354A     		ldr	r2, .L32
 642 000c 03CA     		ldmia	r2!, {r0, r1}
 643 000e 03C3     		stmia	r3!, {r0, r1}
 644 0010 1188     		ldrh	r1, [r2]
 645 0012 1980     		strh	r1, [r3]
 646 0014 9278     		ldrb	r2, [r2, #2]
 647 0016 9A70     		strb	r2, [r3, #2]
 265:main.c        ****     char welcome2[] = "ECEN 4350";
 648              		.loc 1 265 0
 649 0018 1C23     		movs	r3, #28
 650 001a FB18     		adds	r3, r7, r3
 651 001c 314A     		ldr	r2, .L32+4
 652 001e 03CA     		ldmia	r2!, {r0, r1}
 653 0020 03C3     		stmia	r3!, {r0, r1}
 654 0022 1288     		ldrh	r2, [r2]
 655 0024 1A80     		strh	r2, [r3]
 266:main.c        ****     char welcome3[] = "Fall 2017";
 656              		.loc 1 266 0
 657 0026 1023     		movs	r3, #16
 658 0028 FB18     		adds	r3, r7, r3
 659 002a 2F4A     		ldr	r2, .L32+8
 660 002c 03CA     		ldmia	r2!, {r0, r1}
 661 002e 03C3     		stmia	r3!, {r0, r1}
 662 0030 1288     		ldrh	r2, [r2]
 663 0032 1A80     		strh	r2, [r3]
 267:main.c        ****     char ble[] = "BLE_Central";
 664              		.loc 1 267 0
 665 0034 3B1D     		adds	r3, r7, #4
 666 0036 2D4A     		ldr	r2, .L32+12
 667 0038 13CA     		ldmia	r2!, {r0, r1, r4}
 668 003a 13C3     		stmia	r3!, {r0, r1, r4}
 268:main.c        ****     
 269:main.c        ****     uint16 myDelay = 200;
 669              		.loc 1 269 0
 670 003c 3623     		movs	r3, #54
 671 003e FB18     		adds	r3, r7, r3
 672 0040 C822     		movs	r2, #200
 673 0042 1A80     		strh	r2, [r3]
 270:main.c        ****     
 271:main.c        ****     //----- Color Demo -----//
 272:main.c        ****     
 273:main.c        ****     fillScreen(RA8875_WHITE);    
 674              		.loc 1 273 0
 675 0044 2A4B     		ldr	r3, .L32+16
 676 0046 1800     		movs	r0, r3
 677 0048 FFF7FEFF 		bl	fillScreen
 274:main.c        ****     CyDelay(myDelay);
 678              		.loc 1 274 0
ARM GAS  C:\Users\megan\AppData\Local\Temp\ccqJAT7j.s 			page 19


 679 004c 3623     		movs	r3, #54
 680 004e FB18     		adds	r3, r7, r3
 681 0050 1B88     		ldrh	r3, [r3]
 682 0052 1800     		movs	r0, r3
 683 0054 FFF7FEFF 		bl	CyDelay
 275:main.c        ****     fillScreen(RA8875_RED);
 684              		.loc 1 275 0
 685 0058 F823     		movs	r3, #248
 686 005a 1B02     		lsls	r3, r3, #8
 687 005c 1800     		movs	r0, r3
 688 005e FFF7FEFF 		bl	fillScreen
 276:main.c        ****     CyDelay(myDelay);
 689              		.loc 1 276 0
 690 0062 3623     		movs	r3, #54
 691 0064 FB18     		adds	r3, r7, r3
 692 0066 1B88     		ldrh	r3, [r3]
 693 0068 1800     		movs	r0, r3
 694 006a FFF7FEFF 		bl	CyDelay
 277:main.c        ****     fillScreen(RA8875_YELLOW);
 695              		.loc 1 277 0
 696 006e 214B     		ldr	r3, .L32+20
 697 0070 1800     		movs	r0, r3
 698 0072 FFF7FEFF 		bl	fillScreen
 278:main.c        ****     CyDelay(myDelay);
 699              		.loc 1 278 0
 700 0076 3623     		movs	r3, #54
 701 0078 FB18     		adds	r3, r7, r3
 702 007a 1B88     		ldrh	r3, [r3]
 703 007c 1800     		movs	r0, r3
 704 007e FFF7FEFF 		bl	CyDelay
 279:main.c        ****     fillScreen(RA8875_GREEN);
 705              		.loc 1 279 0
 706 0082 FC23     		movs	r3, #252
 707 0084 DB00     		lsls	r3, r3, #3
 708 0086 1800     		movs	r0, r3
 709 0088 FFF7FEFF 		bl	fillScreen
 280:main.c        ****     CyDelay(myDelay);
 710              		.loc 1 280 0
 711 008c 3623     		movs	r3, #54
 712 008e FB18     		adds	r3, r7, r3
 713 0090 1B88     		ldrh	r3, [r3]
 714 0092 1800     		movs	r0, r3
 715 0094 FFF7FEFF 		bl	CyDelay
 281:main.c        ****     fillScreen(RA8875_BLUE);
 716              		.loc 1 281 0
 717 0098 1F20     		movs	r0, #31
 718 009a FFF7FEFF 		bl	fillScreen
 282:main.c        ****     CyDelay(myDelay);
 719              		.loc 1 282 0
 720 009e 3623     		movs	r3, #54
 721 00a0 FB18     		adds	r3, r7, r3
 722 00a2 1B88     		ldrh	r3, [r3]
 723 00a4 1800     		movs	r0, r3
 724 00a6 FFF7FEFF 		bl	CyDelay
 283:main.c        ****     fillScreen(RA8875_CYAN);
 725              		.loc 1 283 0
 726 00aa 134B     		ldr	r3, .L32+24
ARM GAS  C:\Users\megan\AppData\Local\Temp\ccqJAT7j.s 			page 20


 727 00ac 1800     		movs	r0, r3
 728 00ae FFF7FEFF 		bl	fillScreen
 284:main.c        ****     CyDelay(myDelay);
 729              		.loc 1 284 0
 730 00b2 3623     		movs	r3, #54
 731 00b4 FB18     		adds	r3, r7, r3
 732 00b6 1B88     		ldrh	r3, [r3]
 733 00b8 1800     		movs	r0, r3
 734 00ba FFF7FEFF 		bl	CyDelay
 285:main.c        ****     fillScreen(RA8875_MAGENTA);
 735              		.loc 1 285 0
 736 00be 0F4B     		ldr	r3, .L32+28
 737 00c0 1800     		movs	r0, r3
 738 00c2 FFF7FEFF 		bl	fillScreen
 286:main.c        ****     CyDelay(myDelay);
 739              		.loc 1 286 0
 740 00c6 3623     		movs	r3, #54
 741 00c8 FB18     		adds	r3, r7, r3
 742 00ca 1B88     		ldrh	r3, [r3]
 743 00cc 1800     		movs	r0, r3
 744 00ce FFF7FEFF 		bl	CyDelay
 287:main.c        ****     fillScreen(RA8875_BLACK);
 745              		.loc 1 287 0
 746 00d2 0020     		movs	r0, #0
 747 00d4 FFF7FEFF 		bl	fillScreen
 288:main.c        ****     
 289:main.c        ****     //CyDelay(300);
 290:main.c        ****     
 291:main.c        ****     //----- Drawing Demo -----//
 292:main.c        ****     /*
 293:main.c        ****     drawCircle(100, 100, 50, RA8875_BLACK);
 294:main.c        ****     fillCircle(100, 100, 49, RA8875_GREEN);
 295:main.c        ****     fillRect(11, 11, 398, 198, RA8875_BLUE);
 296:main.c        ****     drawRect(10, 10, 400, 200, RA8875_GREEN);
 297:main.c        ****     drawPixel(10,10,RA8875_BLACK);
 298:main.c        ****     drawPixel(11,11,RA8875_BLACK);
 299:main.c        ****     drawLine(10, 10, 200, 100, RA8875_RED);
 300:main.c        ****     drawTriangle(200, 15, 250, 100, 150, 125, RA8875_BLACK);
 301:main.c        ****     fillTriangle(200, 16, 249, 99, 151, 124, RA8875_YELLOW);
 302:main.c        ****     drawEllipse(300, 100, 100, 40, RA8875_BLACK);
 303:main.c        ****     fillEllipse(300, 100, 98, 38, RA8875_GREEN);
 304:main.c        ****     drawCurve(50, 100, 80, 40, 2, RA8875_BLACK);  
 305:main.c        ****     fillCurve(50, 100, 78, 38, 2, RA8875_WHITE);
 306:main.c        ****     */
 307:main.c        ****         
 308:main.c        ****     //--- Welcome Screen ---//
 309:main.c        ****     /*
 310:main.c        ****     CyDelay(300);
 311:main.c        ****     PWM1out(0);
 312:main.c        ****     fillScreen(RA8875_WHITE);
 313:main.c        ****     
 314:main.c        ****     for (int i = 0; i < 256; i++) {
 315:main.c        ****         PWM1out(i);
 316:main.c        ****         CyDelay(1);
 317:main.c        ****     }
 318:main.c        **** 
 319:main.c        ****     textMode();
ARM GAS  C:\Users\megan\AppData\Local\Temp\ccqJAT7j.s 			page 21


 320:main.c        ****     fillRect(75,85,370,100,RA8875_RED);
 321:main.c        ****     textSetCursor(100, 100);
 322:main.c        ****     textEnlarge(1);
 323:main.c        ****     textTransparent(RA8875_WHITE);
 324:main.c        ****     textWrite(welcome1,strlen(welcome1)); 
 325:main.c        ****     
 326:main.c        ****     textEnlarge(0);
 327:main.c        ****     textSetCursor(100, 200);
 328:main.c        ****     textTransparent(RA8875_BLACK);
 329:main.c        ****     textWrite(welcome2,strlen(welcome2)); 
 330:main.c        ****     textSetCursor(100, 250);
 331:main.c        ****     textWrite(welcome3,strlen(welcome3)); 
 332:main.c        ****     
 333:main.c        ****     textSetCursor(100, 350);
 334:main.c        ****     textTransparent(RA8875_BLUE);
 335:main.c        ****     textWrite(ble,strlen(ble));
 336:main.c        ****     
 337:main.c        ****     CyDelay(10000);
 338:main.c        ****     */
 339:main.c        **** }
 748              		.loc 1 339 0
 749 00d8 C046     		nop
 750 00da BD46     		mov	sp, r7
 751 00dc 0FB0     		add	sp, sp, #60
 752              		@ sp needed
 753 00de 90BD     		pop	{r4, r7, pc}
 754              	.L33:
 755              		.align	2
 756              	.L32:
 757 00e0 84000000 		.word	.LC23
 758 00e4 90000000 		.word	.LC25
 759 00e8 9C000000 		.word	.LC27
 760 00ec A8000000 		.word	.LC29
 761 00f0 FFFF0000 		.word	65535
 762 00f4 E0FF0000 		.word	65504
 763 00f8 FF070000 		.word	2047
 764 00fc 1FF80000 		.word	63519
 765              		.cfi_endproc
 766              	.LFE38:
 767              		.size	LCDInitDemo, .-LCDInitDemo
 768              		.global	__aeabi_i2f
 769              		.global	__aeabi_fdiv
 770              		.global	__aeabi_f2uiz
 771              		.section	.text.LCDTouchscreenDemo,"ax",%progbits
 772              		.align	2
 773              		.global	LCDTouchscreenDemo
 774              		.code	16
 775              		.thumb_func
 776              		.type	LCDTouchscreenDemo, %function
 777              	LCDTouchscreenDemo:
 778              	.LFB39:
 340:main.c        **** 
 341:main.c        **** void LCDTouchscreenDemo() {
 779              		.loc 1 341 0
 780              		.cfi_startproc
 781              		@ args = 0, pretend = 0, frame = 16
 782              		@ frame_needed = 1, uses_anonymous_args = 0
ARM GAS  C:\Users\megan\AppData\Local\Temp\ccqJAT7j.s 			page 22


 783 0000 90B5     		push	{r4, r7, lr}
 784              		.cfi_def_cfa_offset 12
 785              		.cfi_offset 4, -12
 786              		.cfi_offset 7, -8
 787              		.cfi_offset 14, -4
 788 0002 85B0     		sub	sp, sp, #20
 789              		.cfi_def_cfa_offset 32
 790 0004 00AF     		add	r7, sp, #0
 791              		.cfi_def_cfa_register 7
 342:main.c        ****     //------ Declarations ------//
 343:main.c        ****     uint16_t tx;
 344:main.c        ****     uint16_t ty;
 345:main.c        ****     bool waiting = true;
 792              		.loc 1 345 0
 793 0006 0F23     		movs	r3, #15
 794 0008 FB18     		adds	r3, r7, r3
 795 000a 0122     		movs	r2, #1
 796 000c 1A70     		strb	r2, [r3]
 346:main.c        ****     
 347:main.c        ****     float xScale;
 348:main.c        ****     float yScale;
 349:main.c        ****     
 350:main.c        ****     touchEnable(true);
 797              		.loc 1 350 0
 798 000e 0120     		movs	r0, #1
 799 0010 FFF7FEFF 		bl	touchEnable
 351:main.c        ****     
 352:main.c        ****     xScale = 1024.0F/width();
 800              		.loc 1 352 0
 801 0014 FFF7FEFF 		bl	width
 802 0018 0300     		movs	r3, r0
 803 001a 1800     		movs	r0, r3
 804 001c FFF7FEFF 		bl	__aeabi_i2f
 805 0020 031C     		adds	r3, r0, #0
 806 0022 191C     		adds	r1, r3, #0
 807 0024 8920     		movs	r0, #137
 808 0026 C005     		lsls	r0, r0, #23
 809 0028 FFF7FEFF 		bl	__aeabi_fdiv
 810 002c 031C     		adds	r3, r0, #0
 811 002e BB60     		str	r3, [r7, #8]
 353:main.c        ****     yScale = 1024.0F/height();
 812              		.loc 1 353 0
 813 0030 FFF7FEFF 		bl	height
 814 0034 0300     		movs	r3, r0
 815 0036 1800     		movs	r0, r3
 816 0038 FFF7FEFF 		bl	__aeabi_i2f
 817 003c 031C     		adds	r3, r0, #0
 818 003e 191C     		adds	r1, r3, #0
 819 0040 8920     		movs	r0, #137
 820 0042 C005     		lsls	r0, r0, #23
 821 0044 FFF7FEFF 		bl	__aeabi_fdiv
 822 0048 031C     		adds	r3, r0, #0
 823 004a 7B60     		str	r3, [r7, #4]
 354:main.c        ****     
 355:main.c        ****     touchRead(&tx, &ty);
 824              		.loc 1 355 0
 825 004c 3A00     		movs	r2, r7
ARM GAS  C:\Users\megan\AppData\Local\Temp\ccqJAT7j.s 			page 23


 826 004e BB1C     		adds	r3, r7, #2
 827 0050 1100     		movs	r1, r2
 828 0052 1800     		movs	r0, r3
 829 0054 FFF7FEFF 		bl	touchRead
 356:main.c        **** 
 357:main.c        ****     
 358:main.c        ****     //------ Wait for touch ------//
 359:main.c        ****     //CyDelay(10);
 360:main.c        ****     while ( waiting )  {
 830              		.loc 1 360 0
 831 0058 34E0     		b	.L35
 832              	.L36:
 361:main.c        ****         if (!LCD_int_Read()) {
 833              		.loc 1 361 0
 834 005a FFF7FEFF 		bl	LCD_int_Read
 835 005e 031E     		subs	r3, r0, #0
 836 0060 30D1     		bne	.L35
 362:main.c        ****             //LED_BLUE_Write(0);
 363:main.c        ****             if ( touched() ) {
 837              		.loc 1 363 0
 838 0062 FFF7FEFF 		bl	touched
 839 0066 031E     		subs	r3, r0, #0
 840 0068 2CD0     		beq	.L35
 364:main.c        ****                 //LED_GREEN_Write(0u);
 365:main.c        ****                 touchRead(&tx, &ty);                
 841              		.loc 1 365 0
 842 006a 3A00     		movs	r2, r7
 843 006c BB1C     		adds	r3, r7, #2
 844 006e 1100     		movs	r1, r2
 845 0070 1800     		movs	r0, r3
 846 0072 FFF7FEFF 		bl	touchRead
 366:main.c        ****                 fillCircle((uint16_t)(tx/xScale), (uint16_t)(ty/yScale), 4, RA8875_WHITE);
 847              		.loc 1 366 0
 848 0076 BB1C     		adds	r3, r7, #2
 849 0078 1B88     		ldrh	r3, [r3]
 850 007a 1800     		movs	r0, r3
 851 007c FFF7FEFF 		bl	__aeabi_i2f
 852 0080 031C     		adds	r3, r0, #0
 853 0082 B968     		ldr	r1, [r7, #8]
 854 0084 181C     		adds	r0, r3, #0
 855 0086 FFF7FEFF 		bl	__aeabi_fdiv
 856 008a 031C     		adds	r3, r0, #0
 857 008c 181C     		adds	r0, r3, #0
 858 008e FFF7FEFF 		bl	__aeabi_f2uiz
 859 0092 0300     		movs	r3, r0
 860 0094 9BB2     		uxth	r3, r3
 861 0096 1CB2     		sxth	r4, r3
 862 0098 3B00     		movs	r3, r7
 863 009a 1B88     		ldrh	r3, [r3]
 864 009c 1800     		movs	r0, r3
 865 009e FFF7FEFF 		bl	__aeabi_i2f
 866 00a2 031C     		adds	r3, r0, #0
 867 00a4 7968     		ldr	r1, [r7, #4]
 868 00a6 181C     		adds	r0, r3, #0
 869 00a8 FFF7FEFF 		bl	__aeabi_fdiv
 870 00ac 031C     		adds	r3, r0, #0
 871 00ae 181C     		adds	r0, r3, #0
ARM GAS  C:\Users\megan\AppData\Local\Temp\ccqJAT7j.s 			page 24


 872 00b0 FFF7FEFF 		bl	__aeabi_f2uiz
 873 00b4 0300     		movs	r3, r0
 874 00b6 9BB2     		uxth	r3, r3
 875 00b8 19B2     		sxth	r1, r3
 876 00ba 074B     		ldr	r3, .L37
 877 00bc 0422     		movs	r2, #4
 878 00be 2000     		movs	r0, r4
 879 00c0 FFF7FEFF 		bl	fillCircle
 880              	.L35:
 360:main.c        ****         if (!LCD_int_Read()) {
 881              		.loc 1 360 0
 882 00c4 0F23     		movs	r3, #15
 883 00c6 FB18     		adds	r3, r7, r3
 884 00c8 1B78     		ldrb	r3, [r3]
 885 00ca 002B     		cmp	r3, #0
 886 00cc C5D1     		bne	.L36
 367:main.c        ****             }
 368:main.c        **** //            else {
 369:main.c        **** //                /* Clear TP INT Status */
 370:main.c        **** //                //writeReg(RA8875_INTC2, RA8875_INTC2_TP);
 371:main.c        **** //                touchRead(&tx, &ty);
 372:main.c        **** //                CyDelay(1);
 373:main.c        **** //                //tx = 0x0000;
 374:main.c        **** //                //ty = 0x0000;
 375:main.c        **** //            }
 376:main.c        ****         }
 377:main.c        **** //        else {
 378:main.c        **** //            touchRead(&tx, &ty);
 379:main.c        **** //            CyDelay(1);
 380:main.c        **** //            //tx = 0x0000;
 381:main.c        **** //            //ty = 0x0000;
 382:main.c        **** //        }
 383:main.c        ****     }
 384:main.c        **** }
 887              		.loc 1 384 0
 888 00ce C046     		nop
 889 00d0 BD46     		mov	sp, r7
 890 00d2 05B0     		add	sp, sp, #20
 891              		@ sp needed
 892 00d4 90BD     		pop	{r4, r7, pc}
 893              	.L38:
 894 00d6 C046     		.align	2
 895              	.L37:
 896 00d8 FFFF0000 		.word	65535
 897              		.cfi_endproc
 898              	.LFE39:
 899              		.size	LCDTouchscreenDemo, .-LCDTouchscreenDemo
 900              		.section	.rodata
 901              		.align	2
 902              	.LC31:
 903 00b4 53656564 		.ascii	"Seed Bin Climate\000"
 903      2042696E 
 903      20436C69 
 903      6D617465 
 903      00
 904 00c5 000000   		.align	2
 905              	.LC33:
ARM GAS  C:\Users\megan\AppData\Local\Temp\ccqJAT7j.s 			page 25


 906 00c8 436F6E74 		.ascii	"Control System\000"
 906      726F6C20 
 906      53797374 
 906      656D00
 907 00d7 00       		.align	2
 908              	.LC35:
 909 00d8 476F6573 		.ascii	"Goesch Agronomy Services, Inc.\000"
 909      63682041 
 909      67726F6E 
 909      6F6D7920 
 909      53657276 
 910 00f7 00       		.align	2
 911              	.LC37:
 912 00f8 763100   		.ascii	"v1\000"
 913              		.section	.text.GUISplashscreen,"ax",%progbits
 914              		.align	2
 915              		.global	GUISplashscreen
 916              		.code	16
 917              		.thumb_func
 918              		.type	GUISplashscreen, %function
 919              	GUISplashscreen:
 920              	.LFB40:
 385:main.c        **** 
 386:main.c        **** void GUISplashscreen() {
 921              		.loc 1 386 0
 922              		.cfi_startproc
 923              		@ args = 0, pretend = 0, frame = 80
 924              		@ frame_needed = 1, uses_anonymous_args = 0
 925 0000 90B5     		push	{r4, r7, lr}
 926              		.cfi_def_cfa_offset 12
 927              		.cfi_offset 4, -12
 928              		.cfi_offset 7, -8
 929              		.cfi_offset 14, -4
 930 0002 97B0     		sub	sp, sp, #92
 931              		.cfi_def_cfa_offset 104
 932 0004 02AF     		add	r7, sp, #8
 933              		.cfi_def_cfa 7, 96
 387:main.c        ****     
 388:main.c        ****     //------ Declarations ------//
 389:main.c        ****     // LCD Strings
 390:main.c        ****     char welcome1[] = "Seed Bin Climate";
 934              		.loc 1 390 0
 935 0006 3823     		movs	r3, #56
 936 0008 FB18     		adds	r3, r7, r3
 937 000a 544A     		ldr	r2, .L42
 938 000c 13CA     		ldmia	r2!, {r0, r1, r4}
 939 000e 13C3     		stmia	r3!, {r0, r1, r4}
 940 0010 1168     		ldr	r1, [r2]
 941 0012 1960     		str	r1, [r3]
 942 0014 1279     		ldrb	r2, [r2, #4]
 943 0016 1A71     		strb	r2, [r3, #4]
 391:main.c        ****     char welcome2[] = "Control System";
 944              		.loc 1 391 0
 945 0018 2823     		movs	r3, #40
 946 001a FB18     		adds	r3, r7, r3
 947 001c 504A     		ldr	r2, .L42+4
 948 001e 13CA     		ldmia	r2!, {r0, r1, r4}
ARM GAS  C:\Users\megan\AppData\Local\Temp\ccqJAT7j.s 			page 26


 949 0020 13C3     		stmia	r3!, {r0, r1, r4}
 950 0022 1188     		ldrh	r1, [r2]
 951 0024 1980     		strh	r1, [r3]
 952 0026 9278     		ldrb	r2, [r2, #2]
 953 0028 9A70     		strb	r2, [r3, #2]
 392:main.c        ****     char welcome3[] = "Goesch Agronomy Services, Inc.";
 954              		.loc 1 392 0
 955 002a 0823     		movs	r3, #8
 956 002c FB18     		adds	r3, r7, r3
 957 002e 4D4A     		ldr	r2, .L42+8
 958 0030 13CA     		ldmia	r2!, {r0, r1, r4}
 959 0032 13C3     		stmia	r3!, {r0, r1, r4}
 960 0034 13CA     		ldmia	r2!, {r0, r1, r4}
 961 0036 13C3     		stmia	r3!, {r0, r1, r4}
 962 0038 1168     		ldr	r1, [r2]
 963 003a 1960     		str	r1, [r3]
 964 003c 9188     		ldrh	r1, [r2, #4]
 965 003e 9980     		strh	r1, [r3, #4]
 966 0040 9279     		ldrb	r2, [r2, #6]
 967 0042 9A71     		strb	r2, [r3, #6]
 393:main.c        ****     char welcome4[] = "v1";
 968              		.loc 1 393 0
 969 0044 3B1D     		adds	r3, r7, #4
 970 0046 484A     		ldr	r2, .L42+12
 971 0048 1188     		ldrh	r1, [r2]
 972 004a 1980     		strh	r1, [r3]
 973 004c 9278     		ldrb	r2, [r2, #2]
 974 004e 9A70     		strb	r2, [r3, #2]
 394:main.c        ****     
 395:main.c        ****     //------ Procedure ------//
 396:main.c        ****     
 397:main.c        ****     // Screen Fade-In
 398:main.c        ****     PWM1out(0);
 975              		.loc 1 398 0
 976 0050 0020     		movs	r0, #0
 977 0052 FFF7FEFF 		bl	PWM1out
 399:main.c        ****     fillScreen(RA8875_WHITE);
 978              		.loc 1 399 0
 979 0056 454B     		ldr	r3, .L42+16
 980 0058 1800     		movs	r0, r3
 981 005a FFF7FEFF 		bl	fillScreen
 982              	.LBB2:
 400:main.c        ****     for (int i = 0; i < 256; i++) {
 983              		.loc 1 400 0
 984 005e 0023     		movs	r3, #0
 985 0060 FB64     		str	r3, [r7, #76]
 986 0062 0AE0     		b	.L40
 987              	.L41:
 401:main.c        ****         PWM1out(i);
 988              		.loc 1 401 0 discriminator 3
 989 0064 FB6C     		ldr	r3, [r7, #76]
 990 0066 DBB2     		uxtb	r3, r3
 991 0068 1800     		movs	r0, r3
 992 006a FFF7FEFF 		bl	PWM1out
 402:main.c        ****         CyDelay(1);
 993              		.loc 1 402 0 discriminator 3
 994 006e 0120     		movs	r0, #1
ARM GAS  C:\Users\megan\AppData\Local\Temp\ccqJAT7j.s 			page 27


 995 0070 FFF7FEFF 		bl	CyDelay
 400:main.c        ****     for (int i = 0; i < 256; i++) {
 996              		.loc 1 400 0 discriminator 3
 997 0074 FB6C     		ldr	r3, [r7, #76]
 998 0076 0133     		adds	r3, r3, #1
 999 0078 FB64     		str	r3, [r7, #76]
 1000              	.L40:
 400:main.c        ****     for (int i = 0; i < 256; i++) {
 1001              		.loc 1 400 0 is_stmt 0 discriminator 1
 1002 007a FB6C     		ldr	r3, [r7, #76]
 1003 007c FF2B     		cmp	r3, #255
 1004 007e F1DD     		ble	.L41
 1005              	.LBE2:
 403:main.c        ****     }
 404:main.c        ****     
 405:main.c        ****     // Company Info
 406:main.c        ****     textMode();
 1006              		.loc 1 406 0 is_stmt 1
 1007 0080 FFF7FEFF 		bl	textMode
 407:main.c        ****     fillRect(75,85,650,175,RA8875_BLUE);
 1008              		.loc 1 407 0
 1009 0084 3A4A     		ldr	r2, .L42+20
 1010 0086 1F23     		movs	r3, #31
 1011 0088 0093     		str	r3, [sp]
 1012 008a AF23     		movs	r3, #175
 1013 008c 5521     		movs	r1, #85
 1014 008e 4B20     		movs	r0, #75
 1015 0090 FFF7FEFF 		bl	fillRect
 408:main.c        ****     
 409:main.c        ****     textEnlarge(3);
 1016              		.loc 1 409 0
 1017 0094 0320     		movs	r0, #3
 1018 0096 FFF7FEFF 		bl	textEnlarge
 410:main.c        ****     textTransparent(RA8875_WHITE);
 1019              		.loc 1 410 0
 1020 009a 344B     		ldr	r3, .L42+16
 1021 009c 1800     		movs	r0, r3
 1022 009e FFF7FEFF 		bl	textTransparent
 411:main.c        ****     // Seed Bin Climate
 412:main.c        ****     textSetCursor(100, 100);
 1023              		.loc 1 412 0
 1024 00a2 6421     		movs	r1, #100
 1025 00a4 6420     		movs	r0, #100
 1026 00a6 FFF7FEFF 		bl	textSetCursor
 413:main.c        ****     textWrite(welcome1,strlen(welcome1));
 1027              		.loc 1 413 0
 1028 00aa 3823     		movs	r3, #56
 1029 00ac FB18     		adds	r3, r7, r3
 1030 00ae 1800     		movs	r0, r3
 1031 00b0 FFF7FEFF 		bl	strlen
 1032 00b4 0300     		movs	r3, r0
 1033 00b6 9AB2     		uxth	r2, r3
 1034 00b8 3823     		movs	r3, #56
 1035 00ba FB18     		adds	r3, r7, r3
 1036 00bc 1100     		movs	r1, r2
 1037 00be 1800     		movs	r0, r3
 1038 00c0 FFF7FEFF 		bl	textWrite
ARM GAS  C:\Users\megan\AppData\Local\Temp\ccqJAT7j.s 			page 28


 414:main.c        ****     // Control System
 415:main.c        ****     textSetCursor(100, 175);
 1039              		.loc 1 415 0
 1040 00c4 AF21     		movs	r1, #175
 1041 00c6 6420     		movs	r0, #100
 1042 00c8 FFF7FEFF 		bl	textSetCursor
 416:main.c        ****     textWrite(welcome2,strlen(welcome2));
 1043              		.loc 1 416 0
 1044 00cc 2823     		movs	r3, #40
 1045 00ce FB18     		adds	r3, r7, r3
 1046 00d0 1800     		movs	r0, r3
 1047 00d2 FFF7FEFF 		bl	strlen
 1048 00d6 0300     		movs	r3, r0
 1049 00d8 9AB2     		uxth	r2, r3
 1050 00da 2823     		movs	r3, #40
 1051 00dc FB18     		adds	r3, r7, r3
 1052 00de 1100     		movs	r1, r2
 1053 00e0 1800     		movs	r0, r3
 1054 00e2 FFF7FEFF 		bl	textWrite
 417:main.c        ****     // Goesch Agronomy Services, Inc
 418:main.c        ****     textEnlarge(2);
 1055              		.loc 1 418 0
 1056 00e6 0220     		movs	r0, #2
 1057 00e8 FFF7FEFF 		bl	textEnlarge
 419:main.c        ****     textTransparent(RA8875_GREEN);
 1058              		.loc 1 419 0
 1059 00ec FC23     		movs	r3, #252
 1060 00ee DB00     		lsls	r3, r3, #3
 1061 00f0 1800     		movs	r0, r3
 1062 00f2 FFF7FEFF 		bl	textTransparent
 420:main.c        ****     textSetCursor(75, 325);
 1063              		.loc 1 420 0
 1064 00f6 4623     		movs	r3, #70
 1065 00f8 FF33     		adds	r3, r3, #255
 1066 00fa 1900     		movs	r1, r3
 1067 00fc 4B20     		movs	r0, #75
 1068 00fe FFF7FEFF 		bl	textSetCursor
 421:main.c        ****     textWrite(welcome3,strlen(welcome3));
 1069              		.loc 1 421 0
 1070 0102 0823     		movs	r3, #8
 1071 0104 FB18     		adds	r3, r7, r3
 1072 0106 1800     		movs	r0, r3
 1073 0108 FFF7FEFF 		bl	strlen
 1074 010c 0300     		movs	r3, r0
 1075 010e 9AB2     		uxth	r2, r3
 1076 0110 0823     		movs	r3, #8
 1077 0112 FB18     		adds	r3, r7, r3
 1078 0114 1100     		movs	r1, r2
 1079 0116 1800     		movs	r0, r3
 1080 0118 FFF7FEFF 		bl	textWrite
 422:main.c        ****     // v1
 423:main.c        ****     textEnlarge(1);
 1081              		.loc 1 423 0
 1082 011c 0120     		movs	r0, #1
 1083 011e FFF7FEFF 		bl	textEnlarge
 424:main.c        ****     textTransparent(RA8875_BLACK);
 1084              		.loc 1 424 0
ARM GAS  C:\Users\megan\AppData\Local\Temp\ccqJAT7j.s 			page 29


 1085 0122 0020     		movs	r0, #0
 1086 0124 FFF7FEFF 		bl	textTransparent
 425:main.c        ****     textSetCursor(750, 430);
 1087              		.loc 1 425 0
 1088 0128 D723     		movs	r3, #215
 1089 012a 5B00     		lsls	r3, r3, #1
 1090 012c 114A     		ldr	r2, .L42+24
 1091 012e 1900     		movs	r1, r3
 1092 0130 1000     		movs	r0, r2
 1093 0132 FFF7FEFF 		bl	textSetCursor
 426:main.c        ****     textWrite(welcome4,strlen(welcome4));
 1094              		.loc 1 426 0
 1095 0136 3B1D     		adds	r3, r7, #4
 1096 0138 1800     		movs	r0, r3
 1097 013a FFF7FEFF 		bl	strlen
 1098 013e 0300     		movs	r3, r0
 1099 0140 9AB2     		uxth	r2, r3
 1100 0142 3B1D     		adds	r3, r7, #4
 1101 0144 1100     		movs	r1, r2
 1102 0146 1800     		movs	r0, r3
 1103 0148 FFF7FEFF 		bl	textWrite
 427:main.c        ****     
 428:main.c        ****     CyDelay(3000);
 1104              		.loc 1 428 0
 1105 014c 0A4B     		ldr	r3, .L42+28
 1106 014e 1800     		movs	r0, r3
 1107 0150 FFF7FEFF 		bl	CyDelay
 429:main.c        **** }
 1108              		.loc 1 429 0
 1109 0154 C046     		nop
 1110 0156 BD46     		mov	sp, r7
 1111 0158 15B0     		add	sp, sp, #84
 1112              		@ sp needed
 1113 015a 90BD     		pop	{r4, r7, pc}
 1114              	.L43:
 1115              		.align	2
 1116              	.L42:
 1117 015c B4000000 		.word	.LC31
 1118 0160 C8000000 		.word	.LC33
 1119 0164 D8000000 		.word	.LC35
 1120 0168 F8000000 		.word	.LC37
 1121 016c FFFF0000 		.word	65535
 1122 0170 8A020000 		.word	650
 1123 0174 EE020000 		.word	750
 1124 0178 B80B0000 		.word	3000
 1125              		.cfi_endproc
 1126              	.LFE40:
 1127              		.size	GUISplashscreen, .-GUISplashscreen
 1128              		.global	__aeabi_idiv
 1129              		.section	.rodata
 1130 00fb 00       		.align	2
 1131              	.LC39:
 1132 00fc 53656564 		.ascii	"Seed Bin Climate Control System\000"
 1132      2042696E 
 1132      20436C69 
 1132      6D617465 
 1132      20436F6E 
ARM GAS  C:\Users\megan\AppData\Local\Temp\ccqJAT7j.s 			page 30


 1133              		.align	2
 1134              	.LC41:
 1135 011c 4D6F6465 		.ascii	"Modes\000"
 1135      7300
 1136 0122 0000     		.align	2
 1137              	.LC43:
 1138 0124 496E666F 		.ascii	"Info\000"
 1138      00
 1139 0129 000000   		.align	2
 1140              	.LC45:
 1141 012c 4F757473 		.ascii	"Outside\000"
 1141      69646500 
 1142              		.align	2
 1143              	.LC47:
 1144 0134 42696E20 		.ascii	"Bin #1\000"
 1144      233100
 1145              		.section	.text.GUIInit,"ax",%progbits
 1146              		.align	2
 1147              		.global	GUIInit
 1148              		.code	16
 1149              		.thumb_func
 1150              		.type	GUIInit, %function
 1151              	GUIInit:
 1152              	.LFB41:
 430:main.c        **** 
 431:main.c        **** void GUIInit() {
 1153              		.loc 1 431 0
 1154              		.cfi_startproc
 1155              		@ args = 0, pretend = 0, frame = 72
 1156              		@ frame_needed = 1, uses_anonymous_args = 0
 1157 0000 90B5     		push	{r4, r7, lr}
 1158              		.cfi_def_cfa_offset 12
 1159              		.cfi_offset 4, -12
 1160              		.cfi_offset 7, -8
 1161              		.cfi_offset 14, -4
 1162 0002 95B0     		sub	sp, sp, #84
 1163              		.cfi_def_cfa_offset 96
 1164 0004 02AF     		add	r7, sp, #8
 1165              		.cfi_def_cfa 7, 88
 432:main.c        ****     
 433:main.c        ****     //------ Declarations ------//
 434:main.c        ****     // LCD Strings
 435:main.c        ****     char banner[] = "Seed Bin Climate Control System";
 1166              		.loc 1 435 0
 1167 0006 2023     		movs	r3, #32
 1168 0008 FB18     		adds	r3, r7, r3
 1169 000a AA4A     		ldr	r2, .L51
 1170 000c 13CA     		ldmia	r2!, {r0, r1, r4}
 1171 000e 13C3     		stmia	r3!, {r0, r1, r4}
 1172 0010 13CA     		ldmia	r2!, {r0, r1, r4}
 1173 0012 13C3     		stmia	r3!, {r0, r1, r4}
 1174 0014 03CA     		ldmia	r2!, {r0, r1}
 1175 0016 03C3     		stmia	r3!, {r0, r1}
 436:main.c        ****     char modes[] = "Modes";
 1176              		.loc 1 436 0
 1177 0018 1823     		movs	r3, #24
 1178 001a FB18     		adds	r3, r7, r3
ARM GAS  C:\Users\megan\AppData\Local\Temp\ccqJAT7j.s 			page 31


 1179 001c A64A     		ldr	r2, .L51+4
 1180 001e 1168     		ldr	r1, [r2]
 1181 0020 1960     		str	r1, [r3]
 1182 0022 9288     		ldrh	r2, [r2, #4]
 1183 0024 9A80     		strh	r2, [r3, #4]
 437:main.c        ****     char info[] = "Info";
 1184              		.loc 1 437 0
 1185 0026 1023     		movs	r3, #16
 1186 0028 FB18     		adds	r3, r7, r3
 1187 002a A44A     		ldr	r2, .L51+8
 1188 002c 1168     		ldr	r1, [r2]
 1189 002e 1960     		str	r1, [r3]
 1190 0030 1279     		ldrb	r2, [r2, #4]
 1191 0032 1A71     		strb	r2, [r3, #4]
 438:main.c        ****     char outside[] = "Outside";
 1192              		.loc 1 438 0
 1193 0034 0823     		movs	r3, #8
 1194 0036 FB18     		adds	r3, r7, r3
 1195 0038 A14A     		ldr	r2, .L51+12
 1196 003a 03CA     		ldmia	r2!, {r0, r1}
 1197 003c 03C3     		stmia	r3!, {r0, r1}
 439:main.c        ****     char binno1[] = "Bin #1";
 1198              		.loc 1 439 0
 1199 003e 3B00     		movs	r3, r7
 1200 0040 A04A     		ldr	r2, .L51+16
 1201 0042 1168     		ldr	r1, [r2]
 1202 0044 1960     		str	r1, [r3]
 1203 0046 9188     		ldrh	r1, [r2, #4]
 1204 0048 9980     		strh	r1, [r3, #4]
 1205 004a 9279     		ldrb	r2, [r2, #6]
 1206 004c 9A71     		strb	r2, [r3, #6]
 440:main.c        ****     
 441:main.c        ****     int scr_width = 800;
 1207              		.loc 1 441 0
 1208 004e C823     		movs	r3, #200
 1209 0050 9B00     		lsls	r3, r3, #2
 1210 0052 7B64     		str	r3, [r7, #68]
 442:main.c        ****     int scr_height = 480;
 1211              		.loc 1 442 0
 1212 0054 F023     		movs	r3, #240
 1213 0056 5B00     		lsls	r3, r3, #1
 1214 0058 3B64     		str	r3, [r7, #64]
 443:main.c        ****     
 444:main.c        ****     //------ Procedure ------//
 445:main.c        ****     
 446:main.c        ****     // Background
 447:main.c        ****     PWM1out(255);
 1215              		.loc 1 447 0
 1216 005a FF20     		movs	r0, #255
 1217 005c FFF7FEFF 		bl	PWM1out
 448:main.c        ****     fillScreen(RA8875_WHITE);
 1218              		.loc 1 448 0
 1219 0060 994B     		ldr	r3, .L51+20
 1220 0062 1800     		movs	r0, r3
 1221 0064 FFF7FEFF 		bl	fillScreen
 449:main.c        ****     textMode();
 1222              		.loc 1 449 0
ARM GAS  C:\Users\megan\AppData\Local\Temp\ccqJAT7j.s 			page 32


 1223 0068 FFF7FEFF 		bl	textMode
 450:main.c        ****     
 451:main.c        ****     // Banner
 452:main.c        ****     fillRect(20,20,
 1224              		.loc 1 452 0
 1225 006c 7B6C     		ldr	r3, [r7, #68]
 1226 006e 9BB2     		uxth	r3, r3
 1227 0070 283B     		subs	r3, r3, #40
 1228 0072 9BB2     		uxth	r3, r3
 1229 0074 1AB2     		sxth	r2, r3
 1230 0076 954B     		ldr	r3, .L51+24
 1231 0078 0093     		str	r3, [sp]
 1232 007a 3223     		movs	r3, #50
 1233 007c 1421     		movs	r1, #20
 1234 007e 1420     		movs	r0, #20
 1235 0080 FFF7FEFF 		bl	fillRect
 453:main.c        ****             scr_width-40,50,
 454:main.c        ****             RA8875_CYAN);
 455:main.c        ****     textEnlarge(2);
 1236              		.loc 1 455 0
 1237 0084 0220     		movs	r0, #2
 1238 0086 FFF7FEFF 		bl	textEnlarge
 456:main.c        ****     textTransparent(RA8875_WHITE);
 1239              		.loc 1 456 0
 1240 008a 8F4B     		ldr	r3, .L51+20
 1241 008c 1800     		movs	r0, r3
 1242 008e FFF7FEFF 		bl	textTransparent
 457:main.c        ****     textSetCursor(25,18);
 1243              		.loc 1 457 0
 1244 0092 1221     		movs	r1, #18
 1245 0094 1920     		movs	r0, #25
 1246 0096 FFF7FEFF 		bl	textSetCursor
 458:main.c        ****     textWrite(banner,strlen(banner));
 1247              		.loc 1 458 0
 1248 009a 2023     		movs	r3, #32
 1249 009c FB18     		adds	r3, r7, r3
 1250 009e 1800     		movs	r0, r3
 1251 00a0 FFF7FEFF 		bl	strlen
 1252 00a4 0300     		movs	r3, r0
 1253 00a6 9AB2     		uxth	r2, r3
 1254 00a8 2023     		movs	r3, #32
 1255 00aa FB18     		adds	r3, r7, r3
 1256 00ac 1100     		movs	r1, r2
 1257 00ae 1800     		movs	r0, r3
 1258 00b0 FFF7FEFF 		bl	textWrite
 459:main.c        ****     
 460:main.c        ****     // Modes
 461:main.c        ****     fillRect(20,70,
 462:main.c        ****             scr_width/3-40,scr_height/2+50,
 1259              		.loc 1 462 0
 1260 00b4 7B6C     		ldr	r3, [r7, #68]
 1261 00b6 0321     		movs	r1, #3
 1262 00b8 1800     		movs	r0, r3
 1263 00ba FFF7FEFF 		bl	__aeabi_idiv
 1264 00be 0300     		movs	r3, r0
 461:main.c        ****             scr_width/3-40,scr_height/2+50,
 1265              		.loc 1 461 0
ARM GAS  C:\Users\megan\AppData\Local\Temp\ccqJAT7j.s 			page 33


 1266 00c0 9BB2     		uxth	r3, r3
 1267 00c2 283B     		subs	r3, r3, #40
 1268 00c4 9BB2     		uxth	r3, r3
 1269 00c6 1AB2     		sxth	r2, r3
 1270              		.loc 1 462 0
 1271 00c8 3B6C     		ldr	r3, [r7, #64]
 1272 00ca 002B     		cmp	r3, #0
 1273 00cc 00DA     		bge	.L45
 1274 00ce 0133     		adds	r3, r3, #1
 1275              	.L45:
 1276 00d0 5B10     		asrs	r3, r3, #1
 461:main.c        ****             scr_width/3-40,scr_height/2+50,
 1277              		.loc 1 461 0
 1278 00d2 9BB2     		uxth	r3, r3
 1279 00d4 3233     		adds	r3, r3, #50
 1280 00d6 9BB2     		uxth	r3, r3
 1281 00d8 19B2     		sxth	r1, r3
 1282 00da 0023     		movs	r3, #0
 1283 00dc 0093     		str	r3, [sp]
 1284 00de 0B00     		movs	r3, r1
 1285 00e0 4621     		movs	r1, #70
 1286 00e2 1420     		movs	r0, #20
 1287 00e4 FFF7FEFF 		bl	fillRect
 463:main.c        ****             RA8875_BLACK);
 464:main.c        ****     textEnlarge(3);
 1288              		.loc 1 464 0
 1289 00e8 0320     		movs	r0, #3
 1290 00ea FFF7FEFF 		bl	textEnlarge
 465:main.c        ****     textTransparent(RA8875_WHITE);
 1291              		.loc 1 465 0
 1292 00ee 764B     		ldr	r3, .L51+20
 1293 00f0 1800     		movs	r0, r3
 1294 00f2 FFF7FEFF 		bl	textTransparent
 466:main.c        ****     textSetCursor(50,70);
 1295              		.loc 1 466 0
 1296 00f6 4621     		movs	r1, #70
 1297 00f8 3220     		movs	r0, #50
 1298 00fa FFF7FEFF 		bl	textSetCursor
 467:main.c        ****     textWrite(modes,strlen(modes));
 1299              		.loc 1 467 0
 1300 00fe 1823     		movs	r3, #24
 1301 0100 FB18     		adds	r3, r7, r3
 1302 0102 1800     		movs	r0, r3
 1303 0104 FFF7FEFF 		bl	strlen
 1304 0108 0300     		movs	r3, r0
 1305 010a 9AB2     		uxth	r2, r3
 1306 010c 1823     		movs	r3, #24
 1307 010e FB18     		adds	r3, r7, r3
 1308 0110 1100     		movs	r1, r2
 1309 0112 1800     		movs	r0, r3
 1310 0114 FFF7FEFF 		bl	textWrite
 468:main.c        ****     
 469:main.c        ****     // Info
 470:main.c        ****     fillRect(20,scr_height/2+120,
 1311              		.loc 1 470 0
 1312 0118 3B6C     		ldr	r3, [r7, #64]
 1313 011a 002B     		cmp	r3, #0
ARM GAS  C:\Users\megan\AppData\Local\Temp\ccqJAT7j.s 			page 34


 1314 011c 00DA     		bge	.L46
 1315 011e 0133     		adds	r3, r3, #1
 1316              	.L46:
 1317 0120 5B10     		asrs	r3, r3, #1
 1318 0122 9BB2     		uxth	r3, r3
 1319 0124 7833     		adds	r3, r3, #120
 1320 0126 9BB2     		uxth	r3, r3
 1321 0128 1CB2     		sxth	r4, r3
 471:main.c        ****             scr_width/3-40,scr_height/2-140,
 1322              		.loc 1 471 0
 1323 012a 7B6C     		ldr	r3, [r7, #68]
 1324 012c 0321     		movs	r1, #3
 1325 012e 1800     		movs	r0, r3
 1326 0130 FFF7FEFF 		bl	__aeabi_idiv
 1327 0134 0300     		movs	r3, r0
 470:main.c        ****             scr_width/3-40,scr_height/2-140,
 1328              		.loc 1 470 0
 1329 0136 9BB2     		uxth	r3, r3
 1330 0138 283B     		subs	r3, r3, #40
 1331 013a 9BB2     		uxth	r3, r3
 1332 013c 1AB2     		sxth	r2, r3
 1333              		.loc 1 471 0
 1334 013e 3B6C     		ldr	r3, [r7, #64]
 1335 0140 002B     		cmp	r3, #0
 1336 0142 00DA     		bge	.L47
 1337 0144 0133     		adds	r3, r3, #1
 1338              	.L47:
 1339 0146 5B10     		asrs	r3, r3, #1
 470:main.c        ****             scr_width/3-40,scr_height/2-140,
 1340              		.loc 1 470 0
 1341 0148 9BB2     		uxth	r3, r3
 1342 014a 8C3B     		subs	r3, r3, #140
 1343 014c 9BB2     		uxth	r3, r3
 1344 014e 19B2     		sxth	r1, r3
 1345 0150 1F23     		movs	r3, #31
 1346 0152 0093     		str	r3, [sp]
 1347 0154 0B00     		movs	r3, r1
 1348 0156 2100     		movs	r1, r4
 1349 0158 1420     		movs	r0, #20
 1350 015a FFF7FEFF 		bl	fillRect
 472:main.c        ****             RA8875_BLUE);
 473:main.c        ****     textEnlarge(3);
 1351              		.loc 1 473 0
 1352 015e 0320     		movs	r0, #3
 1353 0160 FFF7FEFF 		bl	textEnlarge
 474:main.c        ****     textTransparent(RA8875_WHITE);
 1354              		.loc 1 474 0
 1355 0164 584B     		ldr	r3, .L51+20
 1356 0166 1800     		movs	r0, r3
 1357 0168 FFF7FEFF 		bl	textTransparent
 475:main.c        ****     textSetCursor(60,scr_height/2+135);
 1358              		.loc 1 475 0
 1359 016c 3B6C     		ldr	r3, [r7, #64]
 1360 016e 002B     		cmp	r3, #0
 1361 0170 00DA     		bge	.L48
 1362 0172 0133     		adds	r3, r3, #1
 1363              	.L48:
ARM GAS  C:\Users\megan\AppData\Local\Temp\ccqJAT7j.s 			page 35


 1364 0174 5B10     		asrs	r3, r3, #1
 1365 0176 9BB2     		uxth	r3, r3
 1366 0178 8733     		adds	r3, r3, #135
 1367 017a 9BB2     		uxth	r3, r3
 1368 017c 1900     		movs	r1, r3
 1369 017e 3C20     		movs	r0, #60
 1370 0180 FFF7FEFF 		bl	textSetCursor
 476:main.c        ****     textWrite(info,strlen(info));
 1371              		.loc 1 476 0
 1372 0184 1023     		movs	r3, #16
 1373 0186 FB18     		adds	r3, r7, r3
 1374 0188 1800     		movs	r0, r3
 1375 018a FFF7FEFF 		bl	strlen
 1376 018e 0300     		movs	r3, r0
 1377 0190 9AB2     		uxth	r2, r3
 1378 0192 1023     		movs	r3, #16
 1379 0194 FB18     		adds	r3, r7, r3
 1380 0196 1100     		movs	r1, r2
 1381 0198 1800     		movs	r0, r3
 1382 019a FFF7FEFF 		bl	textWrite
 477:main.c        ****     
 478:main.c        ****     // Outside
 479:main.c        ****     fillRect(scr_width/3-20,70,
 1383              		.loc 1 479 0
 1384 019e 7B6C     		ldr	r3, [r7, #68]
 1385 01a0 0321     		movs	r1, #3
 1386 01a2 1800     		movs	r0, r3
 1387 01a4 FFF7FEFF 		bl	__aeabi_idiv
 1388 01a8 0300     		movs	r3, r0
 1389 01aa 9BB2     		uxth	r3, r3
 1390 01ac 143B     		subs	r3, r3, #20
 1391 01ae 9BB2     		uxth	r3, r3
 1392 01b0 1CB2     		sxth	r4, r3
 480:main.c        ****             scr_width/3,scr_height/2+50,
 1393              		.loc 1 480 0
 1394 01b2 7B6C     		ldr	r3, [r7, #68]
 1395 01b4 0321     		movs	r1, #3
 1396 01b6 1800     		movs	r0, r3
 1397 01b8 FFF7FEFF 		bl	__aeabi_idiv
 1398 01bc 0300     		movs	r3, r0
 479:main.c        ****             scr_width/3,scr_height/2+50,
 1399              		.loc 1 479 0
 1400 01be 1AB2     		sxth	r2, r3
 1401              		.loc 1 480 0
 1402 01c0 3B6C     		ldr	r3, [r7, #64]
 1403 01c2 002B     		cmp	r3, #0
 1404 01c4 00DA     		bge	.L49
 1405 01c6 0133     		adds	r3, r3, #1
 1406              	.L49:
 1407 01c8 5B10     		asrs	r3, r3, #1
 479:main.c        ****             scr_width/3,scr_height/2+50,
 1408              		.loc 1 479 0
 1409 01ca 9BB2     		uxth	r3, r3
 1410 01cc 3233     		adds	r3, r3, #50
 1411 01ce 9BB2     		uxth	r3, r3
 1412 01d0 19B2     		sxth	r1, r3
 1413 01d2 FC23     		movs	r3, #252
ARM GAS  C:\Users\megan\AppData\Local\Temp\ccqJAT7j.s 			page 36


 1414 01d4 DB00     		lsls	r3, r3, #3
 1415 01d6 0093     		str	r3, [sp]
 1416 01d8 0B00     		movs	r3, r1
 1417 01da 4621     		movs	r1, #70
 1418 01dc 2000     		movs	r0, r4
 1419 01de FFF7FEFF 		bl	fillRect
 481:main.c        ****             RA8875_GREEN);
 482:main.c        ****     textEnlarge(3);
 1420              		.loc 1 482 0
 1421 01e2 0320     		movs	r0, #3
 1422 01e4 FFF7FEFF 		bl	textEnlarge
 483:main.c        ****     textTransparent(RA8875_WHITE);
 1423              		.loc 1 483 0
 1424 01e8 374B     		ldr	r3, .L51+20
 1425 01ea 1800     		movs	r0, r3
 1426 01ec FFF7FEFF 		bl	textTransparent
 484:main.c        ****     textSetCursor(scr_width/3,70);
 1427              		.loc 1 484 0
 1428 01f0 7B6C     		ldr	r3, [r7, #68]
 1429 01f2 0321     		movs	r1, #3
 1430 01f4 1800     		movs	r0, r3
 1431 01f6 FFF7FEFF 		bl	__aeabi_idiv
 1432 01fa 0300     		movs	r3, r0
 1433 01fc 9BB2     		uxth	r3, r3
 1434 01fe 4621     		movs	r1, #70
 1435 0200 1800     		movs	r0, r3
 1436 0202 FFF7FEFF 		bl	textSetCursor
 485:main.c        ****     textWrite(outside,strlen(outside));
 1437              		.loc 1 485 0
 1438 0206 0823     		movs	r3, #8
 1439 0208 FB18     		adds	r3, r7, r3
 1440 020a 1800     		movs	r0, r3
 1441 020c FFF7FEFF 		bl	strlen
 1442 0210 0300     		movs	r3, r0
 1443 0212 9AB2     		uxth	r2, r3
 1444 0214 0823     		movs	r3, #8
 1445 0216 FB18     		adds	r3, r7, r3
 1446 0218 1100     		movs	r1, r2
 1447 021a 1800     		movs	r0, r3
 1448 021c FFF7FEFF 		bl	textWrite
 486:main.c        ****     
 487:main.c        ****     // Bin1
 488:main.c        ****     fillRect(2*scr_width/3-20,70,
 1449              		.loc 1 488 0
 1450 0220 7B6C     		ldr	r3, [r7, #68]
 1451 0222 5B00     		lsls	r3, r3, #1
 1452 0224 0321     		movs	r1, #3
 1453 0226 1800     		movs	r0, r3
 1454 0228 FFF7FEFF 		bl	__aeabi_idiv
 1455 022c 0300     		movs	r3, r0
 1456 022e 9BB2     		uxth	r3, r3
 1457 0230 143B     		subs	r3, r3, #20
 1458 0232 9BB2     		uxth	r3, r3
 1459 0234 1CB2     		sxth	r4, r3
 489:main.c        ****             scr_width/3,scr_height/2+50,
 1460              		.loc 1 489 0
 1461 0236 7B6C     		ldr	r3, [r7, #68]
ARM GAS  C:\Users\megan\AppData\Local\Temp\ccqJAT7j.s 			page 37


 1462 0238 0321     		movs	r1, #3
 1463 023a 1800     		movs	r0, r3
 1464 023c FFF7FEFF 		bl	__aeabi_idiv
 1465 0240 0300     		movs	r3, r0
 488:main.c        ****             scr_width/3,scr_height/2+50,
 1466              		.loc 1 488 0
 1467 0242 1AB2     		sxth	r2, r3
 1468              		.loc 1 489 0
 1469 0244 3B6C     		ldr	r3, [r7, #64]
 1470 0246 002B     		cmp	r3, #0
 1471 0248 00DA     		bge	.L50
 1472 024a 0133     		adds	r3, r3, #1
 1473              	.L50:
 1474 024c 5B10     		asrs	r3, r3, #1
 488:main.c        ****             scr_width/3,scr_height/2+50,
 1475              		.loc 1 488 0
 1476 024e 9BB2     		uxth	r3, r3
 1477 0250 3233     		adds	r3, r3, #50
 1478 0252 9BB2     		uxth	r3, r3
 1479 0254 19B2     		sxth	r1, r3
 1480 0256 F823     		movs	r3, #248
 1481 0258 1B02     		lsls	r3, r3, #8
 1482 025a 0093     		str	r3, [sp]
 1483 025c 0B00     		movs	r3, r1
 1484 025e 4621     		movs	r1, #70
 1485 0260 2000     		movs	r0, r4
 1486 0262 FFF7FEFF 		bl	fillRect
 490:main.c        ****             RA8875_RED);
 491:main.c        ****     textEnlarge(3);
 1487              		.loc 1 491 0
 1488 0266 0320     		movs	r0, #3
 1489 0268 FFF7FEFF 		bl	textEnlarge
 492:main.c        ****     textTransparent(RA8875_WHITE);
 1490              		.loc 1 492 0
 1491 026c 164B     		ldr	r3, .L51+20
 1492 026e 1800     		movs	r0, r3
 1493 0270 FFF7FEFF 		bl	textTransparent
 493:main.c        ****     textSetCursor(2*scr_width/3+20,70);
 1494              		.loc 1 493 0
 1495 0274 7B6C     		ldr	r3, [r7, #68]
 1496 0276 5B00     		lsls	r3, r3, #1
 1497 0278 0321     		movs	r1, #3
 1498 027a 1800     		movs	r0, r3
 1499 027c FFF7FEFF 		bl	__aeabi_idiv
 1500 0280 0300     		movs	r3, r0
 1501 0282 9BB2     		uxth	r3, r3
 1502 0284 1433     		adds	r3, r3, #20
 1503 0286 9BB2     		uxth	r3, r3
 1504 0288 4621     		movs	r1, #70
 1505 028a 1800     		movs	r0, r3
 1506 028c FFF7FEFF 		bl	textSetCursor
 494:main.c        ****     textWrite(binno1,strlen(binno1));
 1507              		.loc 1 494 0
 1508 0290 3B00     		movs	r3, r7
 1509 0292 1800     		movs	r0, r3
 1510 0294 FFF7FEFF 		bl	strlen
 1511 0298 0300     		movs	r3, r0
ARM GAS  C:\Users\megan\AppData\Local\Temp\ccqJAT7j.s 			page 38


 1512 029a 9AB2     		uxth	r2, r3
 1513 029c 3B00     		movs	r3, r7
 1514 029e 1100     		movs	r1, r2
 1515 02a0 1800     		movs	r0, r3
 1516 02a2 FFF7FEFF 		bl	textWrite
 495:main.c        ****     
 496:main.c        ****     // Bin1 Temp
 497:main.c        ****     GUIUpdateBin1ActualTemp();
 1517              		.loc 1 497 0
 1518 02a6 FFF7FEFF 		bl	GUIUpdateBin1ActualTemp
 498:main.c        ****     
 499:main.c        ****     // Settings
 500:main.c        ****     //scr_height/2+120
 501:main.c        **** //    
 502:main.c        **** }
 1519              		.loc 1 502 0
 1520 02aa C046     		nop
 1521 02ac BD46     		mov	sp, r7
 1522 02ae 13B0     		add	sp, sp, #76
 1523              		@ sp needed
 1524 02b0 90BD     		pop	{r4, r7, pc}
 1525              	.L52:
 1526 02b2 C046     		.align	2
 1527              	.L51:
 1528 02b4 FC000000 		.word	.LC39
 1529 02b8 1C010000 		.word	.LC41
 1530 02bc 24010000 		.word	.LC43
 1531 02c0 2C010000 		.word	.LC45
 1532 02c4 34010000 		.word	.LC47
 1533 02c8 FFFF0000 		.word	65535
 1534 02cc FF070000 		.word	2047
 1535              		.cfi_endproc
 1536              	.LFE41:
 1537              		.size	GUIInit, .-GUIInit
 1538              		.section	.text.GUIUpdateBin1ActualTemp,"ax",%progbits
 1539              		.align	2
 1540              		.global	GUIUpdateBin1ActualTemp
 1541              		.code	16
 1542              		.thumb_func
 1543              		.type	GUIUpdateBin1ActualTemp, %function
 1544              	GUIUpdateBin1ActualTemp:
 1545              	.LFB42:
 503:main.c        **** 
 504:main.c        **** void GUIUpdateBin1ActualTemp() {
 1546              		.loc 1 504 0
 1547              		.cfi_startproc
 1548              		@ args = 0, pretend = 0, frame = 8
 1549              		@ frame_needed = 1, uses_anonymous_args = 0
 1550 0000 80B5     		push	{r7, lr}
 1551              		.cfi_def_cfa_offset 8
 1552              		.cfi_offset 7, -8
 1553              		.cfi_offset 14, -4
 1554 0002 82B0     		sub	sp, sp, #8
 1555              		.cfi_def_cfa_offset 16
 1556 0004 00AF     		add	r7, sp, #0
 1557              		.cfi_def_cfa_register 7
 505:main.c        ****     
ARM GAS  C:\Users\megan\AppData\Local\Temp\ccqJAT7j.s 			page 39


 506:main.c        ****     int scr_width = 800;
 1558              		.loc 1 506 0
 1559 0006 C823     		movs	r3, #200
 1560 0008 9B00     		lsls	r3, r3, #2
 1561 000a 7B60     		str	r3, [r7, #4]
 507:main.c        **** 
 508:main.c        ****     textEnlarge(4);
 1562              		.loc 1 508 0
 1563 000c 0420     		movs	r0, #4
 1564 000e FFF7FEFF 		bl	textEnlarge
 509:main.c        ****     textColor(RA8875_WHITE,RA8875_RED);
 1565              		.loc 1 509 0
 1566 0012 F823     		movs	r3, #248
 1567 0014 1B02     		lsls	r3, r3, #8
 1568 0016 0E4A     		ldr	r2, .L54
 1569 0018 1900     		movs	r1, r3
 1570 001a 1000     		movs	r0, r2
 1571 001c FFF7FEFF 		bl	textColor
 510:main.c        ****     textSetCursor(2*scr_width/3+50,170);
 1572              		.loc 1 510 0
 1573 0020 7B68     		ldr	r3, [r7, #4]
 1574 0022 5B00     		lsls	r3, r3, #1
 1575 0024 0321     		movs	r1, #3
 1576 0026 1800     		movs	r0, r3
 1577 0028 FFF7FEFF 		bl	__aeabi_idiv
 1578 002c 0300     		movs	r3, r0
 1579 002e 9BB2     		uxth	r3, r3
 1580 0030 3233     		adds	r3, r3, #50
 1581 0032 9BB2     		uxth	r3, r3
 1582 0034 AA21     		movs	r1, #170
 1583 0036 1800     		movs	r0, r3
 1584 0038 FFF7FEFF 		bl	textSetCursor
 511:main.c        ****     PrintFloat(bin1.actual_temp);
 1585              		.loc 1 511 0
 1586 003c 054B     		ldr	r3, .L54+4
 1587 003e 1B68     		ldr	r3, [r3]
 1588 0040 181C     		adds	r0, r3, #0
 1589 0042 FFF7FEFF 		bl	PrintFloat
 512:main.c        **** }
 1590              		.loc 1 512 0
 1591 0046 C046     		nop
 1592 0048 BD46     		mov	sp, r7
 1593 004a 02B0     		add	sp, sp, #8
 1594              		@ sp needed
 1595 004c 80BD     		pop	{r7, pc}
 1596              	.L55:
 1597 004e C046     		.align	2
 1598              	.L54:
 1599 0050 FFFF0000 		.word	65535
 1600 0054 00000000 		.word	bin1
 1601              		.cfi_endproc
 1602              	.LFE42:
 1603              		.size	GUIUpdateBin1ActualTemp, .-GUIUpdateBin1ActualTemp
 1604              		.section	.text.GUITest,"ax",%progbits
 1605              		.align	2
 1606              		.global	GUITest
 1607              		.code	16
ARM GAS  C:\Users\megan\AppData\Local\Temp\ccqJAT7j.s 			page 40


 1608              		.thumb_func
 1609              		.type	GUITest, %function
 1610              	GUITest:
 1611              	.LFB43:
 513:main.c        **** 
 514:main.c        **** void GUITest() {
 1612              		.loc 1 514 0
 1613              		.cfi_startproc
 1614              		@ args = 0, pretend = 0, frame = 8
 1615              		@ frame_needed = 1, uses_anonymous_args = 0
 1616 0000 80B5     		push	{r7, lr}
 1617              		.cfi_def_cfa_offset 8
 1618              		.cfi_offset 7, -8
 1619              		.cfi_offset 14, -4
 1620 0002 82B0     		sub	sp, sp, #8
 1621              		.cfi_def_cfa_offset 16
 1622 0004 00AF     		add	r7, sp, #0
 1623              		.cfi_def_cfa_register 7
 515:main.c        ****     
 516:main.c        ****     //------ Declarations ------/
 517:main.c        ****     // LCD Strings
 518:main.c        ****     char temp[] = "113";
 1624              		.loc 1 518 0
 1625 0006 3B00     		movs	r3, r7
 1626 0008 134A     		ldr	r2, .L59
 1627 000a 1A60     		str	r2, [r3]
 519:main.c        ****     
 520:main.c        ****     //------ Procedure ------//
 521:main.c        ****     
 522:main.c        ****     // Screen start-up
 523:main.c        ****     PWM1out(0);
 1628              		.loc 1 523 0
 1629 000c 0020     		movs	r0, #0
 1630 000e FFF7FEFF 		bl	PWM1out
 524:main.c        ****     fillScreen(RA8875_WHITE);
 1631              		.loc 1 524 0
 1632 0012 124B     		ldr	r3, .L59+4
 1633 0014 1800     		movs	r0, r3
 1634 0016 FFF7FEFF 		bl	fillScreen
 1635              	.LBB3:
 525:main.c        ****     for (int i = 0; i < 256; i++) {
 1636              		.loc 1 525 0
 1637 001a 0023     		movs	r3, #0
 1638 001c 7B60     		str	r3, [r7, #4]
 1639 001e 0AE0     		b	.L57
 1640              	.L58:
 526:main.c        ****         PWM1out(i);
 1641              		.loc 1 526 0 discriminator 3
 1642 0020 7B68     		ldr	r3, [r7, #4]
 1643 0022 DBB2     		uxtb	r3, r3
 1644 0024 1800     		movs	r0, r3
 1645 0026 FFF7FEFF 		bl	PWM1out
 527:main.c        ****         CyDelay(1);
 1646              		.loc 1 527 0 discriminator 3
 1647 002a 0120     		movs	r0, #1
 1648 002c FFF7FEFF 		bl	CyDelay
 525:main.c        ****     for (int i = 0; i < 256; i++) {
ARM GAS  C:\Users\megan\AppData\Local\Temp\ccqJAT7j.s 			page 41


 1649              		.loc 1 525 0 discriminator 3
 1650 0030 7B68     		ldr	r3, [r7, #4]
 1651 0032 0133     		adds	r3, r3, #1
 1652 0034 7B60     		str	r3, [r7, #4]
 1653              	.L57:
 525:main.c        ****     for (int i = 0; i < 256; i++) {
 1654              		.loc 1 525 0 is_stmt 0 discriminator 1
 1655 0036 7B68     		ldr	r3, [r7, #4]
 1656 0038 FF2B     		cmp	r3, #255
 1657 003a F1DD     		ble	.L58
 1658              	.LBE3:
 528:main.c        ****     }
 529:main.c        ****     
 530:main.c        ****     // Print Temp
 531:main.c        ****     textMode();
 1659              		.loc 1 531 0 is_stmt 1
 1660 003c FFF7FEFF 		bl	textMode
 532:main.c        ****     textSetCursor(100, 100);
 1661              		.loc 1 532 0
 1662 0040 6421     		movs	r1, #100
 1663 0042 6420     		movs	r0, #100
 1664 0044 FFF7FEFF 		bl	textSetCursor
 533:main.c        ****     textTransparent(RA8875_BLUE); 
 1665              		.loc 1 533 0
 1666 0048 1F20     		movs	r0, #31
 1667 004a FFF7FEFF 		bl	textTransparent
 534:main.c        **** //    PrintInt(255);
 535:main.c        **** //    textSetCursor(100, 200);
 536:main.c        **** }
 1668              		.loc 1 536 0
 1669 004e C046     		nop
 1670 0050 BD46     		mov	sp, r7
 1671 0052 02B0     		add	sp, sp, #8
 1672              		@ sp needed
 1673 0054 80BD     		pop	{r7, pc}
 1674              	.L60:
 1675 0056 C046     		.align	2
 1676              	.L59:
 1677 0058 31313300 		.word	3354929
 1678 005c FFFF0000 		.word	65535
 1679              		.cfi_endproc
 1680              	.LFE43:
 1681              		.size	GUITest, .-GUITest
 1682              		.section	.text.TempReceive,"ax",%progbits
 1683              		.align	2
 1684              		.global	TempReceive
 1685              		.code	16
 1686              		.thumb_func
 1687              		.type	TempReceive, %function
 1688              	TempReceive:
 1689              	.LFB44:
 537:main.c        **** 
 538:main.c        **** void TempReceive(Bin * bin, uint8_t * fl_bytes) {
 1690              		.loc 1 538 0
 1691              		.cfi_startproc
 1692              		@ args = 0, pretend = 0, frame = 16
 1693              		@ frame_needed = 1, uses_anonymous_args = 0
ARM GAS  C:\Users\megan\AppData\Local\Temp\ccqJAT7j.s 			page 42


 1694 0000 80B5     		push	{r7, lr}
 1695              		.cfi_def_cfa_offset 8
 1696              		.cfi_offset 7, -8
 1697              		.cfi_offset 14, -4
 1698 0002 84B0     		sub	sp, sp, #16
 1699              		.cfi_def_cfa_offset 24
 1700 0004 00AF     		add	r7, sp, #0
 1701              		.cfi_def_cfa_register 7
 1702 0006 7860     		str	r0, [r7, #4]
 1703 0008 3960     		str	r1, [r7]
 539:main.c        ****     
 540:main.c        ****     char space[] = " ";
 1704              		.loc 1 540 0
 1705 000a 0C23     		movs	r3, #12
 1706 000c FB18     		adds	r3, r7, r3
 1707 000e 2022     		movs	r2, #32
 1708 0010 1A80     		strh	r2, [r3]
 541:main.c        ****     
 542:main.c        ****     
 543:main.c        ****     // Store value
 544:main.c        ****     bin->actual_temp = *(float32*)(fl_bytes);
 1709              		.loc 1 544 0
 1710 0012 3B68     		ldr	r3, [r7]
 1711 0014 1A68     		ldr	r2, [r3]
 1712 0016 7B68     		ldr	r3, [r7, #4]
 1713 0018 1A60     		str	r2, [r3]
 545:main.c        ****     
 546:main.c        ****     // Update interface
 547:main.c        ****     GUIUpdateBin1ActualTemp();
 1714              		.loc 1 547 0
 1715 001a FFF7FEFF 		bl	GUIUpdateBin1ActualTemp
 548:main.c        ****     //PrintFloat(bin->actual_temp);
 549:main.c        ****     //textWrite(space,strlen(space));
 550:main.c        **** }
 1716              		.loc 1 550 0
 1717 001e C046     		nop
 1718 0020 BD46     		mov	sp, r7
 1719 0022 04B0     		add	sp, sp, #16
 1720              		@ sp needed
 1721 0024 80BD     		pop	{r7, pc}
 1722              		.cfi_endproc
 1723              	.LFE44:
 1724              		.size	TempReceive, .-TempReceive
 1725              		.global	__aeabi_uidivmod
 1726              		.global	__aeabi_uidiv
 1727 0026 C046     		.section	.text.PrintInt,"ax",%progbits
 1728              		.align	2
 1729              		.global	PrintInt
 1730              		.code	16
 1731              		.thumb_func
 1732              		.type	PrintInt, %function
 1733              	PrintInt:
 1734              	.LFB45:
 551:main.c        **** 
 552:main.c        **** void PrintInt(uint8_t n) {
 1735              		.loc 1 552 0
 1736              		.cfi_startproc
ARM GAS  C:\Users\megan\AppData\Local\Temp\ccqJAT7j.s 			page 43


 1737              		@ args = 0, pretend = 0, frame = 16
 1738              		@ frame_needed = 1, uses_anonymous_args = 0
 1739 0000 90B5     		push	{r4, r7, lr}
 1740              		.cfi_def_cfa_offset 12
 1741              		.cfi_offset 4, -12
 1742              		.cfi_offset 7, -8
 1743              		.cfi_offset 14, -4
 1744 0002 85B0     		sub	sp, sp, #20
 1745              		.cfi_def_cfa_offset 32
 1746 0004 00AF     		add	r7, sp, #0
 1747              		.cfi_def_cfa_register 7
 1748 0006 0200     		movs	r2, r0
 1749 0008 FB1D     		adds	r3, r7, #7
 1750 000a 1A70     		strb	r2, [r3]
 553:main.c        ****     // Declarations
 554:main.c        ****     uint8_t d;
 555:main.c        ****     char p[] = "0";
 1751              		.loc 1 555 0
 1752 000c 0C23     		movs	r3, #12
 1753 000e FB18     		adds	r3, r7, r3
 1754 0010 3022     		movs	r2, #48
 1755 0012 1A80     		strh	r2, [r3]
 556:main.c        ****     
 557:main.c        ****     // Separate LSB
 558:main.c        ****     d = n % 10;
 1756              		.loc 1 558 0
 1757 0014 0F23     		movs	r3, #15
 1758 0016 FC18     		adds	r4, r7, r3
 1759 0018 FB1D     		adds	r3, r7, #7
 1760 001a 1B78     		ldrb	r3, [r3]
 1761 001c 0A21     		movs	r1, #10
 1762 001e 1800     		movs	r0, r3
 1763 0020 FFF7FEFF 		bl	__aeabi_uidivmod
 1764 0024 0B00     		movs	r3, r1
 1765 0026 2370     		strb	r3, [r4]
 559:main.c        ****     
 560:main.c        ****     // Convert to ASCII (+48)
 561:main.c        ****     p[0] = (d + 48);
 1766              		.loc 1 561 0
 1767 0028 0F23     		movs	r3, #15
 1768 002a FB18     		adds	r3, r7, r3
 1769 002c 1B78     		ldrb	r3, [r3]
 1770 002e 3033     		adds	r3, r3, #48
 1771 0030 DAB2     		uxtb	r2, r3
 1772 0032 0C23     		movs	r3, #12
 1773 0034 FB18     		adds	r3, r7, r3
 1774 0036 1A70     		strb	r2, [r3]
 562:main.c        ****     
 563:main.c        ****     // Any digits to the left?
 564:main.c        ****     if (n / 10 != 0) {
 1775              		.loc 1 564 0
 1776 0038 FB1D     		adds	r3, r7, #7
 1777 003a 1B78     		ldrb	r3, [r3]
 1778 003c 092B     		cmp	r3, #9
 1779 003e 0AD9     		bls	.L63
 565:main.c        ****         PrintInt(n/10);
 1780              		.loc 1 565 0
ARM GAS  C:\Users\megan\AppData\Local\Temp\ccqJAT7j.s 			page 44


 1781 0040 FB1D     		adds	r3, r7, #7
 1782 0042 1B78     		ldrb	r3, [r3]
 1783 0044 0A21     		movs	r1, #10
 1784 0046 1800     		movs	r0, r3
 1785 0048 FFF7FEFF 		bl	__aeabi_uidiv
 1786 004c 0300     		movs	r3, r0
 1787 004e DBB2     		uxtb	r3, r3
 1788 0050 1800     		movs	r0, r3
 1789 0052 FFF7FEFF 		bl	PrintInt
 1790              	.L63:
 566:main.c        ****     }
 567:main.c        ****     
 568:main.c        ****     textWrite(p,strlen(p));
 1791              		.loc 1 568 0
 1792 0056 0C23     		movs	r3, #12
 1793 0058 FB18     		adds	r3, r7, r3
 1794 005a 1800     		movs	r0, r3
 1795 005c FFF7FEFF 		bl	strlen
 1796 0060 0300     		movs	r3, r0
 1797 0062 9AB2     		uxth	r2, r3
 1798 0064 0C23     		movs	r3, #12
 1799 0066 FB18     		adds	r3, r7, r3
 1800 0068 1100     		movs	r1, r2
 1801 006a 1800     		movs	r0, r3
 1802 006c FFF7FEFF 		bl	textWrite
 569:main.c        ****     return;
 1803              		.loc 1 569 0
 1804 0070 C046     		nop
 570:main.c        **** }
 1805              		.loc 1 570 0
 1806 0072 BD46     		mov	sp, r7
 1807 0074 05B0     		add	sp, sp, #20
 1808              		@ sp needed
 1809 0076 90BD     		pop	{r4, r7, pc}
 1810              		.cfi_endproc
 1811              	.LFE45:
 1812              		.size	PrintInt, .-PrintInt
 1813              		.global	__aeabi_f2iz
 1814              		.global	__aeabi_fsub
 1815              		.global	__aeabi_fmul
 1816              		.section	.text.PrintFloat,"ax",%progbits
 1817              		.align	2
 1818              		.global	PrintFloat
 1819              		.code	16
 1820              		.thumb_func
 1821              		.type	PrintFloat, %function
 1822              	PrintFloat:
 1823              	.LFB46:
 571:main.c        **** 
 572:main.c        **** void PrintFloat(float n) {
 1824              		.loc 1 572 0
 1825              		.cfi_startproc
 1826              		@ args = 0, pretend = 0, frame = 24
 1827              		@ frame_needed = 1, uses_anonymous_args = 0
 1828 0000 80B5     		push	{r7, lr}
 1829              		.cfi_def_cfa_offset 8
 1830              		.cfi_offset 7, -8
ARM GAS  C:\Users\megan\AppData\Local\Temp\ccqJAT7j.s 			page 45


 1831              		.cfi_offset 14, -4
 1832 0002 86B0     		sub	sp, sp, #24
 1833              		.cfi_def_cfa_offset 32
 1834 0004 00AF     		add	r7, sp, #0
 1835              		.cfi_def_cfa_register 7
 1836 0006 7860     		str	r0, [r7, #4]
 573:main.c        ****     
 574:main.c        ****     char negative[] = "-";
 1837              		.loc 1 574 0
 1838 0008 0C23     		movs	r3, #12
 1839 000a FB18     		adds	r3, r7, r3
 1840 000c 2D22     		movs	r2, #45
 1841 000e 1A80     		strh	r2, [r3]
 575:main.c        ****     char dot[] = ".";
 1842              		.loc 1 575 0
 1843 0010 0823     		movs	r3, #8
 1844 0012 FB18     		adds	r3, r7, r3
 1845 0014 2E22     		movs	r2, #46
 1846 0016 1A80     		strh	r2, [r3]
 576:main.c        ****     
 577:main.c        ****     
 578:main.c        ****     // Extract integer part
 579:main.c        ****     int ipart = (int) n;
 1847              		.loc 1 579 0
 1848 0018 7868     		ldr	r0, [r7, #4]
 1849 001a FFF7FEFF 		bl	__aeabi_f2iz
 1850 001e 0300     		movs	r3, r0
 1851 0020 7B61     		str	r3, [r7, #20]
 580:main.c        ****     
 581:main.c        ****     // Extract floating part
 582:main.c        ****     float fpart = n - (float) ipart;
 1852              		.loc 1 582 0
 1853 0022 7869     		ldr	r0, [r7, #20]
 1854 0024 FFF7FEFF 		bl	__aeabi_i2f
 1855 0028 031C     		adds	r3, r0, #0
 1856 002a 191C     		adds	r1, r3, #0
 1857 002c 7868     		ldr	r0, [r7, #4]
 1858 002e FFF7FEFF 		bl	__aeabi_fsub
 1859 0032 031C     		adds	r3, r0, #0
 1860 0034 3B61     		str	r3, [r7, #16]
 583:main.c        ****     
 584:main.c        ****     // Convert integer part to string
 585:main.c        ****     if (ipart < 0) {
 1861              		.loc 1 585 0
 1862 0036 7B69     		ldr	r3, [r7, #20]
 1863 0038 002B     		cmp	r3, #0
 1864 003a 0FDA     		bge	.L66
 586:main.c        ****         textWrite(negative,strlen(negative));
 1865              		.loc 1 586 0
 1866 003c 0C23     		movs	r3, #12
 1867 003e FB18     		adds	r3, r7, r3
 1868 0040 1800     		movs	r0, r3
 1869 0042 FFF7FEFF 		bl	strlen
 1870 0046 0300     		movs	r3, r0
 1871 0048 9AB2     		uxth	r2, r3
 1872 004a 0C23     		movs	r3, #12
 1873 004c FB18     		adds	r3, r7, r3
ARM GAS  C:\Users\megan\AppData\Local\Temp\ccqJAT7j.s 			page 46


 1874 004e 1100     		movs	r1, r2
 1875 0050 1800     		movs	r0, r3
 1876 0052 FFF7FEFF 		bl	textWrite
 587:main.c        ****         ipart *= -1;
 1877              		.loc 1 587 0
 1878 0056 7B69     		ldr	r3, [r7, #20]
 1879 0058 5B42     		rsbs	r3, r3, #0
 1880 005a 7B61     		str	r3, [r7, #20]
 1881              	.L66:
 588:main.c        ****     }
 589:main.c        ****     PrintInt(ipart);
 1882              		.loc 1 589 0
 1883 005c 7B69     		ldr	r3, [r7, #20]
 1884 005e DBB2     		uxtb	r3, r3
 1885 0060 1800     		movs	r0, r3
 1886 0062 FFF7FEFF 		bl	PrintInt
 590:main.c        ****     
 591:main.c        ****     // Display 1 digit after decimal point
 592:main.c        ****     textWrite(dot,strlen(dot));
 1887              		.loc 1 592 0
 1888 0066 0823     		movs	r3, #8
 1889 0068 FB18     		adds	r3, r7, r3
 1890 006a 1800     		movs	r0, r3
 1891 006c FFF7FEFF 		bl	strlen
 1892 0070 0300     		movs	r3, r0
 1893 0072 9AB2     		uxth	r2, r3
 1894 0074 0823     		movs	r3, #8
 1895 0076 FB18     		adds	r3, r7, r3
 1896 0078 1100     		movs	r1, r2
 1897 007a 1800     		movs	r0, r3
 1898 007c FFF7FEFF 		bl	textWrite
 593:main.c        ****     
 594:main.c        ****     // Get the value of the fraction part up to 1 digit
 595:main.c        ****     // after the dot.
 596:main.c        ****     fpart = fpart * pow(10,1);
 1899              		.loc 1 596 0
 1900 0080 0849     		ldr	r1, .L67
 1901 0082 3869     		ldr	r0, [r7, #16]
 1902 0084 FFF7FEFF 		bl	__aeabi_fmul
 1903 0088 031C     		adds	r3, r0, #0
 1904 008a 3B61     		str	r3, [r7, #16]
 597:main.c        ****     
 598:main.c        ****     PrintInt((int) fpart);    
 1905              		.loc 1 598 0
 1906 008c 3869     		ldr	r0, [r7, #16]
 1907 008e FFF7FEFF 		bl	__aeabi_f2iz
 1908 0092 0300     		movs	r3, r0
 1909 0094 DBB2     		uxtb	r3, r3
 1910 0096 1800     		movs	r0, r3
 1911 0098 FFF7FEFF 		bl	PrintInt
 599:main.c        **** }
 1912              		.loc 1 599 0
 1913 009c C046     		nop
 1914 009e BD46     		mov	sp, r7
 1915 00a0 06B0     		add	sp, sp, #24
 1916              		@ sp needed
 1917 00a2 80BD     		pop	{r7, pc}
ARM GAS  C:\Users\megan\AppData\Local\Temp\ccqJAT7j.s 			page 47


 1918              	.L68:
 1919              		.align	2
 1920              	.L67:
 1921 00a4 00002041 		.word	1092616192
 1922              		.cfi_endproc
 1923              	.LFE46:
 1924              		.size	PrintFloat, .-PrintFloat
 1925              		.section	.text.RegReadTest,"ax",%progbits
 1926              		.align	2
 1927              		.global	RegReadTest
 1928              		.code	16
 1929              		.thumb_func
 1930              		.type	RegReadTest, %function
 1931              	RegReadTest:
 1932              	.LFB47:
 600:main.c        **** 
 601:main.c        **** void RegReadTest() {
 1933              		.loc 1 601 0
 1934              		.cfi_startproc
 1935              		@ args = 0, pretend = 0, frame = 8
 1936              		@ frame_needed = 1, uses_anonymous_args = 0
 1937 0000 80B5     		push	{r7, lr}
 1938              		.cfi_def_cfa_offset 8
 1939              		.cfi_offset 7, -8
 1940              		.cfi_offset 14, -4
 1941 0002 82B0     		sub	sp, sp, #8
 1942              		.cfi_def_cfa_offset 16
 1943 0004 00AF     		add	r7, sp, #0
 1944              		.cfi_def_cfa_register 7
 602:main.c        ****     uint32 size_result = LCDSPI_SpiUartGetRxBufferSize();
 1945              		.loc 1 602 0
 1946 0006 FFF7FEFF 		bl	LCDSPI_SpiUartGetRxBufferSize
 1947 000a 0300     		movs	r3, r0
 1948 000c 7B60     		str	r3, [r7, #4]
 603:main.c        ****     uint32 reg_result = readReg(0x22);
 1949              		.loc 1 603 0
 1950 000e 2220     		movs	r0, #34
 1951 0010 FFF7FEFF 		bl	readReg
 1952 0014 0300     		movs	r3, r0
 1953 0016 3B60     		str	r3, [r7]
 604:main.c        ****     
 605:main.c        ****     if (size_result > 0) {
 1954              		.loc 1 605 0
 1955 0018 7B68     		ldr	r3, [r7, #4]
 1956 001a 002B     		cmp	r3, #0
 1957 001c 02D0     		beq	.L70
 606:main.c        ****         LED_BLUE_Write(0);
 1958              		.loc 1 606 0
 1959 001e 0020     		movs	r0, #0
 1960 0020 FFF7FEFF 		bl	LED_BLUE_Write
 1961              	.L70:
 607:main.c        ****     }
 608:main.c        ****     
 609:main.c        ****     if (reg_result != 0x0000) {
 1962              		.loc 1 609 0
 1963 0024 3B68     		ldr	r3, [r7]
 1964 0026 002B     		cmp	r3, #0
ARM GAS  C:\Users\megan\AppData\Local\Temp\ccqJAT7j.s 			page 48


 1965 0028 03D0     		beq	.L71
 610:main.c        ****         LED_GREEN_Write(0);    
 1966              		.loc 1 610 0
 1967 002a 0020     		movs	r0, #0
 1968 002c FFF7FEFF 		bl	LED_GREEN_Write
 611:main.c        ****     }
 612:main.c        ****     else {
 613:main.c        ****         LED_GREEN_Write(1);
 614:main.c        ****     }  
 615:main.c        **** }
 1969              		.loc 1 615 0
 1970 0030 02E0     		b	.L73
 1971              	.L71:
 613:main.c        ****     }  
 1972              		.loc 1 613 0
 1973 0032 0120     		movs	r0, #1
 1974 0034 FFF7FEFF 		bl	LED_GREEN_Write
 1975              	.L73:
 1976              		.loc 1 615 0
 1977 0038 C046     		nop
 1978 003a BD46     		mov	sp, r7
 1979 003c 02B0     		add	sp, sp, #8
 1980              		@ sp needed
 1981 003e 80BD     		pop	{r7, pc}
 1982              		.cfi_endproc
 1983              	.LFE47:
 1984              		.size	RegReadTest, .-RegReadTest
 1985              		.section	.rodata
 1986 013b 00       		.align	2
 1987              	.LC0:
 1988 013c 01       		.byte	1
 1989 013d 00       		.byte	0
 1990 013e 00       		.byte	0
 1991 013f 50       		.byte	80
 1992 0140 A0       		.byte	-96
 1993 0141 00       		.byte	0
 1994 0142 00       		.byte	0
 1995              		.section	.text.BLEStayConnected,"ax",%progbits
 1996              		.align	2
 1997              		.global	BLEStayConnected
 1998              		.code	16
 1999              		.thumb_func
 2000              		.type	BLEStayConnected, %function
 2001              	BLEStayConnected:
 2002              	.LFB48:
 616:main.c        **** 
 617:main.c        **** void BLEStayConnected() {
 2003              		.loc 1 617 0
 2004              		.cfi_startproc
 2005              		@ args = 0, pretend = 0, frame = 64
 2006              		@ frame_needed = 1, uses_anonymous_args = 0
 2007 0000 90B5     		push	{r4, r7, lr}
 2008              		.cfi_def_cfa_offset 12
 2009              		.cfi_offset 4, -12
 2010              		.cfi_offset 7, -8
 2011              		.cfi_offset 14, -4
 2012 0002 91B0     		sub	sp, sp, #68
ARM GAS  C:\Users\megan\AppData\Local\Temp\ccqJAT7j.s 			page 49


 2013              		.cfi_def_cfa_offset 80
 2014 0004 00AF     		add	r7, sp, #0
 2015              		.cfi_def_cfa_register 7
 618:main.c        ****     
 619:main.c        ****      //------ Declarations ------/
 620:main.c        ****     
 621:main.c        ****     CYBLE_API_RESULT_T                      apiResult;
 622:main.c        ****     CYBLE_GATT_ATTR_HANDLE_RANGE_T          range;
 623:main.c        ****     CYBLE_UUID_T                            uuid;
 624:main.c        ****     CYBLE_GATTC_READ_BY_TYPE_REQ_T          readByTypeReqParam;
 625:main.c        ****     
 626:main.c        ****     CYBLE_API_RESULT_T scan_result;
 627:main.c        ****     CYBLE_API_RESULT_T connect_result;
 628:main.c        ****     CYBLE_STATE_T ble_state;
 629:main.c        ****     
 630:main.c        ****     CYBLE_GAP_BD_ADDR_T peripheral_addr = {{0x01,0x00,0x00,0x50,0xA0,0x00}, 0};
 2016              		.loc 1 630 0
 2017 0006 3A1D     		adds	r2, r7, #4
 2018 0008 2C4B     		ldr	r3, .L80
 2019 000a 1000     		movs	r0, r2
 2020 000c 1900     		movs	r1, r3
 2021 000e 0723     		movs	r3, #7
 2022 0010 1A00     		movs	r2, r3
 2023 0012 FFF7FEFF 		bl	memcpy
 631:main.c        **** 
 632:main.c        ****     ble_state = CyBle_GetState();
 2024              		.loc 1 632 0
 2025 0016 3F23     		movs	r3, #63
 2026 0018 FB18     		adds	r3, r7, r3
 2027 001a 294A     		ldr	r2, .L80+4
 2028 001c 1278     		ldrb	r2, [r2]
 2029 001e 1A70     		strb	r2, [r3]
 633:main.c        ****     if (ble_state == CYBLE_STATE_CONNECTED ) {
 2030              		.loc 1 633 0
 2031 0020 3F23     		movs	r3, #63
 2032 0022 FB18     		adds	r3, r7, r3
 2033 0024 1B78     		ldrb	r3, [r3]
 2034 0026 022B     		cmp	r3, #2
 2035 0028 03D1     		bne	.L75
 634:main.c        ****         LED_BLUE_Write(0);   
 2036              		.loc 1 634 0
 2037 002a 0020     		movs	r0, #0
 2038 002c FFF7FEFF 		bl	LED_BLUE_Write
 635:main.c        ****     }
 636:main.c        ****     else if (ble_state == CYBLE_STATE_DISCONNECTED) {
 637:main.c        ****         LED_BLUE_Write(1);
 638:main.c        ****         CyBle_ProcessEvents();
 639:main.c        ****         scan_result = CyBle_GapcStartScan( CYBLE_SCANNING_FAST );
 640:main.c        ****         if (scan_result == CYBLE_ERROR_OK) {
 641:main.c        ****               LED_GREEN_Write(0);  
 642:main.c        ****         }
 643:main.c        ****         CyBle_ProcessEvents();
 644:main.c        ****         CyBle_GapcStopScan();
 645:main.c        ****         CyBle_ProcessEvents();
 646:main.c        ****         connect_result = CyBle_GapcConnectDevice( &peripheral_addr );
 647:main.c        ****         CyBle_ProcessEvents();
 648:main.c        ****         if (connect_result == CYBLE_ERROR_OK) {
ARM GAS  C:\Users\megan\AppData\Local\Temp\ccqJAT7j.s 			page 50


 649:main.c        ****             LED_BLUE_Write(0); 
 650:main.c        ****             CyDelay(500);
 651:main.c        ****             LED_BLUE_Write(1);
 652:main.c        ****             CyDelay(500);
 653:main.c        ****         }   
 654:main.c        ****         CyBle_ProcessEvents();
 655:main.c        ****     }  
 656:main.c        **** }
 2039              		.loc 1 656 0
 2040 0030 3FE0     		b	.L79
 2041              	.L75:
 636:main.c        ****         LED_BLUE_Write(1);
 2042              		.loc 1 636 0
 2043 0032 3F23     		movs	r3, #63
 2044 0034 FB18     		adds	r3, r7, r3
 2045 0036 1B78     		ldrb	r3, [r3]
 2046 0038 052B     		cmp	r3, #5
 2047 003a 3AD1     		bne	.L79
 637:main.c        ****         CyBle_ProcessEvents();
 2048              		.loc 1 637 0
 2049 003c 0120     		movs	r0, #1
 2050 003e FFF7FEFF 		bl	LED_BLUE_Write
 638:main.c        ****         scan_result = CyBle_GapcStartScan( CYBLE_SCANNING_FAST );
 2051              		.loc 1 638 0
 2052 0042 FFF7FEFF 		bl	CyBle_ProcessEvents
 639:main.c        ****         if (scan_result == CYBLE_ERROR_OK) {
 2053              		.loc 1 639 0
 2054 0046 3C23     		movs	r3, #60
 2055 0048 FC18     		adds	r4, r7, r3
 2056 004a 0020     		movs	r0, #0
 2057 004c FFF7FEFF 		bl	CyBle_GapcStartScan
 2058 0050 0300     		movs	r3, r0
 2059 0052 2380     		strh	r3, [r4]
 640:main.c        ****               LED_GREEN_Write(0);  
 2060              		.loc 1 640 0
 2061 0054 3C23     		movs	r3, #60
 2062 0056 FB18     		adds	r3, r7, r3
 2063 0058 1B88     		ldrh	r3, [r3]
 2064 005a 002B     		cmp	r3, #0
 2065 005c 02D1     		bne	.L77
 641:main.c        ****         }
 2066              		.loc 1 641 0
 2067 005e 0020     		movs	r0, #0
 2068 0060 FFF7FEFF 		bl	LED_GREEN_Write
 2069              	.L77:
 643:main.c        ****         CyBle_GapcStopScan();
 2070              		.loc 1 643 0
 2071 0064 FFF7FEFF 		bl	CyBle_ProcessEvents
 644:main.c        ****         CyBle_ProcessEvents();
 2072              		.loc 1 644 0
 2073 0068 FFF7FEFF 		bl	CyBle_GapcStopScan
 645:main.c        ****         connect_result = CyBle_GapcConnectDevice( &peripheral_addr );
 2074              		.loc 1 645 0
 2075 006c FFF7FEFF 		bl	CyBle_ProcessEvents
 646:main.c        ****         CyBle_ProcessEvents();
 2076              		.loc 1 646 0
 2077 0070 3A23     		movs	r3, #58
ARM GAS  C:\Users\megan\AppData\Local\Temp\ccqJAT7j.s 			page 51


 2078 0072 FC18     		adds	r4, r7, r3
 2079 0074 3B1D     		adds	r3, r7, #4
 2080 0076 1800     		movs	r0, r3
 2081 0078 FFF7FEFF 		bl	CyBle_GapcConnectDevice
 2082 007c 0300     		movs	r3, r0
 2083 007e 2380     		strh	r3, [r4]
 647:main.c        ****         if (connect_result == CYBLE_ERROR_OK) {
 2084              		.loc 1 647 0
 2085 0080 FFF7FEFF 		bl	CyBle_ProcessEvents
 648:main.c        ****             LED_BLUE_Write(0); 
 2086              		.loc 1 648 0
 2087 0084 3A23     		movs	r3, #58
 2088 0086 FB18     		adds	r3, r7, r3
 2089 0088 1B88     		ldrh	r3, [r3]
 2090 008a 002B     		cmp	r3, #0
 2091 008c 0FD1     		bne	.L78
 649:main.c        ****             CyDelay(500);
 2092              		.loc 1 649 0
 2093 008e 0020     		movs	r0, #0
 2094 0090 FFF7FEFF 		bl	LED_BLUE_Write
 650:main.c        ****             LED_BLUE_Write(1);
 2095              		.loc 1 650 0
 2096 0094 FA23     		movs	r3, #250
 2097 0096 5B00     		lsls	r3, r3, #1
 2098 0098 1800     		movs	r0, r3
 2099 009a FFF7FEFF 		bl	CyDelay
 651:main.c        ****             CyDelay(500);
 2100              		.loc 1 651 0
 2101 009e 0120     		movs	r0, #1
 2102 00a0 FFF7FEFF 		bl	LED_BLUE_Write
 652:main.c        ****         }   
 2103              		.loc 1 652 0
 2104 00a4 FA23     		movs	r3, #250
 2105 00a6 5B00     		lsls	r3, r3, #1
 2106 00a8 1800     		movs	r0, r3
 2107 00aa FFF7FEFF 		bl	CyDelay
 2108              	.L78:
 654:main.c        ****     }  
 2109              		.loc 1 654 0
 2110 00ae FFF7FEFF 		bl	CyBle_ProcessEvents
 2111              	.L79:
 2112              		.loc 1 656 0
 2113 00b2 C046     		nop
 2114 00b4 BD46     		mov	sp, r7
 2115 00b6 11B0     		add	sp, sp, #68
 2116              		@ sp needed
 2117 00b8 90BD     		pop	{r4, r7, pc}
 2118              	.L81:
 2119 00ba C046     		.align	2
 2120              	.L80:
 2121 00bc 3C010000 		.word	.LC0
 2122 00c0 00000000 		.word	cyBle_state
 2123              		.cfi_endproc
 2124              	.LFE48:
 2125              		.size	BLEStayConnected, .-BLEStayConnected
 2126              		.section	.text.FanTest,"ax",%progbits
 2127              		.align	2
ARM GAS  C:\Users\megan\AppData\Local\Temp\ccqJAT7j.s 			page 52


 2128              		.global	FanTest
 2129              		.code	16
 2130              		.thumb_func
 2131              		.type	FanTest, %function
 2132              	FanTest:
 2133              	.LFB49:
 657:main.c        **** 
 658:main.c        **** void FanTest() {
 2134              		.loc 1 658 0
 2135              		.cfi_startproc
 2136              		@ args = 0, pretend = 0, frame = 0
 2137              		@ frame_needed = 1, uses_anonymous_args = 0
 2138 0000 80B5     		push	{r7, lr}
 2139              		.cfi_def_cfa_offset 8
 2140              		.cfi_offset 7, -8
 2141              		.cfi_offset 14, -4
 2142 0002 00AF     		add	r7, sp, #0
 2143              		.cfi_def_cfa_register 7
 2144              	.L83:
 659:main.c        ****     while(1) {
 660:main.c        ****         FAN1_Write(1);
 2145              		.loc 1 660 0 discriminator 1
 2146 0004 0120     		movs	r0, #1
 2147 0006 FFF7FEFF 		bl	FAN1_Write
 661:main.c        ****         FAN2_Write(1);
 2148              		.loc 1 661 0 discriminator 1
 2149 000a 0120     		movs	r0, #1
 2150 000c FFF7FEFF 		bl	FAN2_Write
 662:main.c        ****         FAN3_Write(1);
 2151              		.loc 1 662 0 discriminator 1
 2152 0010 0120     		movs	r0, #1
 2153 0012 FFF7FEFF 		bl	FAN3_Write
 663:main.c        ****         CyDelay(1000);
 2154              		.loc 1 663 0 discriminator 1
 2155 0016 FA23     		movs	r3, #250
 2156 0018 9B00     		lsls	r3, r3, #2
 2157 001a 1800     		movs	r0, r3
 2158 001c FFF7FEFF 		bl	CyDelay
 664:main.c        ****         FAN1_Write(0);
 2159              		.loc 1 664 0 discriminator 1
 2160 0020 0020     		movs	r0, #0
 2161 0022 FFF7FEFF 		bl	FAN1_Write
 665:main.c        ****         FAN2_Write(0);
 2162              		.loc 1 665 0 discriminator 1
 2163 0026 0020     		movs	r0, #0
 2164 0028 FFF7FEFF 		bl	FAN2_Write
 666:main.c        ****         FAN3_Write(0);
 2165              		.loc 1 666 0 discriminator 1
 2166 002c 0020     		movs	r0, #0
 2167 002e FFF7FEFF 		bl	FAN3_Write
 667:main.c        ****         CyDelay(1000);
 2168              		.loc 1 667 0 discriminator 1
 2169 0032 FA23     		movs	r3, #250
 2170 0034 9B00     		lsls	r3, r3, #2
 2171 0036 1800     		movs	r0, r3
 2172 0038 FFF7FEFF 		bl	CyDelay
 668:main.c        ****     }
ARM GAS  C:\Users\megan\AppData\Local\Temp\ccqJAT7j.s 			page 53


 2173              		.loc 1 668 0 discriminator 1
 2174 003c E2E7     		b	.L83
 2175              		.cfi_endproc
 2176              	.LFE49:
 2177              		.size	FanTest, .-FanTest
 2178 003e C046     		.text
 2179              	.Letext0:
 2180              		.file 2 "c:\\program files (x86)\\cypress\\psoc creator\\4.1\\psoc creator\\import\\gnu\\arm\\5.4.
 2181              		.file 3 "c:\\program files (x86)\\cypress\\psoc creator\\4.1\\psoc creator\\import\\gnu\\arm\\5.4.
 2182              		.file 4 "Generated_Source\\PSoC4/cytypes.h"
 2183              		.file 5 "Generated_Source\\PSoC4/BLE_1_Stack.h"
 2184              		.file 6 "Generated_Source\\PSoC4/BLE_1_StackGap.h"
 2185              		.file 7 "Generated_Source\\PSoC4/BLE_1_StackGatt.h"
 2186              		.file 8 "Generated_Source\\PSoC4/BLE_1_StackGattClient.h"
 2187              		.file 9 "Generated_Source\\PSoC4/BLE_1_eventHandler.h"
 2188              		.file 10 "./RA8875.h"
 2189              		.section	.debug_info,"",%progbits
 2190              	.Ldebug_info0:
 2191 0000 5C170000 		.4byte	0x175c
 2192 0004 0400     		.2byte	0x4
 2193 0006 00000000 		.4byte	.Ldebug_abbrev0
 2194 000a 04       		.byte	0x4
 2195 000b 01       		.uleb128 0x1
 2196 000c FE0C0000 		.4byte	.LASF563
 2197 0010 0C       		.byte	0xc
 2198 0011 EF370000 		.4byte	.LASF564
 2199 0015 D8250000 		.4byte	.LASF565
 2200 0019 00000000 		.4byte	.Ldebug_ranges0+0
 2201 001d 00000000 		.4byte	0
 2202 0021 00000000 		.4byte	.Ldebug_line0
 2203 0025 02       		.uleb128 0x2
 2204 0026 01       		.byte	0x1
 2205 0027 06       		.byte	0x6
 2206 0028 D41F0000 		.4byte	.LASF0
 2207 002c 03       		.uleb128 0x3
 2208 002d 7D010000 		.4byte	.LASF3
 2209 0031 02       		.byte	0x2
 2210 0032 1D       		.byte	0x1d
 2211 0033 37000000 		.4byte	0x37
 2212 0037 02       		.uleb128 0x2
 2213 0038 01       		.byte	0x1
 2214 0039 08       		.byte	0x8
 2215 003a 980D0000 		.4byte	.LASF1
 2216 003e 02       		.uleb128 0x2
 2217 003f 02       		.byte	0x2
 2218 0040 05       		.byte	0x5
 2219 0041 293B0000 		.4byte	.LASF2
 2220 0045 03       		.uleb128 0x3
 2221 0046 B70B0000 		.4byte	.LASF4
 2222 004a 02       		.byte	0x2
 2223 004b 2B       		.byte	0x2b
 2224 004c 50000000 		.4byte	0x50
 2225 0050 02       		.uleb128 0x2
 2226 0051 02       		.byte	0x2
 2227 0052 07       		.byte	0x7
 2228 0053 A71F0000 		.4byte	.LASF5
 2229 0057 02       		.uleb128 0x2
ARM GAS  C:\Users\megan\AppData\Local\Temp\ccqJAT7j.s 			page 54


 2230 0058 04       		.byte	0x4
 2231 0059 05       		.byte	0x5
 2232 005a 38230000 		.4byte	.LASF6
 2233 005e 02       		.uleb128 0x2
 2234 005f 04       		.byte	0x4
 2235 0060 07       		.byte	0x7
 2236 0061 0F270000 		.4byte	.LASF7
 2237 0065 02       		.uleb128 0x2
 2238 0066 08       		.byte	0x8
 2239 0067 05       		.byte	0x5
 2240 0068 5E360000 		.4byte	.LASF8
 2241 006c 02       		.uleb128 0x2
 2242 006d 08       		.byte	0x8
 2243 006e 07       		.byte	0x7
 2244 006f 10320000 		.4byte	.LASF9
 2245 0073 04       		.uleb128 0x4
 2246 0074 04       		.byte	0x4
 2247 0075 05       		.byte	0x5
 2248 0076 696E7400 		.ascii	"int\000"
 2249 007a 02       		.uleb128 0x2
 2250 007b 04       		.byte	0x4
 2251 007c 07       		.byte	0x7
 2252 007d CE3A0000 		.4byte	.LASF10
 2253 0081 03       		.uleb128 0x3
 2254 0082 5B150000 		.4byte	.LASF11
 2255 0086 03       		.byte	0x3
 2256 0087 18       		.byte	0x18
 2257 0088 2C000000 		.4byte	0x2c
 2258 008c 03       		.uleb128 0x3
 2259 008d FE030000 		.4byte	.LASF12
 2260 0091 03       		.byte	0x3
 2261 0092 24       		.byte	0x24
 2262 0093 45000000 		.4byte	0x45
 2263 0097 05       		.uleb128 0x5
 2264 0098 F1070000 		.4byte	.LASF13
 2265 009c 04       		.byte	0x4
 2266 009d D201     		.2byte	0x1d2
 2267 009f 37000000 		.4byte	0x37
 2268 00a3 05       		.uleb128 0x5
 2269 00a4 B1260000 		.4byte	.LASF14
 2270 00a8 04       		.byte	0x4
 2271 00a9 D301     		.2byte	0x1d3
 2272 00ab 50000000 		.4byte	0x50
 2273 00af 05       		.uleb128 0x5
 2274 00b0 B0280000 		.4byte	.LASF15
 2275 00b4 04       		.byte	0x4
 2276 00b5 D401     		.2byte	0x1d4
 2277 00b7 5E000000 		.4byte	0x5e
 2278 00bb 05       		.uleb128 0x5
 2279 00bc 371A0000 		.4byte	.LASF16
 2280 00c0 04       		.byte	0x4
 2281 00c1 D501     		.2byte	0x1d5
 2282 00c3 25000000 		.4byte	0x25
 2283 00c7 05       		.uleb128 0x5
 2284 00c8 AB130000 		.4byte	.LASF17
 2285 00cc 04       		.byte	0x4
 2286 00cd D801     		.2byte	0x1d8
ARM GAS  C:\Users\megan\AppData\Local\Temp\ccqJAT7j.s 			page 55


 2287 00cf D3000000 		.4byte	0xd3
 2288 00d3 02       		.uleb128 0x2
 2289 00d4 04       		.byte	0x4
 2290 00d5 04       		.byte	0x4
 2291 00d6 EA0D0000 		.4byte	.LASF18
 2292 00da 02       		.uleb128 0x2
 2293 00db 08       		.byte	0x8
 2294 00dc 04       		.byte	0x4
 2295 00dd 7A2D0000 		.4byte	.LASF19
 2296 00e1 02       		.uleb128 0x2
 2297 00e2 01       		.byte	0x1
 2298 00e3 08       		.byte	0x8
 2299 00e4 ED270000 		.4byte	.LASF20
 2300 00e8 05       		.uleb128 0x5
 2301 00e9 0D1F0000 		.4byte	.LASF21
 2302 00ed 04       		.byte	0x4
 2303 00ee 7E02     		.2byte	0x27e
 2304 00f0 F4000000 		.4byte	0xf4
 2305 00f4 06       		.uleb128 0x6
 2306 00f5 AF000000 		.4byte	0xaf
 2307 00f9 02       		.uleb128 0x2
 2308 00fa 08       		.byte	0x8
 2309 00fb 04       		.byte	0x4
 2310 00fc 4F260000 		.4byte	.LASF22
 2311 0100 02       		.uleb128 0x2
 2312 0101 04       		.byte	0x4
 2313 0102 07       		.byte	0x7
 2314 0103 2A2F0000 		.4byte	.LASF23
 2315 0107 07       		.uleb128 0x7
 2316 0108 04       		.byte	0x4
 2317 0109 08       		.uleb128 0x8
 2318 010a E1000000 		.4byte	0xe1
 2319 010e 19010000 		.4byte	0x119
 2320 0112 09       		.uleb128 0x9
 2321 0113 00010000 		.4byte	0x100
 2322 0117 07       		.byte	0x7
 2323 0118 00       		.byte	0
 2324 0119 0A       		.uleb128 0xa
 2325 011a 01       		.byte	0x1
 2326 011b 37000000 		.4byte	0x37
 2327 011f 05       		.byte	0x5
 2328 0120 4D01     		.2byte	0x14d
 2329 0122 D7020000 		.4byte	0x2d7
 2330 0126 0B       		.uleb128 0xb
 2331 0127 761F0000 		.4byte	.LASF24
 2332 012b 00       		.byte	0
 2333 012c 0B       		.uleb128 0xb
 2334 012d 07040000 		.4byte	.LASF25
 2335 0131 01       		.byte	0x1
 2336 0132 0B       		.uleb128 0xb
 2337 0133 3F120000 		.4byte	.LASF26
 2338 0137 02       		.byte	0x2
 2339 0138 0B       		.uleb128 0xb
 2340 0139 21090000 		.4byte	.LASF27
 2341 013d 03       		.byte	0x3
 2342 013e 0B       		.uleb128 0xb
 2343 013f A0040000 		.4byte	.LASF28
ARM GAS  C:\Users\megan\AppData\Local\Temp\ccqJAT7j.s 			page 56


 2344 0143 04       		.byte	0x4
 2345 0144 0B       		.uleb128 0xb
 2346 0145 AD240000 		.4byte	.LASF29
 2347 0149 05       		.byte	0x5
 2348 014a 0B       		.uleb128 0xb
 2349 014b 7C170000 		.4byte	.LASF30
 2350 014f 06       		.byte	0x6
 2351 0150 0B       		.uleb128 0xb
 2352 0151 84110000 		.4byte	.LASF31
 2353 0155 20       		.byte	0x20
 2354 0156 0B       		.uleb128 0xb
 2355 0157 3F0F0000 		.4byte	.LASF32
 2356 015b 21       		.byte	0x21
 2357 015c 0B       		.uleb128 0xb
 2358 015d DD040000 		.4byte	.LASF33
 2359 0161 22       		.byte	0x22
 2360 0162 0B       		.uleb128 0xb
 2361 0163 4E3B0000 		.4byte	.LASF34
 2362 0167 23       		.byte	0x23
 2363 0168 0B       		.uleb128 0xb
 2364 0169 AB010000 		.4byte	.LASF35
 2365 016d 24       		.byte	0x24
 2366 016e 0B       		.uleb128 0xb
 2367 016f D1300000 		.4byte	.LASF36
 2368 0173 25       		.byte	0x25
 2369 0174 0B       		.uleb128 0xb
 2370 0175 A60D0000 		.4byte	.LASF37
 2371 0179 26       		.byte	0x26
 2372 017a 0B       		.uleb128 0xb
 2373 017b 751E0000 		.4byte	.LASF38
 2374 017f 27       		.byte	0x27
 2375 0180 0B       		.uleb128 0xb
 2376 0181 92250000 		.4byte	.LASF39
 2377 0185 28       		.byte	0x28
 2378 0186 0B       		.uleb128 0xb
 2379 0187 581E0000 		.4byte	.LASF40
 2380 018b 29       		.byte	0x29
 2381 018c 0B       		.uleb128 0xb
 2382 018d 76330000 		.4byte	.LASF41
 2383 0191 2A       		.byte	0x2a
 2384 0192 0B       		.uleb128 0xb
 2385 0193 BA360000 		.4byte	.LASF42
 2386 0197 2B       		.byte	0x2b
 2387 0198 0B       		.uleb128 0xb
 2388 0199 AE230000 		.4byte	.LASF43
 2389 019d 2C       		.byte	0x2c
 2390 019e 0B       		.uleb128 0xb
 2391 019f D0350000 		.4byte	.LASF44
 2392 01a3 2D       		.byte	0x2d
 2393 01a4 0B       		.uleb128 0xb
 2394 01a5 F0210000 		.4byte	.LASF45
 2395 01a9 2E       		.byte	0x2e
 2396 01aa 0B       		.uleb128 0xb
 2397 01ab 72390000 		.4byte	.LASF46
 2398 01af 2F       		.byte	0x2f
 2399 01b0 0B       		.uleb128 0xb
 2400 01b1 55160000 		.4byte	.LASF47
ARM GAS  C:\Users\megan\AppData\Local\Temp\ccqJAT7j.s 			page 57


 2401 01b5 30       		.byte	0x30
 2402 01b6 0B       		.uleb128 0xb
 2403 01b7 DB3A0000 		.4byte	.LASF48
 2404 01bb 31       		.byte	0x31
 2405 01bc 0B       		.uleb128 0xb
 2406 01bd AE070000 		.4byte	.LASF49
 2407 01c1 32       		.byte	0x32
 2408 01c2 0B       		.uleb128 0xb
 2409 01c3 200B0000 		.4byte	.LASF50
 2410 01c7 33       		.byte	0x33
 2411 01c8 0B       		.uleb128 0xb
 2412 01c9 DD2D0000 		.4byte	.LASF51
 2413 01cd 34       		.byte	0x34
 2414 01ce 0B       		.uleb128 0xb
 2415 01cf 18330000 		.4byte	.LASF52
 2416 01d3 35       		.byte	0x35
 2417 01d4 0B       		.uleb128 0xb
 2418 01d5 1B360000 		.4byte	.LASF53
 2419 01d9 36       		.byte	0x36
 2420 01da 0B       		.uleb128 0xb
 2421 01db 3B2E0000 		.4byte	.LASF54
 2422 01df 37       		.byte	0x37
 2423 01e0 0B       		.uleb128 0xb
 2424 01e1 B90C0000 		.4byte	.LASF55
 2425 01e5 40       		.byte	0x40
 2426 01e6 0B       		.uleb128 0xb
 2427 01e7 C22D0000 		.4byte	.LASF56
 2428 01eb 41       		.byte	0x41
 2429 01ec 0B       		.uleb128 0xb
 2430 01ed D4190000 		.4byte	.LASF57
 2431 01f1 42       		.byte	0x42
 2432 01f2 0B       		.uleb128 0xb
 2433 01f3 862B0000 		.4byte	.LASF58
 2434 01f7 43       		.byte	0x43
 2435 01f8 0B       		.uleb128 0xb
 2436 01f9 8B050000 		.4byte	.LASF59
 2437 01fd 44       		.byte	0x44
 2438 01fe 0B       		.uleb128 0xb
 2439 01ff ED240000 		.4byte	.LASF60
 2440 0203 45       		.byte	0x45
 2441 0204 0B       		.uleb128 0xb
 2442 0205 62380000 		.4byte	.LASF61
 2443 0209 46       		.byte	0x46
 2444 020a 0B       		.uleb128 0xb
 2445 020b 440E0000 		.4byte	.LASF62
 2446 020f 47       		.byte	0x47
 2447 0210 0B       		.uleb128 0xb
 2448 0211 56220000 		.4byte	.LASF63
 2449 0215 48       		.byte	0x48
 2450 0216 0B       		.uleb128 0xb
 2451 0217 1A060000 		.4byte	.LASF64
 2452 021b 49       		.byte	0x49
 2453 021c 0B       		.uleb128 0xb
 2454 021d 3A170000 		.4byte	.LASF65
 2455 0221 4A       		.byte	0x4a
 2456 0222 0B       		.uleb128 0xb
 2457 0223 5E0C0000 		.4byte	.LASF66
ARM GAS  C:\Users\megan\AppData\Local\Temp\ccqJAT7j.s 			page 58


 2458 0227 4B       		.byte	0x4b
 2459 0228 0B       		.uleb128 0xb
 2460 0229 F6370000 		.4byte	.LASF67
 2461 022d 4C       		.byte	0x4c
 2462 022e 0B       		.uleb128 0xb
 2463 022f 97260000 		.4byte	.LASF68
 2464 0233 4D       		.byte	0x4d
 2465 0234 0B       		.uleb128 0xb
 2466 0235 F10B0000 		.4byte	.LASF69
 2467 0239 4E       		.byte	0x4e
 2468 023a 0B       		.uleb128 0xb
 2469 023b E2290000 		.4byte	.LASF70
 2470 023f 4F       		.byte	0x4f
 2471 0240 0B       		.uleb128 0xb
 2472 0241 95170000 		.4byte	.LASF71
 2473 0245 50       		.byte	0x50
 2474 0246 0B       		.uleb128 0xb
 2475 0247 2D200000 		.4byte	.LASF72
 2476 024b 51       		.byte	0x51
 2477 024c 0B       		.uleb128 0xb
 2478 024d 14140000 		.4byte	.LASF73
 2479 0251 52       		.byte	0x52
 2480 0252 0B       		.uleb128 0xb
 2481 0253 1C2D0000 		.4byte	.LASF74
 2482 0257 53       		.byte	0x53
 2483 0258 0B       		.uleb128 0xb
 2484 0259 31370000 		.4byte	.LASF75
 2485 025d 54       		.byte	0x54
 2486 025e 0B       		.uleb128 0xb
 2487 025f 4A030000 		.4byte	.LASF76
 2488 0263 55       		.byte	0x55
 2489 0264 0B       		.uleb128 0xb
 2490 0265 3C270000 		.4byte	.LASF77
 2491 0269 56       		.byte	0x56
 2492 026a 0B       		.uleb128 0xb
 2493 026b 78310000 		.4byte	.LASF78
 2494 026f 57       		.byte	0x57
 2495 0270 0B       		.uleb128 0xb
 2496 0271 10380000 		.4byte	.LASF79
 2497 0275 58       		.byte	0x58
 2498 0276 0B       		.uleb128 0xb
 2499 0277 A1310000 		.4byte	.LASF80
 2500 027b 70       		.byte	0x70
 2501 027c 0B       		.uleb128 0xb
 2502 027d 2E1B0000 		.4byte	.LASF81
 2503 0281 71       		.byte	0x71
 2504 0282 0B       		.uleb128 0xb
 2505 0283 6A0A0000 		.4byte	.LASF82
 2506 0287 72       		.byte	0x72
 2507 0288 0B       		.uleb128 0xb
 2508 0289 620E0000 		.4byte	.LASF83
 2509 028d 73       		.byte	0x73
 2510 028e 0B       		.uleb128 0xb
 2511 028f 2E280000 		.4byte	.LASF84
 2512 0293 74       		.byte	0x74
 2513 0294 0B       		.uleb128 0xb
 2514 0295 CC0E0000 		.4byte	.LASF85
ARM GAS  C:\Users\megan\AppData\Local\Temp\ccqJAT7j.s 			page 59


 2515 0299 75       		.byte	0x75
 2516 029a 0B       		.uleb128 0xb
 2517 029b 03290000 		.4byte	.LASF86
 2518 029f 76       		.byte	0x76
 2519 02a0 0B       		.uleb128 0xb
 2520 02a1 80160000 		.4byte	.LASF87
 2521 02a5 77       		.byte	0x77
 2522 02a6 0B       		.uleb128 0xb
 2523 02a7 A0380000 		.4byte	.LASF88
 2524 02ab 78       		.byte	0x78
 2525 02ac 0B       		.uleb128 0xb
 2526 02ad 3A3A0000 		.4byte	.LASF89
 2527 02b1 79       		.byte	0x79
 2528 02b2 0B       		.uleb128 0xb
 2529 02b3 CE130000 		.4byte	.LASF90
 2530 02b7 7A       		.byte	0x7a
 2531 02b8 0B       		.uleb128 0xb
 2532 02b9 471F0000 		.4byte	.LASF91
 2533 02bd FA       		.byte	0xfa
 2534 02be 0B       		.uleb128 0xb
 2535 02bf 4C130000 		.4byte	.LASF92
 2536 02c3 FB       		.byte	0xfb
 2537 02c4 0B       		.uleb128 0xb
 2538 02c5 EF0A0000 		.4byte	.LASF93
 2539 02c9 FC       		.byte	0xfc
 2540 02ca 0B       		.uleb128 0xb
 2541 02cb 43350000 		.4byte	.LASF94
 2542 02cf FD       		.byte	0xfd
 2543 02d0 0B       		.uleb128 0xb
 2544 02d1 7F000000 		.4byte	.LASF95
 2545 02d5 FF       		.byte	0xff
 2546 02d6 00       		.byte	0
 2547 02d7 0A       		.uleb128 0xa
 2548 02d8 02       		.byte	0x2
 2549 02d9 50000000 		.4byte	0x50
 2550 02dd 05       		.byte	0x5
 2551 02de 0204     		.2byte	0x402
 2552 02e0 B0030000 		.4byte	0x3b0
 2553 02e4 0B       		.uleb128 0xb
 2554 02e5 5B020000 		.4byte	.LASF96
 2555 02e9 00       		.byte	0
 2556 02ea 0B       		.uleb128 0xb
 2557 02eb 5F090000 		.4byte	.LASF97
 2558 02ef 01       		.byte	0x1
 2559 02f0 0B       		.uleb128 0xb
 2560 02f1 8B280000 		.4byte	.LASF98
 2561 02f5 02       		.byte	0x2
 2562 02f6 0B       		.uleb128 0xb
 2563 02f7 4B250000 		.4byte	.LASF99
 2564 02fb 03       		.byte	0x3
 2565 02fc 0B       		.uleb128 0xb
 2566 02fd 8A240000 		.4byte	.LASF100
 2567 0301 04       		.byte	0x4
 2568 0302 0B       		.uleb128 0xb
 2569 0303 0B300000 		.4byte	.LASF101
 2570 0307 05       		.byte	0x5
 2571 0308 0B       		.uleb128 0xb
ARM GAS  C:\Users\megan\AppData\Local\Temp\ccqJAT7j.s 			page 60


 2572 0309 7D260000 		.4byte	.LASF102
 2573 030d 06       		.byte	0x6
 2574 030e 0B       		.uleb128 0xb
 2575 030f E6280000 		.4byte	.LASF103
 2576 0313 07       		.byte	0x7
 2577 0314 0B       		.uleb128 0xb
 2578 0315 8D130000 		.4byte	.LASF104
 2579 0319 08       		.byte	0x8
 2580 031a 0B       		.uleb128 0xb
 2581 031b 9F180000 		.4byte	.LASF105
 2582 031f 09       		.byte	0x9
 2583 0320 0B       		.uleb128 0xb
 2584 0321 B42B0000 		.4byte	.LASF106
 2585 0325 0A       		.byte	0xa
 2586 0326 0B       		.uleb128 0xb
 2587 0327 9B020000 		.4byte	.LASF107
 2588 032b 0B       		.byte	0xb
 2589 032c 0B       		.uleb128 0xb
 2590 032d B8260000 		.4byte	.LASF108
 2591 0331 0C       		.byte	0xc
 2592 0332 0B       		.uleb128 0xb
 2593 0333 82370000 		.4byte	.LASF109
 2594 0337 0D       		.byte	0xd
 2595 0338 0B       		.uleb128 0xb
 2596 0339 30000000 		.4byte	.LASF110
 2597 033d 0E       		.byte	0xe
 2598 033e 0B       		.uleb128 0xb
 2599 033f 6F230000 		.4byte	.LASF111
 2600 0343 0F       		.byte	0xf
 2601 0344 0B       		.uleb128 0xb
 2602 0345 65180000 		.4byte	.LASF112
 2603 0349 10       		.byte	0x10
 2604 034a 0B       		.uleb128 0xb
 2605 034b 89320000 		.4byte	.LASF113
 2606 034f 11       		.byte	0x11
 2607 0350 0B       		.uleb128 0xb
 2608 0351 9D100000 		.4byte	.LASF114
 2609 0355 12       		.byte	0x12
 2610 0356 0B       		.uleb128 0xb
 2611 0357 71040000 		.4byte	.LASF115
 2612 035b 13       		.byte	0x13
 2613 035c 0B       		.uleb128 0xb
 2614 035d 12180000 		.4byte	.LASF116
 2615 0361 27       		.byte	0x27
 2616 0362 0B       		.uleb128 0xb
 2617 0363 35330000 		.4byte	.LASF117
 2618 0367 28       		.byte	0x28
 2619 0368 0B       		.uleb128 0xb
 2620 0369 9F160000 		.4byte	.LASF118
 2621 036d 29       		.byte	0x29
 2622 036e 0B       		.uleb128 0xb
 2623 036f 83380000 		.4byte	.LASF119
 2624 0373 2A       		.byte	0x2a
 2625 0374 0B       		.uleb128 0xb
 2626 0375 723C0000 		.4byte	.LASF120
 2627 0379 2B       		.byte	0x2b
 2628 037a 0B       		.uleb128 0xb
ARM GAS  C:\Users\megan\AppData\Local\Temp\ccqJAT7j.s 			page 61


 2629 037b 14250000 		.4byte	.LASF121
 2630 037f 2C       		.byte	0x2c
 2631 0380 0B       		.uleb128 0xb
 2632 0381 CE0D0000 		.4byte	.LASF122
 2633 0385 FE       		.byte	0xfe
 2634 0386 0B       		.uleb128 0xb
 2635 0387 A42B0000 		.4byte	.LASF123
 2636 038b FF       		.byte	0xff
 2637 038c 0C       		.uleb128 0xc
 2638 038d 42150000 		.4byte	.LASF124
 2639 0391 0001     		.2byte	0x100
 2640 0393 0C       		.uleb128 0xc
 2641 0394 C7010000 		.4byte	.LASF125
 2642 0398 0101     		.2byte	0x101
 2643 039a 0C       		.uleb128 0xc
 2644 039b 6E080000 		.4byte	.LASF126
 2645 039f 0201     		.2byte	0x102
 2646 03a1 0C       		.uleb128 0xc
 2647 03a2 88220000 		.4byte	.LASF127
 2648 03a6 0301     		.2byte	0x103
 2649 03a8 0C       		.uleb128 0xc
 2650 03a9 C0100000 		.4byte	.LASF128
 2651 03ad 0401     		.2byte	0x104
 2652 03af 00       		.byte	0
 2653 03b0 05       		.uleb128 0x5
 2654 03b1 7E150000 		.4byte	.LASF129
 2655 03b5 05       		.byte	0x5
 2656 03b6 7104     		.2byte	0x471
 2657 03b8 D7020000 		.4byte	0x2d7
 2658 03bc 0D       		.uleb128 0xd
 2659 03bd 07       		.byte	0x7
 2660 03be 05       		.byte	0x5
 2661 03bf 3F05     		.2byte	0x53f
 2662 03c1 E0030000 		.4byte	0x3e0
 2663 03c5 0E       		.uleb128 0xe
 2664 03c6 35140000 		.4byte	.LASF130
 2665 03ca 05       		.byte	0x5
 2666 03cb 4205     		.2byte	0x542
 2667 03cd E0030000 		.4byte	0x3e0
 2668 03d1 00       		.byte	0
 2669 03d2 0E       		.uleb128 0xe
 2670 03d3 1B0B0000 		.4byte	.LASF131
 2671 03d7 05       		.byte	0x5
 2672 03d8 4405     		.2byte	0x544
 2673 03da 97000000 		.4byte	0x97
 2674 03de 06       		.byte	0x6
 2675 03df 00       		.byte	0
 2676 03e0 08       		.uleb128 0x8
 2677 03e1 97000000 		.4byte	0x97
 2678 03e5 F0030000 		.4byte	0x3f0
 2679 03e9 09       		.uleb128 0x9
 2680 03ea 00010000 		.4byte	0x100
 2681 03ee 05       		.byte	0x5
 2682 03ef 00       		.byte	0
 2683 03f0 05       		.uleb128 0x5
 2684 03f1 9C2E0000 		.4byte	.LASF132
 2685 03f5 05       		.byte	0x5
ARM GAS  C:\Users\megan\AppData\Local\Temp\ccqJAT7j.s 			page 62


 2686 03f6 4505     		.2byte	0x545
 2687 03f8 BC030000 		.4byte	0x3bc
 2688 03fc 0F       		.uleb128 0xf
 2689 03fd 04       		.byte	0x4
 2690 03fe 97000000 		.4byte	0x97
 2691 0402 10       		.uleb128 0x10
 2692 0403 01       		.byte	0x1
 2693 0404 37000000 		.4byte	0x37
 2694 0408 06       		.byte	0x6
 2695 0409 F4       		.byte	0xf4
 2696 040a 2D040000 		.4byte	0x42d
 2697 040e 0B       		.uleb128 0xb
 2698 040f B5040000 		.4byte	.LASF133
 2699 0413 00       		.byte	0
 2700 0414 0B       		.uleb128 0xb
 2701 0415 D8390000 		.4byte	.LASF134
 2702 0419 01       		.byte	0x1
 2703 041a 0B       		.uleb128 0xb
 2704 041b 332F0000 		.4byte	.LASF135
 2705 041f 02       		.byte	0x2
 2706 0420 0B       		.uleb128 0xb
 2707 0421 F5390000 		.4byte	.LASF136
 2708 0425 03       		.byte	0x3
 2709 0426 0B       		.uleb128 0xb
 2710 0427 DE1B0000 		.4byte	.LASF137
 2711 042b 04       		.byte	0x4
 2712 042c 00       		.byte	0
 2713 042d 05       		.uleb128 0x5
 2714 042e FD270000 		.4byte	.LASF138
 2715 0432 06       		.byte	0x6
 2716 0433 0401     		.2byte	0x104
 2717 0435 02040000 		.4byte	0x402
 2718 0439 08       		.uleb128 0x8
 2719 043a 97000000 		.4byte	0x97
 2720 043e 49040000 		.4byte	0x449
 2721 0442 09       		.uleb128 0x9
 2722 0443 00010000 		.4byte	0x100
 2723 0447 0F       		.byte	0xf
 2724 0448 00       		.byte	0
 2725 0449 0D       		.uleb128 0xd
 2726 044a 14       		.byte	0x14
 2727 044b 06       		.byte	0x6
 2728 044c 2403     		.2byte	0x324
 2729 044e A1040000 		.4byte	0x4a1
 2730 0452 0E       		.uleb128 0xe
 2731 0453 30170000 		.4byte	.LASF139
 2732 0457 06       		.byte	0x6
 2733 0458 2D03     		.2byte	0x32d
 2734 045a 2D040000 		.4byte	0x42d
 2735 045e 00       		.byte	0
 2736 045f 0E       		.uleb128 0xe
 2737 0460 64040000 		.4byte	.LASF140
 2738 0464 06       		.byte	0x6
 2739 0465 3503     		.2byte	0x335
 2740 0467 97000000 		.4byte	0x97
 2741 046b 01       		.byte	0x1
 2742 046c 0E       		.uleb128 0xe
ARM GAS  C:\Users\megan\AppData\Local\Temp\ccqJAT7j.s 			page 63


 2743 046d CF0F0000 		.4byte	.LASF141
 2744 0471 06       		.byte	0x6
 2745 0472 3903     		.2byte	0x339
 2746 0474 FC030000 		.4byte	0x3fc
 2747 0478 04       		.byte	0x4
 2748 0479 0E       		.uleb128 0xe
 2749 047a C70F0000 		.4byte	.LASF142
 2750 047e 06       		.byte	0x6
 2751 047f 3C03     		.2byte	0x33c
 2752 0481 97000000 		.4byte	0x97
 2753 0485 08       		.byte	0x8
 2754 0486 0E       		.uleb128 0xe
 2755 0487 B02E0000 		.4byte	.LASF143
 2756 048b 06       		.byte	0x6
 2757 048c 3F03     		.2byte	0x33f
 2758 048e FC030000 		.4byte	0x3fc
 2759 0492 0C       		.byte	0xc
 2760 0493 0E       		.uleb128 0xe
 2761 0494 502A0000 		.4byte	.LASF144
 2762 0498 06       		.byte	0x6
 2763 0499 4403     		.2byte	0x344
 2764 049b BB000000 		.4byte	0xbb
 2765 049f 10       		.byte	0x10
 2766 04a0 00       		.byte	0
 2767 04a1 05       		.uleb128 0x5
 2768 04a2 F8360000 		.4byte	.LASF145
 2769 04a6 06       		.byte	0x6
 2770 04a7 4603     		.2byte	0x346
 2771 04a9 49040000 		.4byte	0x449
 2772 04ad 05       		.uleb128 0x5
 2773 04ae 55380000 		.4byte	.LASF146
 2774 04b2 07       		.byte	0x7
 2775 04b3 6D01     		.2byte	0x16d
 2776 04b5 A3000000 		.4byte	0xa3
 2777 04b9 0D       		.uleb128 0xd
 2778 04ba 10       		.byte	0x10
 2779 04bb 07       		.byte	0x7
 2780 04bc 7001     		.2byte	0x170
 2781 04be D0040000 		.4byte	0x4d0
 2782 04c2 0E       		.uleb128 0xe
 2783 04c3 D8180000 		.4byte	.LASF147
 2784 04c7 07       		.byte	0x7
 2785 04c8 7301     		.2byte	0x173
 2786 04ca 39040000 		.4byte	0x439
 2787 04ce 00       		.byte	0
 2788 04cf 00       		.byte	0
 2789 04d0 05       		.uleb128 0x5
 2790 04d1 B32C0000 		.4byte	.LASF148
 2791 04d5 07       		.byte	0x7
 2792 04d6 7401     		.2byte	0x174
 2793 04d8 B9040000 		.4byte	0x4b9
 2794 04dc 11       		.uleb128 0x11
 2795 04dd 10       		.byte	0x10
 2796 04de 07       		.byte	0x7
 2797 04df 7701     		.2byte	0x177
 2798 04e1 FE040000 		.4byte	0x4fe
 2799 04e5 12       		.uleb128 0x12
ARM GAS  C:\Users\megan\AppData\Local\Temp\ccqJAT7j.s 			page 64


 2800 04e6 801A0000 		.4byte	.LASF149
 2801 04ea 07       		.byte	0x7
 2802 04eb 7A01     		.2byte	0x17a
 2803 04ed AD040000 		.4byte	0x4ad
 2804 04f1 12       		.uleb128 0x12
 2805 04f2 0F0C0000 		.4byte	.LASF150
 2806 04f6 07       		.byte	0x7
 2807 04f7 7D01     		.2byte	0x17d
 2808 04f9 D0040000 		.4byte	0x4d0
 2809 04fd 00       		.byte	0
 2810 04fe 05       		.uleb128 0x5
 2811 04ff D9280000 		.4byte	.LASF151
 2812 0503 07       		.byte	0x7
 2813 0504 7F01     		.2byte	0x17f
 2814 0506 DC040000 		.4byte	0x4dc
 2815 050a 05       		.uleb128 0x5
 2816 050b 903A0000 		.4byte	.LASF152
 2817 050f 07       		.byte	0x7
 2818 0510 8901     		.2byte	0x189
 2819 0512 A3000000 		.4byte	0xa3
 2820 0516 0D       		.uleb128 0xd
 2821 0517 02       		.byte	0x2
 2822 0518 07       		.byte	0x7
 2823 0519 9301     		.2byte	0x193
 2824 051b 3A050000 		.4byte	0x53a
 2825 051f 0E       		.uleb128 0xe
 2826 0520 DF120000 		.4byte	.LASF153
 2827 0524 07       		.byte	0x7
 2828 0525 9A01     		.2byte	0x19a
 2829 0527 97000000 		.4byte	0x97
 2830 052b 00       		.byte	0
 2831 052c 0E       		.uleb128 0xe
 2832 052d D2230000 		.4byte	.LASF154
 2833 0531 07       		.byte	0x7
 2834 0532 A001     		.2byte	0x1a0
 2835 0534 97000000 		.4byte	0x97
 2836 0538 01       		.byte	0x1
 2837 0539 00       		.byte	0
 2838 053a 05       		.uleb128 0x5
 2839 053b E62C0000 		.4byte	.LASF155
 2840 053f 07       		.byte	0x7
 2841 0540 A201     		.2byte	0x1a2
 2842 0542 16050000 		.4byte	0x516
 2843 0546 0D       		.uleb128 0xd
 2844 0547 08       		.byte	0x8
 2845 0548 07       		.byte	0x7
 2846 0549 BE01     		.2byte	0x1be
 2847 054b 77050000 		.4byte	0x577
 2848 054f 13       		.uleb128 0x13
 2849 0550 76616C00 		.ascii	"val\000"
 2850 0554 07       		.byte	0x7
 2851 0555 C101     		.2byte	0x1c1
 2852 0557 FC030000 		.4byte	0x3fc
 2853 055b 00       		.byte	0
 2854 055c 13       		.uleb128 0x13
 2855 055d 6C656E00 		.ascii	"len\000"
 2856 0561 07       		.byte	0x7
ARM GAS  C:\Users\megan\AppData\Local\Temp\ccqJAT7j.s 			page 65


 2857 0562 C401     		.2byte	0x1c4
 2858 0564 A3000000 		.4byte	0xa3
 2859 0568 04       		.byte	0x4
 2860 0569 0E       		.uleb128 0xe
 2861 056a C3210000 		.4byte	.LASF156
 2862 056e 07       		.byte	0x7
 2863 056f CB01     		.2byte	0x1cb
 2864 0571 A3000000 		.4byte	0xa3
 2865 0575 06       		.byte	0x6
 2866 0576 00       		.byte	0
 2867 0577 05       		.uleb128 0x5
 2868 0578 850B0000 		.4byte	.LASF157
 2869 057c 07       		.byte	0x7
 2870 057d CD01     		.2byte	0x1cd
 2871 057f 46050000 		.4byte	0x546
 2872 0583 0D       		.uleb128 0xd
 2873 0584 0C       		.byte	0xc
 2874 0585 07       		.byte	0x7
 2875 0586 D001     		.2byte	0x1d0
 2876 0588 A7050000 		.4byte	0x5a7
 2877 058c 0E       		.uleb128 0xe
 2878 058d D8180000 		.4byte	.LASF147
 2879 0591 07       		.byte	0x7
 2880 0592 D301     		.2byte	0x1d3
 2881 0594 77050000 		.4byte	0x577
 2882 0598 00       		.byte	0
 2883 0599 0E       		.uleb128 0xe
 2884 059a 803A0000 		.4byte	.LASF158
 2885 059e 07       		.byte	0x7
 2886 059f D601     		.2byte	0x1d6
 2887 05a1 0A050000 		.4byte	0x50a
 2888 05a5 08       		.byte	0x8
 2889 05a6 00       		.byte	0
 2890 05a7 05       		.uleb128 0x5
 2891 05a8 EB300000 		.4byte	.LASF159
 2892 05ac 07       		.byte	0x7
 2893 05ad D801     		.2byte	0x1d8
 2894 05af 83050000 		.4byte	0x583
 2895 05b3 0D       		.uleb128 0xd
 2896 05b4 04       		.byte	0x4
 2897 05b5 07       		.byte	0x7
 2898 05b6 DB01     		.2byte	0x1db
 2899 05b8 D7050000 		.4byte	0x5d7
 2900 05bc 0E       		.uleb128 0xe
 2901 05bd 4B080000 		.4byte	.LASF160
 2902 05c1 07       		.byte	0x7
 2903 05c2 DE01     		.2byte	0x1de
 2904 05c4 0A050000 		.4byte	0x50a
 2905 05c8 00       		.byte	0
 2906 05c9 0E       		.uleb128 0xe
 2907 05ca C2150000 		.4byte	.LASF161
 2908 05ce 07       		.byte	0x7
 2909 05cf E101     		.2byte	0x1e1
 2910 05d1 0A050000 		.4byte	0x50a
 2911 05d5 02       		.byte	0x2
 2912 05d6 00       		.byte	0
 2913 05d7 05       		.uleb128 0x5
ARM GAS  C:\Users\megan\AppData\Local\Temp\ccqJAT7j.s 			page 66


 2914 05d8 D9360000 		.4byte	.LASF162
 2915 05dc 07       		.byte	0x7
 2916 05dd E301     		.2byte	0x1e3
 2917 05df B3050000 		.4byte	0x5b3
 2918 05e3 14       		.uleb128 0x14
 2919 05e4 16       		.byte	0x16
 2920 05e5 08       		.byte	0x8
 2921 05e6 41       		.byte	0x41
 2922 05e7 10060000 		.4byte	0x610
 2923 05eb 15       		.uleb128 0x15
 2924 05ec F7070000 		.4byte	.LASF163
 2925 05f0 08       		.byte	0x8
 2926 05f1 44       		.byte	0x44
 2927 05f2 D7050000 		.4byte	0x5d7
 2928 05f6 00       		.byte	0
 2929 05f7 15       		.uleb128 0x15
 2930 05f8 860A0000 		.4byte	.LASF164
 2931 05fc 08       		.byte	0x8
 2932 05fd 47       		.byte	0x47
 2933 05fe FE040000 		.4byte	0x4fe
 2934 0602 04       		.byte	0x4
 2935 0603 15       		.uleb128 0x15
 2936 0604 64230000 		.4byte	.LASF165
 2937 0608 08       		.byte	0x8
 2938 0609 4D       		.byte	0x4d
 2939 060a 97000000 		.4byte	0x97
 2940 060e 14       		.byte	0x14
 2941 060f 00       		.byte	0
 2942 0610 03       		.uleb128 0x3
 2943 0611 2C250000 		.4byte	.LASF166
 2944 0615 08       		.byte	0x8
 2945 0616 4F       		.byte	0x4f
 2946 0617 E3050000 		.4byte	0x5e3
 2947 061b 14       		.uleb128 0x14
 2948 061c 10       		.byte	0x10
 2949 061d 08       		.byte	0x8
 2950 061e 8B       		.byte	0x8b
 2951 061f 3C060000 		.4byte	0x63c
 2952 0623 15       		.uleb128 0x15
 2953 0624 69340000 		.4byte	.LASF167
 2954 0628 08       		.byte	0x8
 2955 0629 8E       		.byte	0x8e
 2956 062a 3A050000 		.4byte	0x53a
 2957 062e 00       		.byte	0
 2958 062f 15       		.uleb128 0x15
 2959 0630 34180000 		.4byte	.LASF168
 2960 0634 08       		.byte	0x8
 2961 0635 91       		.byte	0x91
 2962 0636 A7050000 		.4byte	0x5a7
 2963 063a 04       		.byte	0x4
 2964 063b 00       		.byte	0
 2965 063c 03       		.uleb128 0x3
 2966 063d F02B0000 		.4byte	.LASF169
 2967 0641 08       		.byte	0x8
 2968 0642 93       		.byte	0x93
 2969 0643 1B060000 		.4byte	0x61b
 2970 0647 14       		.uleb128 0x14
ARM GAS  C:\Users\megan\AppData\Local\Temp\ccqJAT7j.s 			page 67


 2971 0648 08       		.byte	0x8
 2972 0649 08       		.byte	0x8
 2973 064a 99       		.byte	0x99
 2974 064b 74060000 		.4byte	0x674
 2975 064f 15       		.uleb128 0x15
 2976 0650 FB020000 		.4byte	.LASF170
 2977 0654 08       		.byte	0x8
 2978 0655 9C       		.byte	0x9c
 2979 0656 FC030000 		.4byte	0x3fc
 2980 065a 00       		.byte	0
 2981 065b 15       		.uleb128 0x15
 2982 065c 99040000 		.4byte	.LASF171
 2983 0660 08       		.byte	0x8
 2984 0661 9F       		.byte	0x9f
 2985 0662 A3000000 		.4byte	0xa3
 2986 0666 04       		.byte	0x4
 2987 0667 15       		.uleb128 0x15
 2988 0668 142D0000 		.4byte	.LASF172
 2989 066c 08       		.byte	0x8
 2990 066d A2       		.byte	0xa2
 2991 066e A3000000 		.4byte	0xa3
 2992 0672 06       		.byte	0x6
 2993 0673 00       		.byte	0
 2994 0674 03       		.uleb128 0x3
 2995 0675 10370000 		.4byte	.LASF173
 2996 0679 08       		.byte	0x8
 2997 067a A3       		.byte	0xa3
 2998 067b 47060000 		.4byte	0x647
 2999 067f 14       		.uleb128 0x14
 3000 0680 0C       		.byte	0xc
 3001 0681 08       		.byte	0x8
 3002 0682 A7       		.byte	0xa7
 3003 0683 A0060000 		.4byte	0x6a0
 3004 0687 15       		.uleb128 0x15
 3005 0688 69340000 		.4byte	.LASF167
 3006 068c 08       		.byte	0x8
 3007 068d AA       		.byte	0xaa
 3008 068e 3A050000 		.4byte	0x53a
 3009 0692 00       		.byte	0
 3010 0693 15       		.uleb128 0x15
 3011 0694 6C360000 		.4byte	.LASF174
 3012 0698 08       		.byte	0x8
 3013 0699 AD       		.byte	0xad
 3014 069a 74060000 		.4byte	0x674
 3015 069e 04       		.byte	0x4
 3016 069f 00       		.byte	0
 3017 06a0 03       		.uleb128 0x3
 3018 06a1 E9060000 		.4byte	.LASF175
 3019 06a5 08       		.byte	0x8
 3020 06a6 AF       		.byte	0xaf
 3021 06a7 7F060000 		.4byte	0x67f
 3022 06ab 03       		.uleb128 0x3
 3023 06ac A2060000 		.4byte	.LASF176
 3024 06b0 08       		.byte	0x8
 3025 06b1 B2       		.byte	0xb2
 3026 06b2 A0060000 		.4byte	0x6a0
 3027 06b6 10       		.uleb128 0x10
ARM GAS  C:\Users\megan\AppData\Local\Temp\ccqJAT7j.s 			page 68


 3028 06b7 02       		.byte	0x2
 3029 06b8 50000000 		.4byte	0x50
 3030 06bc 09       		.byte	0x9
 3031 06bd B1       		.byte	0xb1
 3032 06be BF0E0000 		.4byte	0xebf
 3033 06c2 0C       		.uleb128 0xc
 3034 06c3 61110000 		.4byte	.LASF177
 3035 06c7 0001     		.2byte	0x100
 3036 06c9 0C       		.uleb128 0xc
 3037 06ca 183A0000 		.4byte	.LASF178
 3038 06ce 0101     		.2byte	0x101
 3039 06d0 0C       		.uleb128 0xc
 3040 06d1 151A0000 		.4byte	.LASF179
 3041 06d5 0201     		.2byte	0x102
 3042 06d7 0C       		.uleb128 0xc
 3043 06d8 D80C0000 		.4byte	.LASF180
 3044 06dc 0301     		.2byte	0x103
 3045 06de 0C       		.uleb128 0xc
 3046 06df 97360000 		.4byte	.LASF181
 3047 06e3 0401     		.2byte	0x104
 3048 06e5 0C       		.uleb128 0xc
 3049 06e6 52370000 		.4byte	.LASF182
 3050 06ea 0501     		.2byte	0x105
 3051 06ec 0C       		.uleb128 0xc
 3052 06ed 74340000 		.4byte	.LASF183
 3053 06f1 0601     		.2byte	0x106
 3054 06f3 0C       		.uleb128 0xc
 3055 06f4 40240000 		.4byte	.LASF184
 3056 06f8 0701     		.2byte	0x107
 3057 06fa 0C       		.uleb128 0xc
 3058 06fb 03350000 		.4byte	.LASF185
 3059 06ff 0801     		.2byte	0x108
 3060 0701 0C       		.uleb128 0xc
 3061 0702 0B130000 		.4byte	.LASF186
 3062 0706 0901     		.2byte	0x109
 3063 0708 0C       		.uleb128 0xc
 3064 0709 2E160000 		.4byte	.LASF187
 3065 070d 0A01     		.2byte	0x10a
 3066 070f 0C       		.uleb128 0xc
 3067 0710 151D0000 		.4byte	.LASF188
 3068 0714 0B01     		.2byte	0x10b
 3069 0716 0C       		.uleb128 0xc
 3070 0717 BA2E0000 		.4byte	.LASF189
 3071 071b 0C01     		.2byte	0x10c
 3072 071d 0C       		.uleb128 0xc
 3073 071e 152C0000 		.4byte	.LASF190
 3074 0722 0D01     		.2byte	0x10d
 3075 0724 0C       		.uleb128 0xc
 3076 0725 F9090000 		.4byte	.LASF191
 3077 0729 0E01     		.2byte	0x10e
 3078 072b 0C       		.uleb128 0xc
 3079 072c F21B0000 		.4byte	.LASF192
 3080 0730 0F01     		.2byte	0x10f
 3081 0732 0C       		.uleb128 0xc
 3082 0733 C90B0000 		.4byte	.LASF193
 3083 0737 1001     		.2byte	0x110
 3084 0739 0C       		.uleb128 0xc
ARM GAS  C:\Users\megan\AppData\Local\Temp\ccqJAT7j.s 			page 69


 3085 073a E8120000 		.4byte	.LASF194
 3086 073e 1101     		.2byte	0x111
 3087 0740 0C       		.uleb128 0xc
 3088 0741 76020000 		.4byte	.LASF195
 3089 0745 1201     		.2byte	0x112
 3090 0747 0C       		.uleb128 0xc
 3091 0748 F3140000 		.4byte	.LASF196
 3092 074c 1301     		.2byte	0x113
 3093 074e 0C       		.uleb128 0xc
 3094 074f 992F0000 		.4byte	.LASF197
 3095 0753 1401     		.2byte	0x114
 3096 0755 0C       		.uleb128 0xc
 3097 0756 7D090000 		.4byte	.LASF198
 3098 075a 1501     		.2byte	0x115
 3099 075c 0C       		.uleb128 0xc
 3100 075d FA200000 		.4byte	.LASF199
 3101 0761 1601     		.2byte	0x116
 3102 0763 0C       		.uleb128 0xc
 3103 0764 0E010000 		.4byte	.LASF200
 3104 0768 1701     		.2byte	0x117
 3105 076a 0C       		.uleb128 0xc
 3106 076b 5A330000 		.4byte	.LASF201
 3107 076f 1801     		.2byte	0x118
 3108 0771 0C       		.uleb128 0xc
 3109 0772 633A0000 		.4byte	.LASF202
 3110 0776 1901     		.2byte	0x119
 3111 0778 0C       		.uleb128 0xc
 3112 0779 6A0B0000 		.4byte	.LASF203
 3113 077d 1A01     		.2byte	0x11a
 3114 077f 0C       		.uleb128 0xc
 3115 0780 781B0000 		.4byte	.LASF204
 3116 0784 1B01     		.2byte	0x11b
 3117 0786 0C       		.uleb128 0xc
 3118 0787 ED0E0000 		.4byte	.LASF205
 3119 078b 1C01     		.2byte	0x11c
 3120 078d 0C       		.uleb128 0xc
 3121 078e 9F330000 		.4byte	.LASF206
 3122 0792 1D01     		.2byte	0x11d
 3123 0794 0C       		.uleb128 0xc
 3124 0795 94030000 		.4byte	.LASF207
 3125 0799 1E01     		.2byte	0x11e
 3126 079b 0C       		.uleb128 0xc
 3127 079c 560F0000 		.4byte	.LASF208
 3128 07a0 1F01     		.2byte	0x11f
 3129 07a2 0C       		.uleb128 0xc
 3130 07a3 3C140000 		.4byte	.LASF209
 3131 07a7 2001     		.2byte	0x120
 3132 07a9 0C       		.uleb128 0xc
 3133 07aa 6E030000 		.4byte	.LASF210
 3134 07ae 2101     		.2byte	0x121
 3135 07b0 0C       		.uleb128 0xc
 3136 07b1 B3130000 		.4byte	.LASF211
 3137 07b5 2201     		.2byte	0x122
 3138 07b7 0C       		.uleb128 0xc
 3139 07b8 D1050000 		.4byte	.LASF212
 3140 07bc 2301     		.2byte	0x123
 3141 07be 0C       		.uleb128 0xc
ARM GAS  C:\Users\megan\AppData\Local\Temp\ccqJAT7j.s 			page 70


 3142 07bf 860E0000 		.4byte	.LASF213
 3143 07c3 2401     		.2byte	0x124
 3144 07c5 0C       		.uleb128 0xc
 3145 07c6 F4320000 		.4byte	.LASF214
 3146 07ca 2501     		.2byte	0x125
 3147 07cc 0C       		.uleb128 0xc
 3148 07cd 361D0000 		.4byte	.LASF215
 3149 07d1 2601     		.2byte	0x126
 3150 07d3 0C       		.uleb128 0xc
 3151 07d4 A32D0000 		.4byte	.LASF216
 3152 07d8 2701     		.2byte	0x127
 3153 07da 0C       		.uleb128 0xc
 3154 07db 74190000 		.4byte	.LASF217
 3155 07df 2801     		.2byte	0x128
 3156 07e1 0C       		.uleb128 0xc
 3157 07e2 AC300000 		.4byte	.LASF218
 3158 07e6 2901     		.2byte	0x129
 3159 07e8 0C       		.uleb128 0xc
 3160 07e9 94230000 		.4byte	.LASF219
 3161 07ed 2A01     		.2byte	0x12a
 3162 07ef 0C       		.uleb128 0xc
 3163 07f0 27320000 		.4byte	.LASF220
 3164 07f4 2B01     		.2byte	0x12b
 3165 07f6 0C       		.uleb128 0xc
 3166 07f7 16230000 		.4byte	.LASF221
 3167 07fb 2C01     		.2byte	0x12c
 3168 07fd 0C       		.uleb128 0xc
 3169 07fe 02120000 		.4byte	.LASF222
 3170 0802 2D01     		.2byte	0x12d
 3171 0804 0C       		.uleb128 0xc
 3172 0805 401C0000 		.4byte	.LASF223
 3173 0809 2E01     		.2byte	0x12e
 3174 080b 0C       		.uleb128 0xc
 3175 080c 9F210000 		.4byte	.LASF224
 3176 0810 2F01     		.2byte	0x12f
 3177 0812 0C       		.uleb128 0xc
 3178 0813 7B210000 		.4byte	.LASF225
 3179 0817 3001     		.2byte	0x130
 3180 0819 0C       		.uleb128 0xc
 3181 081a 33060000 		.4byte	.LASF226
 3182 081e 3101     		.2byte	0x131
 3183 0820 0C       		.uleb128 0xc
 3184 0821 3A220000 		.4byte	.LASF227
 3185 0825 3201     		.2byte	0x132
 3186 0827 0C       		.uleb128 0xc
 3187 0828 3C360000 		.4byte	.LASF228
 3188 082c 3301     		.2byte	0x133
 3189 082e 0C       		.uleb128 0xc
 3190 082f 762F0000 		.4byte	.LASF229
 3191 0833 3401     		.2byte	0x134
 3192 0835 0C       		.uleb128 0xc
 3193 0836 B5080000 		.4byte	.LASF230
 3194 083a 3501     		.2byte	0x135
 3195 083c 0C       		.uleb128 0xc
 3196 083d B7280000 		.4byte	.LASF231
 3197 0841 3601     		.2byte	0x136
 3198 0843 0C       		.uleb128 0xc
ARM GAS  C:\Users\megan\AppData\Local\Temp\ccqJAT7j.s 			page 71


 3199 0844 43320000 		.4byte	.LASF232
 3200 0848 3701     		.2byte	0x137
 3201 084a 0C       		.uleb128 0xc
 3202 084b 09200000 		.4byte	.LASF233
 3203 084f 3801     		.2byte	0x138
 3204 0851 0C       		.uleb128 0xc
 3205 0852 14280000 		.4byte	.LASF234
 3206 0856 3901     		.2byte	0x139
 3207 0858 0C       		.uleb128 0xc
 3208 0859 F2130000 		.4byte	.LASF235
 3209 085d 3A01     		.2byte	0x13a
 3210 085f 0C       		.uleb128 0xc
 3211 0860 73120000 		.4byte	.LASF236
 3212 0864 3B01     		.2byte	0x13b
 3213 0866 0C       		.uleb128 0xc
 3214 0867 D6220000 		.4byte	.LASF237
 3215 086b 3C01     		.2byte	0x13c
 3216 086d 0C       		.uleb128 0xc
 3217 086e 750F0000 		.4byte	.LASF238
 3218 0872 3D01     		.2byte	0x13d
 3219 0874 0C       		.uleb128 0xc
 3220 0875 552A0000 		.4byte	.LASF239
 3221 0879 3E01     		.2byte	0x13e
 3222 087b 0C       		.uleb128 0xc
 3223 087c C3380000 		.4byte	.LASF240
 3224 0880 3F01     		.2byte	0x13f
 3225 0882 0C       		.uleb128 0xc
 3226 0883 B4170000 		.4byte	.LASF241
 3227 0887 4001     		.2byte	0x140
 3228 0889 0C       		.uleb128 0xc
 3229 088a 7D0C0000 		.4byte	.LASF242
 3230 088e 4101     		.2byte	0x141
 3231 0890 0C       		.uleb128 0xc
 3232 0891 A11D0000 		.4byte	.LASF243
 3233 0895 4201     		.2byte	0x142
 3234 0897 0C       		.uleb128 0xc
 3235 0898 DF020000 		.4byte	.LASF244
 3236 089c 4301     		.2byte	0x143
 3237 089e 0C       		.uleb128 0xc
 3238 089f 33380000 		.4byte	.LASF245
 3239 08a3 4401     		.2byte	0x144
 3240 08a5 0C       		.uleb128 0xc
 3241 08a6 70200000 		.4byte	.LASF246
 3242 08aa 4501     		.2byte	0x145
 3243 08ac 0C       		.uleb128 0xc
 3244 08ad 4E3C0000 		.4byte	.LASF247
 3245 08b1 4601     		.2byte	0x146
 3246 08b3 0C       		.uleb128 0xc
 3247 08b4 1C0C0000 		.4byte	.LASF248
 3248 08b8 4701     		.2byte	0x147
 3249 08ba 0C       		.uleb128 0xc
 3250 08bb 70250000 		.4byte	.LASF249
 3251 08bf 4801     		.2byte	0x148
 3252 08c1 0C       		.uleb128 0xc
 3253 08c2 02100000 		.4byte	.LASF250
 3254 08c6 4901     		.2byte	0x149
 3255 08c8 0C       		.uleb128 0xc
ARM GAS  C:\Users\megan\AppData\Local\Temp\ccqJAT7j.s 			page 72


 3256 08c9 49190000 		.4byte	.LASF251
 3257 08cd 4A01     		.2byte	0x14a
 3258 08cf 0C       		.uleb128 0xc
 3259 08d0 C32C0000 		.4byte	.LASF252
 3260 08d4 4B01     		.2byte	0x14b
 3261 08d6 0C       		.uleb128 0xc
 3262 08d7 47290000 		.4byte	.LASF253
 3263 08db 4C01     		.2byte	0x14c
 3264 08dd 0C       		.uleb128 0xc
 3265 08de 3A090000 		.4byte	.LASF254
 3266 08e2 4D01     		.2byte	0x14d
 3267 08e4 0C       		.uleb128 0xc
 3268 08e5 BC2F0000 		.4byte	.LASF255
 3269 08e9 4E01     		.2byte	0x14e
 3270 08eb 0C       		.uleb128 0xc
 3271 08ec 0A310000 		.4byte	.LASF256
 3272 08f0 4F01     		.2byte	0x14f
 3273 08f2 0C       		.uleb128 0xc
 3274 08f3 0F2F0000 		.4byte	.LASF257
 3275 08f7 5001     		.2byte	0x150
 3276 08f9 0C       		.uleb128 0xc
 3277 08fa 8F340000 		.4byte	.LASF258
 3278 08fe 5101     		.2byte	0x151
 3279 0900 0C       		.uleb128 0xc
 3280 0901 FD050000 		.4byte	.LASF259
 3281 0905 5201     		.2byte	0x152
 3282 0907 0C       		.uleb128 0xc
 3283 0908 0D170000 		.4byte	.LASF260
 3284 090c 5301     		.2byte	0x153
 3285 090e 0C       		.uleb128 0xc
 3286 090f 87010000 		.4byte	.LASF261
 3287 0913 5401     		.2byte	0x154
 3288 0915 0C       		.uleb128 0xc
 3289 0916 210A0000 		.4byte	.LASF262
 3290 091a 5501     		.2byte	0x155
 3291 091c 0C       		.uleb128 0xc
 3292 091d DD160000 		.4byte	.LASF263
 3293 0921 5601     		.2byte	0x156
 3294 0923 0C       		.uleb128 0xc
 3295 0924 D9080000 		.4byte	.LASF264
 3296 0928 5701     		.2byte	0x157
 3297 092a 0C       		.uleb128 0xc
 3298 092b B91B0000 		.4byte	.LASF265
 3299 092f 5801     		.2byte	0x158
 3300 0931 0C       		.uleb128 0xc
 3301 0932 75360000 		.4byte	.LASF266
 3302 0936 5901     		.2byte	0x159
 3303 0938 0C       		.uleb128 0xc
 3304 0939 41230000 		.4byte	.LASF267
 3305 093d 5A01     		.2byte	0x15a
 3306 093f 0C       		.uleb128 0xc
 3307 0940 67280000 		.4byte	.LASF268
 3308 0944 5B01     		.2byte	0x15b
 3309 0946 0C       		.uleb128 0xc
 3310 0947 E01F0000 		.4byte	.LASF269
 3311 094b 5C01     		.2byte	0x15c
 3312 094d 0C       		.uleb128 0xc
ARM GAS  C:\Users\megan\AppData\Local\Temp\ccqJAT7j.s 			page 73


 3313 094e E12F0000 		.4byte	.LASF270
 3314 0952 5D01     		.2byte	0x15d
 3315 0954 0C       		.uleb128 0xc
 3316 0955 29350000 		.4byte	.LASF271
 3317 0959 5E01     		.2byte	0x15e
 3318 095b 0C       		.uleb128 0xc
 3319 095c 4D340000 		.4byte	.LASF272
 3320 0960 5F01     		.2byte	0x15f
 3321 0962 0C       		.uleb128 0xc
 3322 0963 C61E0000 		.4byte	.LASF273
 3323 0967 6001     		.2byte	0x160
 3324 0969 0C       		.uleb128 0xc
 3325 096a D8200000 		.4byte	.LASF274
 3326 096e 6101     		.2byte	0x161
 3327 0970 0C       		.uleb128 0xc
 3328 0971 1C0F0000 		.4byte	.LASF275
 3329 0975 6201     		.2byte	0x162
 3330 0977 0C       		.uleb128 0xc
 3331 0978 C3330000 		.4byte	.LASF276
 3332 097c 6301     		.2byte	0x163
 3333 097e 0C       		.uleb128 0xc
 3334 097f 6C2C0000 		.4byte	.LASF277
 3335 0983 6401     		.2byte	0x164
 3336 0985 0C       		.uleb128 0xc
 3337 0986 C2110000 		.4byte	.LASF278
 3338 098a 6501     		.2byte	0x165
 3339 098c 0C       		.uleb128 0xc
 3340 098d BB270000 		.4byte	.LASF279
 3341 0991 6601     		.2byte	0x166
 3342 0993 0C       		.uleb128 0xc
 3343 0994 59000000 		.4byte	.LASF280
 3344 0998 6701     		.2byte	0x167
 3345 099a 0C       		.uleb128 0xc
 3346 099b 41040000 		.4byte	.LASF281
 3347 099f 6801     		.2byte	0x168
 3348 09a1 0C       		.uleb128 0xc
 3349 09a2 FD070000 		.4byte	.LASF282
 3350 09a6 6901     		.2byte	0x169
 3351 09a8 0C       		.uleb128 0xc
 3352 09a9 4C010000 		.4byte	.LASF283
 3353 09ad 6A01     		.2byte	0x16a
 3354 09af 0C       		.uleb128 0xc
 3355 09b0 63150000 		.4byte	.LASF284
 3356 09b4 6B01     		.2byte	0x16b
 3357 09b6 0C       		.uleb128 0xc
 3358 09b7 0B340000 		.4byte	.LASF285
 3359 09bb 6C01     		.2byte	0x16c
 3360 09bd 0C       		.uleb128 0xc
 3361 09be 333B0000 		.4byte	.LASF286
 3362 09c2 6D01     		.2byte	0x16d
 3363 09c4 0C       		.uleb128 0xc
 3364 09c5 D42A0000 		.4byte	.LASF287
 3365 09c9 6E01     		.2byte	0x16e
 3366 09cb 0C       		.uleb128 0xc
 3367 09cc E0010000 		.4byte	.LASF288
 3368 09d0 6F01     		.2byte	0x16f
 3369 09d2 0C       		.uleb128 0xc
ARM GAS  C:\Users\megan\AppData\Local\Temp\ccqJAT7j.s 			page 74


 3370 09d3 CB0A0000 		.4byte	.LASF289
 3371 09d7 7001     		.2byte	0x170
 3372 09d9 0C       		.uleb128 0xc
 3373 09da F00D0000 		.4byte	.LASF290
 3374 09de 7101     		.2byte	0x171
 3375 09e0 0C       		.uleb128 0xc
 3376 09e1 021E0000 		.4byte	.LASF291
 3377 09e5 7201     		.2byte	0x172
 3378 09e7 0C       		.uleb128 0xc
 3379 09e8 871A0000 		.4byte	.LASF292
 3380 09ec 7301     		.2byte	0x173
 3381 09ee 0C       		.uleb128 0xc
 3382 09ef 6A050000 		.4byte	.LASF293
 3383 09f3 7401     		.2byte	0x174
 3384 09f5 0C       		.uleb128 0xc
 3385 09f6 E6110000 		.4byte	.LASF294
 3386 09fa 7501     		.2byte	0x175
 3387 09fc 0C       		.uleb128 0xc
 3388 09fd 103C0000 		.4byte	.LASF295
 3389 0a01 7601     		.2byte	0x176
 3390 0a03 0C       		.uleb128 0xc
 3391 0a04 F2190000 		.4byte	.LASF296
 3392 0a08 7701     		.2byte	0x177
 3393 0a0a 0C       		.uleb128 0xc
 3394 0a0b C9240000 		.4byte	.LASF297
 3395 0a0f 7801     		.2byte	0x178
 3396 0a11 0C       		.uleb128 0xc
 3397 0a12 7A100000 		.4byte	.LASF298
 3398 0a16 7901     		.2byte	0x179
 3399 0a18 0C       		.uleb128 0xc
 3400 0a19 1A2B0000 		.4byte	.LASF299
 3401 0a1d 7A01     		.2byte	0x17a
 3402 0a1f 0C       		.uleb128 0xc
 3403 0a20 BB020000 		.4byte	.LASF300
 3404 0a24 7B01     		.2byte	0x17b
 3405 0a26 0C       		.uleb128 0xc
 3406 0a27 E81E0000 		.4byte	.LASF301
 3407 0a2b 7C01     		.2byte	0x17c
 3408 0a2d 0C       		.uleb128 0xc
 3409 0a2e CF070000 		.4byte	.LASF302
 3410 0a32 7D01     		.2byte	0x17d
 3411 0a34 0C       		.uleb128 0xc
 3412 0a35 A9050000 		.4byte	.LASF303
 3413 0a39 7E01     		.2byte	0x17e
 3414 0a3b 0C       		.uleb128 0xc
 3415 0a3c 1A040000 		.4byte	.LASF304
 3416 0a40 7F01     		.2byte	0x17f
 3417 0a42 0C       		.uleb128 0xc
 3418 0a43 5B350000 		.4byte	.LASF305
 3419 0a47 8001     		.2byte	0x180
 3420 0a49 0C       		.uleb128 0xc
 3421 0a4a 982C0000 		.4byte	.LASF306
 3422 0a4e 8101     		.2byte	0x181
 3423 0a50 0C       		.uleb128 0xc
 3424 0a51 323C0000 		.4byte	.LASF307
 3425 0a55 8201     		.2byte	0x182
 3426 0a57 0C       		.uleb128 0xc
ARM GAS  C:\Users\megan\AppData\Local\Temp\ccqJAT7j.s 			page 75


 3427 0a58 2B050000 		.4byte	.LASF308
 3428 0a5c 8301     		.2byte	0x183
 3429 0a5e 0C       		.uleb128 0xc
 3430 0a5f 192E0000 		.4byte	.LASF309
 3431 0a63 8401     		.2byte	0x184
 3432 0a65 0C       		.uleb128 0xc
 3433 0a66 903B0000 		.4byte	.LASF310
 3434 0a6a 8501     		.2byte	0x185
 3435 0a6c 0C       		.uleb128 0xc
 3436 0a6d 27210000 		.4byte	.LASF311
 3437 0a71 8601     		.2byte	0x186
 3438 0a73 0C       		.uleb128 0xc
 3439 0a74 D8230000 		.4byte	.LASF312
 3440 0a78 8701     		.2byte	0x187
 3441 0a7a 0C       		.uleb128 0xc
 3442 0a7b 28030000 		.4byte	.LASF313
 3443 0a7f 8801     		.2byte	0x188
 3444 0a81 0C       		.uleb128 0xc
 3445 0a82 24290000 		.4byte	.LASF314
 3446 0a86 8901     		.2byte	0x189
 3447 0a88 0C       		.uleb128 0xc
 3448 0a89 7E140000 		.4byte	.LASF315
 3449 0a8d 8A01     		.2byte	0x18a
 3450 0a8f 0C       		.uleb128 0xc
 3451 0a90 30310000 		.4byte	.LASF316
 3452 0a94 8B01     		.2byte	0x18b
 3453 0a96 0C       		.uleb128 0xc
 3454 0a97 3D2D0000 		.4byte	.LASF317
 3455 0a9b 8C01     		.2byte	0x18c
 3456 0a9d 0C       		.uleb128 0xc
 3457 0a9e 99350000 		.4byte	.LASF318
 3458 0aa2 8D01     		.2byte	0x18d
 3459 0aa4 0C       		.uleb128 0xc
 3460 0aa5 BA1F0000 		.4byte	.LASF319
 3461 0aa9 8E01     		.2byte	0x18e
 3462 0aab 0C       		.uleb128 0xc
 3463 0aac D8320000 		.4byte	.LASF320
 3464 0ab0 8F01     		.2byte	0x18f
 3465 0ab2 0C       		.uleb128 0xc
 3466 0ab3 012A0000 		.4byte	.LASF321
 3467 0ab7 9001     		.2byte	0x190
 3468 0ab9 0C       		.uleb128 0xc
 3469 0aba CD210000 		.4byte	.LASF322
 3470 0abe 9101     		.2byte	0x191
 3471 0ac0 0C       		.uleb128 0xc
 3472 0ac1 372C0000 		.4byte	.LASF323
 3473 0ac5 9201     		.2byte	0x192
 3474 0ac7 0C       		.uleb128 0xc
 3475 0ac8 58170000 		.4byte	.LASF324
 3476 0acc 9301     		.2byte	0x193
 3477 0ace 0C       		.uleb128 0xc
 3478 0acf 74060000 		.4byte	.LASF325
 3479 0ad3 9401     		.2byte	0x194
 3480 0ad5 0C       		.uleb128 0xc
 3481 0ad6 C9370000 		.4byte	.LASF326
 3482 0ada 9501     		.2byte	0x195
 3483 0adc 0C       		.uleb128 0xc
ARM GAS  C:\Users\megan\AppData\Local\Temp\ccqJAT7j.s 			page 76


 3484 0add E7380000 		.4byte	.LASF327
 3485 0ae1 9601     		.2byte	0x196
 3486 0ae3 0C       		.uleb128 0xc
 3487 0ae4 631C0000 		.4byte	.LASF328
 3488 0ae8 9701     		.2byte	0x197
 3489 0aea 0C       		.uleb128 0xc
 3490 0aeb 622D0000 		.4byte	.LASF329
 3491 0aef 9801     		.2byte	0x198
 3492 0af1 0C       		.uleb128 0xc
 3493 0af2 AC1A0000 		.4byte	.LASF330
 3494 0af6 9901     		.2byte	0x199
 3495 0af8 0C       		.uleb128 0xc
 3496 0af9 B6200000 		.4byte	.LASF331
 3497 0afd 9A01     		.2byte	0x19a
 3498 0aff 0C       		.uleb128 0xc
 3499 0b00 F2260000 		.4byte	.LASF332
 3500 0b04 9B01     		.2byte	0x19b
 3501 0b06 0C       		.uleb128 0xc
 3502 0b07 4F390000 		.4byte	.LASF333
 3503 0b0b 9C01     		.2byte	0x19c
 3504 0b0d 0C       		.uleb128 0xc
 3505 0b0e 131F0000 		.4byte	.LASF334
 3506 0b12 9D01     		.2byte	0x19d
 3507 0b14 0C       		.uleb128 0xc
 3508 0b15 970F0000 		.4byte	.LASF335
 3509 0b19 9E01     		.2byte	0x19e
 3510 0b1b 0C       		.uleb128 0xc
 3511 0b1c 150E0000 		.4byte	.LASF336
 3512 0b20 9F01     		.2byte	0x19f
 3513 0b22 0C       		.uleb128 0xc
 3514 0b23 C6000000 		.4byte	.LASF337
 3515 0b27 A001     		.2byte	0x1a0
 3516 0b29 0C       		.uleb128 0xc
 3517 0b2a 00000000 		.4byte	.LASF338
 3518 0b2e A101     		.2byte	0x1a1
 3519 0b30 0C       		.uleb128 0xc
 3520 0b31 9B390000 		.4byte	.LASF339
 3521 0b35 A201     		.2byte	0x1a2
 3522 0b37 0C       		.uleb128 0xc
 3523 0b38 9F270000 		.4byte	.LASF340
 3524 0b3c A301     		.2byte	0x1a3
 3525 0b3e 0C       		.uleb128 0xc
 3526 0b3f F9350000 		.4byte	.LASF341
 3527 0b43 A401     		.2byte	0x1a4
 3528 0b45 0C       		.uleb128 0xc
 3529 0b46 F21C0000 		.4byte	.LASF342
 3530 0b4a A501     		.2byte	0x1a5
 3531 0b4c 0C       		.uleb128 0xc
 3532 0b4d 91080000 		.4byte	.LASF343
 3533 0b51 A601     		.2byte	0x1a6
 3534 0b53 0C       		.uleb128 0xc
 3535 0b54 42180000 		.4byte	.LASF344
 3536 0b58 A701     		.2byte	0x1a7
 3537 0b5a 0C       		.uleb128 0xc
 3538 0b5b D8170000 		.4byte	.LASF345
 3539 0b5f A801     		.2byte	0x1a8
 3540 0b61 0C       		.uleb128 0xc
ARM GAS  C:\Users\megan\AppData\Local\Temp\ccqJAT7j.s 			page 77


 3541 0b62 541B0000 		.4byte	.LASF346
 3542 0b66 A901     		.2byte	0x1a9
 3543 0b68 0C       		.uleb128 0xc
 3544 0b69 9E2A0000 		.4byte	.LASF347
 3545 0b6d AA01     		.2byte	0x1aa
 3546 0b6f 0C       		.uleb128 0xc
 3547 0b70 FA220000 		.4byte	.LASF348
 3548 0b74 AB01     		.2byte	0x1ab
 3549 0b76 0C       		.uleb128 0xc
 3550 0b77 6B130000 		.4byte	.LASF349
 3551 0b7b AC01     		.2byte	0x1ac
 3552 0b7d 0C       		.uleb128 0xc
 3553 0b7e 66320000 		.4byte	.LASF350
 3554 0b82 AD01     		.2byte	0x1ad
 3555 0b84 0C       		.uleb128 0xc
 3556 0b85 ED3B0000 		.4byte	.LASF351
 3557 0b89 AE01     		.2byte	0x1ae
 3558 0b8b 0C       		.uleb128 0xc
 3559 0b8c 31020000 		.4byte	.LASF352
 3560 0b90 AF01     		.2byte	0x1af
 3561 0b92 0C       		.uleb128 0xc
 3562 0b93 C91A0000 		.4byte	.LASF353
 3563 0b97 B001     		.2byte	0x1b0
 3564 0b99 0C       		.uleb128 0xc
 3565 0b9a C13B0000 		.4byte	.LASF354
 3566 0b9e B101     		.2byte	0x1b1
 3567 0ba0 0C       		.uleb128 0xc
 3568 0ba1 C7060000 		.4byte	.LASF355
 3569 0ba5 B201     		.2byte	0x1b2
 3570 0ba7 0C       		.uleb128 0xc
 3571 0ba8 0B1B0000 		.4byte	.LASF356
 3572 0bac B301     		.2byte	0x1b3
 3573 0bae 0C       		.uleb128 0xc
 3574 0baf B4180000 		.4byte	.LASF357
 3575 0bb3 B401     		.2byte	0x1b4
 3576 0bb5 0C       		.uleb128 0xc
 3577 0bb6 1A070000 		.4byte	.LASF358
 3578 0bba B501     		.2byte	0x1b5
 3579 0bbc 0C       		.uleb128 0xc
 3580 0bbd 58060000 		.4byte	.LASF359
 3581 0bc1 B601     		.2byte	0x1b6
 3582 0bc3 0C       		.uleb128 0xc
 3583 0bc4 25120000 		.4byte	.LASF360
 3584 0bc8 B701     		.2byte	0x1b7
 3585 0bca 0C       		.uleb128 0xc
 3586 0bcb 812D0000 		.4byte	.LASF361
 3587 0bcf B801     		.2byte	0x1b8
 3588 0bd1 0C       		.uleb128 0xc
 3589 0bd2 1F150000 		.4byte	.LASF362
 3590 0bd6 B901     		.2byte	0x1b9
 3591 0bd8 0C       		.uleb128 0xc
 3592 0bd9 351E0000 		.4byte	.LASF363
 3593 0bdd BA01     		.2byte	0x1ba
 3594 0bdf 0C       		.uleb128 0xc
 3595 0be0 C01D0000 		.4byte	.LASF364
 3596 0be4 BB01     		.2byte	0x1bb
 3597 0be6 0C       		.uleb128 0xc
ARM GAS  C:\Users\megan\AppData\Local\Temp\ccqJAT7j.s 			page 78


 3598 0be7 ED1A0000 		.4byte	.LASF365
 3599 0beb BC01     		.2byte	0x1bc
 3600 0bed 0C       		.uleb128 0xc
 3601 0bee FA2C0000 		.4byte	.LASF366
 3602 0bf2 BD01     		.2byte	0x1bd
 3603 0bf4 0C       		.uleb128 0xc
 3604 0bf5 5B260000 		.4byte	.LASF367
 3605 0bf9 BE01     		.2byte	0x1be
 3606 0bfb 0C       		.uleb128 0xc
 3607 0bfc 91150000 		.4byte	.LASF368
 3608 0c00 BF01     		.2byte	0x1bf
 3609 0c02 0C       		.uleb128 0xc
 3610 0c03 05030000 		.4byte	.LASF369
 3611 0c07 C001     		.2byte	0x1c0
 3612 0c09 0C       		.uleb128 0xc
 3613 0c0a 470B0000 		.4byte	.LASF370
 3614 0c0e C101     		.2byte	0x1c1
 3615 0c10 0C       		.uleb128 0xc
 3616 0c11 EA000000 		.4byte	.LASF371
 3617 0c15 C201     		.2byte	0x1c2
 3618 0c17 0C       		.uleb128 0xc
 3619 0c18 9B1B0000 		.4byte	.LASF372
 3620 0c1c C301     		.2byte	0x1c3
 3621 0c1e 0C       		.uleb128 0xc
 3622 0c1f D7030000 		.4byte	.LASF373
 3623 0c23 C401     		.2byte	0x1c4
 3624 0c25 0C       		.uleb128 0xc
 3625 0c26 B9030000 		.4byte	.LASF374
 3626 0c2a C501     		.2byte	0x1c5
 3627 0c2c 0C       		.uleb128 0xc
 3628 0c2d D01C0000 		.4byte	.LASF375
 3629 0c31 C601     		.2byte	0x1c6
 3630 0c33 0C       		.uleb128 0xc
 3631 0c34 B5390000 		.4byte	.LASF376
 3632 0c38 C701     		.2byte	0x1c7
 3633 0c3a 0C       		.uleb128 0xc
 3634 0c3b AA0E0000 		.4byte	.LASF377
 3635 0c3f C801     		.2byte	0x1c8
 3636 0c41 0C       		.uleb128 0xc
 3637 0c42 64300000 		.4byte	.LASF378
 3638 0c46 C901     		.2byte	0x1c9
 3639 0c48 0C       		.uleb128 0xc
 3640 0c49 66240000 		.4byte	.LASF379
 3641 0c4d CA01     		.2byte	0x1ca
 3642 0c4f 0C       		.uleb128 0xc
 3643 0c50 FD080000 		.4byte	.LASF380
 3644 0c54 CB01     		.2byte	0x1cb
 3645 0c56 0C       		.uleb128 0xc
 3646 0c57 4A210000 		.4byte	.LASF381
 3647 0c5b CC01     		.2byte	0x1cc
 3648 0c5d 0C       		.uleb128 0xc
 3649 0c5e 8D1F0000 		.4byte	.LASF382
 3650 0c62 CD01     		.2byte	0x1cd
 3651 0c64 0C       		.uleb128 0xc
 3652 0c65 B10A0000 		.4byte	.LASF383
 3653 0c69 CE01     		.2byte	0x1ce
 3654 0c6b 0C       		.uleb128 0xc
ARM GAS  C:\Users\megan\AppData\Local\Temp\ccqJAT7j.s 			page 79


 3655 0c6c 1E220000 		.4byte	.LASF384
 3656 0c70 CF01     		.2byte	0x1cf
 3657 0c72 0C       		.uleb128 0xc
 3658 0c73 A7370000 		.4byte	.LASF385
 3659 0c77 D001     		.2byte	0x1d0
 3660 0c79 0C       		.uleb128 0xc
 3661 0c7a F72A0000 		.4byte	.LASF386
 3662 0c7e D101     		.2byte	0x1d1
 3663 0c80 0C       		.uleb128 0xc
 3664 0c81 FC100000 		.4byte	.LASF387
 3665 0c85 D201     		.2byte	0x1d2
 3666 0c87 0C       		.uleb128 0xc
 3667 0c88 CE090000 		.4byte	.LASF388
 3668 0c8c D301     		.2byte	0x1d3
 3669 0c8e 0C       		.uleb128 0xc
 3670 0c8f 360C0000 		.4byte	.LASF389
 3671 0c93 D401     		.2byte	0x1d4
 3672 0c95 0C       		.uleb128 0xc
 3673 0c96 8D000000 		.4byte	.LASF390
 3674 0c9a D501     		.2byte	0x1d5
 3675 0c9c 0C       		.uleb128 0xc
 3676 0c9d 1A1C0000 		.4byte	.LASF391
 3677 0ca1 D601     		.2byte	0x1d6
 3678 0ca3 0C       		.uleb128 0xc
 3679 0ca4 21270000 		.4byte	.LASF392
 3680 0ca8 D701     		.2byte	0x1d7
 3681 0caa 0C       		.uleb128 0xc
 3682 0cab 86290000 		.4byte	.LASF393
 3683 0caf D801     		.2byte	0x1d8
 3684 0cb1 0C       		.uleb128 0xc
 3685 0cb2 29010000 		.4byte	.LASF394
 3686 0cb6 D901     		.2byte	0x1d9
 3687 0cb8 0C       		.uleb128 0xc
 3688 0cb9 BB120000 		.4byte	.LASF395
 3689 0cbd DA01     		.2byte	0x1da
 3690 0cbf 0C       		.uleb128 0xc
 3691 0cc0 A1090000 		.4byte	.LASF396
 3692 0cc4 DB01     		.2byte	0x1db
 3693 0cc6 0C       		.uleb128 0xc
 3694 0cc7 BD250000 		.4byte	.LASF397
 3695 0ccb DC01     		.2byte	0x1dc
 3696 0ccd 0C       		.uleb128 0xc
 3697 0cce 450A0000 		.4byte	.LASF398
 3698 0cd2 DD01     		.2byte	0x1dd
 3699 0cd4 0C       		.uleb128 0xc
 3700 0cd5 1A240000 		.4byte	.LASF399
 3701 0cd9 DE01     		.2byte	0x1de
 3702 0cdb 0C       		.uleb128 0xc
 3703 0cdc C7310000 		.4byte	.LASF400
 3704 0ce0 DF01     		.2byte	0x1df
 3705 0ce2 0C       		.uleb128 0xc
 3706 0ce3 5C1A0000 		.4byte	.LASF401
 3707 0ce7 E001     		.2byte	0x1e0
 3708 0ce9 0C       		.uleb128 0xc
 3709 0cea 34070000 		.4byte	.LASF402
 3710 0cee E101     		.2byte	0x1e1
 3711 0cf0 0C       		.uleb128 0xc
ARM GAS  C:\Users\megan\AppData\Local\Temp\ccqJAT7j.s 			page 80


 3712 0cf1 EE330000 		.4byte	.LASF403
 3713 0cf5 E201     		.2byte	0x1e2
 3714 0cf7 0C       		.uleb128 0xc
 3715 0cf8 5F100000 		.4byte	.LASF404
 3716 0cfc E301     		.2byte	0x1e3
 3717 0cfe 0C       		.uleb128 0xc
 3718 0cff 5B1D0000 		.4byte	.LASF405
 3719 0d03 E401     		.2byte	0x1e4
 3720 0d05 0C       		.uleb128 0xc
 3721 0d06 B5140000 		.4byte	.LASF406
 3722 0d0a E501     		.2byte	0x1e5
 3723 0d0c 0C       		.uleb128 0xc
 3724 0d0d 2B390000 		.4byte	.LASF407
 3725 0d11 E601     		.2byte	0x1e6
 3726 0d13 0C       		.uleb128 0xc
 3727 0d14 96120000 		.4byte	.LASF408
 3728 0d18 E701     		.2byte	0x1e7
 3729 0d1a 0C       		.uleb128 0xc
 3730 0d1b 612B0000 		.4byte	.LASF409
 3731 0d1f E801     		.2byte	0x1e8
 3732 0d21 0C       		.uleb128 0xc
 3733 0d22 EA310000 		.4byte	.LASF410
 3734 0d26 E901     		.2byte	0x1e9
 3735 0d28 0C       		.uleb128 0xc
 3736 0d29 EC2E0000 		.4byte	.LASF411
 3737 0d2d EA01     		.2byte	0x1ea
 3738 0d2f 0C       		.uleb128 0xc
 3739 0d30 522F0000 		.4byte	.LASF412
 3740 0d34 EB01     		.2byte	0x1eb
 3741 0d36 0C       		.uleb128 0xc
 3742 0d37 9E1E0000 		.4byte	.LASF413
 3743 0d3b EC01     		.2byte	0x1ec
 3744 0d3d 0C       		.uleb128 0xc
 3745 0d3e 6B290000 		.4byte	.LASF414
 3746 0d42 ED01     		.2byte	0x1ed
 3747 0d44 0C       		.uleb128 0xc
 3748 0d45 61140000 		.4byte	.LASF415
 3749 0d49 EE01     		.2byte	0x1ee
 3750 0d4b 0C       		.uleb128 0xc
 3751 0d4c CF340000 		.4byte	.LASF416
 3752 0d50 EF01     		.2byte	0x1ef
 3753 0d52 0C       		.uleb128 0xc
 3754 0d53 B1190000 		.4byte	.LASF417
 3755 0d57 F001     		.2byte	0x1f0
 3756 0d59 0C       		.uleb128 0xc
 3757 0d5a 2C2A0000 		.4byte	.LASF418
 3758 0d5e F101     		.2byte	0x1f1
 3759 0d60 0C       		.uleb128 0xc
 3760 0d61 3B100000 		.4byte	.LASF419
 3761 0d65 F201     		.2byte	0x1f2
 3762 0d67 0C       		.uleb128 0xc
 3763 0d68 28340000 		.4byte	.LASF420
 3764 0d6c F301     		.2byte	0x1f3
 3765 0d6e 0C       		.uleb128 0xc
 3766 0d6f 980B0000 		.4byte	.LASF421
 3767 0d73 F401     		.2byte	0x1f4
 3768 0d75 0C       		.uleb128 0xc
ARM GAS  C:\Users\megan\AppData\Local\Temp\ccqJAT7j.s 			page 81


 3769 0d76 29300000 		.4byte	.LASF422
 3770 0d7a F501     		.2byte	0x1f5
 3771 0d7c 0C       		.uleb128 0xc
 3772 0d7d 3C2B0000 		.4byte	.LASF423
 3773 0d81 F601     		.2byte	0x1f6
 3774 0d83 0C       		.uleb128 0xc
 3775 0d84 782A0000 		.4byte	.LASF424
 3776 0d88 F701     		.2byte	0x1f7
 3777 0d8a 0C       		.uleb128 0xc
 3778 0d8b DA0F0000 		.4byte	.LASF425
 3779 0d8f F801     		.2byte	0x1f8
 3780 0d91 0C       		.uleb128 0xc
 3781 0d92 1F110000 		.4byte	.LASF426
 3782 0d96 F901     		.2byte	0x1f9
 3783 0d98 0C       		.uleb128 0xc
 3784 0d99 01050000 		.4byte	.LASF427
 3785 0d9d FA01     		.2byte	0x1fa
 3786 0d9f 0C       		.uleb128 0xc
 3787 0da0 3C110000 		.4byte	.LASF428
 3788 0da4 FB01     		.2byte	0x1fb
 3789 0da6 0C       		.uleb128 0xc
 3790 0da7 4C200000 		.4byte	.LASF429
 3791 0dab FC01     		.2byte	0x1fc
 3792 0dad 0C       		.uleb128 0xc
 3793 0dae 45050000 		.4byte	.LASF430
 3794 0db2 FD01     		.2byte	0x1fd
 3795 0db4 0C       		.uleb128 0xc
 3796 0db5 A3290000 		.4byte	.LASF431
 3797 0db9 FE01     		.2byte	0x1fe
 3798 0dbb 0C       		.uleb128 0xc
 3799 0dbc AC3A0000 		.4byte	.LASF432
 3800 0dc0 FF01     		.2byte	0x1ff
 3801 0dc2 0C       		.uleb128 0xc
 3802 0dc3 0E020000 		.4byte	.LASF433
 3803 0dc7 0002     		.2byte	0x200
 3804 0dc9 0C       		.uleb128 0xc
 3805 0dca 5B070000 		.4byte	.LASF434
 3806 0dce 0102     		.2byte	0x201
 3807 0dd0 0C       		.uleb128 0xc
 3808 0dd1 51120000 		.4byte	.LASF435
 3809 0dd5 0202     		.2byte	0x202
 3810 0dd7 0C       		.uleb128 0xc
 3811 0dd8 CF260000 		.4byte	.LASF436
 3812 0ddc 0302     		.2byte	0x203
 3813 0dde 0C       		.uleb128 0xc
 3814 0ddf D2150000 		.4byte	.LASF437
 3815 0de3 0402     		.2byte	0x204
 3816 0de5 0C       		.uleb128 0xc
 3817 0de6 B4320000 		.4byte	.LASF438
 3818 0dea 0502     		.2byte	0x205
 3819 0dec 0C       		.uleb128 0xc
 3820 0ded 21080000 		.4byte	.LASF439
 3821 0df1 0602     		.2byte	0x206
 3822 0df3 0C       		.uleb128 0xc
 3823 0df4 702E0000 		.4byte	.LASF440
 3824 0df8 0702     		.2byte	0x207
 3825 0dfa 0C       		.uleb128 0xc
ARM GAS  C:\Users\megan\AppData\Local\Temp\ccqJAT7j.s 			page 82


 3826 0dfb D9140000 		.4byte	.LASF441
 3827 0dff 0802     		.2byte	0x208
 3828 0e01 0C       		.uleb128 0xc
 3829 0e02 A8110000 		.4byte	.LASF442
 3830 0e06 0902     		.2byte	0x209
 3831 0e08 0C       		.uleb128 0xc
 3832 0e09 743B0000 		.4byte	.LASF443
 3833 0e0d 0A02     		.2byte	0x20a
 3834 0e0f 0C       		.uleb128 0xc
 3835 0e10 FF3A0000 		.4byte	.LASF444
 3836 0e14 0B02     		.2byte	0x20b
 3837 0e16 0C       		.uleb128 0xc
 3838 0e17 93200000 		.4byte	.LASF445
 3839 0e1b 0C02     		.2byte	0x20c
 3840 0e1d 0C       		.uleb128 0xc
 3841 0e1e BF290000 		.4byte	.LASF446
 3842 0e22 0D02     		.2byte	0x20d
 3843 0e24 0C       		.uleb128 0xc
 3844 0e25 DE180000 		.4byte	.LASF447
 3845 0e29 0E02     		.2byte	0x20e
 3846 0e2b 0C       		.uleb128 0xc
 3847 0e2c E41D0000 		.4byte	.LASF448
 3848 0e30 0F02     		.2byte	0x20f
 3849 0e32 0C       		.uleb128 0xc
 3850 0e33 D7100000 		.4byte	.LASF449
 3851 0e37 1002     		.2byte	0x210
 3852 0e39 0C       		.uleb128 0xc
 3853 0e3a 8B0A0000 		.4byte	.LASF450
 3854 0e3e 1102     		.2byte	0x211
 3855 0e40 0C       		.uleb128 0xc
 3856 0e41 7E1D0000 		.4byte	.LASF451
 3857 0e45 1202     		.2byte	0x212
 3858 0e47 0C       		.uleb128 0xc
 3859 0e48 75350000 		.4byte	.LASF452
 3860 0e4c 1302     		.2byte	0x213
 3861 0e4e 0C       		.uleb128 0xc
 3862 0e4f 87300000 		.4byte	.LASF453
 3863 0e53 1402     		.2byte	0x214
 3864 0e55 0C       		.uleb128 0xc
 3865 0e56 4C280000 		.4byte	.LASF454
 3866 0e5a 1502     		.2byte	0x215
 3867 0e5c 0C       		.uleb128 0xc
 3868 0e5d B3350000 		.4byte	.LASF455
 3869 0e61 1602     		.2byte	0x216
 3870 0e63 0C       		.uleb128 0xc
 3871 0e64 31130000 		.4byte	.LASF456
 3872 0e68 1702     		.2byte	0x217
 3873 0e6a 0C       		.uleb128 0xc
 3874 0e6b F52D0000 		.4byte	.LASF457
 3875 0e6f 1802     		.2byte	0x218
 3876 0e71 0C       		.uleb128 0xc
 3877 0e72 8B070000 		.4byte	.LASF458
 3878 0e76 1902     		.2byte	0x219
 3879 0e78 0C       		.uleb128 0xc
 3880 0e79 07390000 		.4byte	.LASF459
 3881 0e7d 1A02     		.2byte	0x21a
 3882 0e7f 0C       		.uleb128 0xc
ARM GAS  C:\Users\megan\AppData\Local\Temp\ccqJAT7j.s 			page 83


 3883 0e80 AA340000 		.4byte	.LASF460
 3884 0e84 1B02     		.2byte	0x21b
 3885 0e86 0C       		.uleb128 0xc
 3886 0e87 CE2B0000 		.4byte	.LASF461
 3887 0e8b 1C02     		.2byte	0x21c
 3888 0e8d 0C       		.uleb128 0xc
 3889 0e8e 02190000 		.4byte	.LASF462
 3890 0e92 1D02     		.2byte	0x21d
 3891 0e94 0C       		.uleb128 0xc
 3892 0e95 F6150000 		.4byte	.LASF463
 3893 0e99 1E02     		.2byte	0x21e
 3894 0e9b 0C       		.uleb128 0xc
 3895 0e9c BC220000 		.4byte	.LASF464
 3896 0ea0 1F02     		.2byte	0x21f
 3897 0ea2 0C       		.uleb128 0xc
 3898 0ea3 5E270000 		.4byte	.LASF465
 3899 0ea7 2002     		.2byte	0x220
 3900 0ea9 0C       		.uleb128 0xc
 3901 0eaa 9F1C0000 		.4byte	.LASF466
 3902 0eae 2102     		.2byte	0x221
 3903 0eb0 0C       		.uleb128 0xc
 3904 0eb1 25190000 		.4byte	.LASF467
 3905 0eb5 2202     		.2byte	0x222
 3906 0eb7 0C       		.uleb128 0xc
 3907 0eb8 010B0000 		.4byte	.LASF468
 3908 0ebc 00E0     		.2byte	0xe000
 3909 0ebe 00       		.byte	0
 3910 0ebf 0A       		.uleb128 0xa
 3911 0ec0 01       		.byte	0x1
 3912 0ec1 37000000 		.4byte	0x37
 3913 0ec5 09       		.byte	0x9
 3914 0ec6 5008     		.2byte	0x850
 3915 0ec8 F10E0000 		.4byte	0xef1
 3916 0ecc 0B       		.uleb128 0xb
 3917 0ecd 1A160000 		.4byte	.LASF469
 3918 0ed1 00       		.byte	0
 3919 0ed2 0B       		.uleb128 0xb
 3920 0ed3 EA340000 		.4byte	.LASF470
 3921 0ed7 01       		.byte	0x1
 3922 0ed8 0B       		.uleb128 0xb
 3923 0ed9 25100000 		.4byte	.LASF471
 3924 0edd 02       		.byte	0x2
 3925 0ede 0B       		.uleb128 0xb
 3926 0edf FD170000 		.4byte	.LASF472
 3927 0ee3 03       		.byte	0x3
 3928 0ee4 0B       		.uleb128 0xb
 3929 0ee5 A20C0000 		.4byte	.LASF473
 3930 0ee9 04       		.byte	0x4
 3931 0eea 0B       		.uleb128 0xb
 3932 0eeb 98190000 		.4byte	.LASF474
 3933 0eef 05       		.byte	0x5
 3934 0ef0 00       		.byte	0
 3935 0ef1 05       		.uleb128 0x5
 3936 0ef2 C21C0000 		.4byte	.LASF475
 3937 0ef6 09       		.byte	0x9
 3938 0ef7 5E08     		.2byte	0x85e
 3939 0ef9 BF0E0000 		.4byte	0xebf
ARM GAS  C:\Users\megan\AppData\Local\Temp\ccqJAT7j.s 			page 84


 3940 0efd 0A       		.uleb128 0xa
 3941 0efe 01       		.byte	0x1
 3942 0eff 37000000 		.4byte	0x37
 3943 0f03 09       		.byte	0x9
 3944 0f04 9308     		.2byte	0x893
 3945 0f06 290F0000 		.4byte	0xf29
 3946 0f0a 0B       		.uleb128 0xb
 3947 0f0b FC230000 		.4byte	.LASF476
 3948 0f0f 00       		.byte	0
 3949 0f10 0B       		.uleb128 0xb
 3950 0f11 851C0000 		.4byte	.LASF477
 3951 0f15 01       		.byte	0x1
 3952 0f16 0B       		.uleb128 0xb
 3953 0f17 3C1A0000 		.4byte	.LASF478
 3954 0f1b 02       		.byte	0x2
 3955 0f1c 0B       		.uleb128 0xb
 3956 0f1d 57080000 		.4byte	.LASF479
 3957 0f21 02       		.byte	0x2
 3958 0f22 0B       		.uleb128 0xb
 3959 0f23 DB2E0000 		.4byte	.LASF480
 3960 0f27 03       		.byte	0x3
 3961 0f28 00       		.byte	0
 3962 0f29 16       		.uleb128 0x16
 3963 0f2a 8C0D0000 		.4byte	.LASF491
 3964 0f2e 01       		.byte	0x1
 3965 0f2f 37000000 		.4byte	0x37
 3966 0f33 0A       		.byte	0xa
 3967 0f34 30       		.byte	0x30
 3968 0f35 460F0000 		.4byte	0xf46
 3969 0f39 0B       		.uleb128 0xb
 3970 0f3a 0B240000 		.4byte	.LASF481
 3971 0f3e 00       		.byte	0
 3972 0f3f 0B       		.uleb128 0xb
 3973 0f40 261E0000 		.4byte	.LASF482
 3974 0f44 01       		.byte	0x1
 3975 0f45 00       		.byte	0
 3976 0f46 10       		.uleb128 0x10
 3977 0f47 01       		.byte	0x1
 3978 0f48 37000000 		.4byte	0x37
 3979 0f4c 0A       		.byte	0xa
 3980 0f4d 44       		.byte	0x44
 3981 0f4e 5F0F0000 		.4byte	0xf5f
 3982 0f52 0B       		.uleb128 0xb
 3983 0f53 5D3A0000 		.4byte	.LASF483
 3984 0f57 00       		.byte	0
 3985 0f58 0B       		.uleb128 0xb
 3986 0f59 B7220000 		.4byte	.LASF484
 3987 0f5d 01       		.byte	0x1
 3988 0f5e 00       		.byte	0
 3989 0f5f 03       		.uleb128 0x3
 3990 0f60 CC050000 		.4byte	.LASF485
 3991 0f64 0A       		.byte	0xa
 3992 0f65 47       		.byte	0x47
 3993 0f66 460F0000 		.4byte	0xf46
 3994 0f6a 17       		.uleb128 0x17
 3995 0f6b 42696E00 		.ascii	"Bin\000"
 3996 0f6f 08       		.byte	0x8
ARM GAS  C:\Users\megan\AppData\Local\Temp\ccqJAT7j.s 			page 85


 3997 0f70 01       		.byte	0x1
 3998 0f71 12       		.byte	0x12
 3999 0f72 9B0F0000 		.4byte	0xf9b
 4000 0f76 15       		.uleb128 0x15
 4001 0f77 7F070000 		.4byte	.LASF486
 4002 0f7b 01       		.byte	0x1
 4003 0f7c 13       		.byte	0x13
 4004 0f7d C7000000 		.4byte	0xc7
 4005 0f81 00       		.byte	0
 4006 0f82 15       		.uleb128 0x15
 4007 0f83 74010000 		.4byte	.LASF487
 4008 0f87 01       		.byte	0x1
 4009 0f88 14       		.byte	0x14
 4010 0f89 81000000 		.4byte	0x81
 4011 0f8d 04       		.byte	0x4
 4012 0f8e 15       		.uleb128 0x15
 4013 0f8f F2090000 		.4byte	.LASF488
 4014 0f93 01       		.byte	0x1
 4015 0f94 15       		.byte	0x15
 4016 0f95 5F0F0000 		.4byte	0xf5f
 4017 0f99 05       		.byte	0x5
 4018 0f9a 00       		.byte	0
 4019 0f9b 18       		.uleb128 0x18
 4020 0f9c 42696E00 		.ascii	"Bin\000"
 4021 0fa0 01       		.byte	0x1
 4022 0fa1 16       		.byte	0x16
 4023 0fa2 6A0F0000 		.4byte	0xf6a
 4024 0fa6 19       		.uleb128 0x19
 4025 0fa7 C6090000 		.4byte	.LASF489
 4026 0fab 04       		.byte	0x4
 4027 0fac 01       		.byte	0x1
 4028 0fad 18       		.byte	0x18
 4029 0fae BF0F0000 		.4byte	0xfbf
 4030 0fb2 15       		.uleb128 0x15
 4031 0fb3 170C0000 		.4byte	.LASF490
 4032 0fb7 01       		.byte	0x1
 4033 0fb8 19       		.byte	0x19
 4034 0fb9 C7000000 		.4byte	0xc7
 4035 0fbd 00       		.byte	0
 4036 0fbe 00       		.byte	0
 4037 0fbf 16       		.uleb128 0x16
 4038 0fc0 B52E0000 		.4byte	.LASF492
 4039 0fc4 01       		.byte	0x1
 4040 0fc5 37000000 		.4byte	0x37
 4041 0fc9 01       		.byte	0x1
 4042 0fca 1C       		.byte	0x1c
 4043 0fcb DC0F0000 		.4byte	0xfdc
 4044 0fcf 0B       		.uleb128 0xb
 4045 0fd0 AD320000 		.4byte	.LASF493
 4046 0fd4 00       		.byte	0
 4047 0fd5 0B       		.uleb128 0xb
 4048 0fd6 3A0E0000 		.4byte	.LASF494
 4049 0fda 01       		.byte	0x1
 4050 0fdb 00       		.byte	0
 4051 0fdc 03       		.uleb128 0x3
 4052 0fdd B52E0000 		.4byte	.LASF492
 4053 0fe1 01       		.byte	0x1
ARM GAS  C:\Users\megan\AppData\Local\Temp\ccqJAT7j.s 			page 86


 4054 0fe2 1F       		.byte	0x1f
 4055 0fe3 BF0F0000 		.4byte	0xfbf
 4056 0fe7 19       		.uleb128 0x19
 4057 0fe8 A2220000 		.4byte	.LASF495
 4058 0fec 01       		.byte	0x1
 4059 0fed 01       		.byte	0x1
 4060 0fee 21       		.byte	0x21
 4061 0fef 00100000 		.4byte	0x1000
 4062 0ff3 15       		.uleb128 0x15
 4063 0ff4 590C0000 		.4byte	.LASF496
 4064 0ff8 01       		.byte	0x1
 4065 0ff9 22       		.byte	0x22
 4066 0ffa DC0F0000 		.4byte	0xfdc
 4067 0ffe 00       		.byte	0
 4068 0fff 00       		.byte	0
 4069 1000 1A       		.uleb128 0x1a
 4070 1001 8B3A0000 		.4byte	.LASF512
 4071 1005 01       		.byte	0x1
 4072 1006 40       		.byte	0x40
 4073 1007 73000000 		.4byte	0x73
 4074 100b 00000000 		.4byte	.LFB35
 4075 100f 30000000 		.4byte	.LFE35-.LFB35
 4076 1013 01       		.uleb128 0x1
 4077 1014 9C       		.byte	0x9c
 4078 1015 1B       		.uleb128 0x1b
 4079 1016 CB160000 		.4byte	.LASF535
 4080 101a 01       		.byte	0x1
 4081 101b 63       		.byte	0x63
 4082 101c 00000000 		.4byte	.LFB36
 4083 1020 D4020000 		.4byte	.LFE36-.LFB36
 4084 1024 01       		.uleb128 0x1
 4085 1025 9C       		.byte	0x9c
 4086 1026 41110000 		.4byte	0x1141
 4087 102a 1C       		.uleb128 0x1c
 4088 102b 04020000 		.4byte	.LASF497
 4089 102f 01       		.byte	0x1
 4090 1030 63       		.byte	0x63
 4091 1031 AF000000 		.4byte	0xaf
 4092 1035 03       		.uleb128 0x3
 4093 1036 91       		.byte	0x91
 4094 1037 FC7D     		.sleb128 -260
 4095 1039 1C       		.uleb128 0x1c
 4096 103a F2270000 		.4byte	.LASF498
 4097 103e 01       		.byte	0x1
 4098 103f 63       		.byte	0x63
 4099 1040 07010000 		.4byte	0x107
 4100 1044 03       		.uleb128 0x3
 4101 1045 91       		.byte	0x91
 4102 1046 F87D     		.sleb128 -264
 4103 1048 1D       		.uleb128 0x1d
 4104 1049 6F6B00   		.ascii	"ok\000"
 4105 104c 01       		.byte	0x1
 4106 104d 67       		.byte	0x67
 4107 104e 41110000 		.4byte	0x1141
 4108 1052 02       		.uleb128 0x2
 4109 1053 91       		.byte	0x91
 4110 1054 5C       		.sleb128 -36
ARM GAS  C:\Users\megan\AppData\Local\Temp\ccqJAT7j.s 			page 87


 4111 1055 1E       		.uleb128 0x1e
 4112 1056 19150000 		.4byte	.LASF499
 4113 105a 01       		.byte	0x1
 4114 105b 68       		.byte	0x68
 4115 105c 51110000 		.4byte	0x1151
 4116 1060 02       		.uleb128 0x2
 4117 1061 91       		.byte	0x91
 4118 1062 48       		.sleb128 -56
 4119 1063 1E       		.uleb128 0x1e
 4120 1064 CC150000 		.4byte	.LASF500
 4121 1068 01       		.byte	0x1
 4122 1069 69       		.byte	0x69
 4123 106a 61110000 		.4byte	0x1161
 4124 106e 03       		.uleb128 0x3
 4125 106f 91       		.byte	0x91
 4126 1070 B47F     		.sleb128 -76
 4127 1072 1E       		.uleb128 0x1e
 4128 1073 14220000 		.4byte	.LASF501
 4129 1077 01       		.byte	0x1
 4130 1078 6A       		.byte	0x6a
 4131 1079 71110000 		.4byte	0x1171
 4132 107d 03       		.uleb128 0x3
 4133 107e 91       		.byte	0x91
 4134 107f A07F     		.sleb128 -96
 4135 1081 1E       		.uleb128 0x1e
 4136 1082 4F1A0000 		.4byte	.LASF502
 4137 1086 01       		.byte	0x1
 4138 1087 6B       		.byte	0x6b
 4139 1088 81110000 		.4byte	0x1181
 4140 108c 03       		.uleb128 0x3
 4141 108d 91       		.byte	0x91
 4142 108e 907F     		.sleb128 -112
 4143 1090 1E       		.uleb128 0x1e
 4144 1091 25000000 		.4byte	.LASF503
 4145 1095 01       		.byte	0x1
 4146 1096 6C       		.byte	0x6c
 4147 1097 91110000 		.4byte	0x1191
 4148 109b 03       		.uleb128 0x3
 4149 109c 91       		.byte	0x91
 4150 109d 807F     		.sleb128 -128
 4151 109f 1E       		.uleb128 0x1e
 4152 10a0 BC150000 		.4byte	.LASF504
 4153 10a4 01       		.byte	0x1
 4154 10a5 6D       		.byte	0x6d
 4155 10a6 A1110000 		.4byte	0x11a1
 4156 10aa 03       		.uleb128 0x3
 4157 10ab 91       		.byte	0x91
 4158 10ac FC7E     		.sleb128 -132
 4159 10ae 1E       		.uleb128 0x1e
 4160 10af 0D070000 		.4byte	.LASF505
 4161 10b3 01       		.byte	0x1
 4162 10b4 6E       		.byte	0x6e
 4163 10b5 B1110000 		.4byte	0x11b1
 4164 10b9 03       		.uleb128 0x3
 4165 10ba 91       		.byte	0x91
 4166 10bb E47E     		.sleb128 -156
 4167 10bd 1E       		.uleb128 0x1e
ARM GAS  C:\Users\megan\AppData\Local\Temp\ccqJAT7j.s 			page 88


 4168 10be 941E0000 		.4byte	.LASF506
 4169 10c2 01       		.byte	0x1
 4170 10c3 70       		.byte	0x70
 4171 10c4 A1040000 		.4byte	0x4a1
 4172 10c8 03       		.uleb128 0x3
 4173 10c9 91       		.byte	0x91
 4174 10ca D07E     		.sleb128 -176
 4175 10cc 1E       		.uleb128 0x1e
 4176 10cd A2140000 		.4byte	.LASF507
 4177 10d1 01       		.byte	0x1
 4178 10d2 71       		.byte	0x71
 4179 10d3 10060000 		.4byte	0x610
 4180 10d7 03       		.uleb128 0x3
 4181 10d8 91       		.byte	0x91
 4182 10d9 B87E     		.sleb128 -200
 4183 10db 1E       		.uleb128 0x1e
 4184 10dc E0270000 		.4byte	.LASF508
 4185 10e0 01       		.byte	0x1
 4186 10e1 72       		.byte	0x72
 4187 10e2 AB060000 		.4byte	0x6ab
 4188 10e6 03       		.uleb128 0x3
 4189 10e7 91       		.byte	0x91
 4190 10e8 AC7E     		.sleb128 -212
 4191 10ea 1E       		.uleb128 0x1e
 4192 10eb 80270000 		.4byte	.LASF509
 4193 10ef 01       		.byte	0x1
 4194 10f0 73       		.byte	0x73
 4195 10f1 3C060000 		.4byte	0x63c
 4196 10f5 03       		.uleb128 0x3
 4197 10f6 91       		.byte	0x91
 4198 10f7 9C7E     		.sleb128 -228
 4199 10f9 1E       		.uleb128 0x1e
 4200 10fa F7070000 		.4byte	.LASF163
 4201 10fe 01       		.byte	0x1
 4202 10ff 74       		.byte	0x74
 4203 1100 D7050000 		.4byte	0x5d7
 4204 1104 03       		.uleb128 0x3
 4205 1105 91       		.byte	0x91
 4206 1106 987E     		.sleb128 -232
 4207 1108 1E       		.uleb128 0x1e
 4208 1109 860A0000 		.4byte	.LASF164
 4209 110d 01       		.byte	0x1
 4210 110e 75       		.byte	0x75
 4211 110f FE040000 		.4byte	0x4fe
 4212 1113 03       		.uleb128 0x3
 4213 1114 91       		.byte	0x91
 4214 1115 887E     		.sleb128 -248
 4215 1117 1E       		.uleb128 0x1e
 4216 1118 76160000 		.4byte	.LASF510
 4217 111c 01       		.byte	0x1
 4218 111d 76       		.byte	0x76
 4219 111e B0030000 		.4byte	0x3b0
 4220 1122 02       		.uleb128 0x2
 4221 1123 91       		.byte	0x91
 4222 1124 6C       		.sleb128 -20
 4223 1125 1D       		.uleb128 0x1d
 4224 1126 6900     		.ascii	"i\000"
ARM GAS  C:\Users\megan\AppData\Local\Temp\ccqJAT7j.s 			page 89


 4225 1128 01       		.byte	0x1
 4226 1129 78       		.byte	0x78
 4227 112a 97000000 		.4byte	0x97
 4228 112e 02       		.uleb128 0x2
 4229 112f 91       		.byte	0x91
 4230 1130 6F       		.sleb128 -17
 4231 1131 1E       		.uleb128 0x1e
 4232 1132 232A0000 		.4byte	.LASF511
 4233 1136 01       		.byte	0x1
 4234 1137 79       		.byte	0x79
 4235 1138 C1110000 		.4byte	0x11c1
 4236 113c 03       		.uleb128 0x3
 4237 113d 91       		.byte	0x91
 4238 113e 847E     		.sleb128 -252
 4239 1140 00       		.byte	0
 4240 1141 08       		.uleb128 0x8
 4241 1142 E1000000 		.4byte	0xe1
 4242 1146 51110000 		.4byte	0x1151
 4243 114a 09       		.uleb128 0x9
 4244 114b 00010000 		.4byte	0x100
 4245 114f 0E       		.byte	0xe
 4246 1150 00       		.byte	0
 4247 1151 08       		.uleb128 0x8
 4248 1152 E1000000 		.4byte	0xe1
 4249 1156 61110000 		.4byte	0x1161
 4250 115a 09       		.uleb128 0x9
 4251 115b 00010000 		.4byte	0x100
 4252 115f 13       		.byte	0x13
 4253 1160 00       		.byte	0
 4254 1161 08       		.uleb128 0x8
 4255 1162 E1000000 		.4byte	0xe1
 4256 1166 71110000 		.4byte	0x1171
 4257 116a 09       		.uleb128 0x9
 4258 116b 00010000 		.4byte	0x100
 4259 116f 10       		.byte	0x10
 4260 1170 00       		.byte	0
 4261 1171 08       		.uleb128 0x8
 4262 1172 E1000000 		.4byte	0xe1
 4263 1176 81110000 		.4byte	0x1181
 4264 117a 09       		.uleb128 0x9
 4265 117b 00010000 		.4byte	0x100
 4266 117f 11       		.byte	0x11
 4267 1180 00       		.byte	0
 4268 1181 08       		.uleb128 0x8
 4269 1182 E1000000 		.4byte	0xe1
 4270 1186 91110000 		.4byte	0x1191
 4271 118a 09       		.uleb128 0x9
 4272 118b 00010000 		.4byte	0x100
 4273 118f 0F       		.byte	0xf
 4274 1190 00       		.byte	0
 4275 1191 08       		.uleb128 0x8
 4276 1192 E1000000 		.4byte	0xe1
 4277 1196 A1110000 		.4byte	0x11a1
 4278 119a 09       		.uleb128 0x9
 4279 119b 00010000 		.4byte	0x100
 4280 119f 0D       		.byte	0xd
 4281 11a0 00       		.byte	0
ARM GAS  C:\Users\megan\AppData\Local\Temp\ccqJAT7j.s 			page 90


 4282 11a1 08       		.uleb128 0x8
 4283 11a2 E1000000 		.4byte	0xe1
 4284 11a6 B1110000 		.4byte	0x11b1
 4285 11aa 09       		.uleb128 0x9
 4286 11ab 00010000 		.4byte	0x100
 4287 11af 01       		.byte	0x1
 4288 11b0 00       		.byte	0
 4289 11b1 08       		.uleb128 0x8
 4290 11b2 E1000000 		.4byte	0xe1
 4291 11b6 C1110000 		.4byte	0x11c1
 4292 11ba 09       		.uleb128 0x9
 4293 11bb 00010000 		.4byte	0x100
 4294 11bf 15       		.byte	0x15
 4295 11c0 00       		.byte	0
 4296 11c1 08       		.uleb128 0x8
 4297 11c2 81000000 		.4byte	0x81
 4298 11c6 D1110000 		.4byte	0x11d1
 4299 11ca 09       		.uleb128 0x9
 4300 11cb 00010000 		.4byte	0x100
 4301 11cf 03       		.byte	0x3
 4302 11d0 00       		.byte	0
 4303 11d1 1F       		.uleb128 0x1f
 4304 11d2 01200000 		.4byte	.LASF513
 4305 11d6 01       		.byte	0x1
 4306 11d7 F2       		.byte	0xf2
 4307 11d8 00000000 		.4byte	.LFB37
 4308 11dc 3A000000 		.4byte	.LFE37-.LFB37
 4309 11e0 01       		.uleb128 0x1
 4310 11e1 9C       		.byte	0x9c
 4311 11e2 20       		.uleb128 0x20
 4312 11e3 BB0F0000 		.4byte	.LASF518
 4313 11e7 01       		.byte	0x1
 4314 11e8 0401     		.2byte	0x104
 4315 11ea 00000000 		.4byte	.LFB38
 4316 11ee 00010000 		.4byte	.LFE38-.LFB38
 4317 11f2 01       		.uleb128 0x1
 4318 11f3 9C       		.byte	0x9c
 4319 11f4 45120000 		.4byte	0x1245
 4320 11f8 21       		.uleb128 0x21
 4321 11f9 54310000 		.4byte	.LASF514
 4322 11fd 01       		.byte	0x1
 4323 11fe 0801     		.2byte	0x108
 4324 1200 45120000 		.4byte	0x1245
 4325 1204 02       		.uleb128 0x2
 4326 1205 91       		.byte	0x91
 4327 1206 60       		.sleb128 -32
 4328 1207 21       		.uleb128 0x21
 4329 1208 5D310000 		.4byte	.LASF515
 4330 120c 01       		.byte	0x1
 4331 120d 0901     		.2byte	0x109
 4332 120f 55120000 		.4byte	0x1255
 4333 1213 02       		.uleb128 0x2
 4334 1214 91       		.byte	0x91
 4335 1215 54       		.sleb128 -44
 4336 1216 21       		.uleb128 0x21
 4337 1217 66310000 		.4byte	.LASF516
 4338 121b 01       		.byte	0x1
ARM GAS  C:\Users\megan\AppData\Local\Temp\ccqJAT7j.s 			page 91


 4339 121c 0A01     		.2byte	0x10a
 4340 121e 55120000 		.4byte	0x1255
 4341 1222 02       		.uleb128 0x2
 4342 1223 91       		.byte	0x91
 4343 1224 48       		.sleb128 -56
 4344 1225 22       		.uleb128 0x22
 4345 1226 626C6500 		.ascii	"ble\000"
 4346 122a 01       		.byte	0x1
 4347 122b 0B01     		.2byte	0x10b
 4348 122d 65120000 		.4byte	0x1265
 4349 1231 03       		.uleb128 0x3
 4350 1232 91       		.byte	0x91
 4351 1233 BC7F     		.sleb128 -68
 4352 1235 21       		.uleb128 0x21
 4353 1236 902C0000 		.4byte	.LASF517
 4354 123a 01       		.byte	0x1
 4355 123b 0D01     		.2byte	0x10d
 4356 123d A3000000 		.4byte	0xa3
 4357 1241 02       		.uleb128 0x2
 4358 1242 91       		.byte	0x91
 4359 1243 6E       		.sleb128 -18
 4360 1244 00       		.byte	0
 4361 1245 08       		.uleb128 0x8
 4362 1246 E1000000 		.4byte	0xe1
 4363 124a 55120000 		.4byte	0x1255
 4364 124e 09       		.uleb128 0x9
 4365 124f 00010000 		.4byte	0x100
 4366 1253 0A       		.byte	0xa
 4367 1254 00       		.byte	0
 4368 1255 08       		.uleb128 0x8
 4369 1256 E1000000 		.4byte	0xe1
 4370 125a 65120000 		.4byte	0x1265
 4371 125e 09       		.uleb128 0x9
 4372 125f 00010000 		.4byte	0x100
 4373 1263 09       		.byte	0x9
 4374 1264 00       		.byte	0
 4375 1265 08       		.uleb128 0x8
 4376 1266 E1000000 		.4byte	0xe1
 4377 126a 75120000 		.4byte	0x1275
 4378 126e 09       		.uleb128 0x9
 4379 126f 00010000 		.4byte	0x100
 4380 1273 0B       		.byte	0xb
 4381 1274 00       		.byte	0
 4382 1275 20       		.uleb128 0x20
 4383 1276 892E0000 		.4byte	.LASF519
 4384 127a 01       		.byte	0x1
 4385 127b 5501     		.2byte	0x155
 4386 127d 00000000 		.4byte	.LFB39
 4387 1281 DC000000 		.4byte	.LFE39-.LFB39
 4388 1285 01       		.uleb128 0x1
 4389 1286 9C       		.byte	0x9c
 4390 1287 D5120000 		.4byte	0x12d5
 4391 128b 22       		.uleb128 0x22
 4392 128c 747800   		.ascii	"tx\000"
 4393 128f 01       		.byte	0x1
 4394 1290 5701     		.2byte	0x157
 4395 1292 8C000000 		.4byte	0x8c
ARM GAS  C:\Users\megan\AppData\Local\Temp\ccqJAT7j.s 			page 92


 4396 1296 02       		.uleb128 0x2
 4397 1297 91       		.byte	0x91
 4398 1298 62       		.sleb128 -30
 4399 1299 22       		.uleb128 0x22
 4400 129a 747900   		.ascii	"ty\000"
 4401 129d 01       		.byte	0x1
 4402 129e 5801     		.2byte	0x158
 4403 12a0 8C000000 		.4byte	0x8c
 4404 12a4 02       		.uleb128 0x2
 4405 12a5 91       		.byte	0x91
 4406 12a6 60       		.sleb128 -32
 4407 12a7 21       		.uleb128 0x21
 4408 12a8 6C190000 		.4byte	.LASF520
 4409 12ac 01       		.byte	0x1
 4410 12ad 5901     		.2byte	0x159
 4411 12af 5F0F0000 		.4byte	0xf5f
 4412 12b3 02       		.uleb128 0x2
 4413 12b4 91       		.byte	0x91
 4414 12b5 6F       		.sleb128 -17
 4415 12b6 21       		.uleb128 0x21
 4416 12b7 E63B0000 		.4byte	.LASF521
 4417 12bb 01       		.byte	0x1
 4418 12bc 5B01     		.2byte	0x15b
 4419 12be D3000000 		.4byte	0xd3
 4420 12c2 02       		.uleb128 0x2
 4421 12c3 91       		.byte	0x91
 4422 12c4 68       		.sleb128 -24
 4423 12c5 21       		.uleb128 0x21
 4424 12c6 A9280000 		.4byte	.LASF522
 4425 12ca 01       		.byte	0x1
 4426 12cb 5C01     		.2byte	0x15c
 4427 12cd D3000000 		.4byte	0xd3
 4428 12d1 02       		.uleb128 0x2
 4429 12d2 91       		.byte	0x91
 4430 12d3 64       		.sleb128 -28
 4431 12d4 00       		.byte	0
 4432 12d5 20       		.uleb128 0x20
 4433 12d6 371F0000 		.4byte	.LASF523
 4434 12da 01       		.byte	0x1
 4435 12db 8201     		.2byte	0x182
 4436 12dd 00000000 		.4byte	.LFB40
 4437 12e1 7C010000 		.4byte	.LFE40-.LFB40
 4438 12e5 01       		.uleb128 0x1
 4439 12e6 9C       		.byte	0x9c
 4440 12e7 41130000 		.4byte	0x1341
 4441 12eb 21       		.uleb128 0x21
 4442 12ec 54310000 		.4byte	.LASF514
 4443 12f0 01       		.byte	0x1
 4444 12f1 8601     		.2byte	0x186
 4445 12f3 61110000 		.4byte	0x1161
 4446 12f7 02       		.uleb128 0x2
 4447 12f8 91       		.byte	0x91
 4448 12f9 58       		.sleb128 -40
 4449 12fa 21       		.uleb128 0x21
 4450 12fb 5D310000 		.4byte	.LASF515
 4451 12ff 01       		.byte	0x1
 4452 1300 8701     		.2byte	0x187
ARM GAS  C:\Users\megan\AppData\Local\Temp\ccqJAT7j.s 			page 93


 4453 1302 41110000 		.4byte	0x1141
 4454 1306 02       		.uleb128 0x2
 4455 1307 91       		.byte	0x91
 4456 1308 48       		.sleb128 -56
 4457 1309 21       		.uleb128 0x21
 4458 130a 66310000 		.4byte	.LASF516
 4459 130e 01       		.byte	0x1
 4460 130f 8801     		.2byte	0x188
 4461 1311 41130000 		.4byte	0x1341
 4462 1315 03       		.uleb128 0x3
 4463 1316 91       		.byte	0x91
 4464 1317 A87F     		.sleb128 -88
 4465 1319 21       		.uleb128 0x21
 4466 131a 6F310000 		.4byte	.LASF524
 4467 131e 01       		.byte	0x1
 4468 131f 8901     		.2byte	0x189
 4469 1321 51130000 		.4byte	0x1351
 4470 1325 03       		.uleb128 0x3
 4471 1326 91       		.byte	0x91
 4472 1327 A47F     		.sleb128 -92
 4473 1329 23       		.uleb128 0x23
 4474 132a 5E000000 		.4byte	.LBB2
 4475 132e 22000000 		.4byte	.LBE2-.LBB2
 4476 1332 22       		.uleb128 0x22
 4477 1333 6900     		.ascii	"i\000"
 4478 1335 01       		.byte	0x1
 4479 1336 9001     		.2byte	0x190
 4480 1338 73000000 		.4byte	0x73
 4481 133c 02       		.uleb128 0x2
 4482 133d 91       		.byte	0x91
 4483 133e 6C       		.sleb128 -20
 4484 133f 00       		.byte	0
 4485 1340 00       		.byte	0
 4486 1341 08       		.uleb128 0x8
 4487 1342 E1000000 		.4byte	0xe1
 4488 1346 51130000 		.4byte	0x1351
 4489 134a 09       		.uleb128 0x9
 4490 134b 00010000 		.4byte	0x100
 4491 134f 1E       		.byte	0x1e
 4492 1350 00       		.byte	0
 4493 1351 08       		.uleb128 0x8
 4494 1352 E1000000 		.4byte	0xe1
 4495 1356 61130000 		.4byte	0x1361
 4496 135a 09       		.uleb128 0x9
 4497 135b 00010000 		.4byte	0x100
 4498 135f 02       		.byte	0x2
 4499 1360 00       		.byte	0
 4500 1361 20       		.uleb128 0x20
 4501 1362 213B0000 		.4byte	.LASF525
 4502 1366 01       		.byte	0x1
 4503 1367 AF01     		.2byte	0x1af
 4504 1369 00000000 		.4byte	.LFB41
 4505 136d D0020000 		.4byte	.LFE41-.LFB41
 4506 1371 01       		.uleb128 0x1
 4507 1372 9C       		.byte	0x9c
 4508 1373 E4130000 		.4byte	0x13e4
 4509 1377 21       		.uleb128 0x21
ARM GAS  C:\Users\megan\AppData\Local\Temp\ccqJAT7j.s 			page 94


 4510 1378 84050000 		.4byte	.LASF526
 4511 137c 01       		.byte	0x1
 4512 137d B301     		.2byte	0x1b3
 4513 137f E4130000 		.4byte	0x13e4
 4514 1383 02       		.uleb128 0x2
 4515 1384 91       		.byte	0x91
 4516 1385 48       		.sleb128 -56
 4517 1386 21       		.uleb128 0x21
 4518 1387 25050000 		.4byte	.LASF527
 4519 138b 01       		.byte	0x1
 4520 138c B401     		.2byte	0x1b4
 4521 138e F4130000 		.4byte	0x13f4
 4522 1392 02       		.uleb128 0x2
 4523 1393 91       		.byte	0x91
 4524 1394 40       		.sleb128 -64
 4525 1395 21       		.uleb128 0x21
 4526 1396 D30C0000 		.4byte	.LASF528
 4527 139a 01       		.byte	0x1
 4528 139b B501     		.2byte	0x1b5
 4529 139d 04140000 		.4byte	0x1404
 4530 13a1 03       		.uleb128 0x3
 4531 13a2 91       		.byte	0x91
 4532 13a3 B87F     		.sleb128 -72
 4533 13a5 21       		.uleb128 0x21
 4534 13a6 E6330000 		.4byte	.LASF529
 4535 13aa 01       		.byte	0x1
 4536 13ab B601     		.2byte	0x1b6
 4537 13ad 09010000 		.4byte	0x109
 4538 13b1 03       		.uleb128 0x3
 4539 13b2 91       		.byte	0x91
 4540 13b3 B07F     		.sleb128 -80
 4541 13b5 21       		.uleb128 0x21
 4542 13b6 652C0000 		.4byte	.LASF530
 4543 13ba 01       		.byte	0x1
 4544 13bb B701     		.2byte	0x1b7
 4545 13bd 14140000 		.4byte	0x1414
 4546 13c1 03       		.uleb128 0x3
 4547 13c2 91       		.byte	0x91
 4548 13c3 A87F     		.sleb128 -88
 4549 13c5 21       		.uleb128 0x21
 4550 13c6 951C0000 		.4byte	.LASF531
 4551 13ca 01       		.byte	0x1
 4552 13cb B901     		.2byte	0x1b9
 4553 13cd 73000000 		.4byte	0x73
 4554 13d1 02       		.uleb128 0x2
 4555 13d2 91       		.byte	0x91
 4556 13d3 6C       		.sleb128 -20
 4557 13d4 21       		.uleb128 0x21
 4558 13d5 02170000 		.4byte	.LASF532
 4559 13d9 01       		.byte	0x1
 4560 13da BA01     		.2byte	0x1ba
 4561 13dc 73000000 		.4byte	0x73
 4562 13e0 02       		.uleb128 0x2
 4563 13e1 91       		.byte	0x91
 4564 13e2 68       		.sleb128 -24
 4565 13e3 00       		.byte	0
 4566 13e4 08       		.uleb128 0x8
ARM GAS  C:\Users\megan\AppData\Local\Temp\ccqJAT7j.s 			page 95


 4567 13e5 E1000000 		.4byte	0xe1
 4568 13e9 F4130000 		.4byte	0x13f4
 4569 13ed 09       		.uleb128 0x9
 4570 13ee 00010000 		.4byte	0x100
 4571 13f2 1F       		.byte	0x1f
 4572 13f3 00       		.byte	0
 4573 13f4 08       		.uleb128 0x8
 4574 13f5 E1000000 		.4byte	0xe1
 4575 13f9 04140000 		.4byte	0x1404
 4576 13fd 09       		.uleb128 0x9
 4577 13fe 00010000 		.4byte	0x100
 4578 1402 05       		.byte	0x5
 4579 1403 00       		.byte	0
 4580 1404 08       		.uleb128 0x8
 4581 1405 E1000000 		.4byte	0xe1
 4582 1409 14140000 		.4byte	0x1414
 4583 140d 09       		.uleb128 0x9
 4584 140e 00010000 		.4byte	0x100
 4585 1412 04       		.byte	0x4
 4586 1413 00       		.byte	0
 4587 1414 08       		.uleb128 0x8
 4588 1415 E1000000 		.4byte	0xe1
 4589 1419 24140000 		.4byte	0x1424
 4590 141d 09       		.uleb128 0x9
 4591 141e 00010000 		.4byte	0x100
 4592 1422 06       		.byte	0x6
 4593 1423 00       		.byte	0
 4594 1424 20       		.uleb128 0x20
 4595 1425 4C300000 		.4byte	.LASF533
 4596 1429 01       		.byte	0x1
 4597 142a F801     		.2byte	0x1f8
 4598 142c 00000000 		.4byte	.LFB42
 4599 1430 58000000 		.4byte	.LFE42-.LFB42
 4600 1434 01       		.uleb128 0x1
 4601 1435 9C       		.byte	0x9c
 4602 1436 4A140000 		.4byte	0x144a
 4603 143a 21       		.uleb128 0x21
 4604 143b 951C0000 		.4byte	.LASF531
 4605 143f 01       		.byte	0x1
 4606 1440 FA01     		.2byte	0x1fa
 4607 1442 73000000 		.4byte	0x73
 4608 1446 02       		.uleb128 0x2
 4609 1447 91       		.byte	0x91
 4610 1448 74       		.sleb128 -12
 4611 1449 00       		.byte	0
 4612 144a 20       		.uleb128 0x20
 4613 144b 1F210000 		.4byte	.LASF534
 4614 144f 01       		.byte	0x1
 4615 1450 0202     		.2byte	0x202
 4616 1452 00000000 		.4byte	.LFB43
 4617 1456 60000000 		.4byte	.LFE43-.LFB43
 4618 145a 01       		.uleb128 0x1
 4619 145b 9C       		.byte	0x9c
 4620 145c 87140000 		.4byte	0x1487
 4621 1460 21       		.uleb128 0x21
 4622 1461 170C0000 		.4byte	.LASF490
 4623 1465 01       		.byte	0x1
ARM GAS  C:\Users\megan\AppData\Local\Temp\ccqJAT7j.s 			page 96


 4624 1466 0602     		.2byte	0x206
 4625 1468 87140000 		.4byte	0x1487
 4626 146c 02       		.uleb128 0x2
 4627 146d 91       		.byte	0x91
 4628 146e 70       		.sleb128 -16
 4629 146f 23       		.uleb128 0x23
 4630 1470 1A000000 		.4byte	.LBB3
 4631 1474 22000000 		.4byte	.LBE3-.LBB3
 4632 1478 22       		.uleb128 0x22
 4633 1479 6900     		.ascii	"i\000"
 4634 147b 01       		.byte	0x1
 4635 147c 0D02     		.2byte	0x20d
 4636 147e 73000000 		.4byte	0x73
 4637 1482 02       		.uleb128 0x2
 4638 1483 91       		.byte	0x91
 4639 1484 74       		.sleb128 -12
 4640 1485 00       		.byte	0
 4641 1486 00       		.byte	0
 4642 1487 08       		.uleb128 0x8
 4643 1488 E1000000 		.4byte	0xe1
 4644 148c 97140000 		.4byte	0x1497
 4645 1490 09       		.uleb128 0x9
 4646 1491 00010000 		.4byte	0x100
 4647 1495 03       		.byte	0x3
 4648 1496 00       		.byte	0
 4649 1497 24       		.uleb128 0x24
 4650 1498 6F210000 		.4byte	.LASF536
 4651 149c 01       		.byte	0x1
 4652 149d 1A02     		.2byte	0x21a
 4653 149f 00000000 		.4byte	.LFB44
 4654 14a3 26000000 		.4byte	.LFE44-.LFB44
 4655 14a7 01       		.uleb128 0x1
 4656 14a8 9C       		.byte	0x9c
 4657 14a9 DB140000 		.4byte	0x14db
 4658 14ad 25       		.uleb128 0x25
 4659 14ae 62696E00 		.ascii	"bin\000"
 4660 14b2 01       		.byte	0x1
 4661 14b3 1A02     		.2byte	0x21a
 4662 14b5 DB140000 		.4byte	0x14db
 4663 14b9 02       		.uleb128 0x2
 4664 14ba 91       		.byte	0x91
 4665 14bb 6C       		.sleb128 -20
 4666 14bc 26       		.uleb128 0x26
 4667 14bd 232A0000 		.4byte	.LASF511
 4668 14c1 01       		.byte	0x1
 4669 14c2 1A02     		.2byte	0x21a
 4670 14c4 E1140000 		.4byte	0x14e1
 4671 14c8 02       		.uleb128 0x2
 4672 14c9 91       		.byte	0x91
 4673 14ca 68       		.sleb128 -24
 4674 14cb 21       		.uleb128 0x21
 4675 14cc BC150000 		.4byte	.LASF504
 4676 14d0 01       		.byte	0x1
 4677 14d1 1C02     		.2byte	0x21c
 4678 14d3 A1110000 		.4byte	0x11a1
 4679 14d7 02       		.uleb128 0x2
 4680 14d8 91       		.byte	0x91
ARM GAS  C:\Users\megan\AppData\Local\Temp\ccqJAT7j.s 			page 97


 4681 14d9 74       		.sleb128 -12
 4682 14da 00       		.byte	0
 4683 14db 0F       		.uleb128 0xf
 4684 14dc 04       		.byte	0x4
 4685 14dd 9B0F0000 		.4byte	0xf9b
 4686 14e1 0F       		.uleb128 0xf
 4687 14e2 04       		.byte	0x4
 4688 14e3 81000000 		.4byte	0x81
 4689 14e7 24       		.uleb128 0x24
 4690 14e8 99060000 		.4byte	.LASF537
 4691 14ec 01       		.byte	0x1
 4692 14ed 2802     		.2byte	0x228
 4693 14ef 00000000 		.4byte	.LFB45
 4694 14f3 78000000 		.4byte	.LFE45-.LFB45
 4695 14f7 01       		.uleb128 0x1
 4696 14f8 9C       		.byte	0x9c
 4697 14f9 25150000 		.4byte	0x1525
 4698 14fd 25       		.uleb128 0x25
 4699 14fe 6E00     		.ascii	"n\000"
 4700 1500 01       		.byte	0x1
 4701 1501 2802     		.2byte	0x228
 4702 1503 81000000 		.4byte	0x81
 4703 1507 02       		.uleb128 0x2
 4704 1508 91       		.byte	0x91
 4705 1509 67       		.sleb128 -25
 4706 150a 22       		.uleb128 0x22
 4707 150b 6400     		.ascii	"d\000"
 4708 150d 01       		.byte	0x1
 4709 150e 2A02     		.2byte	0x22a
 4710 1510 81000000 		.4byte	0x81
 4711 1514 02       		.uleb128 0x2
 4712 1515 91       		.byte	0x91
 4713 1516 6F       		.sleb128 -17
 4714 1517 22       		.uleb128 0x22
 4715 1518 7000     		.ascii	"p\000"
 4716 151a 01       		.byte	0x1
 4717 151b 2B02     		.2byte	0x22b
 4718 151d A1110000 		.4byte	0x11a1
 4719 1521 02       		.uleb128 0x2
 4720 1522 91       		.byte	0x91
 4721 1523 6C       		.sleb128 -20
 4722 1524 00       		.byte	0
 4723 1525 24       		.uleb128 0x24
 4724 1526 5A2C0000 		.4byte	.LASF538
 4725 152a 01       		.byte	0x1
 4726 152b 3C02     		.2byte	0x23c
 4727 152d 00000000 		.4byte	.LFB46
 4728 1531 A8000000 		.4byte	.LFE46-.LFB46
 4729 1535 01       		.uleb128 0x1
 4730 1536 9C       		.byte	0x9c
 4731 1537 85150000 		.4byte	0x1585
 4732 153b 25       		.uleb128 0x25
 4733 153c 6E00     		.ascii	"n\000"
 4734 153e 01       		.byte	0x1
 4735 153f 3C02     		.2byte	0x23c
 4736 1541 D3000000 		.4byte	0xd3
 4737 1545 02       		.uleb128 0x2
ARM GAS  C:\Users\megan\AppData\Local\Temp\ccqJAT7j.s 			page 98


 4738 1546 91       		.byte	0x91
 4739 1547 64       		.sleb128 -28
 4740 1548 21       		.uleb128 0x21
 4741 1549 D4040000 		.4byte	.LASF539
 4742 154d 01       		.byte	0x1
 4743 154e 3E02     		.2byte	0x23e
 4744 1550 A1110000 		.4byte	0x11a1
 4745 1554 02       		.uleb128 0x2
 4746 1555 91       		.byte	0x91
 4747 1556 6C       		.sleb128 -20
 4748 1557 22       		.uleb128 0x22
 4749 1558 646F7400 		.ascii	"dot\000"
 4750 155c 01       		.byte	0x1
 4751 155d 3F02     		.2byte	0x23f
 4752 155f A1110000 		.4byte	0x11a1
 4753 1563 02       		.uleb128 0x2
 4754 1564 91       		.byte	0x91
 4755 1565 68       		.sleb128 -24
 4756 1566 21       		.uleb128 0x21
 4757 1567 55020000 		.4byte	.LASF540
 4758 156b 01       		.byte	0x1
 4759 156c 4302     		.2byte	0x243
 4760 156e 73000000 		.4byte	0x73
 4761 1572 02       		.uleb128 0x2
 4762 1573 91       		.byte	0x91
 4763 1574 74       		.sleb128 -12
 4764 1575 21       		.uleb128 0x21
 4765 1576 F7050000 		.4byte	.LASF541
 4766 157a 01       		.byte	0x1
 4767 157b 4602     		.2byte	0x246
 4768 157d D3000000 		.4byte	0xd3
 4769 1581 02       		.uleb128 0x2
 4770 1582 91       		.byte	0x91
 4771 1583 70       		.sleb128 -16
 4772 1584 00       		.byte	0
 4773 1585 20       		.uleb128 0x20
 4774 1586 AB220000 		.4byte	.LASF542
 4775 158a 01       		.byte	0x1
 4776 158b 5902     		.2byte	0x259
 4777 158d 00000000 		.4byte	.LFB47
 4778 1591 40000000 		.4byte	.LFE47-.LFB47
 4779 1595 01       		.uleb128 0x1
 4780 1596 9C       		.byte	0x9c
 4781 1597 BA150000 		.4byte	0x15ba
 4782 159b 21       		.uleb128 0x21
 4783 159c 93180000 		.4byte	.LASF543
 4784 15a0 01       		.byte	0x1
 4785 15a1 5A02     		.2byte	0x25a
 4786 15a3 AF000000 		.4byte	0xaf
 4787 15a7 02       		.uleb128 0x2
 4788 15a8 91       		.byte	0x91
 4789 15a9 74       		.sleb128 -12
 4790 15aa 21       		.uleb128 0x21
 4791 15ab 110F0000 		.4byte	.LASF544
 4792 15af 01       		.byte	0x1
 4793 15b0 5B02     		.2byte	0x25b
 4794 15b2 AF000000 		.4byte	0xaf
ARM GAS  C:\Users\megan\AppData\Local\Temp\ccqJAT7j.s 			page 99


 4795 15b6 02       		.uleb128 0x2
 4796 15b7 91       		.byte	0x91
 4797 15b8 70       		.sleb128 -16
 4798 15b9 00       		.byte	0
 4799 15ba 20       		.uleb128 0x20
 4800 15bb 651F0000 		.4byte	.LASF545
 4801 15bf 01       		.byte	0x1
 4802 15c0 6902     		.2byte	0x269
 4803 15c2 00000000 		.4byte	.LFB48
 4804 15c6 C4000000 		.4byte	.LFE48-.LFB48
 4805 15ca 01       		.uleb128 0x1
 4806 15cb 9C       		.byte	0x9c
 4807 15cc 48160000 		.4byte	0x1648
 4808 15d0 27       		.uleb128 0x27
 4809 15d1 76160000 		.4byte	.LASF510
 4810 15d5 01       		.byte	0x1
 4811 15d6 6D02     		.2byte	0x26d
 4812 15d8 B0030000 		.4byte	0x3b0
 4813 15dc 21       		.uleb128 0x21
 4814 15dd F7070000 		.4byte	.LASF163
 4815 15e1 01       		.byte	0x1
 4816 15e2 6E02     		.2byte	0x26e
 4817 15e4 D7050000 		.4byte	0x5d7
 4818 15e8 02       		.uleb128 0x2
 4819 15e9 91       		.byte	0x91
 4820 15ea 64       		.sleb128 -28
 4821 15eb 21       		.uleb128 0x21
 4822 15ec 860A0000 		.4byte	.LASF164
 4823 15f0 01       		.byte	0x1
 4824 15f1 6F02     		.2byte	0x26f
 4825 15f3 FE040000 		.4byte	0x4fe
 4826 15f7 02       		.uleb128 0x2
 4827 15f8 91       		.byte	0x91
 4828 15f9 54       		.sleb128 -44
 4829 15fa 21       		.uleb128 0x21
 4830 15fb A2140000 		.4byte	.LASF507
 4831 15ff 01       		.byte	0x1
 4832 1600 7002     		.2byte	0x270
 4833 1602 10060000 		.4byte	0x610
 4834 1606 03       		.uleb128 0x3
 4835 1607 91       		.byte	0x91
 4836 1608 BC7F     		.sleb128 -68
 4837 160a 21       		.uleb128 0x21
 4838 160b 76370000 		.4byte	.LASF546
 4839 160f 01       		.byte	0x1
 4840 1610 7202     		.2byte	0x272
 4841 1612 B0030000 		.4byte	0x3b0
 4842 1616 02       		.uleb128 0x2
 4843 1617 91       		.byte	0x91
 4844 1618 6C       		.sleb128 -20
 4845 1619 21       		.uleb128 0x21
 4846 161a B2000000 		.4byte	.LASF547
 4847 161e 01       		.byte	0x1
 4848 161f 7302     		.2byte	0x273
 4849 1621 B0030000 		.4byte	0x3b0
 4850 1625 02       		.uleb128 0x2
 4851 1626 91       		.byte	0x91
ARM GAS  C:\Users\megan\AppData\Local\Temp\ccqJAT7j.s 			page 100


 4852 1627 6A       		.sleb128 -22
 4853 1628 21       		.uleb128 0x21
 4854 1629 F4030000 		.4byte	.LASF548
 4855 162d 01       		.byte	0x1
 4856 162e 7402     		.2byte	0x274
 4857 1630 F10E0000 		.4byte	0xef1
 4858 1634 02       		.uleb128 0x2
 4859 1635 91       		.byte	0x91
 4860 1636 6F       		.sleb128 -17
 4861 1637 21       		.uleb128 0x21
 4862 1638 BB160000 		.4byte	.LASF549
 4863 163c 01       		.byte	0x1
 4864 163d 7602     		.2byte	0x276
 4865 163f F0030000 		.4byte	0x3f0
 4866 1643 03       		.uleb128 0x3
 4867 1644 91       		.byte	0x91
 4868 1645 B47F     		.sleb128 -76
 4869 1647 00       		.byte	0
 4870 1648 28       		.uleb128 0x28
 4871 1649 E01E0000 		.4byte	.LASF566
 4872 164d 01       		.byte	0x1
 4873 164e 9202     		.2byte	0x292
 4874 1650 00000000 		.4byte	.LFB49
 4875 1654 3E000000 		.4byte	.LFE49-.LFB49
 4876 1658 01       		.uleb128 0x1
 4877 1659 9C       		.byte	0x9c
 4878 165a 29       		.uleb128 0x29
 4879 165b 6A020000 		.4byte	.LASF550
 4880 165f 09       		.byte	0x9
 4881 1660 A90A     		.2byte	0xaa9
 4882 1662 F10E0000 		.4byte	0xef1
 4883 1666 29       		.uleb128 0x29
 4884 1667 C32A0000 		.4byte	.LASF551
 4885 166b 09       		.byte	0x9
 4886 166c AA0A     		.2byte	0xaaa
 4887 166e 3A050000 		.4byte	0x53a
 4888 1672 2A       		.uleb128 0x2a
 4889 1673 5F637300 		.ascii	"_cs\000"
 4890 1677 0A       		.byte	0xa
 4891 1678 9F       		.byte	0x9f
 4892 1679 81000000 		.4byte	0x81
 4893 167d 05       		.uleb128 0x5
 4894 167e 03       		.byte	0x3
 4895 167f 00000000 		.4byte	_cs
 4896 1683 2B       		.uleb128 0x2b
 4897 1684 C1000000 		.4byte	.LASF552
 4898 1688 0A       		.byte	0xa
 4899 1689 9F       		.byte	0x9f
 4900 168a 81000000 		.4byte	0x81
 4901 168e 05       		.uleb128 0x5
 4902 168f 03       		.byte	0x3
 4903 1690 00000000 		.4byte	_rst
 4904 1694 2B       		.uleb128 0x2b
 4905 1695 C20B0000 		.4byte	.LASF553
 4906 1699 0A       		.byte	0xa
 4907 169a A0       		.byte	0xa0
 4908 169b 8C000000 		.4byte	0x8c
ARM GAS  C:\Users\megan\AppData\Local\Temp\ccqJAT7j.s 			page 101


 4909 169f 05       		.uleb128 0x5
 4910 16a0 03       		.byte	0x3
 4911 16a1 00000000 		.4byte	_width
 4912 16a5 2B       		.uleb128 0x2b
 4913 16a6 03300000 		.4byte	.LASF554
 4914 16aa 0A       		.byte	0xa
 4915 16ab A0       		.byte	0xa0
 4916 16ac 8C000000 		.4byte	0x8c
 4917 16b0 05       		.uleb128 0x5
 4918 16b1 03       		.byte	0x3
 4919 16b2 00000000 		.4byte	_height
 4920 16b6 2B       		.uleb128 0x2b
 4921 16b7 7D220000 		.4byte	.LASF555
 4922 16bb 0A       		.byte	0xa
 4923 16bc A1       		.byte	0xa1
 4924 16bd 81000000 		.4byte	0x81
 4925 16c1 05       		.uleb128 0x5
 4926 16c2 03       		.byte	0x3
 4927 16c3 00000000 		.4byte	_textScale
 4928 16c7 2B       		.uleb128 0x2b
 4929 16c8 800E0000 		.4byte	.LASF556
 4930 16cc 0A       		.byte	0xa
 4931 16cd A2       		.byte	0xa2
 4932 16ce 290F0000 		.4byte	0xf29
 4933 16d2 05       		.uleb128 0x5
 4934 16d3 03       		.byte	0x3
 4935 16d4 00000000 		.4byte	_size
 4936 16d8 2B       		.uleb128 0x2b
 4937 16d9 E6330000 		.4byte	.LASF529
 4938 16dd 01       		.byte	0x1
 4939 16de 1A       		.byte	0x1a
 4940 16df A60F0000 		.4byte	0xfa6
 4941 16e3 05       		.uleb128 0x5
 4942 16e4 03       		.byte	0x3
 4943 16e5 00000000 		.4byte	outside
 4944 16e9 2B       		.uleb128 0x2b
 4945 16ea B4250000 		.4byte	.LASF557
 4946 16ee 01       		.byte	0x1
 4947 16ef 23       		.byte	0x23
 4948 16f0 E70F0000 		.4byte	0xfe7
 4949 16f4 05       		.uleb128 0x5
 4950 16f5 03       		.byte	0x3
 4951 16f6 00000000 		.4byte	settings
 4952 16fa 08       		.uleb128 0x8
 4953 16fb F0030000 		.4byte	0x3f0
 4954 16ff 0A170000 		.4byte	0x170a
 4955 1703 09       		.uleb128 0x9
 4956 1704 00010000 		.4byte	0x100
 4957 1708 FE       		.byte	0xfe
 4958 1709 00       		.byte	0
 4959 170a 2B       		.uleb128 0x2b
 4960 170b EE050000 		.4byte	.LASF558
 4961 170f 01       		.byte	0x1
 4962 1710 3A       		.byte	0x3a
 4963 1711 FA160000 		.4byte	0x16fa
 4964 1715 05       		.uleb128 0x5
 4965 1716 03       		.byte	0x3
ARM GAS  C:\Users\megan\AppData\Local\Temp\ccqJAT7j.s 			page 102


 4966 1717 00000000 		.4byte	peerAddr
 4967 171b 2B       		.uleb128 0x2b
 4968 171c B33B0000 		.4byte	.LASF559
 4969 1720 01       		.byte	0x1
 4970 1721 3B       		.byte	0x3b
 4971 1722 97000000 		.4byte	0x97
 4972 1726 05       		.uleb128 0x5
 4973 1727 03       		.byte	0x3
 4974 1728 00000000 		.4byte	DevicesNearBy
 4975 172c 2B       		.uleb128 0x2b
 4976 172d 91270000 		.4byte	.LASF560
 4977 1731 01       		.byte	0x1
 4978 1732 3C       		.byte	0x3c
 4979 1733 C1110000 		.4byte	0x11c1
 4980 1737 05       		.uleb128 0x5
 4981 1738 03       		.byte	0x3
 4982 1739 00000000 		.4byte	fl_temp_bytes
 4983 173d 2B       		.uleb128 0x2b
 4984 173e 46080000 		.4byte	.LASF561
 4985 1742 01       		.byte	0x1
 4986 1743 3D       		.byte	0x3d
 4987 1744 81000000 		.4byte	0x81
 4988 1748 05       		.uleb128 0x5
 4989 1749 03       		.byte	0x3
 4990 174a 00000000 		.4byte	byte
 4991 174e 2B       		.uleb128 0x2b
 4992 174f BB1D0000 		.4byte	.LASF562
 4993 1753 01       		.byte	0x1
 4994 1754 3E       		.byte	0x3e
 4995 1755 9B0F0000 		.4byte	0xf9b
 4996 1759 05       		.uleb128 0x5
 4997 175a 03       		.byte	0x3
 4998 175b 00000000 		.4byte	bin1
 4999 175f 00       		.byte	0
 5000              		.section	.debug_abbrev,"",%progbits
 5001              	.Ldebug_abbrev0:
 5002 0000 01       		.uleb128 0x1
 5003 0001 11       		.uleb128 0x11
 5004 0002 01       		.byte	0x1
 5005 0003 25       		.uleb128 0x25
 5006 0004 0E       		.uleb128 0xe
 5007 0005 13       		.uleb128 0x13
 5008 0006 0B       		.uleb128 0xb
 5009 0007 03       		.uleb128 0x3
 5010 0008 0E       		.uleb128 0xe
 5011 0009 1B       		.uleb128 0x1b
 5012 000a 0E       		.uleb128 0xe
 5013 000b 55       		.uleb128 0x55
 5014 000c 17       		.uleb128 0x17
 5015 000d 11       		.uleb128 0x11
 5016 000e 01       		.uleb128 0x1
 5017 000f 10       		.uleb128 0x10
 5018 0010 17       		.uleb128 0x17
 5019 0011 00       		.byte	0
 5020 0012 00       		.byte	0
 5021 0013 02       		.uleb128 0x2
 5022 0014 24       		.uleb128 0x24
ARM GAS  C:\Users\megan\AppData\Local\Temp\ccqJAT7j.s 			page 103


 5023 0015 00       		.byte	0
 5024 0016 0B       		.uleb128 0xb
 5025 0017 0B       		.uleb128 0xb
 5026 0018 3E       		.uleb128 0x3e
 5027 0019 0B       		.uleb128 0xb
 5028 001a 03       		.uleb128 0x3
 5029 001b 0E       		.uleb128 0xe
 5030 001c 00       		.byte	0
 5031 001d 00       		.byte	0
 5032 001e 03       		.uleb128 0x3
 5033 001f 16       		.uleb128 0x16
 5034 0020 00       		.byte	0
 5035 0021 03       		.uleb128 0x3
 5036 0022 0E       		.uleb128 0xe
 5037 0023 3A       		.uleb128 0x3a
 5038 0024 0B       		.uleb128 0xb
 5039 0025 3B       		.uleb128 0x3b
 5040 0026 0B       		.uleb128 0xb
 5041 0027 49       		.uleb128 0x49
 5042 0028 13       		.uleb128 0x13
 5043 0029 00       		.byte	0
 5044 002a 00       		.byte	0
 5045 002b 04       		.uleb128 0x4
 5046 002c 24       		.uleb128 0x24
 5047 002d 00       		.byte	0
 5048 002e 0B       		.uleb128 0xb
 5049 002f 0B       		.uleb128 0xb
 5050 0030 3E       		.uleb128 0x3e
 5051 0031 0B       		.uleb128 0xb
 5052 0032 03       		.uleb128 0x3
 5053 0033 08       		.uleb128 0x8
 5054 0034 00       		.byte	0
 5055 0035 00       		.byte	0
 5056 0036 05       		.uleb128 0x5
 5057 0037 16       		.uleb128 0x16
 5058 0038 00       		.byte	0
 5059 0039 03       		.uleb128 0x3
 5060 003a 0E       		.uleb128 0xe
 5061 003b 3A       		.uleb128 0x3a
 5062 003c 0B       		.uleb128 0xb
 5063 003d 3B       		.uleb128 0x3b
 5064 003e 05       		.uleb128 0x5
 5065 003f 49       		.uleb128 0x49
 5066 0040 13       		.uleb128 0x13
 5067 0041 00       		.byte	0
 5068 0042 00       		.byte	0
 5069 0043 06       		.uleb128 0x6
 5070 0044 35       		.uleb128 0x35
 5071 0045 00       		.byte	0
 5072 0046 49       		.uleb128 0x49
 5073 0047 13       		.uleb128 0x13
 5074 0048 00       		.byte	0
 5075 0049 00       		.byte	0
 5076 004a 07       		.uleb128 0x7
 5077 004b 0F       		.uleb128 0xf
 5078 004c 00       		.byte	0
 5079 004d 0B       		.uleb128 0xb
ARM GAS  C:\Users\megan\AppData\Local\Temp\ccqJAT7j.s 			page 104


 5080 004e 0B       		.uleb128 0xb
 5081 004f 00       		.byte	0
 5082 0050 00       		.byte	0
 5083 0051 08       		.uleb128 0x8
 5084 0052 01       		.uleb128 0x1
 5085 0053 01       		.byte	0x1
 5086 0054 49       		.uleb128 0x49
 5087 0055 13       		.uleb128 0x13
 5088 0056 01       		.uleb128 0x1
 5089 0057 13       		.uleb128 0x13
 5090 0058 00       		.byte	0
 5091 0059 00       		.byte	0
 5092 005a 09       		.uleb128 0x9
 5093 005b 21       		.uleb128 0x21
 5094 005c 00       		.byte	0
 5095 005d 49       		.uleb128 0x49
 5096 005e 13       		.uleb128 0x13
 5097 005f 2F       		.uleb128 0x2f
 5098 0060 0B       		.uleb128 0xb
 5099 0061 00       		.byte	0
 5100 0062 00       		.byte	0
 5101 0063 0A       		.uleb128 0xa
 5102 0064 04       		.uleb128 0x4
 5103 0065 01       		.byte	0x1
 5104 0066 0B       		.uleb128 0xb
 5105 0067 0B       		.uleb128 0xb
 5106 0068 49       		.uleb128 0x49
 5107 0069 13       		.uleb128 0x13
 5108 006a 3A       		.uleb128 0x3a
 5109 006b 0B       		.uleb128 0xb
 5110 006c 3B       		.uleb128 0x3b
 5111 006d 05       		.uleb128 0x5
 5112 006e 01       		.uleb128 0x1
 5113 006f 13       		.uleb128 0x13
 5114 0070 00       		.byte	0
 5115 0071 00       		.byte	0
 5116 0072 0B       		.uleb128 0xb
 5117 0073 28       		.uleb128 0x28
 5118 0074 00       		.byte	0
 5119 0075 03       		.uleb128 0x3
 5120 0076 0E       		.uleb128 0xe
 5121 0077 1C       		.uleb128 0x1c
 5122 0078 0B       		.uleb128 0xb
 5123 0079 00       		.byte	0
 5124 007a 00       		.byte	0
 5125 007b 0C       		.uleb128 0xc
 5126 007c 28       		.uleb128 0x28
 5127 007d 00       		.byte	0
 5128 007e 03       		.uleb128 0x3
 5129 007f 0E       		.uleb128 0xe
 5130 0080 1C       		.uleb128 0x1c
 5131 0081 05       		.uleb128 0x5
 5132 0082 00       		.byte	0
 5133 0083 00       		.byte	0
 5134 0084 0D       		.uleb128 0xd
 5135 0085 13       		.uleb128 0x13
 5136 0086 01       		.byte	0x1
ARM GAS  C:\Users\megan\AppData\Local\Temp\ccqJAT7j.s 			page 105


 5137 0087 0B       		.uleb128 0xb
 5138 0088 0B       		.uleb128 0xb
 5139 0089 3A       		.uleb128 0x3a
 5140 008a 0B       		.uleb128 0xb
 5141 008b 3B       		.uleb128 0x3b
 5142 008c 05       		.uleb128 0x5
 5143 008d 01       		.uleb128 0x1
 5144 008e 13       		.uleb128 0x13
 5145 008f 00       		.byte	0
 5146 0090 00       		.byte	0
 5147 0091 0E       		.uleb128 0xe
 5148 0092 0D       		.uleb128 0xd
 5149 0093 00       		.byte	0
 5150 0094 03       		.uleb128 0x3
 5151 0095 0E       		.uleb128 0xe
 5152 0096 3A       		.uleb128 0x3a
 5153 0097 0B       		.uleb128 0xb
 5154 0098 3B       		.uleb128 0x3b
 5155 0099 05       		.uleb128 0x5
 5156 009a 49       		.uleb128 0x49
 5157 009b 13       		.uleb128 0x13
 5158 009c 38       		.uleb128 0x38
 5159 009d 0B       		.uleb128 0xb
 5160 009e 00       		.byte	0
 5161 009f 00       		.byte	0
 5162 00a0 0F       		.uleb128 0xf
 5163 00a1 0F       		.uleb128 0xf
 5164 00a2 00       		.byte	0
 5165 00a3 0B       		.uleb128 0xb
 5166 00a4 0B       		.uleb128 0xb
 5167 00a5 49       		.uleb128 0x49
 5168 00a6 13       		.uleb128 0x13
 5169 00a7 00       		.byte	0
 5170 00a8 00       		.byte	0
 5171 00a9 10       		.uleb128 0x10
 5172 00aa 04       		.uleb128 0x4
 5173 00ab 01       		.byte	0x1
 5174 00ac 0B       		.uleb128 0xb
 5175 00ad 0B       		.uleb128 0xb
 5176 00ae 49       		.uleb128 0x49
 5177 00af 13       		.uleb128 0x13
 5178 00b0 3A       		.uleb128 0x3a
 5179 00b1 0B       		.uleb128 0xb
 5180 00b2 3B       		.uleb128 0x3b
 5181 00b3 0B       		.uleb128 0xb
 5182 00b4 01       		.uleb128 0x1
 5183 00b5 13       		.uleb128 0x13
 5184 00b6 00       		.byte	0
 5185 00b7 00       		.byte	0
 5186 00b8 11       		.uleb128 0x11
 5187 00b9 17       		.uleb128 0x17
 5188 00ba 01       		.byte	0x1
 5189 00bb 0B       		.uleb128 0xb
 5190 00bc 0B       		.uleb128 0xb
 5191 00bd 3A       		.uleb128 0x3a
 5192 00be 0B       		.uleb128 0xb
 5193 00bf 3B       		.uleb128 0x3b
ARM GAS  C:\Users\megan\AppData\Local\Temp\ccqJAT7j.s 			page 106


 5194 00c0 05       		.uleb128 0x5
 5195 00c1 01       		.uleb128 0x1
 5196 00c2 13       		.uleb128 0x13
 5197 00c3 00       		.byte	0
 5198 00c4 00       		.byte	0
 5199 00c5 12       		.uleb128 0x12
 5200 00c6 0D       		.uleb128 0xd
 5201 00c7 00       		.byte	0
 5202 00c8 03       		.uleb128 0x3
 5203 00c9 0E       		.uleb128 0xe
 5204 00ca 3A       		.uleb128 0x3a
 5205 00cb 0B       		.uleb128 0xb
 5206 00cc 3B       		.uleb128 0x3b
 5207 00cd 05       		.uleb128 0x5
 5208 00ce 49       		.uleb128 0x49
 5209 00cf 13       		.uleb128 0x13
 5210 00d0 00       		.byte	0
 5211 00d1 00       		.byte	0
 5212 00d2 13       		.uleb128 0x13
 5213 00d3 0D       		.uleb128 0xd
 5214 00d4 00       		.byte	0
 5215 00d5 03       		.uleb128 0x3
 5216 00d6 08       		.uleb128 0x8
 5217 00d7 3A       		.uleb128 0x3a
 5218 00d8 0B       		.uleb128 0xb
 5219 00d9 3B       		.uleb128 0x3b
 5220 00da 05       		.uleb128 0x5
 5221 00db 49       		.uleb128 0x49
 5222 00dc 13       		.uleb128 0x13
 5223 00dd 38       		.uleb128 0x38
 5224 00de 0B       		.uleb128 0xb
 5225 00df 00       		.byte	0
 5226 00e0 00       		.byte	0
 5227 00e1 14       		.uleb128 0x14
 5228 00e2 13       		.uleb128 0x13
 5229 00e3 01       		.byte	0x1
 5230 00e4 0B       		.uleb128 0xb
 5231 00e5 0B       		.uleb128 0xb
 5232 00e6 3A       		.uleb128 0x3a
 5233 00e7 0B       		.uleb128 0xb
 5234 00e8 3B       		.uleb128 0x3b
 5235 00e9 0B       		.uleb128 0xb
 5236 00ea 01       		.uleb128 0x1
 5237 00eb 13       		.uleb128 0x13
 5238 00ec 00       		.byte	0
 5239 00ed 00       		.byte	0
 5240 00ee 15       		.uleb128 0x15
 5241 00ef 0D       		.uleb128 0xd
 5242 00f0 00       		.byte	0
 5243 00f1 03       		.uleb128 0x3
 5244 00f2 0E       		.uleb128 0xe
 5245 00f3 3A       		.uleb128 0x3a
 5246 00f4 0B       		.uleb128 0xb
 5247 00f5 3B       		.uleb128 0x3b
 5248 00f6 0B       		.uleb128 0xb
 5249 00f7 49       		.uleb128 0x49
 5250 00f8 13       		.uleb128 0x13
ARM GAS  C:\Users\megan\AppData\Local\Temp\ccqJAT7j.s 			page 107


 5251 00f9 38       		.uleb128 0x38
 5252 00fa 0B       		.uleb128 0xb
 5253 00fb 00       		.byte	0
 5254 00fc 00       		.byte	0
 5255 00fd 16       		.uleb128 0x16
 5256 00fe 04       		.uleb128 0x4
 5257 00ff 01       		.byte	0x1
 5258 0100 03       		.uleb128 0x3
 5259 0101 0E       		.uleb128 0xe
 5260 0102 0B       		.uleb128 0xb
 5261 0103 0B       		.uleb128 0xb
 5262 0104 49       		.uleb128 0x49
 5263 0105 13       		.uleb128 0x13
 5264 0106 3A       		.uleb128 0x3a
 5265 0107 0B       		.uleb128 0xb
 5266 0108 3B       		.uleb128 0x3b
 5267 0109 0B       		.uleb128 0xb
 5268 010a 01       		.uleb128 0x1
 5269 010b 13       		.uleb128 0x13
 5270 010c 00       		.byte	0
 5271 010d 00       		.byte	0
 5272 010e 17       		.uleb128 0x17
 5273 010f 13       		.uleb128 0x13
 5274 0110 01       		.byte	0x1
 5275 0111 03       		.uleb128 0x3
 5276 0112 08       		.uleb128 0x8
 5277 0113 0B       		.uleb128 0xb
 5278 0114 0B       		.uleb128 0xb
 5279 0115 3A       		.uleb128 0x3a
 5280 0116 0B       		.uleb128 0xb
 5281 0117 3B       		.uleb128 0x3b
 5282 0118 0B       		.uleb128 0xb
 5283 0119 01       		.uleb128 0x1
 5284 011a 13       		.uleb128 0x13
 5285 011b 00       		.byte	0
 5286 011c 00       		.byte	0
 5287 011d 18       		.uleb128 0x18
 5288 011e 16       		.uleb128 0x16
 5289 011f 00       		.byte	0
 5290 0120 03       		.uleb128 0x3
 5291 0121 08       		.uleb128 0x8
 5292 0122 3A       		.uleb128 0x3a
 5293 0123 0B       		.uleb128 0xb
 5294 0124 3B       		.uleb128 0x3b
 5295 0125 0B       		.uleb128 0xb
 5296 0126 49       		.uleb128 0x49
 5297 0127 13       		.uleb128 0x13
 5298 0128 00       		.byte	0
 5299 0129 00       		.byte	0
 5300 012a 19       		.uleb128 0x19
 5301 012b 13       		.uleb128 0x13
 5302 012c 01       		.byte	0x1
 5303 012d 03       		.uleb128 0x3
 5304 012e 0E       		.uleb128 0xe
 5305 012f 0B       		.uleb128 0xb
 5306 0130 0B       		.uleb128 0xb
 5307 0131 3A       		.uleb128 0x3a
ARM GAS  C:\Users\megan\AppData\Local\Temp\ccqJAT7j.s 			page 108


 5308 0132 0B       		.uleb128 0xb
 5309 0133 3B       		.uleb128 0x3b
 5310 0134 0B       		.uleb128 0xb
 5311 0135 01       		.uleb128 0x1
 5312 0136 13       		.uleb128 0x13
 5313 0137 00       		.byte	0
 5314 0138 00       		.byte	0
 5315 0139 1A       		.uleb128 0x1a
 5316 013a 2E       		.uleb128 0x2e
 5317 013b 00       		.byte	0
 5318 013c 3F       		.uleb128 0x3f
 5319 013d 19       		.uleb128 0x19
 5320 013e 03       		.uleb128 0x3
 5321 013f 0E       		.uleb128 0xe
 5322 0140 3A       		.uleb128 0x3a
 5323 0141 0B       		.uleb128 0xb
 5324 0142 3B       		.uleb128 0x3b
 5325 0143 0B       		.uleb128 0xb
 5326 0144 49       		.uleb128 0x49
 5327 0145 13       		.uleb128 0x13
 5328 0146 11       		.uleb128 0x11
 5329 0147 01       		.uleb128 0x1
 5330 0148 12       		.uleb128 0x12
 5331 0149 06       		.uleb128 0x6
 5332 014a 40       		.uleb128 0x40
 5333 014b 18       		.uleb128 0x18
 5334 014c 9642     		.uleb128 0x2116
 5335 014e 19       		.uleb128 0x19
 5336 014f 00       		.byte	0
 5337 0150 00       		.byte	0
 5338 0151 1B       		.uleb128 0x1b
 5339 0152 2E       		.uleb128 0x2e
 5340 0153 01       		.byte	0x1
 5341 0154 3F       		.uleb128 0x3f
 5342 0155 19       		.uleb128 0x19
 5343 0156 03       		.uleb128 0x3
 5344 0157 0E       		.uleb128 0xe
 5345 0158 3A       		.uleb128 0x3a
 5346 0159 0B       		.uleb128 0xb
 5347 015a 3B       		.uleb128 0x3b
 5348 015b 0B       		.uleb128 0xb
 5349 015c 27       		.uleb128 0x27
 5350 015d 19       		.uleb128 0x19
 5351 015e 11       		.uleb128 0x11
 5352 015f 01       		.uleb128 0x1
 5353 0160 12       		.uleb128 0x12
 5354 0161 06       		.uleb128 0x6
 5355 0162 40       		.uleb128 0x40
 5356 0163 18       		.uleb128 0x18
 5357 0164 9642     		.uleb128 0x2116
 5358 0166 19       		.uleb128 0x19
 5359 0167 01       		.uleb128 0x1
 5360 0168 13       		.uleb128 0x13
 5361 0169 00       		.byte	0
 5362 016a 00       		.byte	0
 5363 016b 1C       		.uleb128 0x1c
 5364 016c 05       		.uleb128 0x5
ARM GAS  C:\Users\megan\AppData\Local\Temp\ccqJAT7j.s 			page 109


 5365 016d 00       		.byte	0
 5366 016e 03       		.uleb128 0x3
 5367 016f 0E       		.uleb128 0xe
 5368 0170 3A       		.uleb128 0x3a
 5369 0171 0B       		.uleb128 0xb
 5370 0172 3B       		.uleb128 0x3b
 5371 0173 0B       		.uleb128 0xb
 5372 0174 49       		.uleb128 0x49
 5373 0175 13       		.uleb128 0x13
 5374 0176 02       		.uleb128 0x2
 5375 0177 18       		.uleb128 0x18
 5376 0178 00       		.byte	0
 5377 0179 00       		.byte	0
 5378 017a 1D       		.uleb128 0x1d
 5379 017b 34       		.uleb128 0x34
 5380 017c 00       		.byte	0
 5381 017d 03       		.uleb128 0x3
 5382 017e 08       		.uleb128 0x8
 5383 017f 3A       		.uleb128 0x3a
 5384 0180 0B       		.uleb128 0xb
 5385 0181 3B       		.uleb128 0x3b
 5386 0182 0B       		.uleb128 0xb
 5387 0183 49       		.uleb128 0x49
 5388 0184 13       		.uleb128 0x13
 5389 0185 02       		.uleb128 0x2
 5390 0186 18       		.uleb128 0x18
 5391 0187 00       		.byte	0
 5392 0188 00       		.byte	0
 5393 0189 1E       		.uleb128 0x1e
 5394 018a 34       		.uleb128 0x34
 5395 018b 00       		.byte	0
 5396 018c 03       		.uleb128 0x3
 5397 018d 0E       		.uleb128 0xe
 5398 018e 3A       		.uleb128 0x3a
 5399 018f 0B       		.uleb128 0xb
 5400 0190 3B       		.uleb128 0x3b
 5401 0191 0B       		.uleb128 0xb
 5402 0192 49       		.uleb128 0x49
 5403 0193 13       		.uleb128 0x13
 5404 0194 02       		.uleb128 0x2
 5405 0195 18       		.uleb128 0x18
 5406 0196 00       		.byte	0
 5407 0197 00       		.byte	0
 5408 0198 1F       		.uleb128 0x1f
 5409 0199 2E       		.uleb128 0x2e
 5410 019a 00       		.byte	0
 5411 019b 3F       		.uleb128 0x3f
 5412 019c 19       		.uleb128 0x19
 5413 019d 03       		.uleb128 0x3
 5414 019e 0E       		.uleb128 0xe
 5415 019f 3A       		.uleb128 0x3a
 5416 01a0 0B       		.uleb128 0xb
 5417 01a1 3B       		.uleb128 0x3b
 5418 01a2 0B       		.uleb128 0xb
 5419 01a3 27       		.uleb128 0x27
 5420 01a4 19       		.uleb128 0x19
 5421 01a5 11       		.uleb128 0x11
ARM GAS  C:\Users\megan\AppData\Local\Temp\ccqJAT7j.s 			page 110


 5422 01a6 01       		.uleb128 0x1
 5423 01a7 12       		.uleb128 0x12
 5424 01a8 06       		.uleb128 0x6
 5425 01a9 40       		.uleb128 0x40
 5426 01aa 18       		.uleb128 0x18
 5427 01ab 9642     		.uleb128 0x2116
 5428 01ad 19       		.uleb128 0x19
 5429 01ae 00       		.byte	0
 5430 01af 00       		.byte	0
 5431 01b0 20       		.uleb128 0x20
 5432 01b1 2E       		.uleb128 0x2e
 5433 01b2 01       		.byte	0x1
 5434 01b3 3F       		.uleb128 0x3f
 5435 01b4 19       		.uleb128 0x19
 5436 01b5 03       		.uleb128 0x3
 5437 01b6 0E       		.uleb128 0xe
 5438 01b7 3A       		.uleb128 0x3a
 5439 01b8 0B       		.uleb128 0xb
 5440 01b9 3B       		.uleb128 0x3b
 5441 01ba 05       		.uleb128 0x5
 5442 01bb 11       		.uleb128 0x11
 5443 01bc 01       		.uleb128 0x1
 5444 01bd 12       		.uleb128 0x12
 5445 01be 06       		.uleb128 0x6
 5446 01bf 40       		.uleb128 0x40
 5447 01c0 18       		.uleb128 0x18
 5448 01c1 9642     		.uleb128 0x2116
 5449 01c3 19       		.uleb128 0x19
 5450 01c4 01       		.uleb128 0x1
 5451 01c5 13       		.uleb128 0x13
 5452 01c6 00       		.byte	0
 5453 01c7 00       		.byte	0
 5454 01c8 21       		.uleb128 0x21
 5455 01c9 34       		.uleb128 0x34
 5456 01ca 00       		.byte	0
 5457 01cb 03       		.uleb128 0x3
 5458 01cc 0E       		.uleb128 0xe
 5459 01cd 3A       		.uleb128 0x3a
 5460 01ce 0B       		.uleb128 0xb
 5461 01cf 3B       		.uleb128 0x3b
 5462 01d0 05       		.uleb128 0x5
 5463 01d1 49       		.uleb128 0x49
 5464 01d2 13       		.uleb128 0x13
 5465 01d3 02       		.uleb128 0x2
 5466 01d4 18       		.uleb128 0x18
 5467 01d5 00       		.byte	0
 5468 01d6 00       		.byte	0
 5469 01d7 22       		.uleb128 0x22
 5470 01d8 34       		.uleb128 0x34
 5471 01d9 00       		.byte	0
 5472 01da 03       		.uleb128 0x3
 5473 01db 08       		.uleb128 0x8
 5474 01dc 3A       		.uleb128 0x3a
 5475 01dd 0B       		.uleb128 0xb
 5476 01de 3B       		.uleb128 0x3b
 5477 01df 05       		.uleb128 0x5
 5478 01e0 49       		.uleb128 0x49
ARM GAS  C:\Users\megan\AppData\Local\Temp\ccqJAT7j.s 			page 111


 5479 01e1 13       		.uleb128 0x13
 5480 01e2 02       		.uleb128 0x2
 5481 01e3 18       		.uleb128 0x18
 5482 01e4 00       		.byte	0
 5483 01e5 00       		.byte	0
 5484 01e6 23       		.uleb128 0x23
 5485 01e7 0B       		.uleb128 0xb
 5486 01e8 01       		.byte	0x1
 5487 01e9 11       		.uleb128 0x11
 5488 01ea 01       		.uleb128 0x1
 5489 01eb 12       		.uleb128 0x12
 5490 01ec 06       		.uleb128 0x6
 5491 01ed 00       		.byte	0
 5492 01ee 00       		.byte	0
 5493 01ef 24       		.uleb128 0x24
 5494 01f0 2E       		.uleb128 0x2e
 5495 01f1 01       		.byte	0x1
 5496 01f2 3F       		.uleb128 0x3f
 5497 01f3 19       		.uleb128 0x19
 5498 01f4 03       		.uleb128 0x3
 5499 01f5 0E       		.uleb128 0xe
 5500 01f6 3A       		.uleb128 0x3a
 5501 01f7 0B       		.uleb128 0xb
 5502 01f8 3B       		.uleb128 0x3b
 5503 01f9 05       		.uleb128 0x5
 5504 01fa 27       		.uleb128 0x27
 5505 01fb 19       		.uleb128 0x19
 5506 01fc 11       		.uleb128 0x11
 5507 01fd 01       		.uleb128 0x1
 5508 01fe 12       		.uleb128 0x12
 5509 01ff 06       		.uleb128 0x6
 5510 0200 40       		.uleb128 0x40
 5511 0201 18       		.uleb128 0x18
 5512 0202 9642     		.uleb128 0x2116
 5513 0204 19       		.uleb128 0x19
 5514 0205 01       		.uleb128 0x1
 5515 0206 13       		.uleb128 0x13
 5516 0207 00       		.byte	0
 5517 0208 00       		.byte	0
 5518 0209 25       		.uleb128 0x25
 5519 020a 05       		.uleb128 0x5
 5520 020b 00       		.byte	0
 5521 020c 03       		.uleb128 0x3
 5522 020d 08       		.uleb128 0x8
 5523 020e 3A       		.uleb128 0x3a
 5524 020f 0B       		.uleb128 0xb
 5525 0210 3B       		.uleb128 0x3b
 5526 0211 05       		.uleb128 0x5
 5527 0212 49       		.uleb128 0x49
 5528 0213 13       		.uleb128 0x13
 5529 0214 02       		.uleb128 0x2
 5530 0215 18       		.uleb128 0x18
 5531 0216 00       		.byte	0
 5532 0217 00       		.byte	0
 5533 0218 26       		.uleb128 0x26
 5534 0219 05       		.uleb128 0x5
 5535 021a 00       		.byte	0
ARM GAS  C:\Users\megan\AppData\Local\Temp\ccqJAT7j.s 			page 112


 5536 021b 03       		.uleb128 0x3
 5537 021c 0E       		.uleb128 0xe
 5538 021d 3A       		.uleb128 0x3a
 5539 021e 0B       		.uleb128 0xb
 5540 021f 3B       		.uleb128 0x3b
 5541 0220 05       		.uleb128 0x5
 5542 0221 49       		.uleb128 0x49
 5543 0222 13       		.uleb128 0x13
 5544 0223 02       		.uleb128 0x2
 5545 0224 18       		.uleb128 0x18
 5546 0225 00       		.byte	0
 5547 0226 00       		.byte	0
 5548 0227 27       		.uleb128 0x27
 5549 0228 34       		.uleb128 0x34
 5550 0229 00       		.byte	0
 5551 022a 03       		.uleb128 0x3
 5552 022b 0E       		.uleb128 0xe
 5553 022c 3A       		.uleb128 0x3a
 5554 022d 0B       		.uleb128 0xb
 5555 022e 3B       		.uleb128 0x3b
 5556 022f 05       		.uleb128 0x5
 5557 0230 49       		.uleb128 0x49
 5558 0231 13       		.uleb128 0x13
 5559 0232 00       		.byte	0
 5560 0233 00       		.byte	0
 5561 0234 28       		.uleb128 0x28
 5562 0235 2E       		.uleb128 0x2e
 5563 0236 00       		.byte	0
 5564 0237 3F       		.uleb128 0x3f
 5565 0238 19       		.uleb128 0x19
 5566 0239 03       		.uleb128 0x3
 5567 023a 0E       		.uleb128 0xe
 5568 023b 3A       		.uleb128 0x3a
 5569 023c 0B       		.uleb128 0xb
 5570 023d 3B       		.uleb128 0x3b
 5571 023e 05       		.uleb128 0x5
 5572 023f 11       		.uleb128 0x11
 5573 0240 01       		.uleb128 0x1
 5574 0241 12       		.uleb128 0x12
 5575 0242 06       		.uleb128 0x6
 5576 0243 40       		.uleb128 0x40
 5577 0244 18       		.uleb128 0x18
 5578 0245 9642     		.uleb128 0x2116
 5579 0247 19       		.uleb128 0x19
 5580 0248 00       		.byte	0
 5581 0249 00       		.byte	0
 5582 024a 29       		.uleb128 0x29
 5583 024b 34       		.uleb128 0x34
 5584 024c 00       		.byte	0
 5585 024d 03       		.uleb128 0x3
 5586 024e 0E       		.uleb128 0xe
 5587 024f 3A       		.uleb128 0x3a
 5588 0250 0B       		.uleb128 0xb
 5589 0251 3B       		.uleb128 0x3b
 5590 0252 05       		.uleb128 0x5
 5591 0253 49       		.uleb128 0x49
 5592 0254 13       		.uleb128 0x13
ARM GAS  C:\Users\megan\AppData\Local\Temp\ccqJAT7j.s 			page 113


 5593 0255 3F       		.uleb128 0x3f
 5594 0256 19       		.uleb128 0x19
 5595 0257 3C       		.uleb128 0x3c
 5596 0258 19       		.uleb128 0x19
 5597 0259 00       		.byte	0
 5598 025a 00       		.byte	0
 5599 025b 2A       		.uleb128 0x2a
 5600 025c 34       		.uleb128 0x34
 5601 025d 00       		.byte	0
 5602 025e 03       		.uleb128 0x3
 5603 025f 08       		.uleb128 0x8
 5604 0260 3A       		.uleb128 0x3a
 5605 0261 0B       		.uleb128 0xb
 5606 0262 3B       		.uleb128 0x3b
 5607 0263 0B       		.uleb128 0xb
 5608 0264 49       		.uleb128 0x49
 5609 0265 13       		.uleb128 0x13
 5610 0266 3F       		.uleb128 0x3f
 5611 0267 19       		.uleb128 0x19
 5612 0268 02       		.uleb128 0x2
 5613 0269 18       		.uleb128 0x18
 5614 026a 00       		.byte	0
 5615 026b 00       		.byte	0
 5616 026c 2B       		.uleb128 0x2b
 5617 026d 34       		.uleb128 0x34
 5618 026e 00       		.byte	0
 5619 026f 03       		.uleb128 0x3
 5620 0270 0E       		.uleb128 0xe
 5621 0271 3A       		.uleb128 0x3a
 5622 0272 0B       		.uleb128 0xb
 5623 0273 3B       		.uleb128 0x3b
 5624 0274 0B       		.uleb128 0xb
 5625 0275 49       		.uleb128 0x49
 5626 0276 13       		.uleb128 0x13
 5627 0277 3F       		.uleb128 0x3f
 5628 0278 19       		.uleb128 0x19
 5629 0279 02       		.uleb128 0x2
 5630 027a 18       		.uleb128 0x18
 5631 027b 00       		.byte	0
 5632 027c 00       		.byte	0
 5633 027d 00       		.byte	0
 5634              		.section	.debug_aranges,"",%progbits
 5635 0000 8C000000 		.4byte	0x8c
 5636 0004 0200     		.2byte	0x2
 5637 0006 00000000 		.4byte	.Ldebug_info0
 5638 000a 04       		.byte	0x4
 5639 000b 00       		.byte	0
 5640 000c 0000     		.2byte	0
 5641 000e 0000     		.2byte	0
 5642 0010 00000000 		.4byte	.LFB35
 5643 0014 30000000 		.4byte	.LFE35-.LFB35
 5644 0018 00000000 		.4byte	.LFB36
 5645 001c D4020000 		.4byte	.LFE36-.LFB36
 5646 0020 00000000 		.4byte	.LFB37
 5647 0024 3A000000 		.4byte	.LFE37-.LFB37
 5648 0028 00000000 		.4byte	.LFB38
 5649 002c 00010000 		.4byte	.LFE38-.LFB38
ARM GAS  C:\Users\megan\AppData\Local\Temp\ccqJAT7j.s 			page 114


 5650 0030 00000000 		.4byte	.LFB39
 5651 0034 DC000000 		.4byte	.LFE39-.LFB39
 5652 0038 00000000 		.4byte	.LFB40
 5653 003c 7C010000 		.4byte	.LFE40-.LFB40
 5654 0040 00000000 		.4byte	.LFB41
 5655 0044 D0020000 		.4byte	.LFE41-.LFB41
 5656 0048 00000000 		.4byte	.LFB42
 5657 004c 58000000 		.4byte	.LFE42-.LFB42
 5658 0050 00000000 		.4byte	.LFB43
 5659 0054 60000000 		.4byte	.LFE43-.LFB43
 5660 0058 00000000 		.4byte	.LFB44
 5661 005c 26000000 		.4byte	.LFE44-.LFB44
 5662 0060 00000000 		.4byte	.LFB45
 5663 0064 78000000 		.4byte	.LFE45-.LFB45
 5664 0068 00000000 		.4byte	.LFB46
 5665 006c A8000000 		.4byte	.LFE46-.LFB46
 5666 0070 00000000 		.4byte	.LFB47
 5667 0074 40000000 		.4byte	.LFE47-.LFB47
 5668 0078 00000000 		.4byte	.LFB48
 5669 007c C4000000 		.4byte	.LFE48-.LFB48
 5670 0080 00000000 		.4byte	.LFB49
 5671 0084 3E000000 		.4byte	.LFE49-.LFB49
 5672 0088 00000000 		.4byte	0
 5673 008c 00000000 		.4byte	0
 5674              		.section	.debug_ranges,"",%progbits
 5675              	.Ldebug_ranges0:
 5676 0000 00000000 		.4byte	.LFB35
 5677 0004 30000000 		.4byte	.LFE35
 5678 0008 00000000 		.4byte	.LFB36
 5679 000c D4020000 		.4byte	.LFE36
 5680 0010 00000000 		.4byte	.LFB37
 5681 0014 3A000000 		.4byte	.LFE37
 5682 0018 00000000 		.4byte	.LFB38
 5683 001c 00010000 		.4byte	.LFE38
 5684 0020 00000000 		.4byte	.LFB39
 5685 0024 DC000000 		.4byte	.LFE39
 5686 0028 00000000 		.4byte	.LFB40
 5687 002c 7C010000 		.4byte	.LFE40
 5688 0030 00000000 		.4byte	.LFB41
 5689 0034 D0020000 		.4byte	.LFE41
 5690 0038 00000000 		.4byte	.LFB42
 5691 003c 58000000 		.4byte	.LFE42
 5692 0040 00000000 		.4byte	.LFB43
 5693 0044 60000000 		.4byte	.LFE43
 5694 0048 00000000 		.4byte	.LFB44
 5695 004c 26000000 		.4byte	.LFE44
 5696 0050 00000000 		.4byte	.LFB45
 5697 0054 78000000 		.4byte	.LFE45
 5698 0058 00000000 		.4byte	.LFB46
 5699 005c A8000000 		.4byte	.LFE46
 5700 0060 00000000 		.4byte	.LFB47
 5701 0064 40000000 		.4byte	.LFE47
 5702 0068 00000000 		.4byte	.LFB48
 5703 006c C4000000 		.4byte	.LFE48
 5704 0070 00000000 		.4byte	.LFB49
 5705 0074 3E000000 		.4byte	.LFE49
 5706 0078 00000000 		.4byte	0
ARM GAS  C:\Users\megan\AppData\Local\Temp\ccqJAT7j.s 			page 115


 5707 007c 00000000 		.4byte	0
 5708              		.section	.debug_line,"",%progbits
 5709              	.Ldebug_line0:
 5710 0000 5B040000 		.section	.debug_str,"MS",%progbits,1
 5710      0200B901 
 5710      00000201 
 5710      FB0E0D00 
 5710      01010101 
 5711              	.LASF338:
 5712 0000 4359424C 		.ascii	"CYBLE_EVT_HPSS_NOTIFICATION_DISABLED\000"
 5712      455F4556 
 5712      545F4850 
 5712      53535F4E 
 5712      4F544946 
 5713              	.LASF503:
 5714 0025 64617461 		.ascii	"dataLength\000"
 5714      4C656E67 
 5714      746800
 5715              	.LASF110:
 5716 0030 4359424C 		.ascii	"CYBLE_ERROR_L2CAP_PSM_ALREADY_REGISTERED\000"
 5716      455F4552 
 5716      524F525F 
 5716      4C324341 
 5716      505F5053 
 5717              	.LASF280:
 5718 0059 4359424C 		.ascii	"CYBLE_EVT_CSCSS_NOTIFICATION_DISABLED\000"
 5718      455F4556 
 5718      545F4353 
 5718      4353535F 
 5718      4E4F5449 
 5719              	.LASF95:
 5720 007f 4359424C 		.ascii	"CYBLE_EVT_MAX\000"
 5720      455F4556 
 5720      545F4D41 
 5720      5800
 5721              	.LASF390:
 5722 008d 4359424C 		.ascii	"CYBLE_EVT_PASSS_NOTIFICATION_ENABLED\000"
 5722      455F4556 
 5722      545F5041 
 5722      5353535F 
 5722      4E4F5449 
 5723              	.LASF547:
 5724 00b2 636F6E6E 		.ascii	"connect_result\000"
 5724      6563745F 
 5724      72657375 
 5724      6C7400
 5725              	.LASF552:
 5726 00c1 5F727374 		.ascii	"_rst\000"
 5726      00
 5727              	.LASF337:
 5728 00c6 4359424C 		.ascii	"CYBLE_EVT_HPSS_NOTIFICATION_ENABLED\000"
 5728      455F4556 
 5728      545F4850 
 5728      53535F4E 
 5728      4F544946 
 5729              	.LASF371:
 5730 00ea 4359424C 		.ascii	"CYBLE_EVT_IPSC_WRITE_DESCR_RESPONSE\000"
ARM GAS  C:\Users\megan\AppData\Local\Temp\ccqJAT7j.s 			page 116


 5730      455F4556 
 5730      545F4950 
 5730      53435F57 
 5730      52495445 
 5731              	.LASF200:
 5732 010e 4359424C 		.ascii	"CYBLE_EVT_AIOSS_CHAR_WRITE\000"
 5732      455F4556 
 5732      545F4149 
 5732      4F53535F 
 5732      43484152 
 5733              	.LASF394:
 5734 0129 4359424C 		.ascii	"CYBLE_EVT_PASSC_READ_CHAR_RESPONSE\000"
 5734      455F4556 
 5734      545F5041 
 5734      5353435F 
 5734      52454144 
 5735              	.LASF283:
 5736 014c 4359424C 		.ascii	"CYBLE_EVT_CSCSS_INDICATION_CONFIRMATION\000"
 5736      455F4556 
 5736      545F4353 
 5736      4353535F 
 5736      494E4449 
 5737              	.LASF487:
 5738 0174 7365745F 		.ascii	"set_temp\000"
 5738      74656D70 
 5738      00
 5739              	.LASF3:
 5740 017d 5F5F7569 		.ascii	"__uint8_t\000"
 5740      6E74385F 
 5740      7400
 5741              	.LASF261:
 5742 0187 4359424C 		.ascii	"CYBLE_EVT_CGMSC_WRITE_CHAR_RESPONSE\000"
 5742      455F4556 
 5742      545F4347 
 5742      4D53435F 
 5742      57524954 
 5743              	.LASF35:
 5744 01ab 4359424C 		.ascii	"CYBLE_EVT_GAP_AUTH_COMPLETE\000"
 5744      455F4556 
 5744      545F4741 
 5744      505F4155 
 5744      54485F43 
 5745              	.LASF125:
 5746 01c7 4359424C 		.ascii	"CYBLE_ERROR_IND_DISABLED\000"
 5746      455F4552 
 5746      524F525F 
 5746      494E445F 
 5746      44495341 
 5747              	.LASF288:
 5748 01e0 4359424C 		.ascii	"CYBLE_EVT_CSCSC_WRITE_CHAR_RESPONSE\000"
 5748      455F4556 
 5748      545F4353 
 5748      4353435F 
 5748      57524954 
 5749              	.LASF497:
 5750 0204 6576656E 		.ascii	"eventCode\000"
 5750      74436F64 
ARM GAS  C:\Users\megan\AppData\Local\Temp\ccqJAT7j.s 			page 117


 5750      6500
 5751              	.LASF433:
 5752 020e 4359424C 		.ascii	"CYBLE_EVT_TPSC_READ_DESCR_RESPONSE\000"
 5752      455F4556 
 5752      545F5450 
 5752      53435F52 
 5752      4541445F 
 5753              	.LASF352:
 5754 0231 4359424C 		.ascii	"CYBLE_EVT_HRSC_WRITE_DESCR_RESPONSE\000"
 5754      455F4556 
 5754      545F4852 
 5754      53435F57 
 5754      52495445 
 5755              	.LASF540:
 5756 0255 69706172 		.ascii	"ipart\000"
 5756      7400
 5757              	.LASF96:
 5758 025b 4359424C 		.ascii	"CYBLE_ERROR_OK\000"
 5758      455F4552 
 5758      524F525F 
 5758      4F4B00
 5759              	.LASF550:
 5760 026a 6379426C 		.ascii	"cyBle_state\000"
 5760      655F7374 
 5760      61746500 
 5761              	.LASF195:
 5762 0276 4359424C 		.ascii	"CYBLE_EVT_AIOSS_NOTIFICATION_ENABLED\000"
 5762      455F4556 
 5762      545F4149 
 5762      4F53535F 
 5762      4E4F5449 
 5763              	.LASF107:
 5764 029b 4359424C 		.ascii	"CYBLE_ERROR_BT_ON_NOT_COMPLETED\000"
 5764      455F4552 
 5764      524F525F 
 5764      42545F4F 
 5764      4E5F4E4F 
 5765              	.LASF300:
 5766 02bb 4359424C 		.ascii	"CYBLE_EVT_ESSS_NOTIFICATION_ENABLED\000"
 5766      455F4556 
 5766      545F4553 
 5766      53535F4E 
 5766      4F544946 
 5767              	.LASF244:
 5768 02df 4359424C 		.ascii	"CYBLE_EVT_BLSC_NOTIFICATION\000"
 5768      455F4556 
 5768      545F424C 
 5768      53435F4E 
 5768      4F544946 
 5769              	.LASF170:
 5770 02fb 61747472 		.ascii	"attrValue\000"
 5770      56616C75 
 5770      6500
 5771              	.LASF369:
 5772 0305 4359424C 		.ascii	"CYBLE_EVT_IPSC_WRITE_CHAR_RESPONSE\000"
 5772      455F4556 
 5772      545F4950 
ARM GAS  C:\Users\megan\AppData\Local\Temp\ccqJAT7j.s 			page 118


 5772      53435F57 
 5772      52495445 
 5773              	.LASF313:
 5774 0328 4359424C 		.ascii	"CYBLE_EVT_GLSS_INDICATION_ENABLED\000"
 5774      455F4556 
 5774      545F474C 
 5774      53535F49 
 5774      4E444943 
 5775              	.LASF76:
 5776 034a 4359424C 		.ascii	"CYBLE_EVT_GATTS_DATA_SIGNED_CMD_REQ\000"
 5776      455F4556 
 5776      545F4741 
 5776      5454535F 
 5776      44415441 
 5777              	.LASF210:
 5778 036e 4359424C 		.ascii	"CYBLE_EVT_ANCSS_NOTIFICATION_DISABLED\000"
 5778      455F4556 
 5778      545F414E 
 5778      4353535F 
 5778      4E4F5449 
 5779              	.LASF207:
 5780 0394 4359424C 		.ascii	"CYBLE_EVT_AIOSC_WRITE_DESCR_RESPONSE\000"
 5780      455F4556 
 5780      545F4149 
 5780      4F53435F 
 5780      57524954 
 5781              	.LASF374:
 5782 03b9 4359424C 		.ascii	"CYBLE_EVT_LLSS_WRITE_CHAR_REQ\000"
 5782      455F4556 
 5782      545F4C4C 
 5782      53535F57 
 5782      52495445 
 5783              	.LASF373:
 5784 03d7 4359424C 		.ascii	"CYBLE_EVT_IPSC_READ_BLOB_RSP\000"
 5784      455F4556 
 5784      545F4950 
 5784      53435F52 
 5784      4541445F 
 5785              	.LASF548:
 5786 03f4 626C655F 		.ascii	"ble_state\000"
 5786      73746174 
 5786      6500
 5787              	.LASF12:
 5788 03fe 75696E74 		.ascii	"uint16_t\000"
 5788      31365F74 
 5788      00
 5789              	.LASF25:
 5790 0407 4359424C 		.ascii	"CYBLE_EVT_STACK_ON\000"
 5790      455F4556 
 5790      545F5354 
 5790      41434B5F 
 5790      4F4E00
 5791              	.LASF304:
 5792 041a 4359424C 		.ascii	"CYBLE_EVT_ESSS_INDICATION_CONFIRMATION\000"
 5792      455F4556 
 5792      545F4553 
 5792      53535F49 
ARM GAS  C:\Users\megan\AppData\Local\Temp\ccqJAT7j.s 			page 119


 5792      4E444943 
 5793              	.LASF281:
 5794 0441 4359424C 		.ascii	"CYBLE_EVT_CSCSS_INDICATION_ENABLED\000"
 5794      455F4556 
 5794      545F4353 
 5794      4353535F 
 5794      494E4449 
 5795              	.LASF140:
 5796 0464 70656572 		.ascii	"peerAddrType\000"
 5796      41646472 
 5796      54797065 
 5796      00
 5797              	.LASF115:
 5798 0471 4359424C 		.ascii	"CYBLE_ERROR_GATT_DB_INVALID_ATTR_HANDLE\000"
 5798      455F4552 
 5798      524F525F 
 5798      47415454 
 5798      5F44425F 
 5799              	.LASF171:
 5800 0499 6C656E67 		.ascii	"length\000"
 5800      746800
 5801              	.LASF28:
 5802 04a0 4359424C 		.ascii	"CYBLE_EVT_HCI_STATUS\000"
 5802      455F4556 
 5802      545F4843 
 5802      495F5354 
 5802      41545553 
 5803              	.LASF133:
 5804 04b5 4359424C 		.ascii	"CYBLE_GAPC_CONN_UNDIRECTED_ADV\000"
 5804      455F4741 
 5804      50435F43 
 5804      4F4E4E5F 
 5804      554E4449 
 5805              	.LASF539:
 5806 04d4 6E656761 		.ascii	"negative\000"
 5806      74697665 
 5806      00
 5807              	.LASF33:
 5808 04dd 4359424C 		.ascii	"CYBLE_EVT_GAP_PASSKEY_ENTRY_REQUEST\000"
 5808      455F4556 
 5808      545F4741 
 5808      505F5041 
 5808      53534B45 
 5809              	.LASF427:
 5810 0501 4359424C 		.ascii	"CYBLE_EVT_SCPSC_READ_DESCR_RESPONSE\000"
 5810      455F4556 
 5810      545F5343 
 5810      5053435F 
 5810      52454144 
 5811              	.LASF527:
 5812 0525 6D6F6465 		.ascii	"modes\000"
 5812      7300
 5813              	.LASF308:
 5814 052b 4359424C 		.ascii	"CYBLE_EVT_ESSC_INDICATION\000"
 5814      455F4556 
 5814      545F4553 
 5814      53435F49 
ARM GAS  C:\Users\megan\AppData\Local\Temp\ccqJAT7j.s 			page 120


 5814      4E444943 
 5815              	.LASF430:
 5816 0545 4359424C 		.ascii	"CYBLE_EVT_TPSS_NOTIFICATION_DISABLED\000"
 5816      455F4556 
 5816      545F5450 
 5816      53535F4E 
 5816      4F544946 
 5817              	.LASF293:
 5818 056a 4359424C 		.ascii	"CYBLE_EVT_CTSS_CHAR_WRITE\000"
 5818      455F4556 
 5818      545F4354 
 5818      53535F43 
 5818      4841525F 
 5819              	.LASF526:
 5820 0584 62616E6E 		.ascii	"banner\000"
 5820      657200
 5821              	.LASF59:
 5822 058b 4359424C 		.ascii	"CYBLE_EVT_GATTC_XCHNG_MTU_RSP\000"
 5822      455F4556 
 5822      545F4741 
 5822      5454435F 
 5822      5843484E 
 5823              	.LASF303:
 5824 05a9 4359424C 		.ascii	"CYBLE_EVT_ESSS_INDICATION_DISABLED\000"
 5824      455F4556 
 5824      545F4553 
 5824      53535F49 
 5824      4E444943 
 5825              	.LASF485:
 5826 05cc 626F6F6C 		.ascii	"bool\000"
 5826      00
 5827              	.LASF212:
 5828 05d1 4359424C 		.ascii	"CYBLE_EVT_ANCSC_NOTIFICATION\000"
 5828      455F4556 
 5828      545F414E 
 5828      4353435F 
 5828      4E4F5449 
 5829              	.LASF558:
 5830 05ee 70656572 		.ascii	"peerAddr\000"
 5830      41646472 
 5830      00
 5831              	.LASF541:
 5832 05f7 66706172 		.ascii	"fpart\000"
 5832      7400
 5833              	.LASF259:
 5834 05fd 4359424C 		.ascii	"CYBLE_EVT_CGMSC_NOTIFICATION\000"
 5834      455F4556 
 5834      545F4347 
 5834      4D53435F 
 5834      4E4F5449 
 5835              	.LASF64:
 5836 061a 4359424C 		.ascii	"CYBLE_EVT_GATTC_READ_RSP\000"
 5836      455F4556 
 5836      545F4741 
 5836      5454435F 
 5836      52454144 
 5837              	.LASF226:
ARM GAS  C:\Users\megan\AppData\Local\Temp\ccqJAT7j.s 			page 121


 5838 0633 4359424C 		.ascii	"CYBLE_EVT_BASS_NOTIFICATION_DISABLED\000"
 5838      455F4556 
 5838      545F4241 
 5838      53535F4E 
 5838      4F544946 
 5839              	.LASF359:
 5840 0658 4359424C 		.ascii	"CYBLE_EVT_HTSC_NOTIFICATION\000"
 5840      455F4556 
 5840      545F4854 
 5840      53435F4E 
 5840      4F544946 
 5841              	.LASF325:
 5842 0674 4359424C 		.ascii	"CYBLE_EVT_HIDSS_NOTIFICATION_ENABLED\000"
 5842      455F4556 
 5842      545F4849 
 5842      4453535F 
 5842      4E4F5449 
 5843              	.LASF537:
 5844 0699 5072696E 		.ascii	"PrintInt\000"
 5844      74496E74 
 5844      00
 5845              	.LASF176:
 5846 06a2 4359424C 		.ascii	"CYBLE_GATTC_READ_BY_TYPE_RSP_PARAM_T\000"
 5846      455F4741 
 5846      5454435F 
 5846      52454144 
 5846      5F42595F 
 5847              	.LASF355:
 5848 06c7 4359424C 		.ascii	"CYBLE_EVT_HTSS_INDICATION_ENABLED\000"
 5848      455F4556 
 5848      545F4854 
 5848      53535F49 
 5848      4E444943 
 5849              	.LASF175:
 5850 06e9 4359424C 		.ascii	"CYBLE_GATTC_READ_BY_GRP_RSP_PARAM_T\000"
 5850      455F4741 
 5850      5454435F 
 5850      52454144 
 5850      5F42595F 
 5851              	.LASF505:
 5852 070d 6E6F7469 		.ascii	"notification\000"
 5852      66696361 
 5852      74696F6E 
 5852      00
 5853              	.LASF358:
 5854 071a 4359424C 		.ascii	"CYBLE_EVT_HTSS_CHAR_WRITE\000"
 5854      455F4556 
 5854      545F4854 
 5854      53535F43 
 5854      4841525F 
 5855              	.LASF402:
 5856 0734 4359424C 		.ascii	"CYBLE_EVT_PLXS_INDICATION_CONFIRMATION\000"
 5856      455F4556 
 5856      545F504C 
 5856      58535F49 
 5856      4E444943 
 5857              	.LASF434:
ARM GAS  C:\Users\megan\AppData\Local\Temp\ccqJAT7j.s 			page 122


 5858 075b 4359424C 		.ascii	"CYBLE_EVT_TPSC_WRITE_DESCR_RESPONSE\000"
 5858      455F4556 
 5858      545F5450 
 5858      53435F57 
 5858      52495445 
 5859              	.LASF486:
 5860 077f 61637475 		.ascii	"actual_temp\000"
 5860      616C5F74 
 5860      656D7000 
 5861              	.LASF458:
 5862 078b 4359424C 		.ascii	"CYBLE_EVT_WPTSC_READ_CHAR_RESPONSE\000"
 5862      455F4556 
 5862      545F5750 
 5862      5453435F 
 5862      52454144 
 5863              	.LASF49:
 5864 07ae 4359424C 		.ascii	"CYBLE_EVT_GAPC_DIRECT_ADV_REPORT\000"
 5864      455F4556 
 5864      545F4741 
 5864      50435F44 
 5864      49524543 
 5865              	.LASF302:
 5866 07cf 4359424C 		.ascii	"CYBLE_EVT_ESSS_INDICATION_ENABLED\000"
 5866      455F4556 
 5866      545F4553 
 5866      53535F49 
 5866      4E444943 
 5867              	.LASF13:
 5868 07f1 75696E74 		.ascii	"uint8\000"
 5868      3800
 5869              	.LASF163:
 5870 07f7 72616E67 		.ascii	"range\000"
 5870      6500
 5871              	.LASF282:
 5872 07fd 4359424C 		.ascii	"CYBLE_EVT_CSCSS_INDICATION_DISABLED\000"
 5872      455F4556 
 5872      545F4353 
 5872      4353535F 
 5872      494E4449 
 5873              	.LASF439:
 5874 0821 4359424C 		.ascii	"CYBLE_EVT_UDSS_NOTIFICATION_DISABLED\000"
 5874      455F4556 
 5874      545F5544 
 5874      53535F4E 
 5874      4F544946 
 5875              	.LASF561:
 5876 0846 62797465 		.ascii	"byte\000"
 5876      00
 5877              	.LASF160:
 5878 084b 73746172 		.ascii	"startHandle\000"
 5878      7448616E 
 5878      646C6500 
 5879              	.LASF479:
 5880 0857 4359424C 		.ascii	"CYBLE_SRVI_CUSTOMS_END\000"
 5880      455F5352 
 5880      56495F43 
 5880      5553544F 
ARM GAS  C:\Users\megan\AppData\Local\Temp\ccqJAT7j.s 			page 123


 5880      4D535F45 
 5881              	.LASF126:
 5882 086e 4359424C 		.ascii	"CYBLE_ERROR_CHAR_IS_NOT_DISCOVERED\000"
 5882      455F4552 
 5882      524F525F 
 5882      43484152 
 5882      5F49535F 
 5883              	.LASF343:
 5884 0891 4359424C 		.ascii	"CYBLE_EVT_HPSC_WRITE_DESCR_RESPONSE\000"
 5884      455F4556 
 5884      545F4850 
 5884      53435F57 
 5884      52495445 
 5885              	.LASF230:
 5886 08b5 4359424C 		.ascii	"CYBLE_EVT_BASC_WRITE_DESCR_RESPONSE\000"
 5886      455F4556 
 5886      545F4241 
 5886      53435F57 
 5886      52495445 
 5887              	.LASF264:
 5888 08d9 4359424C 		.ascii	"CYBLE_EVT_CPSS_NOTIFICATION_ENABLED\000"
 5888      455F4556 
 5888      545F4350 
 5888      53535F4E 
 5888      4F544946 
 5889              	.LASF380:
 5890 08fd 4359424C 		.ascii	"CYBLE_EVT_LNSS_NOTIFICATION_ENABLED\000"
 5890      455F4556 
 5890      545F4C4E 
 5890      53535F4E 
 5890      4F544946 
 5891              	.LASF27:
 5892 0921 4359424C 		.ascii	"CYBLE_EVT_HARDWARE_ERROR\000"
 5892      455F4556 
 5892      545F4841 
 5892      52445741 
 5892      52455F45 
 5893              	.LASF254:
 5894 093a 4359424C 		.ascii	"CYBLE_EVT_CGMSS_INDICATION_CONFIRMED\000"
 5894      455F4556 
 5894      545F4347 
 5894      4D53535F 
 5894      494E4449 
 5895              	.LASF97:
 5896 095f 4359424C 		.ascii	"CYBLE_ERROR_INVALID_PARAMETER\000"
 5896      455F4552 
 5896      524F525F 
 5896      494E5641 
 5896      4C49445F 
 5897              	.LASF198:
 5898 097d 4359424C 		.ascii	"CYBLE_EVT_AIOSS_INDICATION_DISABLED\000"
 5898      455F4556 
 5898      545F4149 
 5898      4F53535F 
 5898      494E4449 
 5899              	.LASF396:
 5900 09a1 4359424C 		.ascii	"CYBLE_EVT_PASSC_WRITE_DESCR_RESPONSE\000"
ARM GAS  C:\Users\megan\AppData\Local\Temp\ccqJAT7j.s 			page 124


 5900      455F4556 
 5900      545F5041 
 5900      5353435F 
 5900      57524954 
 5901              	.LASF489:
 5902 09c6 4F757473 		.ascii	"Outside\000"
 5902      69646500 
 5903              	.LASF388:
 5904 09ce 4359424C 		.ascii	"CYBLE_EVT_LNSC_WRITE_DESCR_RESPONSE\000"
 5904      455F4556 
 5904      545F4C4E 
 5904      53435F57 
 5904      52495445 
 5905              	.LASF488:
 5906 09f2 66616E5F 		.ascii	"fan_on\000"
 5906      6F6E00
 5907              	.LASF191:
 5908 09f9 4359424C 		.ascii	"CYBLE_EVT_GATTC_SRVC_DISCOVERY_COMPLETE\000"
 5908      455F4556 
 5908      545F4741 
 5908      5454435F 
 5908      53525643 
 5909              	.LASF262:
 5910 0a21 4359424C 		.ascii	"CYBLE_EVT_CGMSC_READ_DESCR_RESPONSE\000"
 5910      455F4556 
 5910      545F4347 
 5910      4D53435F 
 5910      52454144 
 5911              	.LASF398:
 5912 0a45 4359424C 		.ascii	"CYBLE_EVT_PLXSS_NOTIFICATION_ENABLED\000"
 5912      455F4556 
 5912      545F504C 
 5912      5853535F 
 5912      4E4F5449 
 5913              	.LASF82:
 5914 0a6a 4359424C 		.ascii	"CYBLE_EVT_L2CAP_COMMAND_REJ\000"
 5914      455F4556 
 5914      545F4C32 
 5914      4341505F 
 5914      434F4D4D 
 5915              	.LASF164:
 5916 0a86 75756964 		.ascii	"uuid\000"
 5916      00
 5917              	.LASF450:
 5918 0a8b 4359424C 		.ascii	"CYBLE_EVT_WPTSS_NOTIFICATION_DISABLED\000"
 5918      455F4556 
 5918      545F5750 
 5918      5453535F 
 5918      4E4F5449 
 5919              	.LASF383:
 5920 0ab1 4359424C 		.ascii	"CYBLE_EVT_LNSC_INDICATION\000"
 5920      455F4556 
 5920      545F4C4E 
 5920      53435F49 
 5920      4E444943 
 5921              	.LASF289:
 5922 0acb 4359424C 		.ascii	"CYBLE_EVT_CSCSC_READ_DESCR_RESPONSE\000"
ARM GAS  C:\Users\megan\AppData\Local\Temp\ccqJAT7j.s 			page 125


 5922      455F4556 
 5922      545F4353 
 5922      4353435F 
 5922      52454144 
 5923              	.LASF93:
 5924 0aef 4359424C 		.ascii	"CYBLE_EVT_HCI_PKT\000"
 5924      455F4556 
 5924      545F4843 
 5924      495F504B 
 5924      5400
 5925              	.LASF468:
 5926 0b01 4359424C 		.ascii	"CYBLE_DEBUG_EVT_BLESS_INT\000"
 5926      455F4445 
 5926      4255475F 
 5926      4556545F 
 5926      424C4553 
 5927              	.LASF131:
 5928 0b1b 74797065 		.ascii	"type\000"
 5928      00
 5929              	.LASF50:
 5930 0b20 4359424C 		.ascii	"CYBLE_EVT_GAP_SMP_NEGOTIATED_AUTH_INFO\000"
 5930      455F4556 
 5930      545F4741 
 5930      505F534D 
 5930      505F4E45 
 5931              	.LASF370:
 5932 0b47 4359424C 		.ascii	"CYBLE_EVT_IPSC_READ_DESCR_RESPONSE\000"
 5932      455F4556 
 5932      545F4950 
 5932      53435F52 
 5932      4541445F 
 5933              	.LASF203:
 5934 0b6a 4359424C 		.ascii	"CYBLE_EVT_AIOSC_INDICATION\000"
 5934      455F4556 
 5934      545F4149 
 5934      4F53435F 
 5934      494E4449 
 5935              	.LASF157:
 5936 0b85 4359424C 		.ascii	"CYBLE_GATT_VALUE_T\000"
 5936      455F4741 
 5936      54545F56 
 5936      414C5545 
 5936      5F5400
 5937              	.LASF421:
 5938 0b98 4359424C 		.ascii	"CYBLE_EVT_RTUSS_WRITE_CHAR_CMD\000"
 5938      455F4556 
 5938      545F5254 
 5938      5553535F 
 5938      57524954 
 5939              	.LASF4:
 5940 0bb7 5F5F7569 		.ascii	"__uint16_t\000"
 5940      6E743136 
 5940      5F7400
 5941              	.LASF553:
 5942 0bc2 5F776964 		.ascii	"_width\000"
 5942      746800
 5943              	.LASF193:
ARM GAS  C:\Users\megan\AppData\Local\Temp\ccqJAT7j.s 			page 126


 5944 0bc9 4359424C 		.ascii	"CYBLE_EVT_GATTC_CHAR_DISCOVERY_COMPLETE\000"
 5944      455F4556 
 5944      545F4741 
 5944      5454435F 
 5944      43484152 
 5945              	.LASF69:
 5946 0bf1 4359424C 		.ascii	"CYBLE_EVT_GATTS_WRITE_CMD_REQ\000"
 5946      455F4556 
 5946      545F4741 
 5946      5454535F 
 5946      57524954 
 5947              	.LASF150:
 5948 0c0f 75756964 		.ascii	"uuid128\000"
 5948      31323800 
 5949              	.LASF490:
 5950 0c17 74656D70 		.ascii	"temp\000"
 5950      00
 5951              	.LASF248:
 5952 0c1c 4359424C 		.ascii	"CYBLE_EVT_BMSS_WRITE_CHAR\000"
 5952      455F4556 
 5952      545F424D 
 5952      53535F57 
 5952      52495445 
 5953              	.LASF389:
 5954 0c36 4359424C 		.ascii	"CYBLE_EVT_NDCSC_READ_CHAR_RESPONSE\000"
 5954      455F4556 
 5954      545F4E44 
 5954      4353435F 
 5954      52454144 
 5955              	.LASF496:
 5956 0c59 6D6F6465 		.ascii	"mode\000"
 5956      00
 5957              	.LASF66:
 5958 0c5e 4359424C 		.ascii	"CYBLE_EVT_GATTC_READ_MULTI_RSP\000"
 5958      455F4556 
 5958      545F4741 
 5958      5454435F 
 5958      52454144 
 5959              	.LASF242:
 5960 0c7d 4359424C 		.ascii	"CYBLE_EVT_BLSS_NOTIFICATION_DISABLED\000"
 5960      455F4556 
 5960      545F424C 
 5960      53535F4E 
 5960      4F544946 
 5961              	.LASF473:
 5962 0ca2 4359424C 		.ascii	"CYBLE_STATE_CONNECTING\000"
 5962      455F5354 
 5962      4154455F 
 5962      434F4E4E 
 5962      45435449 
 5963              	.LASF55:
 5964 0cb9 4359424C 		.ascii	"CYBLE_EVT_GATTC_ERROR_RSP\000"
 5964      455F4556 
 5964      545F4741 
 5964      5454435F 
 5964      4552524F 
 5965              	.LASF528:
ARM GAS  C:\Users\megan\AppData\Local\Temp\ccqJAT7j.s 			page 127


 5966 0cd3 696E666F 		.ascii	"info\000"
 5966      00
 5967              	.LASF180:
 5968 0cd8 4359424C 		.ascii	"CYBLE_KEY_EXCHANGE_INFO_REQUEST_REPLY\000"
 5968      455F4B45 
 5968      595F4558 
 5968      4348414E 
 5968      47455F49 
 5969              	.LASF563:
 5970 0cfe 474E5520 		.ascii	"GNU C11 5.4.1 20160609 (release) [ARM/embedded-5-br"
 5970      43313120 
 5970      352E342E 
 5970      31203230 
 5970      31363036 
 5971 0d31 616E6368 		.ascii	"anch revision 237715] -mcpu=cortex-m0 -mthumb -g -O"
 5971      20726576 
 5971      6973696F 
 5971      6E203233 
 5971      37373135 
 5972 0d64 30202D66 		.ascii	"0 -ffunction-sections -ffat-lto-objects\000"
 5972      66756E63 
 5972      74696F6E 
 5972      2D736563 
 5972      74696F6E 
 5973              	.LASF491:
 5974 0d8c 52413838 		.ascii	"RA8875sizes\000"
 5974      37357369 
 5974      7A657300 
 5975              	.LASF1:
 5976 0d98 756E7369 		.ascii	"unsigned char\000"
 5976      676E6564 
 5976      20636861 
 5976      7200
 5977              	.LASF37:
 5978 0da6 4359424C 		.ascii	"CYBLE_EVT_GAPP_ADVERTISEMENT_START_STOP\000"
 5978      455F4556 
 5978      545F4741 
 5978      50505F41 
 5978      44564552 
 5979              	.LASF122:
 5980 0dce 4359424C 		.ascii	"CYBLE_ERROR_CONTROLLER_BUSY\000"
 5980      455F4552 
 5980      524F525F 
 5980      434F4E54 
 5980      524F4C4C 
 5981              	.LASF18:
 5982 0dea 666C6F61 		.ascii	"float\000"
 5982      7400
 5983              	.LASF290:
 5984 0df0 4359424C 		.ascii	"CYBLE_EVT_CSCSC_WRITE_DESCR_RESPONSE\000"
 5984      455F4556 
 5984      545F4353 
 5984      4353435F 
 5984      57524954 
 5985              	.LASF336:
 5986 0e15 4359424C 		.ascii	"CYBLE_EVT_HIDSC_WRITE_DESCR_RESPONSE\000"
 5986      455F4556 
ARM GAS  C:\Users\megan\AppData\Local\Temp\ccqJAT7j.s 			page 128


 5986      545F4849 
 5986      4453435F 
 5986      57524954 
 5987              	.LASF494:
 5988 0e3a 6175746F 		.ascii	"automatic\000"
 5988      6D617469 
 5988      6300
 5989              	.LASF62:
 5990 0e44 4359424C 		.ascii	"CYBLE_EVT_GATTC_FIND_INFO_RSP\000"
 5990      455F4556 
 5990      545F4741 
 5990      5454435F 
 5990      46494E44 
 5991              	.LASF83:
 5992 0e62 4359424C 		.ascii	"CYBLE_EVT_L2CAP_CBFC_CONN_IND\000"
 5992      455F4556 
 5992      545F4C32 
 5992      4341505F 
 5992      43424643 
 5993              	.LASF556:
 5994 0e80 5F73697A 		.ascii	"_size\000"
 5994      6500
 5995              	.LASF213:
 5996 0e86 4359424C 		.ascii	"CYBLE_EVT_ANCSC_WRITE_CHAR_RESPONSE\000"
 5996      455F4556 
 5996      545F414E 
 5996      4353435F 
 5996      57524954 
 5997              	.LASF377:
 5998 0eaa 4359424C 		.ascii	"CYBLE_EVT_LNSS_INDICATION_ENABLED\000"
 5998      455F4556 
 5998      545F4C4E 
 5998      53535F49 
 5998      4E444943 
 5999              	.LASF85:
 6000 0ecc 4359424C 		.ascii	"CYBLE_EVT_L2CAP_CBFC_DISCONN_IND\000"
 6000      455F4556 
 6000      545F4C32 
 6000      4341505F 
 6000      43424643 
 6001              	.LASF205:
 6002 0eed 4359424C 		.ascii	"CYBLE_EVT_AIOSC_WRITE_CHAR_RESPONSE\000"
 6002      455F4556 
 6002      545F4149 
 6002      4F53435F 
 6002      57524954 
 6003              	.LASF544:
 6004 0f11 7265675F 		.ascii	"reg_result\000"
 6004      72657375 
 6004      6C7400
 6005              	.LASF275:
 6006 0f1c 4359424C 		.ascii	"CYBLE_EVT_CPSC_WRITE_CHAR_RESPONSE\000"
 6006      455F4556 
 6006      545F4350 
 6006      53435F57 
 6006      52495445 
 6007              	.LASF32:
ARM GAS  C:\Users\megan\AppData\Local\Temp\ccqJAT7j.s 			page 129


 6008 0f3f 4359424C 		.ascii	"CYBLE_EVT_GAP_AUTH_REQ\000"
 6008      455F4556 
 6008      545F4741 
 6008      505F4155 
 6008      54485F52 
 6009              	.LASF208:
 6010 0f56 4359424C 		.ascii	"CYBLE_EVT_AIOSC_ERROR_RESPONSE\000"
 6010      455F4556 
 6010      545F4149 
 6010      4F53435F 
 6010      4552524F 
 6011              	.LASF238:
 6012 0f75 4359424C 		.ascii	"CYBLE_EVT_BLSS_INDICATION_ENABLED\000"
 6012      455F4556 
 6012      545F424C 
 6012      53535F49 
 6012      4E444943 
 6013              	.LASF335:
 6014 0f97 4359424C 		.ascii	"CYBLE_EVT_HIDSC_READ_DESCR_RESPONSE\000"
 6014      455F4556 
 6014      545F4849 
 6014      4453435F 
 6014      52454144 
 6015              	.LASF518:
 6016 0fbb 4C434449 		.ascii	"LCDInitDemo\000"
 6016      6E697444 
 6016      656D6F00 
 6017              	.LASF142:
 6018 0fc7 64617461 		.ascii	"dataLen\000"
 6018      4C656E00 
 6019              	.LASF141:
 6020 0fcf 70656572 		.ascii	"peerBdAddr\000"
 6020      42644164 
 6020      647200
 6021              	.LASF425:
 6022 0fda 4359424C 		.ascii	"CYBLE_EVT_SCPSS_SCAN_INT_WIN_CHAR_WRITE\000"
 6022      455F4556 
 6022      545F5343 
 6022      5053535F 
 6022      5343414E 
 6023              	.LASF250:
 6024 1002 4359424C 		.ascii	"CYBLE_EVT_BMSC_WRITE_CHAR_RESPONSE\000"
 6024      455F4556 
 6024      545F424D 
 6024      53435F57 
 6024      52495445 
 6025              	.LASF471:
 6026 1025 4359424C 		.ascii	"CYBLE_STATE_CONNECTED\000"
 6026      455F5354 
 6026      4154455F 
 6026      434F4E4E 
 6026      45435445 
 6027              	.LASF419:
 6028 103b 4359424C 		.ascii	"CYBLE_EVT_RSCSC_READ_DESCR_RESPONSE\000"
 6028      455F4556 
 6028      545F5253 
 6028      4353435F 
ARM GAS  C:\Users\megan\AppData\Local\Temp\ccqJAT7j.s 			page 130


 6028      52454144 
 6029              	.LASF404:
 6030 105f 4359424C 		.ascii	"CYBLE_EVT_PLXSC_INDICATION\000"
 6030      455F4556 
 6030      545F504C 
 6030      5853435F 
 6030      494E4449 
 6031              	.LASF298:
 6032 107a 4359424C 		.ascii	"CYBLE_EVT_CTSC_WRITE_CHAR_RESPONSE\000"
 6032      455F4556 
 6032      545F4354 
 6032      53435F57 
 6032      52495445 
 6033              	.LASF114:
 6034 109d 4359424C 		.ascii	"CYBLE_ERROR_L2CAP_PSM_NOT_IN_RANGE\000"
 6034      455F4552 
 6034      524F525F 
 6034      4C324341 
 6034      505F5053 
 6035              	.LASF128:
 6036 10c0 4359424C 		.ascii	"CYBLE_ERROR_STACK_BUSY\000"
 6036      455F4552 
 6036      524F525F 
 6036      53544143 
 6036      4B5F4255 
 6037              	.LASF449:
 6038 10d7 4359424C 		.ascii	"CYBLE_EVT_WPTSS_NOTIFICATION_ENABLED\000"
 6038      455F4556 
 6038      545F5750 
 6038      5453535F 
 6038      4E4F5449 
 6039              	.LASF387:
 6040 10fc 4359424C 		.ascii	"CYBLE_EVT_LNSC_READ_DESCR_RESPONSE\000"
 6040      455F4556 
 6040      545F4C4E 
 6040      53435F52 
 6040      4541445F 
 6041              	.LASF426:
 6042 111f 4359424C 		.ascii	"CYBLE_EVT_SCPSC_NOTIFICATION\000"
 6042      455F4556 
 6042      545F5343 
 6042      5053435F 
 6042      4E4F5449 
 6043              	.LASF428:
 6044 113c 4359424C 		.ascii	"CYBLE_EVT_SCPSC_WRITE_DESCR_RESPONSE\000"
 6044      455F4556 
 6044      545F5343 
 6044      5053435F 
 6044      57524954 
 6045              	.LASF177:
 6046 1161 4359424C 		.ascii	"CYBLE_AUTHENTICATION_REQUEST_REPLY\000"
 6046      455F4155 
 6046      5448454E 
 6046      54494341 
 6046      54494F4E 
 6047              	.LASF31:
 6048 1184 4359424C 		.ascii	"CYBLE_EVT_GAPC_SCAN_PROGRESS_RESULT\000"
ARM GAS  C:\Users\megan\AppData\Local\Temp\ccqJAT7j.s 			page 131


 6048      455F4556 
 6048      545F4741 
 6048      50435F53 
 6048      43414E5F 
 6049              	.LASF442:
 6050 11a8 4359424C 		.ascii	"CYBLE_EVT_UDSC_INDICATION\000"
 6050      455F4556 
 6050      545F5544 
 6050      53435F49 
 6050      4E444943 
 6051              	.LASF278:
 6052 11c2 4359424C 		.ascii	"CYBLE_EVT_CPSC_SCAN_PROGRESS_RESULT\000"
 6052      455F4556 
 6052      545F4350 
 6052      53435F53 
 6052      43414E5F 
 6053              	.LASF294:
 6054 11e6 4359424C 		.ascii	"CYBLE_EVT_CTSC_NOTIFICATION\000"
 6054      455F4556 
 6054      545F4354 
 6054      53435F4E 
 6054      4F544946 
 6055              	.LASF222:
 6056 1202 4359424C 		.ascii	"CYBLE_EVT_ANSC_WRITE_CHAR_RESPONSE\000"
 6056      455F4556 
 6056      545F414E 
 6056      53435F57 
 6056      52495445 
 6057              	.LASF360:
 6058 1225 4359424C 		.ascii	"CYBLE_EVT_HTSC_INDICATION\000"
 6058      455F4556 
 6058      545F4854 
 6058      53435F49 
 6058      4E444943 
 6059              	.LASF26:
 6060 123f 4359424C 		.ascii	"CYBLE_EVT_TIMEOUT\000"
 6060      455F4556 
 6060      545F5449 
 6060      4D454F55 
 6060      5400
 6061              	.LASF435:
 6062 1251 4359424C 		.ascii	"CYBLE_EVT_UDSS_INDICATION_ENABLED\000"
 6062      455F4556 
 6062      545F5544 
 6062      53535F49 
 6062      4E444943 
 6063              	.LASF236:
 6064 1273 4359424C 		.ascii	"CYBLE_EVT_BCSC_READ_DESCR_RESPONSE\000"
 6064      455F4556 
 6064      545F4243 
 6064      53435F52 
 6064      4541445F 
 6065              	.LASF408:
 6066 1296 4359424C 		.ascii	"CYBLE_EVT_PLXSC_WRITE_DESCR_RESPONSE\000"
 6066      455F4556 
 6066      545F504C 
 6066      5853435F 
ARM GAS  C:\Users\megan\AppData\Local\Temp\ccqJAT7j.s 			page 132


 6066      57524954 
 6067              	.LASF395:
 6068 12bb 4359424C 		.ascii	"CYBLE_EVT_PASSC_READ_DESCR_RESPONSE\000"
 6068      455F4556 
 6068      545F5041 
 6068      5353435F 
 6068      52454144 
 6069              	.LASF153:
 6070 12df 62644861 		.ascii	"bdHandle\000"
 6070      6E646C65 
 6070      00
 6071              	.LASF194:
 6072 12e8 4359424C 		.ascii	"CYBLE_EVT_GATTC_DISCOVERY_COMPLETE\000"
 6072      455F4556 
 6072      545F4741 
 6072      5454435F 
 6072      44495343 
 6073              	.LASF186:
 6074 130b 4359424C 		.ascii	"CYBLE_EVT_GATTC_CHAR_DISCOVERY_FAILED\000"
 6074      455F4556 
 6074      545F4741 
 6074      5454435F 
 6074      43484152 
 6075              	.LASF456:
 6076 1331 4359424C 		.ascii	"CYBLE_EVT_WPTSC_INDICATION\000"
 6076      455F4556 
 6076      545F5750 
 6076      5453435F 
 6076      494E4449 
 6077              	.LASF92:
 6078 134c 4359424C 		.ascii	"CYBLE_EVT_LE_PING_AUTH_TIMEOUT\000"
 6078      455F4556 
 6078      545F4C45 
 6078      5F50494E 
 6078      475F4155 
 6079              	.LASF349:
 6080 136b 4359424C 		.ascii	"CYBLE_EVT_HRSC_READ_CHAR_RESPONSE\000"
 6080      455F4556 
 6080      545F4852 
 6080      53435F52 
 6080      4541445F 
 6081              	.LASF104:
 6082 138d 4359424C 		.ascii	"CYBLE_ERROR_REPEATED_ATTEMPTS\000"
 6082      455F4552 
 6082      524F525F 
 6082      52455045 
 6082      41544544 
 6083              	.LASF17:
 6084 13ab 666C6F61 		.ascii	"float32\000"
 6084      74333200 
 6085              	.LASF211:
 6086 13b3 4359424C 		.ascii	"CYBLE_EVT_ANCSS_WRITE_CHAR\000"
 6086      455F4556 
 6086      545F414E 
 6086      4353535F 
 6086      57524954 
 6087              	.LASF90:
ARM GAS  C:\Users\megan\AppData\Local\Temp\ccqJAT7j.s 			page 133


 6088 13ce 4359424C 		.ascii	"CYBLE_EVT_L2CAP_CBFC_DATA_WRITE_IND\000"
 6088      455F4556 
 6088      545F4C32 
 6088      4341505F 
 6088      43424643 
 6089              	.LASF235:
 6090 13f2 4359424C 		.ascii	"CYBLE_EVT_BCSC_READ_CHAR_RESPONSE\000"
 6090      455F4556 
 6090      545F4243 
 6090      53435F52 
 6090      4541445F 
 6091              	.LASF73:
 6092 1414 4359424C 		.ascii	"CYBLE_EVT_GATTC_HANDLE_VALUE_NTF\000"
 6092      455F4556 
 6092      545F4741 
 6092      5454435F 
 6092      48414E44 
 6093              	.LASF130:
 6094 1435 62644164 		.ascii	"bdAddr\000"
 6094      647200
 6095              	.LASF209:
 6096 143c 4359424C 		.ascii	"CYBLE_EVT_ANCSS_NOTIFICATION_ENABLED\000"
 6096      455F4556 
 6096      545F414E 
 6096      4353535F 
 6096      4E4F5449 
 6097              	.LASF415:
 6098 1461 4359424C 		.ascii	"CYBLE_EVT_RSCSC_NOTIFICATION\000"
 6098      455F4556 
 6098      545F5253 
 6098      4353435F 
 6098      4E4F5449 
 6099              	.LASF315:
 6100 147e 4359424C 		.ascii	"CYBLE_EVT_GLSS_INDICATION_CONFIRMED\000"
 6100      455F4556 
 6100      545F474C 
 6100      53535F49 
 6100      4E444943 
 6101              	.LASF507:
 6102 14a2 72656164 		.ascii	"readByTypeReqParam\000"
 6102      42795479 
 6102      70655265 
 6102      71506172 
 6102      616D00
 6103              	.LASF406:
 6104 14b5 4359424C 		.ascii	"CYBLE_EVT_PLXSC_WRITE_CHAR_RESPONSE\000"
 6104      455F4556 
 6104      545F504C 
 6104      5853435F 
 6104      57524954 
 6105              	.LASF441:
 6106 14d9 4359424C 		.ascii	"CYBLE_EVT_UDSS_WRITE_CHAR\000"
 6106      455F4556 
 6106      545F5544 
 6106      53535F57 
 6106      52495445 
 6107              	.LASF196:
ARM GAS  C:\Users\megan\AppData\Local\Temp\ccqJAT7j.s 			page 134


 6108 14f3 4359424C 		.ascii	"CYBLE_EVT_AIOSS_NOTIFICATION_DISABLED\000"
 6108      455F4556 
 6108      545F4149 
 6108      4F53535F 
 6108      4E4F5449 
 6109              	.LASF499:
 6110 1519 6572726F 		.ascii	"error\000"
 6110      7200
 6111              	.LASF362:
 6112 151f 4359424C 		.ascii	"CYBLE_EVT_HTSC_WRITE_CHAR_RESPONSE\000"
 6112      455F4556 
 6112      545F4854 
 6112      53435F57 
 6112      52495445 
 6113              	.LASF124:
 6114 1542 4359424C 		.ascii	"CYBLE_ERROR_NTF_DISABLED\000"
 6114      455F4552 
 6114      524F525F 
 6114      4E54465F 
 6114      44495341 
 6115              	.LASF11:
 6116 155b 75696E74 		.ascii	"uint8_t\000"
 6116      385F7400 
 6117              	.LASF284:
 6118 1563 4359424C 		.ascii	"CYBLE_EVT_CSCSS_CHAR_WRITE\000"
 6118      455F4556 
 6118      545F4353 
 6118      4353535F 
 6118      43484152 
 6119              	.LASF129:
 6120 157e 4359424C 		.ascii	"CYBLE_API_RESULT_T\000"
 6120      455F4150 
 6120      495F5245 
 6120      53554C54 
 6120      5F5400
 6121              	.LASF368:
 6122 1591 4359424C 		.ascii	"CYBLE_EVT_IPSC_READ_MULTIPLE_CHAR_RESPONSE\000"
 6122      455F4556 
 6122      545F4950 
 6122      53435F52 
 6122      4541445F 
 6123              	.LASF504:
 6124 15bc 73706163 		.ascii	"space\000"
 6124      6500
 6125              	.LASF161:
 6126 15c2 656E6448 		.ascii	"endHandle\000"
 6126      616E646C 
 6126      6500
 6127              	.LASF500:
 6128 15cc 70617261 		.ascii	"param\000"
 6128      6D00
 6129              	.LASF437:
 6130 15d2 4359424C 		.ascii	"CYBLE_EVT_UDSS_INDICATION_CONFIRMED\000"
 6130      455F4556 
 6130      545F5544 
 6130      53535F49 
 6130      4E444943 
ARM GAS  C:\Users\megan\AppData\Local\Temp\ccqJAT7j.s 			page 135


 6131              	.LASF463:
 6132 15f6 4359424C 		.ascii	"CYBLE_EVT_WSSS_INDICATION_CONFIRMED\000"
 6132      455F4556 
 6132      545F5753 
 6132      53535F49 
 6132      4E444943 
 6133              	.LASF469:
 6134 161a 4359424C 		.ascii	"CYBLE_STATE_STOPPED\000"
 6134      455F5354 
 6134      4154455F 
 6134      53544F50 
 6134      50454400 
 6135              	.LASF187:
 6136 162e 4359424C 		.ascii	"CYBLE_EVT_GATTC_DESCR_DISCOVERY_FAILED\000"
 6136      455F4556 
 6136      545F4741 
 6136      5454435F 
 6136      44455343 
 6137              	.LASF47:
 6138 1655 4359424C 		.ascii	"CYBLE_EVT_GAP_DATA_LENGTH_CHANGE\000"
 6138      455F4556 
 6138      545F4741 
 6138      505F4441 
 6138      54415F4C 
 6139              	.LASF510:
 6140 1676 61706952 		.ascii	"apiResult\000"
 6140      6573756C 
 6140      7400
 6141              	.LASF87:
 6142 1680 4359424C 		.ascii	"CYBLE_EVT_L2CAP_CBFC_DATA_READ\000"
 6142      455F4556 
 6142      545F4C32 
 6142      4341505F 
 6142      43424643 
 6143              	.LASF118:
 6144 169f 4359424C 		.ascii	"CYBLE_ERROR_MIC_AUTH_FAILED\000"
 6144      455F4552 
 6144      524F525F 
 6144      4D49435F 
 6144      41555448 
 6145              	.LASF549:
 6146 16bb 70657269 		.ascii	"peripheral_addr\000"
 6146      70686572 
 6146      616C5F61 
 6146      64647200 
 6147              	.LASF535:
 6148 16cb 53746163 		.ascii	"StackEventHandler\000"
 6148      6B457665 
 6148      6E744861 
 6148      6E646C65 
 6148      7200
 6149              	.LASF263:
 6150 16dd 4359424C 		.ascii	"CYBLE_EVT_CGMSC_WRITE_DESCR_RESPONSE\000"
 6150      455F4556 
 6150      545F4347 
 6150      4D53435F 
 6150      57524954 
ARM GAS  C:\Users\megan\AppData\Local\Temp\ccqJAT7j.s 			page 136


 6151              	.LASF532:
 6152 1702 7363725F 		.ascii	"scr_height\000"
 6152      68656967 
 6152      687400
 6153              	.LASF260:
 6154 170d 4359424C 		.ascii	"CYBLE_EVT_CGMSC_READ_CHAR_RESPONSE\000"
 6154      455F4556 
 6154      545F4347 
 6154      4D53435F 
 6154      52454144 
 6155              	.LASF139:
 6156 1730 6576656E 		.ascii	"eventType\000"
 6156      74547970 
 6156      6500
 6157              	.LASF65:
 6158 173a 4359424C 		.ascii	"CYBLE_EVT_GATTC_READ_BLOB_RSP\000"
 6158      455F4556 
 6158      545F4741 
 6158      5454435F 
 6158      52454144 
 6159              	.LASF324:
 6160 1758 4359424C 		.ascii	"CYBLE_EVT_GLSC_WRITE_DESCR_RESPONSE\000"
 6160      455F4556 
 6160      545F474C 
 6160      53435F57 
 6160      52495445 
 6161              	.LASF30:
 6162 177c 4359424C 		.ascii	"CYBLE_EVT_MEMORY_REQUEST\000"
 6162      455F4556 
 6162      545F4D45 
 6162      4D4F5259 
 6162      5F524551 
 6163              	.LASF71:
 6164 1795 4359424C 		.ascii	"CYBLE_EVT_GATTS_EXEC_WRITE_REQ\000"
 6164      455F4556 
 6164      545F4741 
 6164      5454535F 
 6164      45584543 
 6165              	.LASF241:
 6166 17b4 4359424C 		.ascii	"CYBLE_EVT_BLSS_NOTIFICATION_ENABLED\000"
 6166      455F4556 
 6166      545F424C 
 6166      53535F4E 
 6166      4F544946 
 6167              	.LASF345:
 6168 17d8 4359424C 		.ascii	"CYBLE_EVT_HRSS_ENERGY_EXPENDED_RESET\000"
 6168      455F4556 
 6168      545F4852 
 6168      53535F45 
 6168      4E455247 
 6169              	.LASF472:
 6170 17fd 4359424C 		.ascii	"CYBLE_STATE_SCANNING\000"
 6170      455F5354 
 6170      4154455F 
 6170      5343414E 
 6170      4E494E47 
 6171              	.LASF116:
ARM GAS  C:\Users\megan\AppData\Local\Temp\ccqJAT7j.s 			page 137


 6172 1812 4359424C 		.ascii	"CYBLE_ERROR_DEVICE_ALREADY_EXISTS\000"
 6172      455F4552 
 6172      524F525F 
 6172      44455649 
 6172      43455F41 
 6173              	.LASF168:
 6174 1834 68616E64 		.ascii	"handleValPair\000"
 6174      6C655661 
 6174      6C506169 
 6174      7200
 6175              	.LASF344:
 6176 1842 4359424C 		.ascii	"CYBLE_EVT_HPSC_WRITE_CHAR_RESPONSE\000"
 6176      455F4556 
 6176      545F4850 
 6176      53435F57 
 6176      52495445 
 6177              	.LASF112:
 6178 1865 4359424C 		.ascii	"CYBLE_ERROR_L2CAP_CONNECTION_ENTITY_NOT_FOUND\000"
 6178      455F4552 
 6178      524F525F 
 6178      4C324341 
 6178      505F434F 
 6179              	.LASF543:
 6180 1893 73697A65 		.ascii	"size_result\000"
 6180      5F726573 
 6180      756C7400 
 6181              	.LASF105:
 6182 189f 4359424C 		.ascii	"CYBLE_ERROR_GAP_ROLE\000"
 6182      455F4552 
 6182      524F525F 
 6182      4741505F 
 6182      524F4C45 
 6183              	.LASF357:
 6184 18b4 4359424C 		.ascii	"CYBLE_EVT_HTSS_INDICATION_CONFIRMED\000"
 6184      455F4556 
 6184      545F4854 
 6184      53535F49 
 6184      4E444943 
 6185              	.LASF147:
 6186 18d8 76616C75 		.ascii	"value\000"
 6186      6500
 6187              	.LASF447:
 6188 18de 4359424C 		.ascii	"CYBLE_EVT_UDSC_WRITE_DESCR_RESPONSE\000"
 6188      455F4556 
 6188      545F5544 
 6188      53435F57 
 6188      52495445 
 6189              	.LASF462:
 6190 1902 4359424C 		.ascii	"CYBLE_EVT_WSSS_INDICATION_DISABLED\000"
 6190      455F4556 
 6190      545F5753 
 6190      53535F49 
 6190      4E444943 
 6191              	.LASF467:
 6192 1925 4359424C 		.ascii	"CYBLE_EVT_WSSC_WRITE_DESCR_RESPONSE\000"
 6192      455F4556 
 6192      545F5753 
ARM GAS  C:\Users\megan\AppData\Local\Temp\ccqJAT7j.s 			page 138


 6192      53435F57 
 6192      52495445 
 6193              	.LASF251:
 6194 1949 4359424C 		.ascii	"CYBLE_EVT_BMSC_READ_DESCR_RESPONSE\000"
 6194      455F4556 
 6194      545F424D 
 6194      53435F52 
 6194      4541445F 
 6195              	.LASF520:
 6196 196c 77616974 		.ascii	"waiting\000"
 6196      696E6700 
 6197              	.LASF217:
 6198 1974 4359424C 		.ascii	"CYBLE_EVT_ANSS_NOTIFICATION_ENABLED\000"
 6198      455F4556 
 6198      545F414E 
 6198      53535F4E 
 6198      4F544946 
 6199              	.LASF474:
 6200 1998 4359424C 		.ascii	"CYBLE_STATE_DISCONNECTED\000"
 6200      455F5354 
 6200      4154455F 
 6200      44495343 
 6200      4F4E4E45 
 6201              	.LASF417:
 6202 19b1 4359424C 		.ascii	"CYBLE_EVT_RSCSC_READ_CHAR_RESPONSE\000"
 6202      455F4556 
 6202      545F5253 
 6202      4353435F 
 6202      52454144 
 6203              	.LASF57:
 6204 19d4 4359424C 		.ascii	"CYBLE_EVT_GATT_DISCONNECT_IND\000"
 6204      455F4556 
 6204      545F4741 
 6204      54545F44 
 6204      4953434F 
 6205              	.LASF296:
 6206 19f2 4359424C 		.ascii	"CYBLE_EVT_CTSC_READ_DESCR_RESPONSE\000"
 6206      455F4556 
 6206      545F4354 
 6206      53435F52 
 6206      4541445F 
 6207              	.LASF179:
 6208 1a15 4359424C 		.ascii	"CYBLE_LONG_TERM_KEY_REQUEST_REPLY\000"
 6208      455F4C4F 
 6208      4E475F54 
 6208      45524D5F 
 6208      4B45595F 
 6209              	.LASF16:
 6210 1a37 696E7438 		.ascii	"int8\000"
 6210      00
 6211              	.LASF478:
 6212 1a3c 4359424C 		.ascii	"CYBLE_SRVI_CUSTOMS\000"
 6212      455F5352 
 6212      56495F43 
 6212      5553544F 
 6212      4D5300
 6213              	.LASF502:
ARM GAS  C:\Users\megan\AppData\Local\Temp\ccqJAT7j.s 			page 139


 6214 1a4f 73657276 		.ascii	"serviceCount\000"
 6214      69636543 
 6214      6F756E74 
 6214      00
 6215              	.LASF401:
 6216 1a5c 4359424C 		.ascii	"CYBLE_EVT_PLXSS_INDICATION_DISABLED\000"
 6216      455F4556 
 6216      545F504C 
 6216      5853535F 
 6216      494E4449 
 6217              	.LASF149:
 6218 1a80 75756964 		.ascii	"uuid16\000"
 6218      313600
 6219              	.LASF292:
 6220 1a87 4359424C 		.ascii	"CYBLE_EVT_CTSS_NOTIFICATION_DISABLED\000"
 6220      455F4556 
 6220      545F4354 
 6220      53535F4E 
 6220      4F544946 
 6221              	.LASF330:
 6222 1aac 4359424C 		.ascii	"CYBLE_EVT_HIDSS_EXIT_SUSPEND\000"
 6222      455F4556 
 6222      545F4849 
 6222      4453535F 
 6222      45584954 
 6223              	.LASF353:
 6224 1ac9 4359424C 		.ascii	"CYBLE_EVT_HTSS_NOTIFICATION_ENABLED\000"
 6224      455F4556 
 6224      545F4854 
 6224      53535F4E 
 6224      4F544946 
 6225              	.LASF365:
 6226 1aed 4359424C 		.ascii	"CYBLE_EVT_IASS_WRITE_CHAR_CMD\000"
 6226      455F4556 
 6226      545F4941 
 6226      53535F57 
 6226      52495445 
 6227              	.LASF356:
 6228 1b0b 4359424C 		.ascii	"CYBLE_EVT_HTSS_INDICATION_DISABLED\000"
 6228      455F4556 
 6228      545F4854 
 6228      53535F49 
 6228      4E444943 
 6229              	.LASF81:
 6230 1b2e 4359424C 		.ascii	"CYBLE_EVT_L2CAP_CONN_PARAM_UPDATE_RSP\000"
 6230      455F4556 
 6230      545F4C32 
 6230      4341505F 
 6230      434F4E4E 
 6231              	.LASF346:
 6232 1b54 4359424C 		.ascii	"CYBLE_EVT_HRSS_NOTIFICATION_ENABLED\000"
 6232      455F4556 
 6232      545F4852 
 6232      53535F4E 
 6232      4F544946 
 6233              	.LASF204:
 6234 1b78 4359424C 		.ascii	"CYBLE_EVT_AIOSC_READ_CHAR_RESPONSE\000"
ARM GAS  C:\Users\megan\AppData\Local\Temp\ccqJAT7j.s 			page 140


 6234      455F4556 
 6234      545F4149 
 6234      4F53435F 
 6234      52454144 
 6235              	.LASF372:
 6236 1b9b 4359424C 		.ascii	"CYBLE_EVT_IPSC_ERROR_RESPONSE\000"
 6236      455F4556 
 6236      545F4950 
 6236      53435F45 
 6236      52524F52 
 6237              	.LASF265:
 6238 1bb9 4359424C 		.ascii	"CYBLE_EVT_CPSS_NOTIFICATION_DISABLED\000"
 6238      455F4556 
 6238      545F4350 
 6238      53535F4E 
 6238      4F544946 
 6239              	.LASF137:
 6240 1bde 4359424C 		.ascii	"CYBLE_GAPC_SCAN_RSP\000"
 6240      455F4741 
 6240      50435F53 
 6240      43414E5F 
 6240      52535000 
 6241              	.LASF192:
 6242 1bf2 4359424C 		.ascii	"CYBLE_EVT_GATTC_INCL_DISCOVERY_COMPLETE\000"
 6242      455F4556 
 6242      545F4741 
 6242      5454435F 
 6242      494E434C 
 6243              	.LASF391:
 6244 1c1a 4359424C 		.ascii	"CYBLE_EVT_PASSS_NOTIFICATION_DISABLED\000"
 6244      455F4556 
 6244      545F5041 
 6244      5353535F 
 6244      4E4F5449 
 6245              	.LASF223:
 6246 1c40 4359424C 		.ascii	"CYBLE_EVT_ANSC_READ_DESCR_RESPONSE\000"
 6246      455F4556 
 6246      545F414E 
 6246      53435F52 
 6246      4541445F 
 6247              	.LASF328:
 6248 1c63 4359424C 		.ascii	"CYBLE_EVT_HIDSS_REPORT_MODE_ENTER\000"
 6248      455F4556 
 6248      545F4849 
 6248      4453535F 
 6248      5245504F 
 6249              	.LASF477:
 6250 1c85 4359424C 		.ascii	"CYBLE_SRVI_GATT\000"
 6250      455F5352 
 6250      56495F47 
 6250      41545400 
 6251              	.LASF531:
 6252 1c95 7363725F 		.ascii	"scr_width\000"
 6252      77696474 
 6252      6800
 6253              	.LASF466:
 6254 1c9f 4359424C 		.ascii	"CYBLE_EVT_WSSC_READ_DESCR_RESPONSE\000"
ARM GAS  C:\Users\megan\AppData\Local\Temp\ccqJAT7j.s 			page 141


 6254      455F4556 
 6254      545F5753 
 6254      53435F52 
 6254      4541445F 
 6255              	.LASF475:
 6256 1cc2 4359424C 		.ascii	"CYBLE_STATE_T\000"
 6256      455F5354 
 6256      4154455F 
 6256      5400
 6257              	.LASF375:
 6258 1cd0 4359424C 		.ascii	"CYBLE_EVT_LLSC_READ_CHAR_RESPONSE\000"
 6258      455F4556 
 6258      545F4C4C 
 6258      53435F52 
 6258      4541445F 
 6259              	.LASF342:
 6260 1cf2 4359424C 		.ascii	"CYBLE_EVT_HPSC_READ_DESCR_RESPONSE\000"
 6260      455F4556 
 6260      545F4850 
 6260      53435F52 
 6260      4541445F 
 6261              	.LASF188:
 6262 1d15 4359424C 		.ascii	"CYBLE_EVT_GATTC_SRVC_DUPLICATION\000"
 6262      455F4556 
 6262      545F4741 
 6262      5454435F 
 6262      53525643 
 6263              	.LASF215:
 6264 1d36 4359424C 		.ascii	"CYBLE_EVT_ANCSC_WRITE_DESCR_RESPONSE\000"
 6264      455F4556 
 6264      545F414E 
 6264      4353435F 
 6264      57524954 
 6265              	.LASF405:
 6266 1d5b 4359424C 		.ascii	"CYBLE_EVT_PLXSC_READ_CHAR_RESPONSE\000"
 6266      455F4556 
 6266      545F504C 
 6266      5853435F 
 6266      52454144 
 6267              	.LASF451:
 6268 1d7e 4359424C 		.ascii	"CYBLE_EVT_WPTSS_INDICATION_ENABLED\000"
 6268      455F4556 
 6268      545F5750 
 6268      5453535F 
 6268      494E4449 
 6269              	.LASF243:
 6270 1da1 4359424C 		.ascii	"CYBLE_EVT_BLSC_INDICATION\000"
 6270      455F4556 
 6270      545F424C 
 6270      53435F49 
 6270      4E444943 
 6271              	.LASF562:
 6272 1dbb 62696E31 		.ascii	"bin1\000"
 6272      00
 6273              	.LASF364:
 6274 1dc0 4359424C 		.ascii	"CYBLE_EVT_HTSC_WRITE_DESCR_RESPONSE\000"
 6274      455F4556 
ARM GAS  C:\Users\megan\AppData\Local\Temp\ccqJAT7j.s 			page 142


 6274      545F4854 
 6274      53435F57 
 6274      52495445 
 6275              	.LASF448:
 6276 1de4 4359424C 		.ascii	"CYBLE_EVT_UDSC_ERROR_RESPONSE\000"
 6276      455F4556 
 6276      545F5544 
 6276      53435F45 
 6276      52524F52 
 6277              	.LASF291:
 6278 1e02 4359424C 		.ascii	"CYBLE_EVT_CTSS_NOTIFICATION_ENABLED\000"
 6278      455F4556 
 6278      545F4354 
 6278      53535F4E 
 6278      4F544946 
 6279              	.LASF482:
 6280 1e26 52413838 		.ascii	"RA8875_800x480\000"
 6280      37355F38 
 6280      30307834 
 6280      383000
 6281              	.LASF363:
 6282 1e35 4359424C 		.ascii	"CYBLE_EVT_HTSC_READ_DESCR_RESPONSE\000"
 6282      455F4556 
 6282      545F4854 
 6282      53435F52 
 6282      4541445F 
 6283              	.LASF40:
 6284 1e58 4359424C 		.ascii	"CYBLE_EVT_GAP_ENCRYPT_CHANGE\000"
 6284      455F4556 
 6284      545F4741 
 6284      505F454E 
 6284      43525950 
 6285              	.LASF38:
 6286 1e75 4359424C 		.ascii	"CYBLE_EVT_GAP_DEVICE_CONNECTED\000"
 6286      455F4556 
 6286      545F4741 
 6286      505F4445 
 6286      56494345 
 6287              	.LASF506:
 6288 1e94 61647652 		.ascii	"advReport\000"
 6288      65706F72 
 6288      7400
 6289              	.LASF413:
 6290 1e9e 4359424C 		.ascii	"CYBLE_EVT_RSCSS_INDICATION_CONFIRMATION\000"
 6290      455F4556 
 6290      545F5253 
 6290      4353535F 
 6290      494E4449 
 6291              	.LASF273:
 6292 1ec6 4359424C 		.ascii	"CYBLE_EVT_CPSC_INDICATION\000"
 6292      455F4556 
 6292      545F4350 
 6292      53435F49 
 6292      4E444943 
 6293              	.LASF566:
 6294 1ee0 46616E54 		.ascii	"FanTest\000"
 6294      65737400 
ARM GAS  C:\Users\megan\AppData\Local\Temp\ccqJAT7j.s 			page 143


 6295              	.LASF301:
 6296 1ee8 4359424C 		.ascii	"CYBLE_EVT_ESSS_NOTIFICATION_DISABLED\000"
 6296      455F4556 
 6296      545F4553 
 6296      53535F4E 
 6296      4F544946 
 6297              	.LASF21:
 6298 1f0d 72656733 		.ascii	"reg32\000"
 6298      3200
 6299              	.LASF334:
 6300 1f13 4359424C 		.ascii	"CYBLE_EVT_HIDSC_WRITE_CHAR_RESPONSE\000"
 6300      455F4556 
 6300      545F4849 
 6300      4453435F 
 6300      57524954 
 6301              	.LASF523:
 6302 1f37 47554953 		.ascii	"GUISplashscreen\000"
 6302      706C6173 
 6302      68736372 
 6302      65656E00 
 6303              	.LASF91:
 6304 1f47 4359424C 		.ascii	"CYBLE_EVT_PENDING_FLASH_WRITE\000"
 6304      455F4556 
 6304      545F5045 
 6304      4E44494E 
 6304      475F464C 
 6305              	.LASF545:
 6306 1f65 424C4553 		.ascii	"BLEStayConnected\000"
 6306      74617943 
 6306      6F6E6E65 
 6306      63746564 
 6306      00
 6307              	.LASF24:
 6308 1f76 4359424C 		.ascii	"CYBLE_EVT_HOST_INVALID\000"
 6308      455F4556 
 6308      545F484F 
 6308      53545F49 
 6308      4E56414C 
 6309              	.LASF382:
 6310 1f8d 4359424C 		.ascii	"CYBLE_EVT_LNSS_WRITE_CHAR\000"
 6310      455F4556 
 6310      545F4C4E 
 6310      53535F57 
 6310      52495445 
 6311              	.LASF5:
 6312 1fa7 73686F72 		.ascii	"short unsigned int\000"
 6312      7420756E 
 6312      7369676E 
 6312      65642069 
 6312      6E7400
 6313              	.LASF319:
 6314 1fba 4359424C 		.ascii	"CYBLE_EVT_GLSC_INDICATION\000"
 6314      455F4556 
 6314      545F474C 
 6314      53435F49 
 6314      4E444943 
 6315              	.LASF0:
ARM GAS  C:\Users\megan\AppData\Local\Temp\ccqJAT7j.s 			page 144


 6316 1fd4 7369676E 		.ascii	"signed char\000"
 6316      65642063 
 6316      68617200 
 6317              	.LASF269:
 6318 1fe0 4359424C 		.ascii	"CYBLE_EVT_CPSS_BROADCAST_ENABLED\000"
 6318      455F4556 
 6318      545F4350 
 6318      53535F42 
 6318      524F4144 
 6319              	.LASF513:
 6320 2001 4C434449 		.ascii	"LCDInit\000"
 6320      6E697400 
 6321              	.LASF233:
 6322 2009 4359424C 		.ascii	"CYBLE_EVT_BCSS_INDICATION_CONFIRMED\000"
 6322      455F4556 
 6322      545F4243 
 6322      53535F49 
 6322      4E444943 
 6323              	.LASF72:
 6324 202d 4359424C 		.ascii	"CYBLE_EVT_GATTC_EXEC_WRITE_RSP\000"
 6324      455F4556 
 6324      545F4741 
 6324      5454435F 
 6324      45584543 
 6325              	.LASF429:
 6326 204c 4359424C 		.ascii	"CYBLE_EVT_TPSS_NOTIFICATION_ENABLED\000"
 6326      455F4556 
 6326      545F5450 
 6326      53535F4E 
 6326      4F544946 
 6327              	.LASF246:
 6328 2070 4359424C 		.ascii	"CYBLE_EVT_BLSC_READ_DESCR_RESPONSE\000"
 6328      455F4556 
 6328      545F424C 
 6328      53435F52 
 6328      4541445F 
 6329              	.LASF445:
 6330 2093 4359424C 		.ascii	"CYBLE_EVT_UDSC_WRITE_CHAR_RESPONSE\000"
 6330      455F4556 
 6330      545F5544 
 6330      53435F57 
 6330      52495445 
 6331              	.LASF331:
 6332 20b6 4359424C 		.ascii	"CYBLE_EVT_HIDSS_REPORT_CHAR_WRITE\000"
 6332      455F4556 
 6332      545F4849 
 6332      4453535F 
 6332      5245504F 
 6333              	.LASF274:
 6334 20d8 4359424C 		.ascii	"CYBLE_EVT_CPSC_READ_CHAR_RESPONSE\000"
 6334      455F4556 
 6334      545F4350 
 6334      53435F52 
 6334      4541445F 
 6335              	.LASF199:
 6336 20fa 4359424C 		.ascii	"CYBLE_EVT_AIOSS_INDICATION_CONFIRMED\000"
 6336      455F4556 
ARM GAS  C:\Users\megan\AppData\Local\Temp\ccqJAT7j.s 			page 145


 6336      545F4149 
 6336      4F53535F 
 6336      494E4449 
 6337              	.LASF534:
 6338 211f 47554954 		.ascii	"GUITest\000"
 6338      65737400 
 6339              	.LASF311:
 6340 2127 4359424C 		.ascii	"CYBLE_EVT_ESSC_READ_DESCR_RESPONSE\000"
 6340      455F4556 
 6340      545F4553 
 6340      53435F52 
 6340      4541445F 
 6341              	.LASF381:
 6342 214a 4359424C 		.ascii	"CYBLE_EVT_LNSS_NOTIFICATION_DISABLED\000"
 6342      455F4556 
 6342      545F4C4E 
 6342      53535F4E 
 6342      4F544946 
 6343              	.LASF536:
 6344 216f 54656D70 		.ascii	"TempReceive\000"
 6344      52656365 
 6344      69766500 
 6345              	.LASF225:
 6346 217b 4359424C 		.ascii	"CYBLE_EVT_BASS_NOTIFICATION_ENABLED\000"
 6346      455F4556 
 6346      545F4241 
 6346      53535F4E 
 6346      4F544946 
 6347              	.LASF224:
 6348 219f 4359424C 		.ascii	"CYBLE_EVT_ANSC_WRITE_DESCR_RESPONSE\000"
 6348      455F4556 
 6348      545F414E 
 6348      53435F57 
 6348      52495445 
 6349              	.LASF156:
 6350 21c3 61637475 		.ascii	"actualLen\000"
 6350      616C4C65 
 6350      6E00
 6351              	.LASF322:
 6352 21cd 4359424C 		.ascii	"CYBLE_EVT_GLSC_WRITE_CHAR_RESPONSE\000"
 6352      455F4556 
 6352      545F474C 
 6352      53435F57 
 6352      52495445 
 6353              	.LASF45:
 6354 21f0 4359424C 		.ascii	"CYBLE_EVT_GAP_KEYPRESS_NOTIFICATION\000"
 6354      455F4556 
 6354      545F4741 
 6354      505F4B45 
 6354      59505245 
 6355              	.LASF501:
 6356 2214 6F706572 		.ascii	"operation\000"
 6356      6174696F 
 6356      6E00
 6357              	.LASF384:
 6358 221e 4359424C 		.ascii	"CYBLE_EVT_LNSC_NOTIFICATION\000"
 6358      455F4556 
ARM GAS  C:\Users\megan\AppData\Local\Temp\ccqJAT7j.s 			page 146


 6358      545F4C4E 
 6358      53435F4E 
 6358      4F544946 
 6359              	.LASF227:
 6360 223a 4359424C 		.ascii	"CYBLE_EVT_BASC_NOTIFICATION\000"
 6360      455F4556 
 6360      545F4241 
 6360      53435F4E 
 6360      4F544946 
 6361              	.LASF63:
 6362 2256 4359424C 		.ascii	"CYBLE_EVT_GATTC_FIND_BY_TYPE_VALUE_RSP\000"
 6362      455F4556 
 6362      545F4741 
 6362      5454435F 
 6362      46494E44 
 6363              	.LASF555:
 6364 227d 5F746578 		.ascii	"_textScale\000"
 6364      74536361 
 6364      6C6500
 6365              	.LASF127:
 6366 2288 4359424C 		.ascii	"CYBLE_ERROR_INVALID_STATE\000"
 6366      455F4552 
 6366      524F525F 
 6366      494E5641 
 6366      4C49445F 
 6367              	.LASF495:
 6368 22a2 53657474 		.ascii	"Settings\000"
 6368      696E6773 
 6368      00
 6369              	.LASF542:
 6370 22ab 52656752 		.ascii	"RegReadTest\000"
 6370      65616454 
 6370      65737400 
 6371              	.LASF484:
 6372 22b7 74727565 		.ascii	"true\000"
 6372      00
 6373              	.LASF464:
 6374 22bc 4359424C 		.ascii	"CYBLE_EVT_WSSC_INDICATION\000"
 6374      455F4556 
 6374      545F5753 
 6374      53435F49 
 6374      4E444943 
 6375              	.LASF237:
 6376 22d6 4359424C 		.ascii	"CYBLE_EVT_BCSC_WRITE_DESCR_RESPONSE\000"
 6376      455F4556 
 6376      545F4243 
 6376      53435F57 
 6376      52495445 
 6377              	.LASF348:
 6378 22fa 4359424C 		.ascii	"CYBLE_EVT_HRSC_NOTIFICATION\000"
 6378      455F4556 
 6378      545F4852 
 6378      53435F4E 
 6378      4F544946 
 6379              	.LASF221:
 6380 2316 4359424C 		.ascii	"CYBLE_EVT_ANSC_READ_CHAR_RESPONSE\000"
 6380      455F4556 
ARM GAS  C:\Users\megan\AppData\Local\Temp\ccqJAT7j.s 			page 147


 6380      545F414E 
 6380      53435F52 
 6380      4541445F 
 6381              	.LASF6:
 6382 2338 6C6F6E67 		.ascii	"long int\000"
 6382      20696E74 
 6382      00
 6383              	.LASF267:
 6384 2341 4359424C 		.ascii	"CYBLE_EVT_CPSS_INDICATION_DISABLED\000"
 6384      455F4556 
 6384      545F4350 
 6384      53535F49 
 6384      4E444943 
 6385              	.LASF165:
 6386 2364 75756964 		.ascii	"uuidFormat\000"
 6386      466F726D 
 6386      617400
 6387              	.LASF111:
 6388 236f 4359424C 		.ascii	"CYBLE_ERROR_L2CAP_PSM_NOT_REGISTERED\000"
 6388      455F4552 
 6388      524F525F 
 6388      4C324341 
 6388      505F5053 
 6389              	.LASF219:
 6390 2394 4359424C 		.ascii	"CYBLE_EVT_ANSS_CHAR_WRITE\000"
 6390      455F4556 
 6390      545F414E 
 6390      53535F43 
 6390      4841525F 
 6391              	.LASF43:
 6392 23ae 4359424C 		.ascii	"CYBLE_EVT_GAP_KEYINFO_EXCHNGE_CMPLT\000"
 6392      455F4556 
 6392      545F4741 
 6392      505F4B45 
 6392      59494E46 
 6393              	.LASF154:
 6394 23d2 61747449 		.ascii	"attId\000"
 6394      6400
 6395              	.LASF312:
 6396 23d8 4359424C 		.ascii	"CYBLE_EVT_ESSC_WRITE_DESCR_RESPONSE\000"
 6396      455F4556 
 6396      545F4553 
 6396      53435F57 
 6396      52495445 
 6397              	.LASF476:
 6398 23fc 4359424C 		.ascii	"CYBLE_SRVI_GAP\000"
 6398      455F5352 
 6398      56495F47 
 6398      415000
 6399              	.LASF481:
 6400 240b 52413838 		.ascii	"RA8875_480x272\000"
 6400      37355F34 
 6400      38307832 
 6400      373200
 6401              	.LASF399:
 6402 241a 4359424C 		.ascii	"CYBLE_EVT_PLXSS_NOTIFICATION_DISABLED\000"
 6402      455F4556 
ARM GAS  C:\Users\megan\AppData\Local\Temp\ccqJAT7j.s 			page 148


 6402      545F504C 
 6402      5853535F 
 6402      4E4F5449 
 6403              	.LASF184:
 6404 2440 4359424C 		.ascii	"CYBLE_EVT_GATTC_SRVC_DISCOVERY_FAILED\000"
 6404      455F4556 
 6404      545F4741 
 6404      5454435F 
 6404      53525643 
 6405              	.LASF379:
 6406 2466 4359424C 		.ascii	"CYBLE_EVT_LNSS_INDICATION_CONFIRMED\000"
 6406      455F4556 
 6406      545F4C4E 
 6406      53535F49 
 6406      4E444943 
 6407              	.LASF100:
 6408 248a 4359424C 		.ascii	"CYBLE_ERROR_INSUFFICIENT_RESOURCES\000"
 6408      455F4552 
 6408      524F525F 
 6408      494E5355 
 6408      46464943 
 6409              	.LASF29:
 6410 24ad 4359424C 		.ascii	"CYBLE_EVT_STACK_BUSY_STATUS\000"
 6410      455F4556 
 6410      545F5354 
 6410      41434B5F 
 6410      42555359 
 6411              	.LASF297:
 6412 24c9 4359424C 		.ascii	"CYBLE_EVT_CTSC_WRITE_DESCR_RESPONSE\000"
 6412      455F4556 
 6412      545F4354 
 6412      53435F57 
 6412      52495445 
 6413              	.LASF60:
 6414 24ed 4359424C 		.ascii	"CYBLE_EVT_GATTC_READ_BY_GROUP_TYPE_RSP\000"
 6414      455F4556 
 6414      545F4741 
 6414      5454435F 
 6414      52454144 
 6415              	.LASF121:
 6416 2514 4359424C 		.ascii	"CYBLE_ERROR_FLASH_WRITE\000"
 6416      455F4552 
 6416      524F525F 
 6416      464C4153 
 6416      485F5752 
 6417              	.LASF166:
 6418 252c 4359424C 		.ascii	"CYBLE_GATTC_READ_BY_TYPE_REQ_T\000"
 6418      455F4741 
 6418      5454435F 
 6418      52454144 
 6418      5F42595F 
 6419              	.LASF99:
 6420 254b 4359424C 		.ascii	"CYBLE_ERROR_MEMORY_ALLOCATION_FAILED\000"
 6420      455F4552 
 6420      524F525F 
 6420      4D454D4F 
 6420      52595F41 
ARM GAS  C:\Users\megan\AppData\Local\Temp\ccqJAT7j.s 			page 149


 6421              	.LASF249:
 6422 2570 4359424C 		.ascii	"CYBLE_EVT_BMSC_READ_CHAR_RESPONSE\000"
 6422      455F4556 
 6422      545F424D 
 6422      53435F52 
 6422      4541445F 
 6423              	.LASF39:
 6424 2592 4359424C 		.ascii	"CYBLE_EVT_GAP_DEVICE_DISCONNECTED\000"
 6424      455F4556 
 6424      545F4741 
 6424      505F4445 
 6424      56494345 
 6425              	.LASF557:
 6426 25b4 73657474 		.ascii	"settings\000"
 6426      696E6773 
 6426      00
 6427              	.LASF397:
 6428 25bd 4359424C 		.ascii	"CYBLE_EVT_PLXSS_WRITE_CHAR\000"
 6428      455F4556 
 6428      545F504C 
 6428      5853535F 
 6428      57524954 
 6429              	.LASF565:
 6430 25d8 433A5C55 		.ascii	"C:\\Users\\megan\\Google Drive\\College\\S11 - Spri"
 6430      73657273 
 6430      5C6D6567 
 6430      616E5C47 
 6430      6F6F676C 
 6431 2606 6E672032 		.ascii	"ng 2018\\ECEN 4990\\Github\\ECEN4990-CapstoneII\\Ca"
 6431      3031385C 
 6431      4543454E 
 6431      20343939 
 6431      305C4769 
 6432 2635 7073746F 		.ascii	"pstoneII\\CentralBLE.cydsn\000"
 6432      6E654949 
 6432      5C43656E 
 6432      7472616C 
 6432      424C452E 
 6433              	.LASF22:
 6434 264f 6C6F6E67 		.ascii	"long double\000"
 6434      20646F75 
 6434      626C6500 
 6435              	.LASF367:
 6436 265b 4359424C 		.ascii	"CYBLE_EVT_IPSC_READ_CHAR_RESPONSE\000"
 6436      455F4556 
 6436      545F4950 
 6436      53435F52 
 6436      4541445F 
 6437              	.LASF102:
 6438 267d 4359424C 		.ascii	"CYBLE_ERROR_NO_CONNECTION\000"
 6438      455F4552 
 6438      524F525F 
 6438      4E4F5F43 
 6438      4F4E4E45 
 6439              	.LASF68:
 6440 2697 4359424C 		.ascii	"CYBLE_EVT_GATTC_WRITE_RSP\000"
 6440      455F4556 
ARM GAS  C:\Users\megan\AppData\Local\Temp\ccqJAT7j.s 			page 150


 6440      545F4741 
 6440      5454435F 
 6440      57524954 
 6441              	.LASF14:
 6442 26b1 75696E74 		.ascii	"uint16\000"
 6442      313600
 6443              	.LASF108:
 6444 26b8 4359424C 		.ascii	"CYBLE_ERROR_SEC_FAILED\000"
 6444      455F4552 
 6444      524F525F 
 6444      5345435F 
 6444      4641494C 
 6445              	.LASF436:
 6446 26cf 4359424C 		.ascii	"CYBLE_EVT_UDSS_INDICATION_DISABLED\000"
 6446      455F4556 
 6446      545F5544 
 6446      53535F49 
 6446      4E444943 
 6447              	.LASF332:
 6448 26f2 4359424C 		.ascii	"CYBLE_EVT_HIDSC_NOTIFICATION\000"
 6448      455F4556 
 6448      545F4849 
 6448      4453435F 
 6448      4E4F5449 
 6449              	.LASF7:
 6450 270f 6C6F6E67 		.ascii	"long unsigned int\000"
 6450      20756E73 
 6450      69676E65 
 6450      6420696E 
 6450      7400
 6451              	.LASF392:
 6452 2721 4359424C 		.ascii	"CYBLE_EVT_PASSS_WRITE_CHAR\000"
 6452      455F4556 
 6452      545F5041 
 6452      5353535F 
 6452      57524954 
 6453              	.LASF77:
 6454 273c 4359424C 		.ascii	"CYBLE_EVT_GATTC_STOP_CMD_COMPLETE\000"
 6454      455F4556 
 6454      545F4741 
 6454      5454435F 
 6454      53544F50 
 6455              	.LASF465:
 6456 275e 4359424C 		.ascii	"CYBLE_EVT_WSSC_READ_CHAR_RESPONSE\000"
 6456      455F4556 
 6456      545F5753 
 6456      53435F52 
 6456      4541445F 
 6457              	.LASF509:
 6458 2780 6E6F7469 		.ascii	"notificationData\000"
 6458      66696361 
 6458      74696F6E 
 6458      44617461 
 6458      00
 6459              	.LASF560:
 6460 2791 666C5F74 		.ascii	"fl_temp_bytes\000"
 6460      656D705F 
ARM GAS  C:\Users\megan\AppData\Local\Temp\ccqJAT7j.s 			page 151


 6460      62797465 
 6460      7300
 6461              	.LASF340:
 6462 279f 4359424C 		.ascii	"CYBLE_EVT_HPSC_NOTIFICATION\000"
 6462      455F4556 
 6462      545F4850 
 6462      53435F4E 
 6462      4F544946 
 6463              	.LASF279:
 6464 27bb 4359424C 		.ascii	"CYBLE_EVT_CSCSS_NOTIFICATION_ENABLED\000"
 6464      455F4556 
 6464      545F4353 
 6464      4353535F 
 6464      4E4F5449 
 6465              	.LASF508:
 6466 27e0 72656164 		.ascii	"readResponse\000"
 6466      52657370 
 6466      6F6E7365 
 6466      00
 6467              	.LASF20:
 6468 27ed 63686172 		.ascii	"char\000"
 6468      00
 6469              	.LASF498:
 6470 27f2 6576656E 		.ascii	"eventParam\000"
 6470      74506172 
 6470      616D00
 6471              	.LASF138:
 6472 27fd 4359424C 		.ascii	"CYBLE_GAPC_ADV_EVENT_T\000"
 6472      455F4741 
 6472      50435F41 
 6472      44565F45 
 6472      56454E54 
 6473              	.LASF234:
 6474 2814 4359424C 		.ascii	"CYBLE_EVT_BCSC_INDICATION\000"
 6474      455F4556 
 6474      545F4243 
 6474      53435F49 
 6474      4E444943 
 6475              	.LASF84:
 6476 282e 4359424C 		.ascii	"CYBLE_EVT_L2CAP_CBFC_CONN_CNF\000"
 6476      455F4556 
 6476      545F4C32 
 6476      4341505F 
 6476      43424643 
 6477              	.LASF454:
 6478 284c 4359424C 		.ascii	"CYBLE_EVT_WPTSS_WRITE_CHAR\000"
 6478      455F4556 
 6478      545F5750 
 6478      5453535F 
 6478      57524954 
 6479              	.LASF268:
 6480 2867 4359424C 		.ascii	"CYBLE_EVT_CPSS_INDICATION_CONFIRMED\000"
 6480      455F4556 
 6480      545F4350 
 6480      53535F49 
 6480      4E444943 
 6481              	.LASF98:
ARM GAS  C:\Users\megan\AppData\Local\Temp\ccqJAT7j.s 			page 152


 6482 288b 4359424C 		.ascii	"CYBLE_ERROR_INVALID_OPERATION\000"
 6482      455F4552 
 6482      524F525F 
 6482      494E5641 
 6482      4C49445F 
 6483              	.LASF522:
 6484 28a9 79536361 		.ascii	"yScale\000"
 6484      6C6500
 6485              	.LASF15:
 6486 28b0 75696E74 		.ascii	"uint32\000"
 6486      333200
 6487              	.LASF231:
 6488 28b7 4359424C 		.ascii	"CYBLE_EVT_BCSS_INDICATION_ENABLED\000"
 6488      455F4556 
 6488      545F4243 
 6488      53535F49 
 6488      4E444943 
 6489              	.LASF151:
 6490 28d9 4359424C 		.ascii	"CYBLE_UUID_T\000"
 6490      455F5555 
 6490      49445F54 
 6490      00
 6491              	.LASF103:
 6492 28e6 4359424C 		.ascii	"CYBLE_ERROR_NO_DEVICE_ENTITY\000"
 6492      455F4552 
 6492      524F525F 
 6492      4E4F5F44 
 6492      45564943 
 6493              	.LASF86:
 6494 2903 4359424C 		.ascii	"CYBLE_EVT_L2CAP_CBFC_DISCONN_CNF\000"
 6494      455F4556 
 6494      545F4C32 
 6494      4341505F 
 6494      43424643 
 6495              	.LASF314:
 6496 2924 4359424C 		.ascii	"CYBLE_EVT_GLSS_INDICATION_DISABLED\000"
 6496      455F4556 
 6496      545F474C 
 6496      53535F49 
 6496      4E444943 
 6497              	.LASF253:
 6498 2947 4359424C 		.ascii	"CYBLE_EVT_CGMSS_INDICATION_DISABLED\000"
 6498      455F4556 
 6498      545F4347 
 6498      4D53535F 
 6498      494E4449 
 6499              	.LASF414:
 6500 296b 4359424C 		.ascii	"CYBLE_EVT_RSCSS_CHAR_WRITE\000"
 6500      455F4556 
 6500      545F5253 
 6500      4353535F 
 6500      43484152 
 6501              	.LASF393:
 6502 2986 4359424C 		.ascii	"CYBLE_EVT_PASSC_NOTIFICATION\000"
 6502      455F4556 
 6502      545F5041 
 6502      5353435F 
ARM GAS  C:\Users\megan\AppData\Local\Temp\ccqJAT7j.s 			page 153


 6502      4E4F5449 
 6503              	.LASF431:
 6504 29a3 4359424C 		.ascii	"CYBLE_EVT_TPSC_NOTIFICATION\000"
 6504      455F4556 
 6504      545F5450 
 6504      53435F4E 
 6504      4F544946 
 6505              	.LASF446:
 6506 29bf 4359424C 		.ascii	"CYBLE_EVT_UDSC_READ_DESCR_RESPONSE\000"
 6506      455F4556 
 6506      545F5544 
 6506      53435F52 
 6506      4541445F 
 6507              	.LASF70:
 6508 29e2 4359424C 		.ascii	"CYBLE_EVT_GATTS_PREP_WRITE_REQ\000"
 6508      455F4556 
 6508      545F4741 
 6508      5454535F 
 6508      50524550 
 6509              	.LASF321:
 6510 2a01 4359424C 		.ascii	"CYBLE_EVT_GLSC_READ_CHAR_RESPONSE\000"
 6510      455F4556 
 6510      545F474C 
 6510      53435F52 
 6510      4541445F 
 6511              	.LASF511:
 6512 2a23 666C5F62 		.ascii	"fl_bytes\000"
 6512      79746573 
 6512      00
 6513              	.LASF418:
 6514 2a2c 4359424C 		.ascii	"CYBLE_EVT_RSCSC_WRITE_CHAR_RESPONSE\000"
 6514      455F4556 
 6514      545F5253 
 6514      4353435F 
 6514      57524954 
 6515              	.LASF144:
 6516 2a50 72737369 		.ascii	"rssi\000"
 6516      00
 6517              	.LASF239:
 6518 2a55 4359424C 		.ascii	"CYBLE_EVT_BLSS_INDICATION_DISABLED\000"
 6518      455F4556 
 6518      545F424C 
 6518      53535F49 
 6518      4E444943 
 6519              	.LASF424:
 6520 2a78 4359424C 		.ascii	"CYBLE_EVT_SCPSS_NOTIFICATION_DISABLED\000"
 6520      455F4556 
 6520      545F5343 
 6520      5053535F 
 6520      4E4F5449 
 6521              	.LASF347:
 6522 2a9e 4359424C 		.ascii	"CYBLE_EVT_HRSS_NOTIFICATION_DISABLED\000"
 6522      455F4556 
 6522      545F4852 
 6522      53535F4E 
 6522      4F544946 
 6523              	.LASF551:
ARM GAS  C:\Users\megan\AppData\Local\Temp\ccqJAT7j.s 			page 154


 6524 2ac3 6379426C 		.ascii	"cyBle_connHandle\000"
 6524      655F636F 
 6524      6E6E4861 
 6524      6E646C65 
 6524      00
 6525              	.LASF287:
 6526 2ad4 4359424C 		.ascii	"CYBLE_EVT_CSCSC_READ_CHAR_RESPONSE\000"
 6526      455F4556 
 6526      545F4353 
 6526      4353435F 
 6526      52454144 
 6527              	.LASF386:
 6528 2af7 4359424C 		.ascii	"CYBLE_EVT_LNSC_WRITE_CHAR_RESPONSE\000"
 6528      455F4556 
 6528      545F4C4E 
 6528      53435F57 
 6528      52495445 
 6529              	.LASF299:
 6530 2b1a 4359424C 		.ascii	"CYBLE_EVT_DISC_READ_CHAR_RESPONSE\000"
 6530      455F4556 
 6530      545F4449 
 6530      53435F52 
 6530      4541445F 
 6531              	.LASF423:
 6532 2b3c 4359424C 		.ascii	"CYBLE_EVT_SCPSS_NOTIFICATION_ENABLED\000"
 6532      455F4556 
 6532      545F5343 
 6532      5053535F 
 6532      4E4F5449 
 6533              	.LASF409:
 6534 2b61 4359424C 		.ascii	"CYBLE_EVT_RSCSS_NOTIFICATION_ENABLED\000"
 6534      455F4556 
 6534      545F5253 
 6534      4353535F 
 6534      4E4F5449 
 6535              	.LASF58:
 6536 2b86 4359424C 		.ascii	"CYBLE_EVT_GATTS_XCNHG_MTU_REQ\000"
 6536      455F4556 
 6536      545F4741 
 6536      5454535F 
 6536      58434E48 
 6537              	.LASF123:
 6538 2ba4 4359424C 		.ascii	"CYBLE_ERROR_MAX\000"
 6538      455F4552 
 6538      524F525F 
 6538      4D415800 
 6539              	.LASF106:
 6540 2bb4 4359424C 		.ascii	"CYBLE_ERROR_TX_POWER_READ\000"
 6540      455F4552 
 6540      524F525F 
 6540      54585F50 
 6540      4F574552 
 6541              	.LASF461:
 6542 2bce 4359424C 		.ascii	"CYBLE_EVT_WSSS_INDICATION_ENABLED\000"
 6542      455F4556 
 6542      545F5753 
 6542      53535F49 
ARM GAS  C:\Users\megan\AppData\Local\Temp\ccqJAT7j.s 			page 155


 6542      4E444943 
 6543              	.LASF169:
 6544 2bf0 4359424C 		.ascii	"CYBLE_GATTC_HANDLE_VALUE_NTF_PARAM_T\000"
 6544      455F4741 
 6544      5454435F 
 6544      48414E44 
 6544      4C455F56 
 6545              	.LASF190:
 6546 2c15 4359424C 		.ascii	"CYBLE_EVT_GATTC_DESCR_DUPLICATION\000"
 6546      455F4556 
 6546      545F4741 
 6546      5454435F 
 6546      44455343 
 6547              	.LASF323:
 6548 2c37 4359424C 		.ascii	"CYBLE_EVT_GLSC_READ_DESCR_RESPONSE\000"
 6548      455F4556 
 6548      545F474C 
 6548      53435F52 
 6548      4541445F 
 6549              	.LASF538:
 6550 2c5a 5072696E 		.ascii	"PrintFloat\000"
 6550      74466C6F 
 6550      617400
 6551              	.LASF530:
 6552 2c65 62696E6E 		.ascii	"binno1\000"
 6552      6F3100
 6553              	.LASF277:
 6554 2c6c 4359424C 		.ascii	"CYBLE_EVT_CPSC_WRITE_DESCR_RESPONSE\000"
 6554      455F4556 
 6554      545F4350 
 6554      53435F57 
 6554      52495445 
 6555              	.LASF517:
 6556 2c90 6D794465 		.ascii	"myDelay\000"
 6556      6C617900 
 6557              	.LASF306:
 6558 2c98 4359424C 		.ascii	"CYBLE_EVT_ESSS_DESCR_WRITE\000"
 6558      455F4556 
 6558      545F4553 
 6558      53535F44 
 6558      45534352 
 6559              	.LASF148:
 6560 2cb3 4359424C 		.ascii	"CYBLE_UUID128_T\000"
 6560      455F5555 
 6560      49443132 
 6560      385F5400 
 6561              	.LASF252:
 6562 2cc3 4359424C 		.ascii	"CYBLE_EVT_CGMSS_INDICATION_ENABLED\000"
 6562      455F4556 
 6562      545F4347 
 6562      4D53535F 
 6562      494E4449 
 6563              	.LASF155:
 6564 2ce6 4359424C 		.ascii	"CYBLE_CONN_HANDLE_T\000"
 6564      455F434F 
 6564      4E4E5F48 
 6564      414E444C 
ARM GAS  C:\Users\megan\AppData\Local\Temp\ccqJAT7j.s 			page 156


 6564      455F5400 
 6565              	.LASF366:
 6566 2cfa 4359424C 		.ascii	"CYBLE_EVT_IPSS_WRITE_CHAR\000"
 6566      455F4556 
 6566      545F4950 
 6566      53535F57 
 6566      52495445 
 6567              	.LASF172:
 6568 2d14 61747472 		.ascii	"attrLen\000"
 6568      4C656E00 
 6569              	.LASF74:
 6570 2d1c 4359424C 		.ascii	"CYBLE_EVT_GATTC_HANDLE_VALUE_IND\000"
 6570      455F4556 
 6570      545F4741 
 6570      5454435F 
 6570      48414E44 
 6571              	.LASF317:
 6572 2d3d 4359424C 		.ascii	"CYBLE_EVT_GLSS_NOTIFICATION_DISABLED\000"
 6572      455F4556 
 6572      545F474C 
 6572      53535F4E 
 6572      4F544946 
 6573              	.LASF329:
 6574 2d62 4359424C 		.ascii	"CYBLE_EVT_HIDSS_SUSPEND\000"
 6574      455F4556 
 6574      545F4849 
 6574      4453535F 
 6574      53555350 
 6575              	.LASF19:
 6576 2d7a 646F7562 		.ascii	"double\000"
 6576      6C6500
 6577              	.LASF361:
 6578 2d81 4359424C 		.ascii	"CYBLE_EVT_HTSC_READ_CHAR_RESPONSE\000"
 6578      455F4556 
 6578      545F4854 
 6578      53435F52 
 6578      4541445F 
 6579              	.LASF216:
 6580 2da3 4359424C 		.ascii	"CYBLE_EVT_ANCSC_ERROR_RESPONSE\000"
 6580      455F4556 
 6580      545F414E 
 6580      4353435F 
 6580      4552524F 
 6581              	.LASF56:
 6582 2dc2 4359424C 		.ascii	"CYBLE_EVT_GATT_CONNECT_IND\000"
 6582      455F4556 
 6582      545F4741 
 6582      54545F43 
 6582      4F4E4E45 
 6583              	.LASF51:
 6584 2ddd 4359424C 		.ascii	"CYBLE_EVT_GAP_CONN_ESTB\000"
 6584      455F4556 
 6584      545F4741 
 6584      505F434F 
 6584      4E4E5F45 
 6585              	.LASF457:
 6586 2df5 4359424C 		.ascii	"CYBLE_EVT_WPTSC_WRITE_CHAR_RESPONSE\000"
ARM GAS  C:\Users\megan\AppData\Local\Temp\ccqJAT7j.s 			page 157


 6586      455F4556 
 6586      545F5750 
 6586      5453435F 
 6586      57524954 
 6587              	.LASF309:
 6588 2e19 4359424C 		.ascii	"CYBLE_EVT_ESSC_READ_CHAR_RESPONSE\000"
 6588      455F4556 
 6588      545F4553 
 6588      53435F52 
 6588      4541445F 
 6589              	.LASF54:
 6590 2e3b 4359424C 		.ascii	"CYBLE_EVT_GAP_SMP_LOC_P256_KEYS_GEN_AND_SET_COMPLET"
 6590      455F4556 
 6590      545F4741 
 6590      505F534D 
 6590      505F4C4F 
 6591 2e6e 4500     		.ascii	"E\000"
 6592              	.LASF440:
 6593 2e70 4359424C 		.ascii	"CYBLE_EVT_UDSS_READ_CHAR\000"
 6593      455F4556 
 6593      545F5544 
 6593      53535F52 
 6593      4541445F 
 6594              	.LASF519:
 6595 2e89 4C434454 		.ascii	"LCDTouchscreenDemo\000"
 6595      6F756368 
 6595      73637265 
 6595      656E4465 
 6595      6D6F00
 6596              	.LASF132:
 6597 2e9c 4359424C 		.ascii	"CYBLE_GAP_BD_ADDR_T\000"
 6597      455F4741 
 6597      505F4244 
 6597      5F414444 
 6597      525F5400 
 6598              	.LASF143:
 6599 2eb0 64617461 		.ascii	"data\000"
 6599      00
 6600              	.LASF492:
 6601 2eb5 4D6F6465 		.ascii	"Mode\000"
 6601      00
 6602              	.LASF189:
 6603 2eba 4359424C 		.ascii	"CYBLE_EVT_GATTC_CHAR_DUPLICATION\000"
 6603      455F4556 
 6603      545F4741 
 6603      5454435F 
 6603      43484152 
 6604              	.LASF480:
 6605 2edb 4359424C 		.ascii	"CYBLE_SRVI_COUNT\000"
 6605      455F5352 
 6605      56495F43 
 6605      4F554E54 
 6605      00
 6606              	.LASF411:
 6607 2eec 4359424C 		.ascii	"CYBLE_EVT_RSCSS_INDICATION_ENABLED\000"
 6607      455F4556 
 6607      545F5253 
ARM GAS  C:\Users\megan\AppData\Local\Temp\ccqJAT7j.s 			page 158


 6607      4353535F 
 6607      494E4449 
 6608              	.LASF257:
 6609 2f0f 4359424C 		.ascii	"CYBLE_EVT_CGMSS_WRITE_CHAR\000"
 6609      455F4556 
 6609      545F4347 
 6609      4D53535F 
 6609      57524954 
 6610              	.LASF23:
 6611 2f2a 73697A65 		.ascii	"sizetype\000"
 6611      74797065 
 6611      00
 6612              	.LASF135:
 6613 2f33 4359424C 		.ascii	"CYBLE_GAPC_SCAN_UNDIRECTED_ADV\000"
 6613      455F4741 
 6613      50435F53 
 6613      43414E5F 
 6613      554E4449 
 6614              	.LASF412:
 6615 2f52 4359424C 		.ascii	"CYBLE_EVT_RSCSS_INDICATION_DISABLED\000"
 6615      455F4556 
 6615      545F5253 
 6615      4353535F 
 6615      494E4449 
 6616              	.LASF229:
 6617 2f76 4359424C 		.ascii	"CYBLE_EVT_BASC_READ_DESCR_RESPONSE\000"
 6617      455F4556 
 6617      545F4241 
 6617      53435F52 
 6617      4541445F 
 6618              	.LASF197:
 6619 2f99 4359424C 		.ascii	"CYBLE_EVT_AIOSS_INDICATION_ENABLED\000"
 6619      455F4556 
 6619      545F4149 
 6619      4F53535F 
 6619      494E4449 
 6620              	.LASF255:
 6621 2fbc 4359424C 		.ascii	"CYBLE_EVT_CGMSS_NOTIFICATION_ENABLED\000"
 6621      455F4556 
 6621      545F4347 
 6621      4D53535F 
 6621      4E4F5449 
 6622              	.LASF270:
 6623 2fe1 4359424C 		.ascii	"CYBLE_EVT_CPSS_BROADCAST_DISABLED\000"
 6623      455F4556 
 6623      545F4350 
 6623      53535F42 
 6623      524F4144 
 6624              	.LASF554:
 6625 3003 5F686569 		.ascii	"_height\000"
 6625      67687400 
 6626              	.LASF101:
 6627 300b 4359424C 		.ascii	"CYBLE_ERROR_OOB_NOT_AVAILABLE\000"
 6627      455F4552 
 6627      524F525F 
 6627      4F4F425F 
 6627      4E4F545F 
ARM GAS  C:\Users\megan\AppData\Local\Temp\ccqJAT7j.s 			page 159


 6628              	.LASF422:
 6629 3029 4359424C 		.ascii	"CYBLE_EVT_RTUSC_READ_CHAR_RESPONSE\000"
 6629      455F4556 
 6629      545F5254 
 6629      5553435F 
 6629      52454144 
 6630              	.LASF533:
 6631 304c 47554955 		.ascii	"GUIUpdateBin1ActualTemp\000"
 6631      70646174 
 6631      6542696E 
 6631      31416374 
 6631      75616C54 
 6632              	.LASF378:
 6633 3064 4359424C 		.ascii	"CYBLE_EVT_LNSS_INDICATION_DISABLED\000"
 6633      455F4556 
 6633      545F4C4E 
 6633      53535F49 
 6633      4E444943 
 6634              	.LASF453:
 6635 3087 4359424C 		.ascii	"CYBLE_EVT_WPTSS_INDICATION_CONFIRMED\000"
 6635      455F4556 
 6635      545F5750 
 6635      5453535F 
 6635      494E4449 
 6636              	.LASF218:
 6637 30ac 4359424C 		.ascii	"CYBLE_EVT_ANSS_NOTIFICATION_DISABLED\000"
 6637      455F4556 
 6637      545F414E 
 6637      53535F4E 
 6637      4F544946 
 6638              	.LASF36:
 6639 30d1 4359424C 		.ascii	"CYBLE_EVT_GAP_AUTH_FAILED\000"
 6639      455F4556 
 6639      545F4741 
 6639      505F4155 
 6639      54485F46 
 6640              	.LASF159:
 6641 30eb 4359424C 		.ascii	"CYBLE_GATT_HANDLE_VALUE_PAIR_T\000"
 6641      455F4741 
 6641      54545F48 
 6641      414E444C 
 6641      455F5641 
 6642              	.LASF256:
 6643 310a 4359424C 		.ascii	"CYBLE_EVT_CGMSS_NOTIFICATION_DISABLED\000"
 6643      455F4556 
 6643      545F4347 
 6643      4D53535F 
 6643      4E4F5449 
 6644              	.LASF316:
 6645 3130 4359424C 		.ascii	"CYBLE_EVT_GLSS_NOTIFICATION_ENABLED\000"
 6645      455F4556 
 6645      545F474C 
 6645      53535F4E 
 6645      4F544946 
 6646              	.LASF514:
 6647 3154 77656C63 		.ascii	"welcome1\000"
 6647      6F6D6531 
ARM GAS  C:\Users\megan\AppData\Local\Temp\ccqJAT7j.s 			page 160


 6647      00
 6648              	.LASF515:
 6649 315d 77656C63 		.ascii	"welcome2\000"
 6649      6F6D6532 
 6649      00
 6650              	.LASF516:
 6651 3166 77656C63 		.ascii	"welcome3\000"
 6651      6F6D6533 
 6651      00
 6652              	.LASF524:
 6653 316f 77656C63 		.ascii	"welcome4\000"
 6653      6F6D6534 
 6653      00
 6654              	.LASF78:
 6655 3178 4359424C 		.ascii	"CYBLE_EVT_GATTS_READ_CHAR_VAL_ACCESS_REQ\000"
 6655      455F4556 
 6655      545F4741 
 6655      5454535F 
 6655      52454144 
 6656              	.LASF80:
 6657 31a1 4359424C 		.ascii	"CYBLE_EVT_L2CAP_CONN_PARAM_UPDATE_REQ\000"
 6657      455F4556 
 6657      545F4C32 
 6657      4341505F 
 6657      434F4E4E 
 6658              	.LASF400:
 6659 31c7 4359424C 		.ascii	"CYBLE_EVT_PLXSS_INDICATION_ENABLED\000"
 6659      455F4556 
 6659      545F504C 
 6659      5853535F 
 6659      494E4449 
 6660              	.LASF410:
 6661 31ea 4359424C 		.ascii	"CYBLE_EVT_RSCSS_NOTIFICATION_DISABLED\000"
 6661      455F4556 
 6661      545F5253 
 6661      4353535F 
 6661      4E4F5449 
 6662              	.LASF9:
 6663 3210 6C6F6E67 		.ascii	"long long unsigned int\000"
 6663      206C6F6E 
 6663      6720756E 
 6663      7369676E 
 6663      65642069 
 6664              	.LASF220:
 6665 3227 4359424C 		.ascii	"CYBLE_EVT_ANSC_NOTIFICATION\000"
 6665      455F4556 
 6665      545F414E 
 6665      53435F4E 
 6665      4F544946 
 6666              	.LASF232:
 6667 3243 4359424C 		.ascii	"CYBLE_EVT_BCSS_INDICATION_DISABLED\000"
 6667      455F4556 
 6667      545F4243 
 6667      53535F49 
 6667      4E444943 
 6668              	.LASF350:
 6669 3266 4359424C 		.ascii	"CYBLE_EVT_HRSC_WRITE_CHAR_RESPONSE\000"
ARM GAS  C:\Users\megan\AppData\Local\Temp\ccqJAT7j.s 			page 161


 6669      455F4556 
 6669      545F4852 
 6669      53435F57 
 6669      52495445 
 6670              	.LASF113:
 6671 3289 4359424C 		.ascii	"CYBLE_ERROR_L2CAP_CHANNEL_NOT_FOUND\000"
 6671      455F4552 
 6671      524F525F 
 6671      4C324341 
 6671      505F4348 
 6672              	.LASF493:
 6673 32ad 6D616E75 		.ascii	"manual\000"
 6673      616C00
 6674              	.LASF438:
 6675 32b4 4359424C 		.ascii	"CYBLE_EVT_UDSS_NOTIFICATION_ENABLED\000"
 6675      455F4556 
 6675      545F5544 
 6675      53535F4E 
 6675      4F544946 
 6676              	.LASF320:
 6677 32d8 4359424C 		.ascii	"CYBLE_EVT_GLSC_NOTIFICATION\000"
 6677      455F4556 
 6677      545F474C 
 6677      53435F4E 
 6677      4F544946 
 6678              	.LASF214:
 6679 32f4 4359424C 		.ascii	"CYBLE_EVT_ANCSC_READ_DESCR_RESPONSE\000"
 6679      455F4556 
 6679      545F414E 
 6679      4353435F 
 6679      52454144 
 6680              	.LASF52:
 6681 3318 4359424C 		.ascii	"CYBLE_EVT_GAP_SCAN_REQ_RECVD\000"
 6681      455F4556 
 6681      545F4741 
 6681      505F5343 
 6681      414E5F52 
 6682              	.LASF117:
 6683 3335 4359424C 		.ascii	"CYBLE_ERROR_FLASH_WRITE_NOT_PERMITED\000"
 6683      455F4552 
 6683      524F525F 
 6683      464C4153 
 6683      485F5752 
 6684              	.LASF201:
 6685 335a 4359424C 		.ascii	"CYBLE_EVT_AIOSS_DESCR_WRITE\000"
 6685      455F4556 
 6685      545F4149 
 6685      4F53535F 
 6685      44455343 
 6686              	.LASF41:
 6687 3376 4359424C 		.ascii	"CYBLE_EVT_GAP_CONNECTION_UPDATE_COMPLETE\000"
 6687      455F4556 
 6687      545F4741 
 6687      505F434F 
 6687      4E4E4543 
 6688              	.LASF206:
 6689 339f 4359424C 		.ascii	"CYBLE_EVT_AIOSC_READ_DESCR_RESPONSE\000"
ARM GAS  C:\Users\megan\AppData\Local\Temp\ccqJAT7j.s 			page 162


 6689      455F4556 
 6689      545F4149 
 6689      4F53435F 
 6689      52454144 
 6690              	.LASF276:
 6691 33c3 4359424C 		.ascii	"CYBLE_EVT_CPSC_READ_DESCR_RESPONSE\000"
 6691      455F4556 
 6691      545F4350 
 6691      53435F52 
 6691      4541445F 
 6692              	.LASF529:
 6693 33e6 6F757473 		.ascii	"outside\000"
 6693      69646500 
 6694              	.LASF403:
 6695 33ee 4359424C 		.ascii	"CYBLE_EVT_PLXSC_NOTIFICATION\000"
 6695      455F4556 
 6695      545F504C 
 6695      5853435F 
 6695      4E4F5449 
 6696              	.LASF285:
 6697 340b 4359424C 		.ascii	"CYBLE_EVT_CSCSC_NOTIFICATION\000"
 6697      455F4556 
 6697      545F4353 
 6697      4353435F 
 6697      4E4F5449 
 6698              	.LASF420:
 6699 3428 4359424C 		.ascii	"CYBLE_EVT_RSCSC_WRITE_DESCR_RESPONSE\000"
 6699      455F4556 
 6699      545F5253 
 6699      4353435F 
 6699      57524954 
 6700              	.LASF272:
 6701 344d 4359424C 		.ascii	"CYBLE_EVT_CPSC_NOTIFICATION\000"
 6701      455F4556 
 6701      545F4350 
 6701      53435F4E 
 6701      4F544946 
 6702              	.LASF167:
 6703 3469 636F6E6E 		.ascii	"connHandle\000"
 6703      48616E64 
 6703      6C6500
 6704              	.LASF183:
 6705 3474 4359424C 		.ascii	"CYBLE_EVT_GATTC_INDICATION\000"
 6705      455F4556 
 6705      545F4741 
 6705      5454435F 
 6705      494E4449 
 6706              	.LASF258:
 6707 348f 4359424C 		.ascii	"CYBLE_EVT_CGMSC_INDICATION\000"
 6707      455F4556 
 6707      545F4347 
 6707      4D53435F 
 6707      494E4449 
 6708              	.LASF460:
 6709 34aa 4359424C 		.ascii	"CYBLE_EVT_WPTSC_WRITE_DESCR_RESPONSE\000"
 6709      455F4556 
 6709      545F5750 
ARM GAS  C:\Users\megan\AppData\Local\Temp\ccqJAT7j.s 			page 163


 6709      5453435F 
 6709      57524954 
 6710              	.LASF416:
 6711 34cf 4359424C 		.ascii	"CYBLE_EVT_RSCSC_INDICATION\000"
 6711      455F4556 
 6711      545F5253 
 6711      4353435F 
 6711      494E4449 
 6712              	.LASF470:
 6713 34ea 4359424C 		.ascii	"CYBLE_STATE_INITIALIZING\000"
 6713      455F5354 
 6713      4154455F 
 6713      494E4954 
 6713      49414C49 
 6714              	.LASF185:
 6715 3503 4359424C 		.ascii	"CYBLE_EVT_GATTC_INCL_DISCOVERY_FAILED\000"
 6715      455F4556 
 6715      545F4741 
 6715      5454435F 
 6715      494E434C 
 6716              	.LASF271:
 6717 3529 4359424C 		.ascii	"CYBLE_EVT_CPSS_CHAR_WRITE\000"
 6717      455F4556 
 6717      545F4350 
 6717      53535F43 
 6717      4841525F 
 6718              	.LASF94:
 6719 3543 4359424C 		.ascii	"CYBLE_EVT_FLASH_CORRUPT\000"
 6719      455F4556 
 6719      545F464C 
 6719      4153485F 
 6719      434F5252 
 6720              	.LASF305:
 6721 355b 4359424C 		.ascii	"CYBLE_EVT_ESSS_CHAR_WRITE\000"
 6721      455F4556 
 6721      545F4553 
 6721      53535F43 
 6721      4841525F 
 6722              	.LASF452:
 6723 3575 4359424C 		.ascii	"CYBLE_EVT_WPTSS_INDICATION_DISABLED\000"
 6723      455F4556 
 6723      545F5750 
 6723      5453535F 
 6723      494E4449 
 6724              	.LASF318:
 6725 3599 4359424C 		.ascii	"CYBLE_EVT_GLSS_WRITE_CHAR\000"
 6725      455F4556 
 6725      545F474C 
 6725      53535F57 
 6725      52495445 
 6726              	.LASF455:
 6727 35b3 4359424C 		.ascii	"CYBLE_EVT_WPTSC_NOTIFICATION\000"
 6727      455F4556 
 6727      545F5750 
 6727      5453435F 
 6727      4E4F5449 
 6728              	.LASF44:
ARM GAS  C:\Users\megan\AppData\Local\Temp\ccqJAT7j.s 			page 164


 6729 35d0 4359424C 		.ascii	"CYBLE_EVT_GAP_NUMERIC_COMPARISON_REQUEST\000"
 6729      455F4556 
 6729      545F4741 
 6729      505F4E55 
 6729      4D455249 
 6730              	.LASF341:
 6731 35f9 4359424C 		.ascii	"CYBLE_EVT_HPSC_READ_CHAR_RESPONSE\000"
 6731      455F4556 
 6731      545F4850 
 6731      53435F52 
 6731      4541445F 
 6732              	.LASF53:
 6733 361b 4359424C 		.ascii	"CYBLE_EVT_GAP_AUTH_REQ_REPLY_ERR\000"
 6733      455F4556 
 6733      545F4741 
 6733      505F4155 
 6733      54485F52 
 6734              	.LASF228:
 6735 363c 4359424C 		.ascii	"CYBLE_EVT_BASC_READ_CHAR_RESPONSE\000"
 6735      455F4556 
 6735      545F4241 
 6735      53435F52 
 6735      4541445F 
 6736              	.LASF8:
 6737 365e 6C6F6E67 		.ascii	"long long int\000"
 6737      206C6F6E 
 6737      6720696E 
 6737      7400
 6738              	.LASF174:
 6739 366c 61747472 		.ascii	"attrData\000"
 6739      44617461 
 6739      00
 6740              	.LASF266:
 6741 3675 4359424C 		.ascii	"CYBLE_EVT_CPSS_INDICATION_ENABLED\000"
 6741      455F4556 
 6741      545F4350 
 6741      53535F49 
 6741      4E444943 
 6742              	.LASF181:
 6743 3697 4359424C 		.ascii	"CYBLE_EVT_GATTS_INDICATION_ENABLED\000"
 6743      455F4556 
 6743      545F4741 
 6743      5454535F 
 6743      494E4449 
 6744              	.LASF42:
 6745 36ba 4359424C 		.ascii	"CYBLE_EVT_GAPC_SCAN_START_STOP\000"
 6745      455F4556 
 6745      545F4741 
 6745      50435F53 
 6745      43414E5F 
 6746              	.LASF162:
 6747 36d9 4359424C 		.ascii	"CYBLE_GATT_ATTR_HANDLE_RANGE_T\000"
 6747      455F4741 
 6747      54545F41 
 6747      5454525F 
 6747      48414E44 
 6748              	.LASF145:
ARM GAS  C:\Users\megan\AppData\Local\Temp\ccqJAT7j.s 			page 165


 6749 36f8 4359424C 		.ascii	"CYBLE_GAPC_ADV_REPORT_T\000"
 6749      455F4741 
 6749      50435F41 
 6749      44565F52 
 6749      45504F52 
 6750              	.LASF173:
 6751 3710 4359424C 		.ascii	"CYBLE_GATTC_GRP_ATTR_DATA_LIST_T\000"
 6751      455F4741 
 6751      5454435F 
 6751      4752505F 
 6751      41545452 
 6752              	.LASF75:
 6753 3731 4359424C 		.ascii	"CYBLE_EVT_GATTS_HANDLE_VALUE_CNF\000"
 6753      455F4556 
 6753      545F4741 
 6753      5454535F 
 6753      48414E44 
 6754              	.LASF182:
 6755 3752 4359424C 		.ascii	"CYBLE_EVT_GATTS_INDICATION_DISABLED\000"
 6755      455F4556 
 6755      545F4741 
 6755      5454535F 
 6755      494E4449 
 6756              	.LASF546:
 6757 3776 7363616E 		.ascii	"scan_result\000"
 6757      5F726573 
 6757      756C7400 
 6758              	.LASF109:
 6759 3782 4359424C 		.ascii	"CYBLE_ERROR_L2CAP_PSM_WRONG_ENCODING\000"
 6759      455F4552 
 6759      524F525F 
 6759      4C324341 
 6759      505F5053 
 6760              	.LASF385:
 6761 37a7 4359424C 		.ascii	"CYBLE_EVT_LNSC_READ_CHAR_RESPONSE\000"
 6761      455F4556 
 6761      545F4C4E 
 6761      53435F52 
 6761      4541445F 
 6762              	.LASF326:
 6763 37c9 4359424C 		.ascii	"CYBLE_EVT_HIDSS_NOTIFICATION_DISABLED\000"
 6763      455F4556 
 6763      545F4849 
 6763      4453535F 
 6763      4E4F5449 
 6764              	.LASF564:
 6765 37ef 6D61696E 		.ascii	"main.c\000"
 6765      2E6300
 6766              	.LASF67:
 6767 37f6 4359424C 		.ascii	"CYBLE_EVT_GATTS_WRITE_REQ\000"
 6767      455F4556 
 6767      545F4741 
 6767      5454535F 
 6767      57524954 
 6768              	.LASF79:
 6769 3810 4359424C 		.ascii	"CYBLE_EVT_GATTC_LONG_PROCEDURE_END\000"
 6769      455F4556 
ARM GAS  C:\Users\megan\AppData\Local\Temp\ccqJAT7j.s 			page 166


 6769      545F4741 
 6769      5454435F 
 6769      4C4F4E47 
 6770              	.LASF245:
 6771 3833 4359424C 		.ascii	"CYBLE_EVT_BLSC_READ_CHAR_RESPONSE\000"
 6771      455F4556 
 6771      545F424C 
 6771      53435F52 
 6771      4541445F 
 6772              	.LASF146:
 6773 3855 4359424C 		.ascii	"CYBLE_UUID16\000"
 6773      455F5555 
 6773      49443136 
 6773      00
 6774              	.LASF61:
 6775 3862 4359424C 		.ascii	"CYBLE_EVT_GATTC_READ_BY_TYPE_RSP\000"
 6775      455F4556 
 6775      545F4741 
 6775      5454435F 
 6775      52454144 
 6776              	.LASF119:
 6777 3883 4359424C 		.ascii	"CYBLE_ERROR_HARDWARE_FAILURE\000"
 6777      455F4552 
 6777      524F525F 
 6777      48415244 
 6777      57415245 
 6778              	.LASF88:
 6779 38a0 4359424C 		.ascii	"CYBLE_EVT_L2CAP_CBFC_RX_CREDIT_IND\000"
 6779      455F4556 
 6779      545F4C32 
 6779      4341505F 
 6779      43424643 
 6780              	.LASF240:
 6781 38c3 4359424C 		.ascii	"CYBLE_EVT_BLSS_INDICATION_CONFIRMED\000"
 6781      455F4556 
 6781      545F424C 
 6781      53535F49 
 6781      4E444943 
 6782              	.LASF327:
 6783 38e7 4359424C 		.ascii	"CYBLE_EVT_HIDSS_BOOT_MODE_ENTER\000"
 6783      455F4556 
 6783      545F4849 
 6783      4453535F 
 6783      424F4F54 
 6784              	.LASF459:
 6785 3907 4359424C 		.ascii	"CYBLE_EVT_WPTSC_READ_DESCR_RESPONSE\000"
 6785      455F4556 
 6785      545F5750 
 6785      5453435F 
 6785      52454144 
 6786              	.LASF407:
 6787 392b 4359424C 		.ascii	"CYBLE_EVT_PLXSC_READ_DESCR_RESPONSE\000"
 6787      455F4556 
 6787      545F504C 
 6787      5853435F 
 6787      52454144 
 6788              	.LASF333:
ARM GAS  C:\Users\megan\AppData\Local\Temp\ccqJAT7j.s 			page 167


 6789 394f 4359424C 		.ascii	"CYBLE_EVT_HIDSC_READ_CHAR_RESPONSE\000"
 6789      455F4556 
 6789      545F4849 
 6789      4453435F 
 6789      52454144 
 6790              	.LASF46:
 6791 3972 4359424C 		.ascii	"CYBLE_EVT_GAP_OOB_GENERATED_NOTIFICATION\000"
 6791      455F4556 
 6791      545F4741 
 6791      505F4F4F 
 6791      425F4745 
 6792              	.LASF339:
 6793 399b 4359424C 		.ascii	"CYBLE_EVT_HPSS_CHAR_WRITE\000"
 6793      455F4556 
 6793      545F4850 
 6793      53535F43 
 6793      4841525F 
 6794              	.LASF376:
 6795 39b5 4359424C 		.ascii	"CYBLE_EVT_LLSC_WRITE_CHAR_RESPONSE\000"
 6795      455F4556 
 6795      545F4C4C 
 6795      53435F57 
 6795      52495445 
 6796              	.LASF134:
 6797 39d8 4359424C 		.ascii	"CYBLE_GAPC_CONN_DIRECTED_ADV\000"
 6797      455F4741 
 6797      50435F43 
 6797      4F4E4E5F 
 6797      44495245 
 6798              	.LASF136:
 6799 39f5 4359424C 		.ascii	"CYBLE_GAPC_NON_CONN_UNDIRECTED_ADV\000"
 6799      455F4741 
 6799      50435F4E 
 6799      4F4E5F43 
 6799      4F4E4E5F 
 6800              	.LASF178:
 6801 3a18 4359424C 		.ascii	"CYBLE_PASSKEY_ENTRY_REQUEST_REPLY\000"
 6801      455F5041 
 6801      53534B45 
 6801      595F454E 
 6801      5452595F 
 6802              	.LASF89:
 6803 3a3a 4359424C 		.ascii	"CYBLE_EVT_L2CAP_CBFC_TX_CREDIT_IND\000"
 6803      455F4556 
 6803      545F4C32 
 6803      4341505F 
 6803      43424643 
 6804              	.LASF483:
 6805 3a5d 66616C73 		.ascii	"false\000"
 6805      6500
 6806              	.LASF202:
 6807 3a63 4359424C 		.ascii	"CYBLE_EVT_AIOSC_NOTIFICATION\000"
 6807      455F4556 
 6807      545F4149 
 6807      4F53435F 
 6807      4E4F5449 
 6808              	.LASF158:
ARM GAS  C:\Users\megan\AppData\Local\Temp\ccqJAT7j.s 			page 168


 6809 3a80 61747472 		.ascii	"attrHandle\000"
 6809      48616E64 
 6809      6C6500
 6810              	.LASF512:
 6811 3a8b 6D61696E 		.ascii	"main\000"
 6811      00
 6812              	.LASF152:
 6813 3a90 4359424C 		.ascii	"CYBLE_GATT_DB_ATTR_HANDLE_T\000"
 6813      455F4741 
 6813      54545F44 
 6813      425F4154 
 6813      54525F48 
 6814              	.LASF432:
 6815 3aac 4359424C 		.ascii	"CYBLE_EVT_TPSC_READ_CHAR_RESPONSE\000"
 6815      455F4556 
 6815      545F5450 
 6815      53435F52 
 6815      4541445F 
 6816              	.LASF10:
 6817 3ace 756E7369 		.ascii	"unsigned int\000"
 6817      676E6564 
 6817      20696E74 
 6817      00
 6818              	.LASF48:
 6819 3adb 4359424C 		.ascii	"CYBLE_EVT_GAP_ENHANCE_CONN_COMPLETE\000"
 6819      455F4556 
 6819      545F4741 
 6819      505F454E 
 6819      48414E43 
 6820              	.LASF444:
 6821 3aff 4359424C 		.ascii	"CYBLE_EVT_UDSC_READ_CHAR_RESPONSE\000"
 6821      455F4556 
 6821      545F5544 
 6821      53435F52 
 6821      4541445F 
 6822              	.LASF525:
 6823 3b21 47554949 		.ascii	"GUIInit\000"
 6823      6E697400 
 6824              	.LASF2:
 6825 3b29 73686F72 		.ascii	"short int\000"
 6825      7420696E 
 6825      7400
 6826              	.LASF286:
 6827 3b33 4359424C 		.ascii	"CYBLE_EVT_CSCSC_INDICATION\000"
 6827      455F4556 
 6827      545F4353 
 6827      4353435F 
 6827      494E4449 
 6828              	.LASF34:
 6829 3b4e 4359424C 		.ascii	"CYBLE_EVT_GAP_PASSKEY_DISPLAY_REQUEST\000"
 6829      455F4556 
 6829      545F4741 
 6829      505F5041 
 6829      53534B45 
 6830              	.LASF443:
 6831 3b74 4359424C 		.ascii	"CYBLE_EVT_UDSC_NOTIFICATION\000"
 6831      455F4556 
ARM GAS  C:\Users\megan\AppData\Local\Temp\ccqJAT7j.s 			page 169


 6831      545F5544 
 6831      53435F4E 
 6831      4F544946 
 6832              	.LASF310:
 6833 3b90 4359424C 		.ascii	"CYBLE_EVT_ESSC_WRITE_CHAR_RESPONSE\000"
 6833      455F4556 
 6833      545F4553 
 6833      53435F57 
 6833      52495445 
 6834              	.LASF559:
 6835 3bb3 44657669 		.ascii	"DevicesNearBy\000"
 6835      6365734E 
 6835      65617242 
 6835      7900
 6836              	.LASF354:
 6837 3bc1 4359424C 		.ascii	"CYBLE_EVT_HTSS_NOTIFICATION_DISABLED\000"
 6837      455F4556 
 6837      545F4854 
 6837      53535F4E 
 6837      4F544946 
 6838              	.LASF521:
 6839 3be6 78536361 		.ascii	"xScale\000"
 6839      6C6500
 6840              	.LASF351:
 6841 3bed 4359424C 		.ascii	"CYBLE_EVT_HRSC_READ_DESCR_RESPONSE\000"
 6841      455F4556 
 6841      545F4852 
 6841      53435F52 
 6841      4541445F 
 6842              	.LASF295:
 6843 3c10 4359424C 		.ascii	"CYBLE_EVT_CTSC_READ_CHAR_RESPONSE\000"
 6843      455F4556 
 6843      545F4354 
 6843      53435F52 
 6843      4541445F 
 6844              	.LASF307:
 6845 3c32 4359424C 		.ascii	"CYBLE_EVT_ESSC_NOTIFICATION\000"
 6845      455F4556 
 6845      545F4553 
 6845      53435F4E 
 6845      4F544946 
 6846              	.LASF247:
 6847 3c4e 4359424C 		.ascii	"CYBLE_EVT_BLSC_WRITE_DESCR_RESPONSE\000"
 6847      455F4556 
 6847      545F424C 
 6847      53435F57 
 6847      52495445 
 6848              	.LASF120:
 6849 3c72 4359424C 		.ascii	"CYBLE_ERROR_UNSUPPORTED_FEATURE_OR_PARAMETER_VALUE\000"
 6849      455F4552 
 6849      524F525F 
 6849      554E5355 
 6849      50504F52 
 6850              		.ident	"GCC: (GNU Tools for ARM Embedded Processors) 5.4.1 20160609 (release) [ARM/embedded-5-bran
