ARM GAS  C:\Users\megan\AppData\Local\Temp\ccPHoCT8.s 			page 1


   1              		.syntax unified
   2              		.cpu cortex-m0
   3              		.fpu softvfp
   4              		.eabi_attribute 20, 1
   5              		.eabi_attribute 21, 1
   6              		.eabi_attribute 23, 3
   7              		.eabi_attribute 24, 1
   8              		.eabi_attribute 25, 1
   9              		.eabi_attribute 26, 1
  10              		.eabi_attribute 30, 6
  11              		.eabi_attribute 34, 0
  12              		.eabi_attribute 18, 4
  13              		.thumb
  14              		.syntax unified
  15              		.file	"main.c"
  16              		.text
  17              	.Ltext0:
  18              		.cfi_sections	.debug_frame
  19              		.comm	_cs,1,1
  20              		.comm	_rst,1,1
  21              		.comm	_width,2,2
  22              		.comm	_height,2,2
  23              		.comm	_textScale,1,1
  24              		.comm	_size,1,1
  25              		.comm	outside,4,4
  26              		.comm	settings,1,4
  27              		.comm	ble_state,1,1
  28              		.comm	peerAddr,1785,4
  29              		.global	DevicesNearBy
  30              		.bss
  31              		.type	DevicesNearBy, %object
  32              		.size	DevicesNearBy, 1
  33              	DevicesNearBy:
  34 0000 00       		.space	1
  35              		.comm	fl_temp_bytes,4,4
  36              		.global	byte
  37              		.type	byte, %object
  38              		.size	byte, 1
  39              	byte:
  40 0001 00       		.space	1
  41              		.comm	bin1,8,4
  42              		.section	.text.main,"ax",%progbits
  43              		.align	2
  44              		.global	main
  45              		.code	16
  46              		.thumb_func
  47              		.type	main, %function
  48              	main:
  49              	.LFB35:
  50              		.file 1 "main.c"
   1:main.c        **** /* ========================================
   2:main.c        ****  *
   3:main.c        ****  * Copyright Megan Bird, 2018
   4:main.c        ****  * All Rights Reserved
   5:main.c        ****  * UNPUBLISHED, LICENSED SOFTWARE.
   6:main.c        ****  *
   7:main.c        ****  * CONFIDENTIAL AND PROPRIETARY INFORMATION
ARM GAS  C:\Users\megan\AppData\Local\Temp\ccPHoCT8.s 			page 2


   8:main.c        ****  * WHICH IS THE PROPERTY OF Megan Bird.
   9:main.c        ****  *
  10:main.c        ****  * ========================================
  11:main.c        **** */
  12:main.c        **** 
  13:main.c        **** #include <project.h>
  14:main.c        **** #include <RA8875.h>
  15:main.c        **** #include <math.h>
  16:main.c        **** 
  17:main.c        **** /*  Declarations    */
  18:main.c        **** typedef struct Bin {
  19:main.c        ****     float32 actual_temp;
  20:main.c        ****     uint8_t set_temp;
  21:main.c        ****     bool    fan_on;
  22:main.c        ****     bool    ble_connected;
  23:main.c        **** } Bin;
  24:main.c        **** 
  25:main.c        **** struct Outside {
  26:main.c        ****     float32 temp;
  27:main.c        **** } outside;
  28:main.c        **** 
  29:main.c        **** typedef enum Mode {
  30:main.c        ****     MANUAL,
  31:main.c        ****     AUTOMATIC
  32:main.c        **** } Mode;
  33:main.c        **** 
  34:main.c        **** struct Settings {
  35:main.c        ****     Mode   mode;
  36:main.c        **** } settings;
  37:main.c        **** 
  38:main.c        **** void DefaultValues();
  39:main.c        **** void StackEventHandler( uint32 eventCode, void *eventParam );
  40:main.c        **** void LCDInit(void);
  41:main.c        **** void LCDInitDemo();
  42:main.c        **** void LCDTouchscreenDemo();
  43:main.c        **** void LCDCheckTouch();
  44:main.c        **** void GUISplashscreen();
  45:main.c        **** void GUIInit();
  46:main.c        **** void GUIUpdateBin1ActualTemp();
  47:main.c        **** void GUIUpdateOutsideTemp();
  48:main.c        **** void GUIUpdateMode();
  49:main.c        **** void GUIUpdateControls();
  50:main.c        **** void GUITouchHandler(uint16_t *tx, uint16_t *ty);
  51:main.c        **** void GUITest();
  52:main.c        **** void TempReceive(Bin * bin, uint8_t * fl_bytes);
  53:main.c        **** void TempOutsideReceive(uint8_t * fl_bytes);
  54:main.c        **** void PrintInt(uint8_t n);
  55:main.c        **** void PrintFloat(float n);
  56:main.c        **** void RegReadTest();
  57:main.c        **** void BLEConnect();
  58:main.c        **** void BLEIndicator();
  59:main.c        **** void FanTest();
  60:main.c        **** void FanUpdate();
  61:main.c        **** bool FanValidCondition();
  62:main.c        **** 
  63:main.c        **** /* define the test register to switch the PA/LNA hardware control pins */
  64:main.c        **** #define CYREG_SRSS_TST_DDFT_CTRL        0x40030008
ARM GAS  C:\Users\megan\AppData\Local\Temp\ccPHoCT8.s 			page 3


  65:main.c        **** 
  66:main.c        **** /* Global Variables */
  67:main.c        **** #define CYBLE_MAX_ADV_DEVICES           255
  68:main.c        **** 
  69:main.c        **** CYBLE_STATE_T                           ble_state;
  70:main.c        **** CYBLE_GAP_BD_ADDR_T                     peerAddr[CYBLE_MAX_ADV_DEVICES];
  71:main.c        **** uint8                                   DevicesNearBy = 0;
  72:main.c        **** uint8_t                                 fl_temp_bytes[4];
  73:main.c        **** uint8_t                                 byte = 0;
  74:main.c        **** Bin                                     bin1;
  75:main.c        **** 
  76:main.c        **** int main()
  77:main.c        **** {
  51              		.loc 1 77 0
  52              		.cfi_startproc
  53              		@ args = 0, pretend = 0, frame = 0
  54              		@ frame_needed = 1, uses_anonymous_args = 0
  55 0000 80B5     		push	{r7, lr}
  56              		.cfi_def_cfa_offset 8
  57              		.cfi_offset 7, -8
  58              		.cfi_offset 14, -4
  59 0002 00AF     		add	r7, sp, #0
  60              		.cfi_def_cfa_register 7
  78:main.c        ****     CyGlobalIntEnable;   /* Enable global interrupts */
  61              		.loc 1 78 0
  62              		.syntax divided
  63              	@ 78 "main.c" 1
  64 0004 62B6     		CPSIE   i
  65              	@ 0 "" 2
  79:main.c        ****     
  80:main.c        ****     // Initialize Variables
  81:main.c        ****     DefaultValues();
  66              		.loc 1 81 0
  67              		.thumb
  68              		.syntax unified
  69 0006 FFF7FEFF 		bl	DefaultValues
  82:main.c        ****     
  83:main.c        ****     // Power LED
  84:main.c        ****     LED_RED_Write(0);
  70              		.loc 1 84 0
  71 000a 0020     		movs	r0, #0
  72 000c FFF7FEFF 		bl	LED_RED_Write
  85:main.c        ****     
  86:main.c        ****     /*  LCD Setup   */
  87:main.c        ****     LCDInit();
  73              		.loc 1 87 0
  74 0010 FFF7FEFF 		bl	LCDInit
  88:main.c        ****     //GUISplashscreen();
  89:main.c        ****     GUIInit();
  75              		.loc 1 89 0
  76 0014 FFF7FEFF 		bl	GUIInit
  90:main.c        ****     
  91:main.c        ****     /* BLE Setup    */
  92:main.c        ****     CyBle_Start( StackEventHandler );
  77              		.loc 1 92 0
  78 0018 0C4B     		ldr	r3, .L4
  79 001a 1800     		movs	r0, r3
ARM GAS  C:\Users\megan\AppData\Local\Temp\ccPHoCT8.s 			page 4


  80 001c FFF7FEFF 		bl	CyBle_Start
  93:main.c        ****     BLEConnect();
  81              		.loc 1 93 0
  82 0020 FFF7FEFF 		bl	BLEConnect
  83              	.L3:
  94:main.c        ****     
  95:main.c        ****     for(;;)
  96:main.c        ****     {
  97:main.c        ****         ble_state = CyBle_GetState();
  84              		.loc 1 97 0
  85 0024 0A4B     		ldr	r3, .L4+4
  86 0026 1A78     		ldrb	r2, [r3]
  87 0028 0A4B     		ldr	r3, .L4+8
  88 002a 1A70     		strb	r2, [r3]
  98:main.c        ****         if (ble_state == CYBLE_STATE_DISCONNECTED ) {
  89              		.loc 1 98 0
  90 002c 094B     		ldr	r3, .L4+8
  91 002e 1B78     		ldrb	r3, [r3]
  92 0030 052B     		cmp	r3, #5
  93 0032 01D1     		bne	.L2
  99:main.c        ****             BLEConnect();
  94              		.loc 1 99 0
  95 0034 FFF7FEFF 		bl	BLEConnect
  96              	.L2:
 100:main.c        ****         }
 101:main.c        ****         LCDCheckTouch();
  97              		.loc 1 101 0
  98 0038 FFF7FEFF 		bl	LCDCheckTouch
 102:main.c        ****         FanUpdate();
  99              		.loc 1 102 0
 100 003c FFF7FEFF 		bl	FanUpdate
 103:main.c        ****         BLEIndicator();
 101              		.loc 1 103 0
 102 0040 FFF7FEFF 		bl	BLEIndicator
 104:main.c        ****         CyBle_ProcessEvents();
 103              		.loc 1 104 0
 104 0044 FFF7FEFF 		bl	CyBle_ProcessEvents
 105:main.c        ****     }
 105              		.loc 1 105 0
 106 0048 ECE7     		b	.L3
 107              	.L5:
 108 004a C046     		.align	2
 109              	.L4:
 110 004c 00000000 		.word	StackEventHandler
 111 0050 00000000 		.word	cyBle_state
 112 0054 00000000 		.word	ble_state
 113              		.cfi_endproc
 114              	.LFE35:
 115              		.size	main, .-main
 116              		.section	.text.DefaultValues,"ax",%progbits
 117              		.align	2
 118              		.global	DefaultValues
 119              		.code	16
 120              		.thumb_func
 121              		.type	DefaultValues, %function
 122              	DefaultValues:
 123              	.LFB36:
ARM GAS  C:\Users\megan\AppData\Local\Temp\ccPHoCT8.s 			page 5


 106:main.c        **** }
 107:main.c        **** 
 108:main.c        **** void DefaultValues() {
 124              		.loc 1 108 0
 125              		.cfi_startproc
 126              		@ args = 0, pretend = 0, frame = 0
 127              		@ frame_needed = 1, uses_anonymous_args = 0
 128 0000 80B5     		push	{r7, lr}
 129              		.cfi_def_cfa_offset 8
 130              		.cfi_offset 7, -8
 131              		.cfi_offset 14, -4
 132 0002 00AF     		add	r7, sp, #0
 133              		.cfi_def_cfa_register 7
 109:main.c        ****     
 110:main.c        ****     // Settings
 111:main.c        ****     settings.mode = MANUAL;
 134              		.loc 1 111 0
 135 0004 0A4B     		ldr	r3, .L7
 136 0006 0022     		movs	r2, #0
 137 0008 1A70     		strb	r2, [r3]
 112:main.c        ****     
 113:main.c        ****     // Outside
 114:main.c        ****     outside.temp = 0;
 138              		.loc 1 114 0
 139 000a 0A4B     		ldr	r3, .L7+4
 140 000c 0022     		movs	r2, #0
 141 000e 1A60     		str	r2, [r3]
 115:main.c        ****     
 116:main.c        ****     // Bin1
 117:main.c        ****     bin1.actual_temp = 0;
 142              		.loc 1 117 0
 143 0010 094B     		ldr	r3, .L7+8
 144 0012 0022     		movs	r2, #0
 145 0014 1A60     		str	r2, [r3]
 118:main.c        ****     bin1.set_temp = 70;
 146              		.loc 1 118 0
 147 0016 084B     		ldr	r3, .L7+8
 148 0018 4622     		movs	r2, #70
 149 001a 1A71     		strb	r2, [r3, #4]
 119:main.c        ****     bin1.fan_on = false;
 150              		.loc 1 119 0
 151 001c 064B     		ldr	r3, .L7+8
 152 001e 0022     		movs	r2, #0
 153 0020 5A71     		strb	r2, [r3, #5]
 120:main.c        ****     bin1.ble_connected = false;
 154              		.loc 1 120 0
 155 0022 054B     		ldr	r3, .L7+8
 156 0024 0022     		movs	r2, #0
 157 0026 9A71     		strb	r2, [r3, #6]
 121:main.c        **** }
 158              		.loc 1 121 0
 159 0028 C046     		nop
 160 002a BD46     		mov	sp, r7
 161              		@ sp needed
 162 002c 80BD     		pop	{r7, pc}
 163              	.L8:
 164 002e C046     		.align	2
ARM GAS  C:\Users\megan\AppData\Local\Temp\ccPHoCT8.s 			page 6


 165              	.L7:
 166 0030 00000000 		.word	settings
 167 0034 00000000 		.word	outside
 168 0038 00000000 		.word	bin1
 169              		.cfi_endproc
 170              	.LFE36:
 171              		.size	DefaultValues, .-DefaultValues
 172              		.section	.rodata
 173              		.align	2
 174              	.LC7:
 175 0000 4359424C 		.ascii	"CYBLE_ERROR_OK\000"
 175      455F4552 
 175      524F525F 
 175      4F4B00
 176 000f 00       		.align	2
 177              	.LC9:
 178 0010 4359424C 		.ascii	"CYBLE_ERROR_OCCURED\000"
 178      455F4552 
 178      524F525F 
 178      4F434355 
 178      52454400 
 179              		.align	2
 180              	.LC11:
 181 0024 494E5641 		.ascii	"INVALID PARAMTER\000"
 181      4C494420 
 181      50415241 
 181      4D544552 
 181      00
 182 0035 000000   		.align	2
 183              	.LC13:
 184 0038 494E5641 		.ascii	"INVALID OPERATION\000"
 184      4C494420 
 184      4F504552 
 184      4154494F 
 184      4E00
 185 004a 0000     		.align	2
 186              	.LC15:
 187 004c 53657276 		.ascii	"Service Count: \000"
 187      69636520 
 187      436F756E 
 187      743A2000 
 188              		.align	2
 189              	.LC17:
 190 005c 44617461 		.ascii	"Data Length: \000"
 190      204C656E 
 190      6774683A 
 190      2000
 191 006a 0000     		.align	2
 192              	.LC19:
 193 006c 4E6F7469 		.ascii	"Notification Received\000"
 193      66696361 
 193      74696F6E 
 193      20526563 
 193      65697665 
 194              		.section	.text.StackEventHandler,"ax",%progbits
 195              		.align	2
 196              		.global	StackEventHandler
ARM GAS  C:\Users\megan\AppData\Local\Temp\ccPHoCT8.s 			page 7


 197              		.code	16
 198              		.thumb_func
 199              		.type	StackEventHandler, %function
 200              	StackEventHandler:
 201              	.LFB37:
 122:main.c        **** 
 123:main.c        **** void StackEventHandler( uint32 eventCode, void *eventParam ) {
 202              		.loc 1 123 0
 203              		.cfi_startproc
 204              		@ args = 0, pretend = 0, frame = 240
 205              		@ frame_needed = 1, uses_anonymous_args = 0
 206 0000 90B5     		push	{r4, r7, lr}
 207              		.cfi_def_cfa_offset 12
 208              		.cfi_offset 4, -12
 209              		.cfi_offset 7, -8
 210              		.cfi_offset 14, -4
 211 0002 BDB0     		sub	sp, sp, #244
 212              		.cfi_def_cfa_offset 256
 213 0004 00AF     		add	r7, sp, #0
 214              		.cfi_def_cfa_register 7
 215 0006 7860     		str	r0, [r7, #4]
 216 0008 3960     		str	r1, [r7]
 124:main.c        ****     
 125:main.c        ****      //------ Declarations ------/
 126:main.c        ****     // LCD Strings
 127:main.c        ****     char ok[] = "CYBLE_ERROR_OK";
 217              		.loc 1 127 0
 218 000a E023     		movs	r3, #224
 219 000c FB18     		adds	r3, r7, r3
 220 000e 844A     		ldr	r2, .L32
 221 0010 13CA     		ldmia	r2!, {r0, r1, r4}
 222 0012 13C3     		stmia	r3!, {r0, r1, r4}
 223 0014 1188     		ldrh	r1, [r2]
 224 0016 1980     		strh	r1, [r3]
 225 0018 9278     		ldrb	r2, [r2, #2]
 226 001a 9A70     		strb	r2, [r3, #2]
 128:main.c        ****     char error[] = "CYBLE_ERROR_OCCURED";
 227              		.loc 1 128 0
 228 001c CC23     		movs	r3, #204
 229 001e FB18     		adds	r3, r7, r3
 230 0020 804A     		ldr	r2, .L32+4
 231 0022 13CA     		ldmia	r2!, {r0, r1, r4}
 232 0024 13C3     		stmia	r3!, {r0, r1, r4}
 233 0026 03CA     		ldmia	r2!, {r0, r1}
 234 0028 03C3     		stmia	r3!, {r0, r1}
 129:main.c        ****     char param[] = "INVALID PARAMTER";
 235              		.loc 1 129 0
 236 002a B823     		movs	r3, #184
 237 002c FB18     		adds	r3, r7, r3
 238 002e 7E4A     		ldr	r2, .L32+8
 239 0030 13CA     		ldmia	r2!, {r0, r1, r4}
 240 0032 13C3     		stmia	r3!, {r0, r1, r4}
 241 0034 1168     		ldr	r1, [r2]
 242 0036 1960     		str	r1, [r3]
 243 0038 1279     		ldrb	r2, [r2, #4]
 244 003a 1A71     		strb	r2, [r3, #4]
 130:main.c        ****     char operation[] = "INVALID OPERATION";
ARM GAS  C:\Users\megan\AppData\Local\Temp\ccPHoCT8.s 			page 8


 245              		.loc 1 130 0
 246 003c A423     		movs	r3, #164
 247 003e FB18     		adds	r3, r7, r3
 248 0040 7A4A     		ldr	r2, .L32+12
 249 0042 13CA     		ldmia	r2!, {r0, r1, r4}
 250 0044 13C3     		stmia	r3!, {r0, r1, r4}
 251 0046 1168     		ldr	r1, [r2]
 252 0048 1960     		str	r1, [r3]
 253 004a 9288     		ldrh	r2, [r2, #4]
 254 004c 9A80     		strh	r2, [r3, #4]
 131:main.c        ****     char serviceCount[] = "Service Count: ";
 255              		.loc 1 131 0
 256 004e 9423     		movs	r3, #148
 257 0050 FB18     		adds	r3, r7, r3
 258 0052 774A     		ldr	r2, .L32+16
 259 0054 13CA     		ldmia	r2!, {r0, r1, r4}
 260 0056 13C3     		stmia	r3!, {r0, r1, r4}
 261 0058 1268     		ldr	r2, [r2]
 262 005a 1A60     		str	r2, [r3]
 132:main.c        ****     char dataLength[] = "Data Length: ";
 263              		.loc 1 132 0
 264 005c 8423     		movs	r3, #132
 265 005e FB18     		adds	r3, r7, r3
 266 0060 744A     		ldr	r2, .L32+20
 267 0062 13CA     		ldmia	r2!, {r0, r1, r4}
 268 0064 13C3     		stmia	r3!, {r0, r1, r4}
 269 0066 1288     		ldrh	r2, [r2]
 270 0068 1A80     		strh	r2, [r3]
 133:main.c        ****     char space[] = " ";
 271              		.loc 1 133 0
 272 006a 8023     		movs	r3, #128
 273 006c FB18     		adds	r3, r7, r3
 274 006e 2022     		movs	r2, #32
 275 0070 1A80     		strh	r2, [r3]
 134:main.c        ****     char notification[] = "Notification Received";
 276              		.loc 1 134 0
 277 0072 6823     		movs	r3, #104
 278 0074 FB18     		adds	r3, r7, r3
 279 0076 704A     		ldr	r2, .L32+24
 280 0078 13CA     		ldmia	r2!, {r0, r1, r4}
 281 007a 13C3     		stmia	r3!, {r0, r1, r4}
 282 007c 03CA     		ldmia	r2!, {r0, r1}
 283 007e 03C3     		stmia	r3!, {r0, r1}
 284 0080 1288     		ldrh	r2, [r2]
 285 0082 1A80     		strh	r2, [r3]
 135:main.c        ****     
 136:main.c        ****     CYBLE_GAPC_ADV_REPORT_T                 advReport;
 137:main.c        ****     CYBLE_GATTC_READ_BY_TYPE_REQ_T          readByTypeReqParam;
 138:main.c        ****     CYBLE_GATTC_READ_BY_TYPE_RSP_PARAM_T    readResponse;
 139:main.c        ****     CYBLE_GATTC_HANDLE_VALUE_NTF_PARAM_T    notificationData;
 140:main.c        ****     CYBLE_GATT_ATTR_HANDLE_RANGE_T          range;
 141:main.c        ****     CYBLE_UUID_T                            uuid;
 142:main.c        ****     CYBLE_API_RESULT_T                      apiResult;
 143:main.c        ****    
 144:main.c        ****     uint8                                   i;
 145:main.c        ****     uint8_t                                 fl_bytes[4];
 146:main.c        ****     
ARM GAS  C:\Users\megan\AppData\Local\Temp\ccPHoCT8.s 			page 9


 147:main.c        ****     
 148:main.c        ****     switch( eventCode )
 286              		.loc 1 148 0
 287 0084 7B68     		ldr	r3, [r7, #4]
 288 0086 412B     		cmp	r3, #65
 289 0088 00D1     		bne	.LCB162
 290 008a BDE0     		b	.L28	@long jump
 291              	.LCB162:
 292 008c 06D8     		bhi	.L12
 293 008e 202B     		cmp	r3, #32
 294 0090 16D0     		beq	.L13
 295 0092 272B     		cmp	r3, #39
 296 0094 4ED0     		beq	.L14
 297 0096 012B     		cmp	r3, #1
 298 0098 0BD0     		beq	.L15
 149:main.c        ****     {
 150:main.c        ****         /* Generic events */
 151:main.c        **** 
 152:main.c        ****         case CYBLE_EVT_STACK_ON:
 153:main.c        ****             /* Configure the Link Layer to automatically switch PA
 154:main.c        ****              * control pin P3[2] and LNA control pin P3[3] */
 155:main.c        ****             CY_SET_XTND_REG32((void CYFAR *)(CYREG_BLE_BLESS_RF_CONFIG), 0x0331);
 156:main.c        ****             CY_SET_XTND_REG32((void CYFAR *)(CYREG_SRSS_TST_DDFT_CTRL), 0x80000302);
 157:main.c        ****             /* CyBle_GappStartAdvertisement( CYBLE_ADVERTISING_FAST ); */
 158:main.c        ****         break;
 159:main.c        ****             
 160:main.c        ****         case CYBLE_EVT_GAPC_SCAN_PROGRESS_RESULT:
 161:main.c        ****             
 162:main.c        ****             /*copy the advertising packet recieved to advReport*/
 163:main.c        ****             advReport=*(CYBLE_GAPC_ADV_REPORT_T *)eventParam;
 164:main.c        ****             
 165:main.c        ****             if((DevicesNearBy <= CYBLE_MAX_ADV_DEVICES) && (advReport.eventType!=CYBLE_GAPC_SCAN_RS
 166:main.c        ****             {
 167:main.c        ****                 for(i = 0u; i < CYBLE_GAP_BD_ADDR_SIZE; i++)
 168:main.c        ****                 {
 169:main.c        ****                     peerAddr[DevicesNearBy].bdAddr[i] = advReport.peerBdAddr[i];
 170:main.c        ****                 }                    
 171:main.c        ****                 
 172:main.c        ****                 /* Increase the number of peer devices when 
 173:main.c        ****                  * received aadvertising packet from different peer devices.*/
 174:main.c        ****                 ++DevicesNearBy;
 175:main.c        ****             }  
 176:main.c        ****             
 177:main.c        ****         break;
 178:main.c        ****             
 179:main.c        ****         /* This event is received when connection is established */
 180:main.c        ****         case CYBLE_EVT_GATT_CONNECT_IND:
 181:main.c        ****   
 182:main.c        ****              /* Retrieve BLE connection handle */
 183:main.c        ****              //connHandle = *(CYBLE_CONN_HANDLE_T *) eventParam;
 184:main.c        ****             
 185:main.c        ****          break;
 186:main.c        ****             
 187:main.c        ****         case CYBLE_EVT_GAP_DEVICE_CONNECTED:
 188:main.c        ****                 /*Start to dicovery the servioes of the serve after connection*/
 189:main.c        ****                 CyBle_GattcStartDiscovery(cyBle_connHandle);  
 190:main.c        ****         break;
ARM GAS  C:\Users\megan\AppData\Local\Temp\ccPHoCT8.s 			page 10


 191:main.c        ****             
 192:main.c        ****         case CYBLE_EVT_GATTC_DISCOVERY_COMPLETE:
 193:main.c        ****            // printf("\r\nDiscovery complete.\r\n");
 194:main.c        ****             
 195:main.c        **** //            range.startHandle   = 0x0001;
 196:main.c        **** //            range.endHandle     = 0xFFFF;
 197:main.c        **** //            uuid.uuid16         = 0x14BF; 
 198:main.c        **** //   
 199:main.c        **** //            readByTypeReqParam.range = range;
 200:main.c        **** //            readByTypeReqParam.uuid = uuid;
 201:main.c        **** //            readByTypeReqParam.uuidFormat = 0x01;
 202:main.c        ****             
 203:main.c        ****             //textWrite(serviceCount,strlen(serviceCount));
 204:main.c        ****             //PrintInt(CYBLE_SRVI_COUNT);
 205:main.c        ****             
 206:main.c        ****             //apiResult = CyBle_GattcDiscoverAllCharacteristics(connHandle, range);
 207:main.c        ****    
 208:main.c        ****             //apiResult = CyBle_GattcReadUsingCharacteristicUuid(cyBle_connHandle,&readByTypeReqPar
 209:main.c        ****             
 210:main.c        **** //            if ( apiResult == CYBLE_ERROR_OK )
 211:main.c        **** //                textWrite(ok,strlen(ok));
 212:main.c        **** 
 213:main.c        ****         break;
 214:main.c        ****         
 215:main.c        ****         case CYBLE_EVT_GATTC_READ_BY_TYPE_RSP:
 216:main.c        ****             
 217:main.c        ****             readResponse = *(CYBLE_GATTC_READ_BY_TYPE_RSP_PARAM_T *) eventParam;
 218:main.c        ****             
 219:main.c        ****             //textWrite(dataLength,strlen(dataLength));
 220:main.c        ****             //PrintInt(readResponse.attrData.length - 2);
 221:main.c        ****             
 222:main.c        ****             for( i=2 ; i < readResponse.attrData.length; i++)
 223:main.c        ****             {
 224:main.c        ****                 //PrintInt(readResponse.attrData.attrValue[i]);
 225:main.c        ****                 //textWrite(space,strlen(space));
 226:main.c        ****                 
 227:main.c        ****                 fl_bytes[i-2] = readResponse.attrData.attrValue[i];
 228:main.c        ****             }
 229:main.c        ****             
 230:main.c        **** //            if (notificationData.handleValPair.attrHandle == 0x0012) {
 231:main.c        **** //                TempReceive(&bin1,fl_bytes);
 232:main.c        **** //            }
 233:main.c        **** //            else if (notificationData.handleValPair.attrHandle == 0x0016) {
 234:main.c        **** //                TempOutsideReceive(fl_bytes);
 235:main.c        **** //            }
 236:main.c        ****             
 237:main.c        ****         break;
 238:main.c        ****                 
 239:main.c        ****         case CYBLE_EVT_GATTC_HANDLE_VALUE_NTF:
 240:main.c        ****                 
 241:main.c        ****             //textWrite(notification,strlen(notification));
 242:main.c        ****             
 243:main.c        ****             notificationData = *(CYBLE_GATTC_HANDLE_VALUE_NTF_PARAM_T *) eventParam;
 244:main.c        ****             
 245:main.c        ****             fl_temp_bytes[byte++] = * notificationData.handleValPair.value.val;
 246:main.c        **** 
 247:main.c        ****             // convert 4 bytes to float
ARM GAS  C:\Users\megan\AppData\Local\Temp\ccPHoCT8.s 			page 11


 248:main.c        ****             if (byte == 4) {
 249:main.c        ****                 //PrintFloat( *(float32*)(fl_temp_bytes) );
 250:main.c        ****                 //textWrite(space,strlen(space));  
 251:main.c        ****                 
 252:main.c        ****                 if (notificationData.handleValPair.attrHandle == 0x0012) {
 253:main.c        ****                     TempReceive(&bin1,fl_temp_bytes);
 254:main.c        ****                 }
 255:main.c        ****                 else if (notificationData.handleValPair.attrHandle == 0x0016) {
 256:main.c        ****                     TempOutsideReceive(fl_temp_bytes);
 257:main.c        ****                 }
 258:main.c        ****                 byte = 0;
 259:main.c        ****             }
 260:main.c        ****                 
 261:main.c        ****         break;
 262:main.c        ****             
 263:main.c        ****         /* default catch-all case */
 264:main.c        ****         default:
 265:main.c        ****         break;    
 299              		.loc 1 265 0
 300 009a BCE0     		b	.L19
 301              	.L12:
 148:main.c        ****     {
 302              		.loc 1 148 0
 303 009c 522B     		cmp	r3, #82
 304 009e 00D1     		bne	.LCB176
 305 00a0 81E0     		b	.L16	@long jump
 306              	.LCB176:
 307 00a2 1222     		movs	r2, #18
 308 00a4 FF32     		adds	r2, r2, #255
 309 00a6 9342     		cmp	r3, r2
 310 00a8 00D1     		bne	.LCB180
 311 00aa AFE0     		b	.L29	@long jump
 312              	.LCB180:
 313 00ac 462B     		cmp	r3, #70
 314 00ae 50D0     		beq	.L18
 315              		.loc 1 265 0
 316 00b0 B1E0     		b	.L19
 317              	.L15:
 155:main.c        ****             CY_SET_XTND_REG32((void CYFAR *)(CYREG_SRSS_TST_DDFT_CTRL), 0x80000302);
 318              		.loc 1 155 0
 319 00b2 624B     		ldr	r3, .L32+28
 320 00b4 624A     		ldr	r2, .L32+32
 321 00b6 1A60     		str	r2, [r3]
 156:main.c        ****             /* CyBle_GappStartAdvertisement( CYBLE_ADVERTISING_FAST ); */
 322              		.loc 1 156 0
 323 00b8 624B     		ldr	r3, .L32+36
 324 00ba 634A     		ldr	r2, .L32+40
 325 00bc 1A60     		str	r2, [r3]
 158:main.c        ****             
 326              		.loc 1 158 0
 327 00be AAE0     		b	.L19
 328              	.L13:
 163:main.c        ****             
 329              		.loc 1 163 0
 330 00c0 5423     		movs	r3, #84
 331 00c2 FB18     		adds	r3, r7, r3
 332 00c4 3A68     		ldr	r2, [r7]
ARM GAS  C:\Users\megan\AppData\Local\Temp\ccPHoCT8.s 			page 12


 333 00c6 13CA     		ldmia	r2!, {r0, r1, r4}
 334 00c8 13C3     		stmia	r3!, {r0, r1, r4}
 335 00ca 03CA     		ldmia	r2!, {r0, r1}
 336 00cc 03C3     		stmia	r3!, {r0, r1}
 165:main.c        ****             {
 337              		.loc 1 165 0
 338 00ce 5423     		movs	r3, #84
 339 00d0 FB18     		adds	r3, r7, r3
 340 00d2 1B78     		ldrb	r3, [r3]
 341 00d4 042B     		cmp	r3, #4
 342 00d6 00D1     		bne	.LCB206
 343 00d8 9AE0     		b	.L30	@long jump
 344              	.LCB206:
 167:main.c        ****                 {
 345              		.loc 1 167 0
 346 00da EF23     		movs	r3, #239
 347 00dc FB18     		adds	r3, r7, r3
 348 00de 0022     		movs	r2, #0
 349 00e0 1A70     		strb	r2, [r3]
 350 00e2 1BE0     		b	.L21
 351              	.L22:
 169:main.c        ****                 }                    
 352              		.loc 1 169 0 discriminator 3
 353 00e4 594B     		ldr	r3, .L32+44
 354 00e6 1B78     		ldrb	r3, [r3]
 355 00e8 1800     		movs	r0, r3
 356 00ea EF23     		movs	r3, #239
 357 00ec FB18     		adds	r3, r7, r3
 358 00ee 1A78     		ldrb	r2, [r3]
 359 00f0 5423     		movs	r3, #84
 360 00f2 FB18     		adds	r3, r7, r3
 361 00f4 5968     		ldr	r1, [r3, #4]
 362 00f6 EF23     		movs	r3, #239
 363 00f8 FB18     		adds	r3, r7, r3
 364 00fa 1B78     		ldrb	r3, [r3]
 365 00fc CB18     		adds	r3, r1, r3
 366 00fe 1C78     		ldrb	r4, [r3]
 367 0100 5349     		ldr	r1, .L32+48
 368 0102 0300     		movs	r3, r0
 369 0104 DB00     		lsls	r3, r3, #3
 370 0106 1B1A     		subs	r3, r3, r0
 371 0108 CB18     		adds	r3, r1, r3
 372 010a 211C     		adds	r1, r4, #0
 373 010c 9954     		strb	r1, [r3, r2]
 167:main.c        ****                 {
 374              		.loc 1 167 0 discriminator 3
 375 010e EF23     		movs	r3, #239
 376 0110 FB18     		adds	r3, r7, r3
 377 0112 1A78     		ldrb	r2, [r3]
 378 0114 EF23     		movs	r3, #239
 379 0116 FB18     		adds	r3, r7, r3
 380 0118 0132     		adds	r2, r2, #1
 381 011a 1A70     		strb	r2, [r3]
 382              	.L21:
 167:main.c        ****                 {
 383              		.loc 1 167 0 is_stmt 0 discriminator 1
 384 011c EF23     		movs	r3, #239
ARM GAS  C:\Users\megan\AppData\Local\Temp\ccPHoCT8.s 			page 13


 385 011e FB18     		adds	r3, r7, r3
 386 0120 1B78     		ldrb	r3, [r3]
 387 0122 052B     		cmp	r3, #5
 388 0124 DED9     		bls	.L22
 174:main.c        ****             }  
 389              		.loc 1 174 0 is_stmt 1
 390 0126 494B     		ldr	r3, .L32+44
 391 0128 1B78     		ldrb	r3, [r3]
 392 012a 0133     		adds	r3, r3, #1
 393 012c DAB2     		uxtb	r2, r3
 394 012e 474B     		ldr	r3, .L32+44
 395 0130 1A70     		strb	r2, [r3]
 177:main.c        ****             
 396              		.loc 1 177 0
 397 0132 6DE0     		b	.L30
 398              	.L14:
 189:main.c        ****         break;
 399              		.loc 1 189 0
 400 0134 474B     		ldr	r3, .L32+52
 401 0136 1A78     		ldrb	r2, [r3]
 402 0138 5B78     		ldrb	r3, [r3, #1]
 403 013a 1B02     		lsls	r3, r3, #8
 404 013c 1A43     		orrs	r2, r3
 405 013e 0023     		movs	r3, #0
 406 0140 1204     		lsls	r2, r2, #16
 407 0142 120C     		lsrs	r2, r2, #16
 408 0144 1B0C     		lsrs	r3, r3, #16
 409 0146 1B04     		lsls	r3, r3, #16
 410 0148 1343     		orrs	r3, r2
 411 014a 1800     		movs	r0, r3
 412 014c FFF7FEFF 		bl	CyBle_GattcStartDiscovery
 190:main.c        ****             
 413              		.loc 1 190 0
 414 0150 61E0     		b	.L19
 415              	.L18:
 217:main.c        ****             
 416              		.loc 1 217 0
 417 0152 3023     		movs	r3, #48
 418 0154 FB18     		adds	r3, r7, r3
 419 0156 3A68     		ldr	r2, [r7]
 420 0158 13CA     		ldmia	r2!, {r0, r1, r4}
 421 015a 13C3     		stmia	r3!, {r0, r1, r4}
 222:main.c        ****             {
 422              		.loc 1 222 0
 423 015c EF23     		movs	r3, #239
 424 015e FB18     		adds	r3, r7, r3
 425 0160 0222     		movs	r2, #2
 426 0162 1A70     		strb	r2, [r3]
 427 0164 15E0     		b	.L23
 428              	.L24:
 227:main.c        ****             }
 429              		.loc 1 227 0 discriminator 3
 430 0166 EF23     		movs	r3, #239
 431 0168 FB18     		adds	r3, r7, r3
 432 016a 1B78     		ldrb	r3, [r3]
 433 016c 9A1E     		subs	r2, r3, #2
 434 016e 3023     		movs	r3, #48
ARM GAS  C:\Users\megan\AppData\Local\Temp\ccPHoCT8.s 			page 14


 435 0170 FB18     		adds	r3, r7, r3
 436 0172 5968     		ldr	r1, [r3, #4]
 437 0174 EF23     		movs	r3, #239
 438 0176 FB18     		adds	r3, r7, r3
 439 0178 1B78     		ldrb	r3, [r3]
 440 017a CB18     		adds	r3, r1, r3
 441 017c 1978     		ldrb	r1, [r3]
 442 017e 0823     		movs	r3, #8
 443 0180 FB18     		adds	r3, r7, r3
 444 0182 9954     		strb	r1, [r3, r2]
 222:main.c        ****             {
 445              		.loc 1 222 0 discriminator 3
 446 0184 EF23     		movs	r3, #239
 447 0186 FB18     		adds	r3, r7, r3
 448 0188 1A78     		ldrb	r2, [r3]
 449 018a EF23     		movs	r3, #239
 450 018c FB18     		adds	r3, r7, r3
 451 018e 0132     		adds	r2, r2, #1
 452 0190 1A70     		strb	r2, [r3]
 453              	.L23:
 222:main.c        ****             {
 454              		.loc 1 222 0 is_stmt 0 discriminator 1
 455 0192 EF23     		movs	r3, #239
 456 0194 FB18     		adds	r3, r7, r3
 457 0196 1B78     		ldrb	r3, [r3]
 458 0198 9AB2     		uxth	r2, r3
 459 019a 3023     		movs	r3, #48
 460 019c FB18     		adds	r3, r7, r3
 461 019e 1B89     		ldrh	r3, [r3, #8]
 462 01a0 9A42     		cmp	r2, r3
 463 01a2 E0D3     		bcc	.L24
 237:main.c        ****                 
 464              		.loc 1 237 0 is_stmt 1
 465 01a4 37E0     		b	.L19
 466              	.L16:
 243:main.c        ****             
 467              		.loc 1 243 0
 468 01a6 2023     		movs	r3, #32
 469 01a8 FB18     		adds	r3, r7, r3
 470 01aa 3A68     		ldr	r2, [r7]
 471 01ac 13CA     		ldmia	r2!, {r0, r1, r4}
 472 01ae 13C3     		stmia	r3!, {r0, r1, r4}
 473 01b0 1268     		ldr	r2, [r2]
 474 01b2 1A60     		str	r2, [r3]
 245:main.c        **** 
 475              		.loc 1 245 0
 476 01b4 284B     		ldr	r3, .L32+56
 477 01b6 1B78     		ldrb	r3, [r3]
 478 01b8 5A1C     		adds	r2, r3, #1
 479 01ba D1B2     		uxtb	r1, r2
 480 01bc 264A     		ldr	r2, .L32+56
 481 01be 1170     		strb	r1, [r2]
 482 01c0 1A00     		movs	r2, r3
 483 01c2 2023     		movs	r3, #32
 484 01c4 FB18     		adds	r3, r7, r3
 485 01c6 5B68     		ldr	r3, [r3, #4]
 486 01c8 1978     		ldrb	r1, [r3]
ARM GAS  C:\Users\megan\AppData\Local\Temp\ccPHoCT8.s 			page 15


 487 01ca 244B     		ldr	r3, .L32+60
 488 01cc 9954     		strb	r1, [r3, r2]
 248:main.c        ****                 //PrintFloat( *(float32*)(fl_temp_bytes) );
 489              		.loc 1 248 0
 490 01ce 224B     		ldr	r3, .L32+56
 491 01d0 1B78     		ldrb	r3, [r3]
 492 01d2 042B     		cmp	r3, #4
 493 01d4 1ED1     		bne	.L31
 252:main.c        ****                     TempReceive(&bin1,fl_temp_bytes);
 494              		.loc 1 252 0
 495 01d6 2023     		movs	r3, #32
 496 01d8 FB18     		adds	r3, r7, r3
 497 01da 9B89     		ldrh	r3, [r3, #12]
 498 01dc 122B     		cmp	r3, #18
 499 01de 06D1     		bne	.L26
 253:main.c        ****                 }
 500              		.loc 1 253 0
 501 01e0 1E4A     		ldr	r2, .L32+60
 502 01e2 1F4B     		ldr	r3, .L32+64
 503 01e4 1100     		movs	r1, r2
 504 01e6 1800     		movs	r0, r3
 505 01e8 FFF7FEFF 		bl	TempReceive
 506 01ec 08E0     		b	.L27
 507              	.L26:
 255:main.c        ****                     TempOutsideReceive(fl_temp_bytes);
 508              		.loc 1 255 0
 509 01ee 2023     		movs	r3, #32
 510 01f0 FB18     		adds	r3, r7, r3
 511 01f2 9B89     		ldrh	r3, [r3, #12]
 512 01f4 162B     		cmp	r3, #22
 513 01f6 03D1     		bne	.L27
 256:main.c        ****                 }
 514              		.loc 1 256 0
 515 01f8 184B     		ldr	r3, .L32+60
 516 01fa 1800     		movs	r0, r3
 517 01fc FFF7FEFF 		bl	TempOutsideReceive
 518              	.L27:
 258:main.c        ****             }
 519              		.loc 1 258 0
 520 0200 154B     		ldr	r3, .L32+56
 521 0202 0022     		movs	r2, #0
 522 0204 1A70     		strb	r2, [r3]
 261:main.c        ****             
 523              		.loc 1 261 0
 524 0206 05E0     		b	.L31
 525              	.L28:
 185:main.c        ****             
 526              		.loc 1 185 0
 527 0208 C046     		nop
 528 020a 04E0     		b	.L19
 529              	.L29:
 213:main.c        ****         
 530              		.loc 1 213 0
 531 020c C046     		nop
 532 020e 02E0     		b	.L19
 533              	.L30:
 177:main.c        ****             
ARM GAS  C:\Users\megan\AppData\Local\Temp\ccPHoCT8.s 			page 16


 534              		.loc 1 177 0
 535 0210 C046     		nop
 536 0212 00E0     		b	.L19
 537              	.L31:
 261:main.c        ****             
 538              		.loc 1 261 0
 539 0214 C046     		nop
 540              	.L19:
 266:main.c        ****     }
 267:main.c        **** }    
 541              		.loc 1 267 0 discriminator 1
 542 0216 C046     		nop
 543 0218 BD46     		mov	sp, r7
 544 021a 3DB0     		add	sp, sp, #244
 545              		@ sp needed
 546 021c 90BD     		pop	{r4, r7, pc}
 547              	.L33:
 548 021e C046     		.align	2
 549              	.L32:
 550 0220 00000000 		.word	.LC7
 551 0224 10000000 		.word	.LC9
 552 0228 24000000 		.word	.LC11
 553 022c 38000000 		.word	.LC13
 554 0230 4C000000 		.word	.LC15
 555 0234 5C000000 		.word	.LC17
 556 0238 6C000000 		.word	.LC19
 557 023c 60F02E40 		.word	1076818016
 558 0240 31030000 		.word	817
 559 0244 08000340 		.word	1073938440
 560 0248 02030080 		.word	-2147482878
 561 024c 00000000 		.word	DevicesNearBy
 562 0250 00000000 		.word	peerAddr
 563 0254 00000000 		.word	cyBle_connHandle
 564 0258 00000000 		.word	byte
 565 025c 00000000 		.word	fl_temp_bytes
 566 0260 00000000 		.word	bin1
 567              		.cfi_endproc
 568              	.LFE37:
 569              		.size	StackEventHandler, .-StackEventHandler
 570              		.section	.text.LCDInit,"ax",%progbits
 571              		.align	2
 572              		.global	LCDInit
 573              		.code	16
 574              		.thumb_func
 575              		.type	LCDInit, %function
 576              	LCDInit:
 577              	.LFB38:
 268:main.c        **** 
 269:main.c        **** void LCDInit() {
 578              		.loc 1 269 0
 579              		.cfi_startproc
 580              		@ args = 0, pretend = 0, frame = 0
 581              		@ frame_needed = 1, uses_anonymous_args = 0
 582 0000 80B5     		push	{r7, lr}
 583              		.cfi_def_cfa_offset 8
 584              		.cfi_offset 7, -8
 585              		.cfi_offset 14, -4
ARM GAS  C:\Users\megan\AppData\Local\Temp\ccPHoCT8.s 			page 17


 586 0002 00AF     		add	r7, sp, #0
 587              		.cfi_def_cfa_register 7
 270:main.c        ****     
 271:main.c        ****     LCDSPI_Start();
 588              		.loc 1 271 0
 589 0004 FFF7FEFF 		bl	LCDSPI_Start
 272:main.c        ****     
 273:main.c        ****     //------ LCD Setup ------//  
 274:main.c        ****     
 275:main.c        ****     rst0_m_Write(1u);
 590              		.loc 1 275 0
 591 0008 0120     		movs	r0, #1
 592 000a FFF7FEFF 		bl	rst0_m_Write
 276:main.c        ****     
 277:main.c        ****     begin(RA8875_800x480);
 593              		.loc 1 277 0
 594 000e 0120     		movs	r0, #1
 595 0010 FFF7FEFF 		bl	begin
 278:main.c        ****     displayOn(true);
 596              		.loc 1 278 0
 597 0014 0120     		movs	r0, #1
 598 0016 FFF7FEFF 		bl	displayOn
 279:main.c        ****     GPIOX(true);      // Enable TFT - display enable tied to GPIOX
 599              		.loc 1 279 0
 600 001a 0120     		movs	r0, #1
 601 001c FFF7FEFF 		bl	GPIOX
 280:main.c        ****     
 281:main.c        ****     PWM1config(true, RA8875_PWM_CLK_DIV1024); // PWM output for backlight  
 602              		.loc 1 281 0
 603 0020 0A21     		movs	r1, #10
 604 0022 0120     		movs	r0, #1
 605 0024 FFF7FEFF 		bl	PWM1config
 282:main.c        ****     PWM1out(255);
 606              		.loc 1 282 0
 607 0028 FF20     		movs	r0, #255
 608 002a FFF7FEFF 		bl	PWM1out
 283:main.c        ****     
 284:main.c        ****     LCD_int_Write(1u); 
 609              		.loc 1 284 0
 610 002e 0120     		movs	r0, #1
 611 0030 FFF7FEFF 		bl	LCD_int_Write
 285:main.c        ****     
 286:main.c        ****     touchEnable(true);
 612              		.loc 1 286 0
 613 0034 0120     		movs	r0, #1
 614 0036 FFF7FEFF 		bl	touchEnable
 287:main.c        **** }
 615              		.loc 1 287 0
 616 003a C046     		nop
 617 003c BD46     		mov	sp, r7
 618              		@ sp needed
 619 003e 80BD     		pop	{r7, pc}
 620              		.cfi_endproc
 621              	.LFE38:
 622              		.size	LCDInit, .-LCDInit
 623              		.section	.rodata
 624 0082 0000     		.align	2
ARM GAS  C:\Users\megan\AppData\Local\Temp\ccPHoCT8.s 			page 18


 625              	.LC27:
 626 0084 4D656761 		.ascii	"Megan Bird\000"
 626      6E204269 
 626      726400
 627 008f 00       		.align	2
 628              	.LC29:
 629 0090 4543454E 		.ascii	"ECEN 4350\000"
 629      20343335 
 629      3000
 630 009a 0000     		.align	2
 631              	.LC31:
 632 009c 46616C6C 		.ascii	"Fall 2017\000"
 632      20323031 
 632      3700
 633 00a6 0000     		.align	2
 634              	.LC33:
 635 00a8 424C455F 		.ascii	"BLE_Central\000"
 635      43656E74 
 635      72616C00 
 636              		.section	.text.LCDInitDemo,"ax",%progbits
 637              		.align	2
 638              		.global	LCDInitDemo
 639              		.code	16
 640              		.thumb_func
 641              		.type	LCDInitDemo, %function
 642              	LCDInitDemo:
 643              	.LFB39:
 288:main.c        **** 
 289:main.c        **** void LCDInitDemo() {
 644              		.loc 1 289 0
 645              		.cfi_startproc
 646              		@ args = 0, pretend = 0, frame = 56
 647              		@ frame_needed = 1, uses_anonymous_args = 0
 648 0000 90B5     		push	{r4, r7, lr}
 649              		.cfi_def_cfa_offset 12
 650              		.cfi_offset 4, -12
 651              		.cfi_offset 7, -8
 652              		.cfi_offset 14, -4
 653 0002 8FB0     		sub	sp, sp, #60
 654              		.cfi_def_cfa_offset 72
 655 0004 00AF     		add	r7, sp, #0
 656              		.cfi_def_cfa_register 7
 290:main.c        ****     
 291:main.c        ****     //------ Declarations ------/
 292:main.c        ****     // LCD Strings
 293:main.c        ****     char welcome1[] = "Megan Bird";
 657              		.loc 1 293 0
 658 0006 2823     		movs	r3, #40
 659 0008 FB18     		adds	r3, r7, r3
 660 000a 354A     		ldr	r2, .L36
 661 000c 03CA     		ldmia	r2!, {r0, r1}
 662 000e 03C3     		stmia	r3!, {r0, r1}
 663 0010 1188     		ldrh	r1, [r2]
 664 0012 1980     		strh	r1, [r3]
 665 0014 9278     		ldrb	r2, [r2, #2]
 666 0016 9A70     		strb	r2, [r3, #2]
 294:main.c        ****     char welcome2[] = "ECEN 4350";
ARM GAS  C:\Users\megan\AppData\Local\Temp\ccPHoCT8.s 			page 19


 667              		.loc 1 294 0
 668 0018 1C23     		movs	r3, #28
 669 001a FB18     		adds	r3, r7, r3
 670 001c 314A     		ldr	r2, .L36+4
 671 001e 03CA     		ldmia	r2!, {r0, r1}
 672 0020 03C3     		stmia	r3!, {r0, r1}
 673 0022 1288     		ldrh	r2, [r2]
 674 0024 1A80     		strh	r2, [r3]
 295:main.c        ****     char welcome3[] = "Fall 2017";
 675              		.loc 1 295 0
 676 0026 1023     		movs	r3, #16
 677 0028 FB18     		adds	r3, r7, r3
 678 002a 2F4A     		ldr	r2, .L36+8
 679 002c 03CA     		ldmia	r2!, {r0, r1}
 680 002e 03C3     		stmia	r3!, {r0, r1}
 681 0030 1288     		ldrh	r2, [r2]
 682 0032 1A80     		strh	r2, [r3]
 296:main.c        ****     char ble[] = "BLE_Central";
 683              		.loc 1 296 0
 684 0034 3B1D     		adds	r3, r7, #4
 685 0036 2D4A     		ldr	r2, .L36+12
 686 0038 13CA     		ldmia	r2!, {r0, r1, r4}
 687 003a 13C3     		stmia	r3!, {r0, r1, r4}
 297:main.c        ****     
 298:main.c        ****     uint16 myDelay = 200;
 688              		.loc 1 298 0
 689 003c 3623     		movs	r3, #54
 690 003e FB18     		adds	r3, r7, r3
 691 0040 C822     		movs	r2, #200
 692 0042 1A80     		strh	r2, [r3]
 299:main.c        ****     
 300:main.c        ****     //----- Color Demo -----//
 301:main.c        ****     
 302:main.c        ****     fillScreen(RA8875_WHITE);    
 693              		.loc 1 302 0
 694 0044 2A4B     		ldr	r3, .L36+16
 695 0046 1800     		movs	r0, r3
 696 0048 FFF7FEFF 		bl	fillScreen
 303:main.c        ****     CyDelay(myDelay);
 697              		.loc 1 303 0
 698 004c 3623     		movs	r3, #54
 699 004e FB18     		adds	r3, r7, r3
 700 0050 1B88     		ldrh	r3, [r3]
 701 0052 1800     		movs	r0, r3
 702 0054 FFF7FEFF 		bl	CyDelay
 304:main.c        ****     fillScreen(RA8875_RED);
 703              		.loc 1 304 0
 704 0058 F823     		movs	r3, #248
 705 005a 1B02     		lsls	r3, r3, #8
 706 005c 1800     		movs	r0, r3
 707 005e FFF7FEFF 		bl	fillScreen
 305:main.c        ****     CyDelay(myDelay);
 708              		.loc 1 305 0
 709 0062 3623     		movs	r3, #54
 710 0064 FB18     		adds	r3, r7, r3
 711 0066 1B88     		ldrh	r3, [r3]
 712 0068 1800     		movs	r0, r3
ARM GAS  C:\Users\megan\AppData\Local\Temp\ccPHoCT8.s 			page 20


 713 006a FFF7FEFF 		bl	CyDelay
 306:main.c        ****     fillScreen(RA8875_YELLOW);
 714              		.loc 1 306 0
 715 006e 214B     		ldr	r3, .L36+20
 716 0070 1800     		movs	r0, r3
 717 0072 FFF7FEFF 		bl	fillScreen
 307:main.c        ****     CyDelay(myDelay);
 718              		.loc 1 307 0
 719 0076 3623     		movs	r3, #54
 720 0078 FB18     		adds	r3, r7, r3
 721 007a 1B88     		ldrh	r3, [r3]
 722 007c 1800     		movs	r0, r3
 723 007e FFF7FEFF 		bl	CyDelay
 308:main.c        ****     fillScreen(RA8875_GREEN);
 724              		.loc 1 308 0
 725 0082 FC23     		movs	r3, #252
 726 0084 DB00     		lsls	r3, r3, #3
 727 0086 1800     		movs	r0, r3
 728 0088 FFF7FEFF 		bl	fillScreen
 309:main.c        ****     CyDelay(myDelay);
 729              		.loc 1 309 0
 730 008c 3623     		movs	r3, #54
 731 008e FB18     		adds	r3, r7, r3
 732 0090 1B88     		ldrh	r3, [r3]
 733 0092 1800     		movs	r0, r3
 734 0094 FFF7FEFF 		bl	CyDelay
 310:main.c        ****     fillScreen(RA8875_BLUE);
 735              		.loc 1 310 0
 736 0098 1F20     		movs	r0, #31
 737 009a FFF7FEFF 		bl	fillScreen
 311:main.c        ****     CyDelay(myDelay);
 738              		.loc 1 311 0
 739 009e 3623     		movs	r3, #54
 740 00a0 FB18     		adds	r3, r7, r3
 741 00a2 1B88     		ldrh	r3, [r3]
 742 00a4 1800     		movs	r0, r3
 743 00a6 FFF7FEFF 		bl	CyDelay
 312:main.c        ****     fillScreen(RA8875_CYAN);
 744              		.loc 1 312 0
 745 00aa 134B     		ldr	r3, .L36+24
 746 00ac 1800     		movs	r0, r3
 747 00ae FFF7FEFF 		bl	fillScreen
 313:main.c        ****     CyDelay(myDelay);
 748              		.loc 1 313 0
 749 00b2 3623     		movs	r3, #54
 750 00b4 FB18     		adds	r3, r7, r3
 751 00b6 1B88     		ldrh	r3, [r3]
 752 00b8 1800     		movs	r0, r3
 753 00ba FFF7FEFF 		bl	CyDelay
 314:main.c        ****     fillScreen(RA8875_MAGENTA);
 754              		.loc 1 314 0
 755 00be 0F4B     		ldr	r3, .L36+28
 756 00c0 1800     		movs	r0, r3
 757 00c2 FFF7FEFF 		bl	fillScreen
 315:main.c        ****     CyDelay(myDelay);
 758              		.loc 1 315 0
 759 00c6 3623     		movs	r3, #54
ARM GAS  C:\Users\megan\AppData\Local\Temp\ccPHoCT8.s 			page 21


 760 00c8 FB18     		adds	r3, r7, r3
 761 00ca 1B88     		ldrh	r3, [r3]
 762 00cc 1800     		movs	r0, r3
 763 00ce FFF7FEFF 		bl	CyDelay
 316:main.c        ****     fillScreen(RA8875_BLACK);
 764              		.loc 1 316 0
 765 00d2 0020     		movs	r0, #0
 766 00d4 FFF7FEFF 		bl	fillScreen
 317:main.c        ****     
 318:main.c        ****     //CyDelay(300);
 319:main.c        ****     
 320:main.c        ****     //----- Drawing Demo -----//
 321:main.c        ****     /*
 322:main.c        ****     drawCircle(100, 100, 50, RA8875_BLACK);
 323:main.c        ****     fillCircle(100, 100, 49, RA8875_GREEN);
 324:main.c        ****     fillRect(11, 11, 398, 198, RA8875_BLUE);
 325:main.c        ****     drawRect(10, 10, 400, 200, RA8875_GREEN);
 326:main.c        ****     drawPixel(10,10,RA8875_BLACK);
 327:main.c        ****     drawPixel(11,11,RA8875_BLACK);
 328:main.c        ****     drawLine(10, 10, 200, 100, RA8875_RED);
 329:main.c        ****     drawTriangle(200, 15, 250, 100, 150, 125, RA8875_BLACK);
 330:main.c        ****     fillTriangle(200, 16, 249, 99, 151, 124, RA8875_YELLOW);
 331:main.c        ****     drawEllipse(300, 100, 100, 40, RA8875_BLACK);
 332:main.c        ****     fillEllipse(300, 100, 98, 38, RA8875_GREEN);
 333:main.c        ****     drawCurve(50, 100, 80, 40, 2, RA8875_BLACK);  
 334:main.c        ****     fillCurve(50, 100, 78, 38, 2, RA8875_WHITE);
 335:main.c        ****     */
 336:main.c        ****         
 337:main.c        ****     //--- Welcome Screen ---//
 338:main.c        ****     /*
 339:main.c        ****     CyDelay(300);
 340:main.c        ****     PWM1out(0);
 341:main.c        ****     fillScreen(RA8875_WHITE);
 342:main.c        ****     
 343:main.c        ****     for (int i = 0; i < 256; i++) {
 344:main.c        ****         PWM1out(i);
 345:main.c        ****         CyDelay(1);
 346:main.c        ****     }
 347:main.c        **** 
 348:main.c        ****     textMode();
 349:main.c        ****     fillRect(75,85,370,100,RA8875_RED);
 350:main.c        ****     textSetCursor(100, 100);
 351:main.c        ****     textEnlarge(1);
 352:main.c        ****     textTransparent(RA8875_WHITE);
 353:main.c        ****     textWrite(welcome1,strlen(welcome1)); 
 354:main.c        ****     
 355:main.c        ****     textEnlarge(0);
 356:main.c        ****     textSetCursor(100, 200);
 357:main.c        ****     textTransparent(RA8875_BLACK);
 358:main.c        ****     textWrite(welcome2,strlen(welcome2)); 
 359:main.c        ****     textSetCursor(100, 250);
 360:main.c        ****     textWrite(welcome3,strlen(welcome3)); 
 361:main.c        ****     
 362:main.c        ****     textSetCursor(100, 350);
 363:main.c        ****     textTransparent(RA8875_BLUE);
 364:main.c        ****     textWrite(ble,strlen(ble));
 365:main.c        ****     
ARM GAS  C:\Users\megan\AppData\Local\Temp\ccPHoCT8.s 			page 22


 366:main.c        ****     CyDelay(10000);
 367:main.c        ****     */
 368:main.c        **** }
 767              		.loc 1 368 0
 768 00d8 C046     		nop
 769 00da BD46     		mov	sp, r7
 770 00dc 0FB0     		add	sp, sp, #60
 771              		@ sp needed
 772 00de 90BD     		pop	{r4, r7, pc}
 773              	.L37:
 774              		.align	2
 775              	.L36:
 776 00e0 84000000 		.word	.LC27
 777 00e4 90000000 		.word	.LC29
 778 00e8 9C000000 		.word	.LC31
 779 00ec A8000000 		.word	.LC33
 780 00f0 FFFF0000 		.word	65535
 781 00f4 E0FF0000 		.word	65504
 782 00f8 FF070000 		.word	2047
 783 00fc 1FF80000 		.word	63519
 784              		.cfi_endproc
 785              	.LFE39:
 786              		.size	LCDInitDemo, .-LCDInitDemo
 787              		.global	__aeabi_i2f
 788              		.global	__aeabi_fdiv
 789              		.global	__aeabi_f2uiz
 790              		.section	.text.LCDTouchscreenDemo,"ax",%progbits
 791              		.align	2
 792              		.global	LCDTouchscreenDemo
 793              		.code	16
 794              		.thumb_func
 795              		.type	LCDTouchscreenDemo, %function
 796              	LCDTouchscreenDemo:
 797              	.LFB40:
 369:main.c        **** 
 370:main.c        **** void LCDTouchscreenDemo() {
 798              		.loc 1 370 0
 799              		.cfi_startproc
 800              		@ args = 0, pretend = 0, frame = 16
 801              		@ frame_needed = 1, uses_anonymous_args = 0
 802 0000 90B5     		push	{r4, r7, lr}
 803              		.cfi_def_cfa_offset 12
 804              		.cfi_offset 4, -12
 805              		.cfi_offset 7, -8
 806              		.cfi_offset 14, -4
 807 0002 85B0     		sub	sp, sp, #20
 808              		.cfi_def_cfa_offset 32
 809 0004 00AF     		add	r7, sp, #0
 810              		.cfi_def_cfa_register 7
 371:main.c        ****     //------ Declarations ------//
 372:main.c        ****     uint16_t tx;
 373:main.c        ****     uint16_t ty;
 374:main.c        ****     bool waiting = true;
 811              		.loc 1 374 0
 812 0006 0F23     		movs	r3, #15
 813 0008 FB18     		adds	r3, r7, r3
 814 000a 0122     		movs	r2, #1
ARM GAS  C:\Users\megan\AppData\Local\Temp\ccPHoCT8.s 			page 23


 815 000c 1A70     		strb	r2, [r3]
 375:main.c        ****     
 376:main.c        ****     float xScale;
 377:main.c        ****     float yScale;
 378:main.c        ****     
 379:main.c        ****     touchEnable(true);
 816              		.loc 1 379 0
 817 000e 0120     		movs	r0, #1
 818 0010 FFF7FEFF 		bl	touchEnable
 380:main.c        ****     
 381:main.c        ****     xScale = 1024.0F/width();
 819              		.loc 1 381 0
 820 0014 FFF7FEFF 		bl	width
 821 0018 0300     		movs	r3, r0
 822 001a 1800     		movs	r0, r3
 823 001c FFF7FEFF 		bl	__aeabi_i2f
 824 0020 031C     		adds	r3, r0, #0
 825 0022 191C     		adds	r1, r3, #0
 826 0024 8920     		movs	r0, #137
 827 0026 C005     		lsls	r0, r0, #23
 828 0028 FFF7FEFF 		bl	__aeabi_fdiv
 829 002c 031C     		adds	r3, r0, #0
 830 002e BB60     		str	r3, [r7, #8]
 382:main.c        ****     yScale = 1024.0F/height();
 831              		.loc 1 382 0
 832 0030 FFF7FEFF 		bl	height
 833 0034 0300     		movs	r3, r0
 834 0036 1800     		movs	r0, r3
 835 0038 FFF7FEFF 		bl	__aeabi_i2f
 836 003c 031C     		adds	r3, r0, #0
 837 003e 191C     		adds	r1, r3, #0
 838 0040 8920     		movs	r0, #137
 839 0042 C005     		lsls	r0, r0, #23
 840 0044 FFF7FEFF 		bl	__aeabi_fdiv
 841 0048 031C     		adds	r3, r0, #0
 842 004a 7B60     		str	r3, [r7, #4]
 383:main.c        ****     
 384:main.c        ****     touchRead(&tx, &ty);
 843              		.loc 1 384 0
 844 004c 3A00     		movs	r2, r7
 845 004e BB1C     		adds	r3, r7, #2
 846 0050 1100     		movs	r1, r2
 847 0052 1800     		movs	r0, r3
 848 0054 FFF7FEFF 		bl	touchRead
 385:main.c        ****     //textMode();
 386:main.c        ****     //graphicsMode();
 387:main.c        ****     
 388:main.c        ****     //------ Wait for touch ------//
 389:main.c        ****     //CyDelay(10);
 390:main.c        ****     while ( waiting )  {
 849              		.loc 1 390 0
 850 0058 34E0     		b	.L39
 851              	.L40:
 391:main.c        ****         if (!LCD_int_Read()) {
 852              		.loc 1 391 0
 853 005a FFF7FEFF 		bl	LCD_int_Read
 854 005e 031E     		subs	r3, r0, #0
ARM GAS  C:\Users\megan\AppData\Local\Temp\ccPHoCT8.s 			page 24


 855 0060 30D1     		bne	.L39
 392:main.c        ****             //LED_BLUE_Write(0);
 393:main.c        ****             if ( touched() ) {
 856              		.loc 1 393 0
 857 0062 FFF7FEFF 		bl	touched
 858 0066 031E     		subs	r3, r0, #0
 859 0068 2CD0     		beq	.L39
 394:main.c        ****                 //LED_GREEN_Write(0u);
 395:main.c        ****                 touchRead(&tx, &ty);                
 860              		.loc 1 395 0
 861 006a 3A00     		movs	r2, r7
 862 006c BB1C     		adds	r3, r7, #2
 863 006e 1100     		movs	r1, r2
 864 0070 1800     		movs	r0, r3
 865 0072 FFF7FEFF 		bl	touchRead
 396:main.c        ****                 fillCircle((uint16_t)(tx/xScale), (uint16_t)(ty/yScale), 4, RA8875_WHITE);
 866              		.loc 1 396 0
 867 0076 BB1C     		adds	r3, r7, #2
 868 0078 1B88     		ldrh	r3, [r3]
 869 007a 1800     		movs	r0, r3
 870 007c FFF7FEFF 		bl	__aeabi_i2f
 871 0080 031C     		adds	r3, r0, #0
 872 0082 B968     		ldr	r1, [r7, #8]
 873 0084 181C     		adds	r0, r3, #0
 874 0086 FFF7FEFF 		bl	__aeabi_fdiv
 875 008a 031C     		adds	r3, r0, #0
 876 008c 181C     		adds	r0, r3, #0
 877 008e FFF7FEFF 		bl	__aeabi_f2uiz
 878 0092 0300     		movs	r3, r0
 879 0094 9BB2     		uxth	r3, r3
 880 0096 1CB2     		sxth	r4, r3
 881 0098 3B00     		movs	r3, r7
 882 009a 1B88     		ldrh	r3, [r3]
 883 009c 1800     		movs	r0, r3
 884 009e FFF7FEFF 		bl	__aeabi_i2f
 885 00a2 031C     		adds	r3, r0, #0
 886 00a4 7968     		ldr	r1, [r7, #4]
 887 00a6 181C     		adds	r0, r3, #0
 888 00a8 FFF7FEFF 		bl	__aeabi_fdiv
 889 00ac 031C     		adds	r3, r0, #0
 890 00ae 181C     		adds	r0, r3, #0
 891 00b0 FFF7FEFF 		bl	__aeabi_f2uiz
 892 00b4 0300     		movs	r3, r0
 893 00b6 9BB2     		uxth	r3, r3
 894 00b8 19B2     		sxth	r1, r3
 895 00ba 074B     		ldr	r3, .L41
 896 00bc 0422     		movs	r2, #4
 897 00be 2000     		movs	r0, r4
 898 00c0 FFF7FEFF 		bl	fillCircle
 899              	.L39:
 390:main.c        ****         if (!LCD_int_Read()) {
 900              		.loc 1 390 0
 901 00c4 0F23     		movs	r3, #15
 902 00c6 FB18     		adds	r3, r7, r3
 903 00c8 1B78     		ldrb	r3, [r3]
 904 00ca 002B     		cmp	r3, #0
 905 00cc C5D1     		bne	.L40
ARM GAS  C:\Users\megan\AppData\Local\Temp\ccPHoCT8.s 			page 25


 397:main.c        ****             }
 398:main.c        **** //            else {
 399:main.c        **** //                /* Clear TP INT Status */
 400:main.c        **** //                //writeReg(RA8875_INTC2, RA8875_INTC2_TP);
 401:main.c        **** //                touchRead(&tx, &ty);
 402:main.c        **** //                CyDelay(1);
 403:main.c        **** //                //tx = 0x0000;
 404:main.c        **** //                //ty = 0x0000;
 405:main.c        **** //            }
 406:main.c        ****         }
 407:main.c        **** //        else {
 408:main.c        **** //            touchRead(&tx, &ty);
 409:main.c        **** //            CyDelay(1);
 410:main.c        **** //            //tx = 0x0000;
 411:main.c        **** //            //ty = 0x0000;
 412:main.c        **** //        }
 413:main.c        ****     }
 414:main.c        **** }
 906              		.loc 1 414 0
 907 00ce C046     		nop
 908 00d0 BD46     		mov	sp, r7
 909 00d2 05B0     		add	sp, sp, #20
 910              		@ sp needed
 911 00d4 90BD     		pop	{r4, r7, pc}
 912              	.L42:
 913 00d6 C046     		.align	2
 914              	.L41:
 915 00d8 FFFF0000 		.word	65535
 916              		.cfi_endproc
 917              	.LFE40:
 918              		.size	LCDTouchscreenDemo, .-LCDTouchscreenDemo
 919              		.section	.text.LCDCheckTouch,"ax",%progbits
 920              		.align	2
 921              		.global	LCDCheckTouch
 922              		.code	16
 923              		.thumb_func
 924              		.type	LCDCheckTouch, %function
 925              	LCDCheckTouch:
 926              	.LFB41:
 415:main.c        **** 
 416:main.c        **** void LCDCheckTouch() {
 927              		.loc 1 416 0
 928              		.cfi_startproc
 929              		@ args = 0, pretend = 0, frame = 16
 930              		@ frame_needed = 1, uses_anonymous_args = 0
 931 0000 80B5     		push	{r7, lr}
 932              		.cfi_def_cfa_offset 8
 933              		.cfi_offset 7, -8
 934              		.cfi_offset 14, -4
 935 0002 84B0     		sub	sp, sp, #16
 936              		.cfi_def_cfa_offset 24
 937 0004 00AF     		add	r7, sp, #0
 938              		.cfi_def_cfa_register 7
 417:main.c        ****     
 418:main.c        ****     uint16_t tx;
 419:main.c        ****     uint16_t ty;
 420:main.c        ****     float xScale = 1024.0F/width();
ARM GAS  C:\Users\megan\AppData\Local\Temp\ccPHoCT8.s 			page 26


 939              		.loc 1 420 0
 940 0006 FFF7FEFF 		bl	width
 941 000a 0300     		movs	r3, r0
 942 000c 1800     		movs	r0, r3
 943 000e FFF7FEFF 		bl	__aeabi_i2f
 944 0012 031C     		adds	r3, r0, #0
 945 0014 191C     		adds	r1, r3, #0
 946 0016 8920     		movs	r0, #137
 947 0018 C005     		lsls	r0, r0, #23
 948 001a FFF7FEFF 		bl	__aeabi_fdiv
 949 001e 031C     		adds	r3, r0, #0
 950 0020 FB60     		str	r3, [r7, #12]
 421:main.c        ****     float yScale = 1024.0F/height();
 951              		.loc 1 421 0
 952 0022 FFF7FEFF 		bl	height
 953 0026 0300     		movs	r3, r0
 954 0028 1800     		movs	r0, r3
 955 002a FFF7FEFF 		bl	__aeabi_i2f
 956 002e 031C     		adds	r3, r0, #0
 957 0030 191C     		adds	r1, r3, #0
 958 0032 8920     		movs	r0, #137
 959 0034 C005     		lsls	r0, r0, #23
 960 0036 FFF7FEFF 		bl	__aeabi_fdiv
 961 003a 031C     		adds	r3, r0, #0
 962 003c BB60     		str	r3, [r7, #8]
 422:main.c        ****     
 423:main.c        **** 
 424:main.c        ****     //touchEnable(true);
 425:main.c        ****     //touchRead(&tx, &ty);
 426:main.c        ****     if (!LCD_int_Read()) {
 963              		.loc 1 426 0
 964 003e FFF7FEFF 		bl	LCD_int_Read
 965 0042 031E     		subs	r3, r0, #0
 966 0044 1AD1     		bne	.L47
 427:main.c        ****         if (touched()) {
 967              		.loc 1 427 0
 968 0046 FFF7FEFF 		bl	touched
 969 004a 031E     		subs	r3, r0, #0
 970 004c 16D0     		beq	.L47
 428:main.c        ****             touchRead(&tx,&ty);
 971              		.loc 1 428 0
 972 004e 3A1D     		adds	r2, r7, #4
 973 0050 BB1D     		adds	r3, r7, #6
 974 0052 1100     		movs	r1, r2
 975 0054 1800     		movs	r0, r3
 976 0056 FFF7FEFF 		bl	touchRead
 429:main.c        ****             //fillCircle((uint16_t)(tx/xScale), (uint16_t)(ty/yScale), 4, RA8875_WHITE);
 430:main.c        ****             GUITouchHandler(&tx,&ty);
 977              		.loc 1 430 0
 978 005a 3A1D     		adds	r2, r7, #4
 979 005c BB1D     		adds	r3, r7, #6
 980 005e 1100     		movs	r1, r2
 981 0060 1800     		movs	r0, r3
 982 0062 FFF7FEFF 		bl	GUITouchHandler
 431:main.c        ****             while (!LCD_int_Read()) {
 983              		.loc 1 431 0
 984 0066 05E0     		b	.L45
ARM GAS  C:\Users\megan\AppData\Local\Temp\ccPHoCT8.s 			page 27


 985              	.L46:
 432:main.c        ****                 // Sensing multiple touches
 433:main.c        ****                 // Most cases this doesn't matter, except for the set temp up/down buttons
 434:main.c        ****                 touchRead(&tx,&ty); 
 986              		.loc 1 434 0
 987 0068 3A1D     		adds	r2, r7, #4
 988 006a BB1D     		adds	r3, r7, #6
 989 006c 1100     		movs	r1, r2
 990 006e 1800     		movs	r0, r3
 991 0070 FFF7FEFF 		bl	touchRead
 992              	.L45:
 431:main.c        ****             while (!LCD_int_Read()) {
 993              		.loc 1 431 0
 994 0074 FFF7FEFF 		bl	LCD_int_Read
 995 0078 031E     		subs	r3, r0, #0
 996 007a F5D0     		beq	.L46
 997              	.L47:
 435:main.c        ****             }
 436:main.c        ****         }
 437:main.c        ****     }
 438:main.c        **** }
 998              		.loc 1 438 0
 999 007c C046     		nop
 1000 007e BD46     		mov	sp, r7
 1001 0080 04B0     		add	sp, sp, #16
 1002              		@ sp needed
 1003 0082 80BD     		pop	{r7, pc}
 1004              		.cfi_endproc
 1005              	.LFE41:
 1006              		.size	LCDCheckTouch, .-LCDCheckTouch
 1007              		.section	.rodata
 1008              		.align	2
 1009              	.LC35:
 1010 00b4 53656564 		.ascii	"Seed Bin Climate\000"
 1010      2042696E 
 1010      20436C69 
 1010      6D617465 
 1010      00
 1011 00c5 000000   		.align	2
 1012              	.LC37:
 1013 00c8 436F6E74 		.ascii	"Control System\000"
 1013      726F6C20 
 1013      53797374 
 1013      656D00
 1014 00d7 00       		.align	2
 1015              	.LC39:
 1016 00d8 476F6573 		.ascii	"Goesch Agronomy Services, Inc.\000"
 1016      63682041 
 1016      67726F6E 
 1016      6F6D7920 
 1016      53657276 
 1017 00f7 00       		.align	2
 1018              	.LC41:
 1019 00f8 763100   		.ascii	"v1\000"
 1020              		.section	.text.GUISplashscreen,"ax",%progbits
 1021              		.align	2
 1022              		.global	GUISplashscreen
ARM GAS  C:\Users\megan\AppData\Local\Temp\ccPHoCT8.s 			page 28


 1023              		.code	16
 1024              		.thumb_func
 1025              		.type	GUISplashscreen, %function
 1026              	GUISplashscreen:
 1027              	.LFB42:
 439:main.c        **** 
 440:main.c        **** void GUISplashscreen() {
 1028              		.loc 1 440 0
 1029              		.cfi_startproc
 1030              		@ args = 0, pretend = 0, frame = 80
 1031              		@ frame_needed = 1, uses_anonymous_args = 0
 1032 0000 90B5     		push	{r4, r7, lr}
 1033              		.cfi_def_cfa_offset 12
 1034              		.cfi_offset 4, -12
 1035              		.cfi_offset 7, -8
 1036              		.cfi_offset 14, -4
 1037 0002 97B0     		sub	sp, sp, #92
 1038              		.cfi_def_cfa_offset 104
 1039 0004 02AF     		add	r7, sp, #8
 1040              		.cfi_def_cfa 7, 96
 441:main.c        ****     
 442:main.c        ****     //------ Declarations ------//
 443:main.c        ****     // LCD Strings
 444:main.c        ****     char welcome1[] = "Seed Bin Climate";
 1041              		.loc 1 444 0
 1042 0006 3823     		movs	r3, #56
 1043 0008 FB18     		adds	r3, r7, r3
 1044 000a 544A     		ldr	r2, .L51
 1045 000c 13CA     		ldmia	r2!, {r0, r1, r4}
 1046 000e 13C3     		stmia	r3!, {r0, r1, r4}
 1047 0010 1168     		ldr	r1, [r2]
 1048 0012 1960     		str	r1, [r3]
 1049 0014 1279     		ldrb	r2, [r2, #4]
 1050 0016 1A71     		strb	r2, [r3, #4]
 445:main.c        ****     char welcome2[] = "Control System";
 1051              		.loc 1 445 0
 1052 0018 2823     		movs	r3, #40
 1053 001a FB18     		adds	r3, r7, r3
 1054 001c 504A     		ldr	r2, .L51+4
 1055 001e 13CA     		ldmia	r2!, {r0, r1, r4}
 1056 0020 13C3     		stmia	r3!, {r0, r1, r4}
 1057 0022 1188     		ldrh	r1, [r2]
 1058 0024 1980     		strh	r1, [r3]
 1059 0026 9278     		ldrb	r2, [r2, #2]
 1060 0028 9A70     		strb	r2, [r3, #2]
 446:main.c        ****     char welcome3[] = "Goesch Agronomy Services, Inc.";
 1061              		.loc 1 446 0
 1062 002a 0823     		movs	r3, #8
 1063 002c FB18     		adds	r3, r7, r3
 1064 002e 4D4A     		ldr	r2, .L51+8
 1065 0030 13CA     		ldmia	r2!, {r0, r1, r4}
 1066 0032 13C3     		stmia	r3!, {r0, r1, r4}
 1067 0034 13CA     		ldmia	r2!, {r0, r1, r4}
 1068 0036 13C3     		stmia	r3!, {r0, r1, r4}
 1069 0038 1168     		ldr	r1, [r2]
 1070 003a 1960     		str	r1, [r3]
 1071 003c 9188     		ldrh	r1, [r2, #4]
ARM GAS  C:\Users\megan\AppData\Local\Temp\ccPHoCT8.s 			page 29


 1072 003e 9980     		strh	r1, [r3, #4]
 1073 0040 9279     		ldrb	r2, [r2, #6]
 1074 0042 9A71     		strb	r2, [r3, #6]
 447:main.c        ****     char welcome4[] = "v1";
 1075              		.loc 1 447 0
 1076 0044 3B1D     		adds	r3, r7, #4
 1077 0046 484A     		ldr	r2, .L51+12
 1078 0048 1188     		ldrh	r1, [r2]
 1079 004a 1980     		strh	r1, [r3]
 1080 004c 9278     		ldrb	r2, [r2, #2]
 1081 004e 9A70     		strb	r2, [r3, #2]
 448:main.c        ****     
 449:main.c        ****     //------ Procedure ------//
 450:main.c        ****     
 451:main.c        ****     // Screen Fade-In
 452:main.c        ****     PWM1out(0);
 1082              		.loc 1 452 0
 1083 0050 0020     		movs	r0, #0
 1084 0052 FFF7FEFF 		bl	PWM1out
 453:main.c        ****     fillScreen(RA8875_WHITE);
 1085              		.loc 1 453 0
 1086 0056 454B     		ldr	r3, .L51+16
 1087 0058 1800     		movs	r0, r3
 1088 005a FFF7FEFF 		bl	fillScreen
 1089              	.LBB2:
 454:main.c        ****     for (int i = 0; i < 256; i++) {
 1090              		.loc 1 454 0
 1091 005e 0023     		movs	r3, #0
 1092 0060 FB64     		str	r3, [r7, #76]
 1093 0062 0AE0     		b	.L49
 1094              	.L50:
 455:main.c        ****         PWM1out(i);
 1095              		.loc 1 455 0 discriminator 3
 1096 0064 FB6C     		ldr	r3, [r7, #76]
 1097 0066 DBB2     		uxtb	r3, r3
 1098 0068 1800     		movs	r0, r3
 1099 006a FFF7FEFF 		bl	PWM1out
 456:main.c        ****         CyDelay(1);
 1100              		.loc 1 456 0 discriminator 3
 1101 006e 0120     		movs	r0, #1
 1102 0070 FFF7FEFF 		bl	CyDelay
 454:main.c        ****     for (int i = 0; i < 256; i++) {
 1103              		.loc 1 454 0 discriminator 3
 1104 0074 FB6C     		ldr	r3, [r7, #76]
 1105 0076 0133     		adds	r3, r3, #1
 1106 0078 FB64     		str	r3, [r7, #76]
 1107              	.L49:
 454:main.c        ****     for (int i = 0; i < 256; i++) {
 1108              		.loc 1 454 0 is_stmt 0 discriminator 1
 1109 007a FB6C     		ldr	r3, [r7, #76]
 1110 007c FF2B     		cmp	r3, #255
 1111 007e F1DD     		ble	.L50
 1112              	.LBE2:
 457:main.c        ****     }
 458:main.c        ****     
 459:main.c        ****     // Company Info
 460:main.c        ****     textMode();
ARM GAS  C:\Users\megan\AppData\Local\Temp\ccPHoCT8.s 			page 30


 1113              		.loc 1 460 0 is_stmt 1
 1114 0080 FFF7FEFF 		bl	textMode
 461:main.c        ****     fillRect(75,85,650,175,RA8875_BLUE);
 1115              		.loc 1 461 0
 1116 0084 3A4A     		ldr	r2, .L51+20
 1117 0086 1F23     		movs	r3, #31
 1118 0088 0093     		str	r3, [sp]
 1119 008a AF23     		movs	r3, #175
 1120 008c 5521     		movs	r1, #85
 1121 008e 4B20     		movs	r0, #75
 1122 0090 FFF7FEFF 		bl	fillRect
 462:main.c        ****     
 463:main.c        ****     textEnlarge(3);
 1123              		.loc 1 463 0
 1124 0094 0320     		movs	r0, #3
 1125 0096 FFF7FEFF 		bl	textEnlarge
 464:main.c        ****     textTransparent(RA8875_WHITE);
 1126              		.loc 1 464 0
 1127 009a 344B     		ldr	r3, .L51+16
 1128 009c 1800     		movs	r0, r3
 1129 009e FFF7FEFF 		bl	textTransparent
 465:main.c        ****     // Seed Bin Climate
 466:main.c        ****     textSetCursor(100, 100);
 1130              		.loc 1 466 0
 1131 00a2 6421     		movs	r1, #100
 1132 00a4 6420     		movs	r0, #100
 1133 00a6 FFF7FEFF 		bl	textSetCursor
 467:main.c        ****     textWrite(welcome1,strlen(welcome1));
 1134              		.loc 1 467 0
 1135 00aa 3823     		movs	r3, #56
 1136 00ac FB18     		adds	r3, r7, r3
 1137 00ae 1800     		movs	r0, r3
 1138 00b0 FFF7FEFF 		bl	strlen
 1139 00b4 0300     		movs	r3, r0
 1140 00b6 9AB2     		uxth	r2, r3
 1141 00b8 3823     		movs	r3, #56
 1142 00ba FB18     		adds	r3, r7, r3
 1143 00bc 1100     		movs	r1, r2
 1144 00be 1800     		movs	r0, r3
 1145 00c0 FFF7FEFF 		bl	textWrite
 468:main.c        ****     // Control System
 469:main.c        ****     textSetCursor(100, 175);
 1146              		.loc 1 469 0
 1147 00c4 AF21     		movs	r1, #175
 1148 00c6 6420     		movs	r0, #100
 1149 00c8 FFF7FEFF 		bl	textSetCursor
 470:main.c        ****     textWrite(welcome2,strlen(welcome2));
 1150              		.loc 1 470 0
 1151 00cc 2823     		movs	r3, #40
 1152 00ce FB18     		adds	r3, r7, r3
 1153 00d0 1800     		movs	r0, r3
 1154 00d2 FFF7FEFF 		bl	strlen
 1155 00d6 0300     		movs	r3, r0
 1156 00d8 9AB2     		uxth	r2, r3
 1157 00da 2823     		movs	r3, #40
 1158 00dc FB18     		adds	r3, r7, r3
 1159 00de 1100     		movs	r1, r2
ARM GAS  C:\Users\megan\AppData\Local\Temp\ccPHoCT8.s 			page 31


 1160 00e0 1800     		movs	r0, r3
 1161 00e2 FFF7FEFF 		bl	textWrite
 471:main.c        ****     // Goesch Agronomy Services, Inc
 472:main.c        ****     textEnlarge(2);
 1162              		.loc 1 472 0
 1163 00e6 0220     		movs	r0, #2
 1164 00e8 FFF7FEFF 		bl	textEnlarge
 473:main.c        ****     textTransparent(RA8875_GREEN);
 1165              		.loc 1 473 0
 1166 00ec FC23     		movs	r3, #252
 1167 00ee DB00     		lsls	r3, r3, #3
 1168 00f0 1800     		movs	r0, r3
 1169 00f2 FFF7FEFF 		bl	textTransparent
 474:main.c        ****     textSetCursor(75, 325);
 1170              		.loc 1 474 0
 1171 00f6 4623     		movs	r3, #70
 1172 00f8 FF33     		adds	r3, r3, #255
 1173 00fa 1900     		movs	r1, r3
 1174 00fc 4B20     		movs	r0, #75
 1175 00fe FFF7FEFF 		bl	textSetCursor
 475:main.c        ****     textWrite(welcome3,strlen(welcome3));
 1176              		.loc 1 475 0
 1177 0102 0823     		movs	r3, #8
 1178 0104 FB18     		adds	r3, r7, r3
 1179 0106 1800     		movs	r0, r3
 1180 0108 FFF7FEFF 		bl	strlen
 1181 010c 0300     		movs	r3, r0
 1182 010e 9AB2     		uxth	r2, r3
 1183 0110 0823     		movs	r3, #8
 1184 0112 FB18     		adds	r3, r7, r3
 1185 0114 1100     		movs	r1, r2
 1186 0116 1800     		movs	r0, r3
 1187 0118 FFF7FEFF 		bl	textWrite
 476:main.c        ****     // v1
 477:main.c        ****     textEnlarge(1);
 1188              		.loc 1 477 0
 1189 011c 0120     		movs	r0, #1
 1190 011e FFF7FEFF 		bl	textEnlarge
 478:main.c        ****     textTransparent(RA8875_BLACK);
 1191              		.loc 1 478 0
 1192 0122 0020     		movs	r0, #0
 1193 0124 FFF7FEFF 		bl	textTransparent
 479:main.c        ****     textSetCursor(750, 430);
 1194              		.loc 1 479 0
 1195 0128 D723     		movs	r3, #215
 1196 012a 5B00     		lsls	r3, r3, #1
 1197 012c 114A     		ldr	r2, .L51+24
 1198 012e 1900     		movs	r1, r3
 1199 0130 1000     		movs	r0, r2
 1200 0132 FFF7FEFF 		bl	textSetCursor
 480:main.c        ****     textWrite(welcome4,strlen(welcome4));
 1201              		.loc 1 480 0
 1202 0136 3B1D     		adds	r3, r7, #4
 1203 0138 1800     		movs	r0, r3
 1204 013a FFF7FEFF 		bl	strlen
 1205 013e 0300     		movs	r3, r0
 1206 0140 9AB2     		uxth	r2, r3
ARM GAS  C:\Users\megan\AppData\Local\Temp\ccPHoCT8.s 			page 32


 1207 0142 3B1D     		adds	r3, r7, #4
 1208 0144 1100     		movs	r1, r2
 1209 0146 1800     		movs	r0, r3
 1210 0148 FFF7FEFF 		bl	textWrite
 481:main.c        ****     
 482:main.c        ****     CyDelay(3000);
 1211              		.loc 1 482 0
 1212 014c 0A4B     		ldr	r3, .L51+28
 1213 014e 1800     		movs	r0, r3
 1214 0150 FFF7FEFF 		bl	CyDelay
 483:main.c        **** }
 1215              		.loc 1 483 0
 1216 0154 C046     		nop
 1217 0156 BD46     		mov	sp, r7
 1218 0158 15B0     		add	sp, sp, #84
 1219              		@ sp needed
 1220 015a 90BD     		pop	{r4, r7, pc}
 1221              	.L52:
 1222              		.align	2
 1223              	.L51:
 1224 015c B4000000 		.word	.LC35
 1225 0160 C8000000 		.word	.LC37
 1226 0164 D8000000 		.word	.LC39
 1227 0168 F8000000 		.word	.LC41
 1228 016c FFFF0000 		.word	65535
 1229 0170 8A020000 		.word	650
 1230 0174 EE020000 		.word	750
 1231 0178 B80B0000 		.word	3000
 1232              		.cfi_endproc
 1233              	.LFE42:
 1234              		.size	GUISplashscreen, .-GUISplashscreen
 1235              		.global	__aeabi_idiv
 1236              		.section	.rodata
 1237 00fb 00       		.align	2
 1238              	.LC43:
 1239 00fc 53656564 		.ascii	"Seed Bin Climate Control System\000"
 1239      2042696E 
 1239      20436C69 
 1239      6D617465 
 1239      20436F6E 
 1240              		.align	2
 1241              	.LC45:
 1242 011c 4D6F6465 		.ascii	"Modes\000"
 1242      7300
 1243 0122 0000     		.align	2
 1244              	.LC47:
 1245 0124 4D616E75 		.ascii	"Manual\000"
 1245      616C00
 1246 012b 00       		.align	2
 1247              	.LC49:
 1248 012c 4175746F 		.ascii	"Auto\000"
 1248      00
 1249 0131 000000   		.align	2
 1250              	.LC51:
 1251 0134 496E666F 		.ascii	"Info\000"
 1251      00
 1252 0139 000000   		.align	2
ARM GAS  C:\Users\megan\AppData\Local\Temp\ccPHoCT8.s 			page 33


 1253              	.LC53:
 1254 013c 4F757473 		.ascii	"Outside\000"
 1254      69646500 
 1255              		.align	2
 1256              	.LC55:
 1257 0144 42696E20 		.ascii	"Bin #1\000"
 1257      233100
 1258              		.section	.text.GUIInit,"ax",%progbits
 1259              		.align	2
 1260              		.global	GUIInit
 1261              		.code	16
 1262              		.thumb_func
 1263              		.type	GUIInit, %function
 1264              	GUIInit:
 1265              	.LFB43:
 484:main.c        **** 
 485:main.c        **** void GUIInit() {
 1266              		.loc 1 485 0
 1267              		.cfi_startproc
 1268              		@ args = 0, pretend = 0, frame = 88
 1269              		@ frame_needed = 1, uses_anonymous_args = 0
 1270 0000 B0B5     		push	{r4, r5, r7, lr}
 1271              		.cfi_def_cfa_offset 16
 1272              		.cfi_offset 4, -16
 1273              		.cfi_offset 5, -12
 1274              		.cfi_offset 7, -8
 1275              		.cfi_offset 14, -4
 1276 0002 98B0     		sub	sp, sp, #96
 1277              		.cfi_def_cfa_offset 112
 1278 0004 02AF     		add	r7, sp, #8
 1279              		.cfi_def_cfa 7, 104
 486:main.c        ****     
 487:main.c        ****     //------ Declarations ------//
 488:main.c        ****     // LCD Strings
 489:main.c        ****     char banner[] = "Seed Bin Climate Control System";
 1280              		.loc 1 489 0
 1281 0006 3023     		movs	r3, #48
 1282 0008 FB18     		adds	r3, r7, r3
 1283 000a CD4A     		ldr	r2, .L62
 1284 000c 13CA     		ldmia	r2!, {r0, r1, r4}
 1285 000e 13C3     		stmia	r3!, {r0, r1, r4}
 1286 0010 13CA     		ldmia	r2!, {r0, r1, r4}
 1287 0012 13C3     		stmia	r3!, {r0, r1, r4}
 1288 0014 03CA     		ldmia	r2!, {r0, r1}
 1289 0016 03C3     		stmia	r3!, {r0, r1}
 490:main.c        ****     char modes[] = "Modes";
 1290              		.loc 1 490 0
 1291 0018 2823     		movs	r3, #40
 1292 001a FB18     		adds	r3, r7, r3
 1293 001c C94A     		ldr	r2, .L62+4
 1294 001e 1168     		ldr	r1, [r2]
 1295 0020 1960     		str	r1, [r3]
 1296 0022 9288     		ldrh	r2, [r2, #4]
 1297 0024 9A80     		strh	r2, [r3, #4]
 491:main.c        ****     char manual[] = "Manual";
 1298              		.loc 1 491 0
 1299 0026 2023     		movs	r3, #32
ARM GAS  C:\Users\megan\AppData\Local\Temp\ccPHoCT8.s 			page 34


 1300 0028 FB18     		adds	r3, r7, r3
 1301 002a C74A     		ldr	r2, .L62+8
 1302 002c 1168     		ldr	r1, [r2]
 1303 002e 1960     		str	r1, [r3]
 1304 0030 9188     		ldrh	r1, [r2, #4]
 1305 0032 9980     		strh	r1, [r3, #4]
 1306 0034 9279     		ldrb	r2, [r2, #6]
 1307 0036 9A71     		strb	r2, [r3, #6]
 492:main.c        ****     char automatic[] = "Auto";
 1308              		.loc 1 492 0
 1309 0038 1823     		movs	r3, #24
 1310 003a FB18     		adds	r3, r7, r3
 1311 003c C34A     		ldr	r2, .L62+12
 1312 003e 1168     		ldr	r1, [r2]
 1313 0040 1960     		str	r1, [r3]
 1314 0042 1279     		ldrb	r2, [r2, #4]
 1315 0044 1A71     		strb	r2, [r3, #4]
 493:main.c        ****     char info[] = "Info";
 1316              		.loc 1 493 0
 1317 0046 1023     		movs	r3, #16
 1318 0048 FB18     		adds	r3, r7, r3
 1319 004a C14A     		ldr	r2, .L62+16
 1320 004c 1168     		ldr	r1, [r2]
 1321 004e 1960     		str	r1, [r3]
 1322 0050 1279     		ldrb	r2, [r2, #4]
 1323 0052 1A71     		strb	r2, [r3, #4]
 494:main.c        ****     char outside[] = "Outside";
 1324              		.loc 1 494 0
 1325 0054 0823     		movs	r3, #8
 1326 0056 FB18     		adds	r3, r7, r3
 1327 0058 BE4A     		ldr	r2, .L62+20
 1328 005a 03CA     		ldmia	r2!, {r0, r1}
 1329 005c 03C3     		stmia	r3!, {r0, r1}
 495:main.c        ****     char binno1[] = "Bin #1";
 1330              		.loc 1 495 0
 1331 005e 3B00     		movs	r3, r7
 1332 0060 BD4A     		ldr	r2, .L62+24
 1333 0062 1168     		ldr	r1, [r2]
 1334 0064 1960     		str	r1, [r3]
 1335 0066 9188     		ldrh	r1, [r2, #4]
 1336 0068 9980     		strh	r1, [r3, #4]
 1337 006a 9279     		ldrb	r2, [r2, #6]
 1338 006c 9A71     		strb	r2, [r3, #6]
 496:main.c        ****     
 497:main.c        ****     int scr_width = 800;
 1339              		.loc 1 497 0
 1340 006e C823     		movs	r3, #200
 1341 0070 9B00     		lsls	r3, r3, #2
 1342 0072 7B65     		str	r3, [r7, #84]
 498:main.c        ****     int scr_height = 480;
 1343              		.loc 1 498 0
 1344 0074 F023     		movs	r3, #240
 1345 0076 5B00     		lsls	r3, r3, #1
 1346 0078 3B65     		str	r3, [r7, #80]
 499:main.c        ****     
 500:main.c        ****     //------ Procedure ------//
 501:main.c        ****     
ARM GAS  C:\Users\megan\AppData\Local\Temp\ccPHoCT8.s 			page 35


 502:main.c        ****     // Background
 503:main.c        ****     PWM1out(255);
 1347              		.loc 1 503 0
 1348 007a FF20     		movs	r0, #255
 1349 007c FFF7FEFF 		bl	PWM1out
 504:main.c        ****     fillScreen(RA8875_WHITE);
 1350              		.loc 1 504 0
 1351 0080 B64B     		ldr	r3, .L62+28
 1352 0082 1800     		movs	r0, r3
 1353 0084 FFF7FEFF 		bl	fillScreen
 505:main.c        ****     textMode();
 1354              		.loc 1 505 0
 1355 0088 FFF7FEFF 		bl	textMode
 506:main.c        ****     
 507:main.c        ****     // Banner
 508:main.c        ****     fillRect(20,20,
 1356              		.loc 1 508 0
 1357 008c 7B6D     		ldr	r3, [r7, #84]
 1358 008e 9BB2     		uxth	r3, r3
 1359 0090 283B     		subs	r3, r3, #40
 1360 0092 9BB2     		uxth	r3, r3
 1361 0094 1AB2     		sxth	r2, r3
 1362 0096 FC23     		movs	r3, #252
 1363 0098 DB00     		lsls	r3, r3, #3
 1364 009a 0093     		str	r3, [sp]
 1365 009c 3223     		movs	r3, #50
 1366 009e 1421     		movs	r1, #20
 1367 00a0 1420     		movs	r0, #20
 1368 00a2 FFF7FEFF 		bl	fillRect
 509:main.c        ****             scr_width-40,50,
 510:main.c        ****             RA8875_GREEN);
 511:main.c        ****     textEnlarge(2);
 1369              		.loc 1 511 0
 1370 00a6 0220     		movs	r0, #2
 1371 00a8 FFF7FEFF 		bl	textEnlarge
 512:main.c        ****     textTransparent(RA8875_BLACK);
 1372              		.loc 1 512 0
 1373 00ac 0020     		movs	r0, #0
 1374 00ae FFF7FEFF 		bl	textTransparent
 513:main.c        ****     textSetCursor(25,18);
 1375              		.loc 1 513 0
 1376 00b2 1221     		movs	r1, #18
 1377 00b4 1920     		movs	r0, #25
 1378 00b6 FFF7FEFF 		bl	textSetCursor
 514:main.c        ****     textWrite(banner,strlen(banner));
 1379              		.loc 1 514 0
 1380 00ba 3023     		movs	r3, #48
 1381 00bc FB18     		adds	r3, r7, r3
 1382 00be 1800     		movs	r0, r3
 1383 00c0 FFF7FEFF 		bl	strlen
 1384 00c4 0300     		movs	r3, r0
 1385 00c6 9AB2     		uxth	r2, r3
 1386 00c8 3023     		movs	r3, #48
 1387 00ca FB18     		adds	r3, r7, r3
 1388 00cc 1100     		movs	r1, r2
 1389 00ce 1800     		movs	r0, r3
 1390 00d0 FFF7FEFF 		bl	textWrite
ARM GAS  C:\Users\megan\AppData\Local\Temp\ccPHoCT8.s 			page 36


 515:main.c        ****     
 516:main.c        ****     // Modes
 517:main.c        ****     fillRect(20,70,
 518:main.c        ****             scr_width/3-40,scr_height/2+50,
 1391              		.loc 1 518 0
 1392 00d4 7B6D     		ldr	r3, [r7, #84]
 1393 00d6 0321     		movs	r1, #3
 1394 00d8 1800     		movs	r0, r3
 1395 00da FFF7FEFF 		bl	__aeabi_idiv
 1396 00de 0300     		movs	r3, r0
 517:main.c        ****             scr_width/3-40,scr_height/2+50,
 1397              		.loc 1 517 0
 1398 00e0 9BB2     		uxth	r3, r3
 1399 00e2 283B     		subs	r3, r3, #40
 1400 00e4 9BB2     		uxth	r3, r3
 1401 00e6 1AB2     		sxth	r2, r3
 1402              		.loc 1 518 0
 1403 00e8 3B6D     		ldr	r3, [r7, #80]
 1404 00ea 002B     		cmp	r3, #0
 1405 00ec 00DA     		bge	.L54
 1406 00ee 0133     		adds	r3, r3, #1
 1407              	.L54:
 1408 00f0 5B10     		asrs	r3, r3, #1
 517:main.c        ****             scr_width/3-40,scr_height/2+50,
 1409              		.loc 1 517 0
 1410 00f2 9BB2     		uxth	r3, r3
 1411 00f4 3233     		adds	r3, r3, #50
 1412 00f6 9BB2     		uxth	r3, r3
 1413 00f8 19B2     		sxth	r1, r3
 1414 00fa 0023     		movs	r3, #0
 1415 00fc 0093     		str	r3, [sp]
 1416 00fe 0B00     		movs	r3, r1
 1417 0100 4621     		movs	r1, #70
 1418 0102 1420     		movs	r0, #20
 1419 0104 FFF7FEFF 		bl	fillRect
 519:main.c        ****             RA8875_BLACK);
 520:main.c        ****     textEnlarge(3);
 1420              		.loc 1 520 0
 1421 0108 0320     		movs	r0, #3
 1422 010a FFF7FEFF 		bl	textEnlarge
 521:main.c        ****     textTransparent(RA8875_WHITE);
 1423              		.loc 1 521 0
 1424 010e 934B     		ldr	r3, .L62+28
 1425 0110 1800     		movs	r0, r3
 1426 0112 FFF7FEFF 		bl	textTransparent
 522:main.c        ****     textSetCursor(50,70);
 1427              		.loc 1 522 0
 1428 0116 4621     		movs	r1, #70
 1429 0118 3220     		movs	r0, #50
 1430 011a FFF7FEFF 		bl	textSetCursor
 523:main.c        ****     textWrite(modes,strlen(modes));
 1431              		.loc 1 523 0
 1432 011e 2823     		movs	r3, #40
 1433 0120 FB18     		adds	r3, r7, r3
 1434 0122 1800     		movs	r0, r3
 1435 0124 FFF7FEFF 		bl	strlen
 1436 0128 0300     		movs	r3, r0
ARM GAS  C:\Users\megan\AppData\Local\Temp\ccPHoCT8.s 			page 37


 1437 012a 9AB2     		uxth	r2, r3
 1438 012c 2823     		movs	r3, #40
 1439 012e FB18     		adds	r3, r7, r3
 1440 0130 1100     		movs	r1, r2
 1441 0132 1800     		movs	r0, r3
 1442 0134 FFF7FEFF 		bl	textWrite
 524:main.c        ****     
 525:main.c        ****     GUIUpdateMode();
 1443              		.loc 1 525 0
 1444 0138 FFF7FEFF 		bl	GUIUpdateMode
 526:main.c        ****     textMode();
 1445              		.loc 1 526 0
 1446 013c FFF7FEFF 		bl	textMode
 527:main.c        ****     
 528:main.c        ****     // Info
 529:main.c        ****     fillRect(20,scr_height/2+120,
 1447              		.loc 1 529 0
 1448 0140 3B6D     		ldr	r3, [r7, #80]
 1449 0142 002B     		cmp	r3, #0
 1450 0144 00DA     		bge	.L55
 1451 0146 0133     		adds	r3, r3, #1
 1452              	.L55:
 1453 0148 5B10     		asrs	r3, r3, #1
 1454 014a 9BB2     		uxth	r3, r3
 1455 014c 7833     		adds	r3, r3, #120
 1456 014e 9BB2     		uxth	r3, r3
 1457 0150 1CB2     		sxth	r4, r3
 530:main.c        ****             scr_width/3-40,scr_height/2-140,
 1458              		.loc 1 530 0
 1459 0152 7B6D     		ldr	r3, [r7, #84]
 1460 0154 0321     		movs	r1, #3
 1461 0156 1800     		movs	r0, r3
 1462 0158 FFF7FEFF 		bl	__aeabi_idiv
 1463 015c 0300     		movs	r3, r0
 529:main.c        ****             scr_width/3-40,scr_height/2-140,
 1464              		.loc 1 529 0
 1465 015e 9BB2     		uxth	r3, r3
 1466 0160 283B     		subs	r3, r3, #40
 1467 0162 9BB2     		uxth	r3, r3
 1468 0164 1AB2     		sxth	r2, r3
 1469              		.loc 1 530 0
 1470 0166 3B6D     		ldr	r3, [r7, #80]
 1471 0168 002B     		cmp	r3, #0
 1472 016a 00DA     		bge	.L56
 1473 016c 0133     		adds	r3, r3, #1
 1474              	.L56:
 1475 016e 5B10     		asrs	r3, r3, #1
 529:main.c        ****             scr_width/3-40,scr_height/2-140,
 1476              		.loc 1 529 0
 1477 0170 9BB2     		uxth	r3, r3
 1478 0172 8C3B     		subs	r3, r3, #140
 1479 0174 9BB2     		uxth	r3, r3
 1480 0176 19B2     		sxth	r1, r3
 1481 0178 1F23     		movs	r3, #31
 1482 017a 0093     		str	r3, [sp]
 1483 017c 0B00     		movs	r3, r1
 1484 017e 2100     		movs	r1, r4
ARM GAS  C:\Users\megan\AppData\Local\Temp\ccPHoCT8.s 			page 38


 1485 0180 1420     		movs	r0, #20
 1486 0182 FFF7FEFF 		bl	fillRect
 531:main.c        ****             RA8875_BLUE);
 532:main.c        ****     textEnlarge(3);
 1487              		.loc 1 532 0
 1488 0186 0320     		movs	r0, #3
 1489 0188 FFF7FEFF 		bl	textEnlarge
 533:main.c        ****     textTransparent(RA8875_WHITE);
 1490              		.loc 1 533 0
 1491 018c 734B     		ldr	r3, .L62+28
 1492 018e 1800     		movs	r0, r3
 1493 0190 FFF7FEFF 		bl	textTransparent
 534:main.c        ****     textSetCursor(60,scr_height/2+135);
 1494              		.loc 1 534 0
 1495 0194 3B6D     		ldr	r3, [r7, #80]
 1496 0196 002B     		cmp	r3, #0
 1497 0198 00DA     		bge	.L57
 1498 019a 0133     		adds	r3, r3, #1
 1499              	.L57:
 1500 019c 5B10     		asrs	r3, r3, #1
 1501 019e 9BB2     		uxth	r3, r3
 1502 01a0 8733     		adds	r3, r3, #135
 1503 01a2 9BB2     		uxth	r3, r3
 1504 01a4 1900     		movs	r1, r3
 1505 01a6 3C20     		movs	r0, #60
 1506 01a8 FFF7FEFF 		bl	textSetCursor
 535:main.c        ****     textWrite(info,strlen(info));
 1507              		.loc 1 535 0
 1508 01ac 1023     		movs	r3, #16
 1509 01ae FB18     		adds	r3, r7, r3
 1510 01b0 1800     		movs	r0, r3
 1511 01b2 FFF7FEFF 		bl	strlen
 1512 01b6 0300     		movs	r3, r0
 1513 01b8 9AB2     		uxth	r2, r3
 1514 01ba 1023     		movs	r3, #16
 1515 01bc FB18     		adds	r3, r7, r3
 1516 01be 1100     		movs	r1, r2
 1517 01c0 1800     		movs	r0, r3
 1518 01c2 FFF7FEFF 		bl	textWrite
 536:main.c        ****     
 537:main.c        ****     // Outside
 538:main.c        ****     fillRect(scr_width/3-20,70,
 1519              		.loc 1 538 0
 1520 01c6 7B6D     		ldr	r3, [r7, #84]
 1521 01c8 0321     		movs	r1, #3
 1522 01ca 1800     		movs	r0, r3
 1523 01cc FFF7FEFF 		bl	__aeabi_idiv
 1524 01d0 0300     		movs	r3, r0
 1525 01d2 9BB2     		uxth	r3, r3
 1526 01d4 143B     		subs	r3, r3, #20
 1527 01d6 9BB2     		uxth	r3, r3
 1528 01d8 1CB2     		sxth	r4, r3
 539:main.c        ****             scr_width/3,scr_height/2+50,
 1529              		.loc 1 539 0
 1530 01da 7B6D     		ldr	r3, [r7, #84]
 1531 01dc 0321     		movs	r1, #3
 1532 01de 1800     		movs	r0, r3
ARM GAS  C:\Users\megan\AppData\Local\Temp\ccPHoCT8.s 			page 39


 1533 01e0 FFF7FEFF 		bl	__aeabi_idiv
 1534 01e4 0300     		movs	r3, r0
 538:main.c        ****             scr_width/3,scr_height/2+50,
 1535              		.loc 1 538 0
 1536 01e6 1AB2     		sxth	r2, r3
 1537              		.loc 1 539 0
 1538 01e8 3B6D     		ldr	r3, [r7, #80]
 1539 01ea 002B     		cmp	r3, #0
 1540 01ec 00DA     		bge	.L58
 1541 01ee 0133     		adds	r3, r3, #1
 1542              	.L58:
 1543 01f0 5B10     		asrs	r3, r3, #1
 538:main.c        ****             scr_width/3,scr_height/2+50,
 1544              		.loc 1 538 0
 1545 01f2 9BB2     		uxth	r3, r3
 1546 01f4 3233     		adds	r3, r3, #50
 1547 01f6 9BB2     		uxth	r3, r3
 1548 01f8 19B2     		sxth	r1, r3
 1549 01fa 594B     		ldr	r3, .L62+32
 1550 01fc 0093     		str	r3, [sp]
 1551 01fe 0B00     		movs	r3, r1
 1552 0200 4621     		movs	r1, #70
 1553 0202 2000     		movs	r0, r4
 1554 0204 FFF7FEFF 		bl	fillRect
 540:main.c        ****             RA8875_CYAN);
 541:main.c        ****     textEnlarge(3);
 1555              		.loc 1 541 0
 1556 0208 0320     		movs	r0, #3
 1557 020a FFF7FEFF 		bl	textEnlarge
 542:main.c        ****     textTransparent(RA8875_BLACK);
 1558              		.loc 1 542 0
 1559 020e 0020     		movs	r0, #0
 1560 0210 FFF7FEFF 		bl	textTransparent
 543:main.c        ****     textSetCursor(scr_width/3,70);
 1561              		.loc 1 543 0
 1562 0214 7B6D     		ldr	r3, [r7, #84]
 1563 0216 0321     		movs	r1, #3
 1564 0218 1800     		movs	r0, r3
 1565 021a FFF7FEFF 		bl	__aeabi_idiv
 1566 021e 0300     		movs	r3, r0
 1567 0220 9BB2     		uxth	r3, r3
 1568 0222 4621     		movs	r1, #70
 1569 0224 1800     		movs	r0, r3
 1570 0226 FFF7FEFF 		bl	textSetCursor
 544:main.c        ****     textWrite(outside,strlen(outside));
 1571              		.loc 1 544 0
 1572 022a 0823     		movs	r3, #8
 1573 022c FB18     		adds	r3, r7, r3
 1574 022e 1800     		movs	r0, r3
 1575 0230 FFF7FEFF 		bl	strlen
 1576 0234 0300     		movs	r3, r0
 1577 0236 9AB2     		uxth	r2, r3
 1578 0238 0823     		movs	r3, #8
 1579 023a FB18     		adds	r3, r7, r3
 1580 023c 1100     		movs	r1, r2
 1581 023e 1800     		movs	r0, r3
 1582 0240 FFF7FEFF 		bl	textWrite
ARM GAS  C:\Users\megan\AppData\Local\Temp\ccPHoCT8.s 			page 40


 545:main.c        ****     
 546:main.c        ****     GUIUpdateOutsideTemp();
 1583              		.loc 1 546 0
 1584 0244 FFF7FEFF 		bl	GUIUpdateOutsideTemp
 547:main.c        ****     textMode();
 1585              		.loc 1 547 0
 1586 0248 FFF7FEFF 		bl	textMode
 548:main.c        ****     
 549:main.c        ****     // Bin1
 550:main.c        ****     fillRect(2*scr_width/3-20,70,
 1587              		.loc 1 550 0
 1588 024c 7B6D     		ldr	r3, [r7, #84]
 1589 024e 5B00     		lsls	r3, r3, #1
 1590 0250 0321     		movs	r1, #3
 1591 0252 1800     		movs	r0, r3
 1592 0254 FFF7FEFF 		bl	__aeabi_idiv
 1593 0258 0300     		movs	r3, r0
 1594 025a 9BB2     		uxth	r3, r3
 1595 025c 143B     		subs	r3, r3, #20
 1596 025e 9BB2     		uxth	r3, r3
 1597 0260 1CB2     		sxth	r4, r3
 551:main.c        ****             scr_width/3,scr_height/2+50,
 1598              		.loc 1 551 0
 1599 0262 7B6D     		ldr	r3, [r7, #84]
 1600 0264 0321     		movs	r1, #3
 1601 0266 1800     		movs	r0, r3
 1602 0268 FFF7FEFF 		bl	__aeabi_idiv
 1603 026c 0300     		movs	r3, r0
 550:main.c        ****             scr_width/3,scr_height/2+50,
 1604              		.loc 1 550 0
 1605 026e 1AB2     		sxth	r2, r3
 1606              		.loc 1 551 0
 1607 0270 3B6D     		ldr	r3, [r7, #80]
 1608 0272 002B     		cmp	r3, #0
 1609 0274 00DA     		bge	.L59
 1610 0276 0133     		adds	r3, r3, #1
 1611              	.L59:
 1612 0278 5B10     		asrs	r3, r3, #1
 550:main.c        ****             scr_width/3,scr_height/2+50,
 1613              		.loc 1 550 0
 1614 027a 9BB2     		uxth	r3, r3
 1615 027c 3233     		adds	r3, r3, #50
 1616 027e 9BB2     		uxth	r3, r3
 1617 0280 19B2     		sxth	r1, r3
 1618 0282 F823     		movs	r3, #248
 1619 0284 1B02     		lsls	r3, r3, #8
 1620 0286 0093     		str	r3, [sp]
 1621 0288 0B00     		movs	r3, r1
 1622 028a 4621     		movs	r1, #70
 1623 028c 2000     		movs	r0, r4
 1624 028e FFF7FEFF 		bl	fillRect
 552:main.c        ****             RA8875_RED);
 553:main.c        ****     textEnlarge(3);
 1625              		.loc 1 553 0
 1626 0292 0320     		movs	r0, #3
 1627 0294 FFF7FEFF 		bl	textEnlarge
 554:main.c        ****     textTransparent(RA8875_BLACK);
ARM GAS  C:\Users\megan\AppData\Local\Temp\ccPHoCT8.s 			page 41


 1628              		.loc 1 554 0
 1629 0298 0020     		movs	r0, #0
 1630 029a FFF7FEFF 		bl	textTransparent
 555:main.c        ****     textSetCursor(2*scr_width/3+20,70);
 1631              		.loc 1 555 0
 1632 029e 7B6D     		ldr	r3, [r7, #84]
 1633 02a0 5B00     		lsls	r3, r3, #1
 1634 02a2 0321     		movs	r1, #3
 1635 02a4 1800     		movs	r0, r3
 1636 02a6 FFF7FEFF 		bl	__aeabi_idiv
 1637 02aa 0300     		movs	r3, r0
 1638 02ac 9BB2     		uxth	r3, r3
 1639 02ae 1433     		adds	r3, r3, #20
 1640 02b0 9BB2     		uxth	r3, r3
 1641 02b2 4621     		movs	r1, #70
 1642 02b4 1800     		movs	r0, r3
 1643 02b6 FFF7FEFF 		bl	textSetCursor
 556:main.c        ****     textWrite(binno1,strlen(binno1));
 1644              		.loc 1 556 0
 1645 02ba 3B00     		movs	r3, r7
 1646 02bc 1800     		movs	r0, r3
 1647 02be FFF7FEFF 		bl	strlen
 1648 02c2 0300     		movs	r3, r0
 1649 02c4 9AB2     		uxth	r2, r3
 1650 02c6 3B00     		movs	r3, r7
 1651 02c8 1100     		movs	r1, r2
 1652 02ca 1800     		movs	r0, r3
 1653 02cc FFF7FEFF 		bl	textWrite
 557:main.c        ****     
 558:main.c        ****     GUIUpdateBin1ActualTemp();
 1654              		.loc 1 558 0
 1655 02d0 FFF7FEFF 		bl	GUIUpdateBin1ActualTemp
 559:main.c        ****     textMode();
 1656              		.loc 1 559 0
 1657 02d4 FFF7FEFF 		bl	textMode
 560:main.c        ****     
 561:main.c        ****     // Controls
 562:main.c        ****     fillRect(scr_width/3-20,scr_height/2+120,
 1658              		.loc 1 562 0
 1659 02d8 7B6D     		ldr	r3, [r7, #84]
 1660 02da 0321     		movs	r1, #3
 1661 02dc 1800     		movs	r0, r3
 1662 02de FFF7FEFF 		bl	__aeabi_idiv
 1663 02e2 0300     		movs	r3, r0
 1664 02e4 9BB2     		uxth	r3, r3
 1665 02e6 143B     		subs	r3, r3, #20
 1666 02e8 9BB2     		uxth	r3, r3
 1667 02ea 1CB2     		sxth	r4, r3
 1668 02ec 3B6D     		ldr	r3, [r7, #80]
 1669 02ee 002B     		cmp	r3, #0
 1670 02f0 00DA     		bge	.L60
 1671 02f2 0133     		adds	r3, r3, #1
 1672              	.L60:
 1673 02f4 5B10     		asrs	r3, r3, #1
 1674 02f6 9BB2     		uxth	r3, r3
 1675 02f8 7833     		adds	r3, r3, #120
 1676 02fa 9BB2     		uxth	r3, r3
ARM GAS  C:\Users\megan\AppData\Local\Temp\ccPHoCT8.s 			page 42


 1677 02fc 1DB2     		sxth	r5, r3
 563:main.c        ****             2*scr_width/3,scr_height/2-140,
 1678              		.loc 1 563 0
 1679 02fe 7B6D     		ldr	r3, [r7, #84]
 1680 0300 5B00     		lsls	r3, r3, #1
 1681 0302 0321     		movs	r1, #3
 1682 0304 1800     		movs	r0, r3
 1683 0306 FFF7FEFF 		bl	__aeabi_idiv
 1684 030a 0300     		movs	r3, r0
 562:main.c        ****             2*scr_width/3,scr_height/2-140,
 1685              		.loc 1 562 0
 1686 030c 1AB2     		sxth	r2, r3
 1687              		.loc 1 563 0
 1688 030e 3B6D     		ldr	r3, [r7, #80]
 1689 0310 002B     		cmp	r3, #0
 1690 0312 00DA     		bge	.L61
 1691 0314 0133     		adds	r3, r3, #1
 1692              	.L61:
 1693 0316 5B10     		asrs	r3, r3, #1
 562:main.c        ****             2*scr_width/3,scr_height/2-140,
 1694              		.loc 1 562 0
 1695 0318 9BB2     		uxth	r3, r3
 1696 031a 8C3B     		subs	r3, r3, #140
 1697 031c 9BB2     		uxth	r3, r3
 1698 031e 19B2     		sxth	r1, r3
 1699 0320 104B     		ldr	r3, .L62+36
 1700 0322 0093     		str	r3, [sp]
 1701 0324 0B00     		movs	r3, r1
 1702 0326 2900     		movs	r1, r5
 1703 0328 2000     		movs	r0, r4
 1704 032a FFF7FEFF 		bl	fillRect
 564:main.c        ****             RA8875_YELLOW);    
 565:main.c        **** 
 566:main.c        ****     GUIUpdateControls();
 1705              		.loc 1 566 0
 1706 032e FFF7FEFF 		bl	GUIUpdateControls
 567:main.c        ****     
 568:main.c        ****     // Enable touch
 569:main.c        ****     graphicsMode();
 1707              		.loc 1 569 0
 1708 0332 FFF7FEFF 		bl	graphicsMode
 570:main.c        **** }
 1709              		.loc 1 570 0
 1710 0336 C046     		nop
 1711 0338 BD46     		mov	sp, r7
 1712 033a 16B0     		add	sp, sp, #88
 1713              		@ sp needed
 1714 033c B0BD     		pop	{r4, r5, r7, pc}
 1715              	.L63:
 1716 033e C046     		.align	2
 1717              	.L62:
 1718 0340 FC000000 		.word	.LC43
 1719 0344 1C010000 		.word	.LC45
 1720 0348 24010000 		.word	.LC47
 1721 034c 2C010000 		.word	.LC49
 1722 0350 34010000 		.word	.LC51
 1723 0354 3C010000 		.word	.LC53
ARM GAS  C:\Users\megan\AppData\Local\Temp\ccPHoCT8.s 			page 43


 1724 0358 44010000 		.word	.LC55
 1725 035c FFFF0000 		.word	65535
 1726 0360 FF070000 		.word	2047
 1727 0364 E0FF0000 		.word	65504
 1728              		.cfi_endproc
 1729              	.LFE43:
 1730              		.size	GUIInit, .-GUIInit
 1731              		.section	.text.GUIUpdateMode,"ax",%progbits
 1732              		.align	2
 1733              		.global	GUIUpdateMode
 1734              		.code	16
 1735              		.thumb_func
 1736              		.type	GUIUpdateMode, %function
 1737              	GUIUpdateMode:
 1738              	.LFB44:
 571:main.c        **** 
 572:main.c        **** void GUIUpdateMode() {
 1739              		.loc 1 572 0
 1740              		.cfi_startproc
 1741              		@ args = 0, pretend = 0, frame = 32
 1742              		@ frame_needed = 1, uses_anonymous_args = 0
 1743 0000 80B5     		push	{r7, lr}
 1744              		.cfi_def_cfa_offset 8
 1745              		.cfi_offset 7, -8
 1746              		.cfi_offset 14, -4
 1747 0002 8AB0     		sub	sp, sp, #40
 1748              		.cfi_def_cfa_offset 48
 1749 0004 02AF     		add	r7, sp, #8
 1750              		.cfi_def_cfa 7, 40
 573:main.c        ****     
 574:main.c        ****     // LCD Strings
 575:main.c        ****     char modes[] = "Modes";
 1751              		.loc 1 575 0
 1752 0006 1023     		movs	r3, #16
 1753 0008 FB18     		adds	r3, r7, r3
 1754 000a 5C4A     		ldr	r2, .L67
 1755 000c 1168     		ldr	r1, [r2]
 1756 000e 1960     		str	r1, [r3]
 1757 0010 9288     		ldrh	r2, [r2, #4]
 1758 0012 9A80     		strh	r2, [r3, #4]
 576:main.c        ****     char manual[] = "Manual";
 1759              		.loc 1 576 0
 1760 0014 0823     		movs	r3, #8
 1761 0016 FB18     		adds	r3, r7, r3
 1762 0018 594A     		ldr	r2, .L67+4
 1763 001a 1168     		ldr	r1, [r2]
 1764 001c 1960     		str	r1, [r3]
 1765 001e 9188     		ldrh	r1, [r2, #4]
 1766 0020 9980     		strh	r1, [r3, #4]
 1767 0022 9279     		ldrb	r2, [r2, #6]
 1768 0024 9A71     		strb	r2, [r3, #6]
 577:main.c        ****     char automatic[] = "Auto";
 1769              		.loc 1 577 0
 1770 0026 3B00     		movs	r3, r7
 1771 0028 564A     		ldr	r2, .L67+8
 1772 002a 1168     		ldr	r1, [r2]
 1773 002c 1960     		str	r1, [r3]
ARM GAS  C:\Users\megan\AppData\Local\Temp\ccPHoCT8.s 			page 44


 1774 002e 1279     		ldrb	r2, [r2, #4]
 1775 0030 1A71     		strb	r2, [r3, #4]
 578:main.c        ****     
 579:main.c        ****     int scr_width = 800;
 1776              		.loc 1 579 0
 1777 0032 C823     		movs	r3, #200
 1778 0034 9B00     		lsls	r3, r3, #2
 1779 0036 FB61     		str	r3, [r7, #28]
 580:main.c        ****     int scr_height = 480;
 1780              		.loc 1 580 0
 1781 0038 F023     		movs	r3, #240
 1782 003a 5B00     		lsls	r3, r3, #1
 1783 003c BB61     		str	r3, [r7, #24]
 581:main.c        ****     
 582:main.c        ****     textMode();
 1784              		.loc 1 582 0
 1785 003e FFF7FEFF 		bl	textMode
 583:main.c        **** //    fillRect(20,70,
 584:main.c        **** //            scr_width/3-40,scr_height/2+50,
 585:main.c        **** //            RA8875_BLACK);
 586:main.c        **** //    textEnlarge(3);
 587:main.c        **** //    textTransparent(RA8875_WHITE);
 588:main.c        **** //    textSetCursor(50,70);
 589:main.c        **** //    textWrite(modes,strlen(modes));
 590:main.c        ****     
 591:main.c        ****     fillRect(20,150,
 592:main.c        ****             scr_width/3-40,200,
 1786              		.loc 1 592 0
 1787 0042 FB69     		ldr	r3, [r7, #28]
 1788 0044 0321     		movs	r1, #3
 1789 0046 1800     		movs	r0, r3
 1790 0048 FFF7FEFF 		bl	__aeabi_idiv
 1791 004c 0300     		movs	r3, r0
 591:main.c        ****             scr_width/3-40,200,
 1792              		.loc 1 591 0
 1793 004e 9BB2     		uxth	r3, r3
 1794 0050 283B     		subs	r3, r3, #40
 1795 0052 9BB2     		uxth	r3, r3
 1796 0054 1AB2     		sxth	r2, r3
 1797 0056 0023     		movs	r3, #0
 1798 0058 0093     		str	r3, [sp]
 1799 005a C823     		movs	r3, #200
 1800 005c 9621     		movs	r1, #150
 1801 005e 1420     		movs	r0, #20
 1802 0060 FFF7FEFF 		bl	fillRect
 593:main.c        ****             RA8875_BLACK);
 594:main.c        ****     
 595:main.c        ****     if (settings.mode == MANUAL) {
 1803              		.loc 1 595 0
 1804 0064 484B     		ldr	r3, .L67+12
 1805 0066 1B78     		ldrb	r3, [r3]
 1806 0068 002B     		cmp	r3, #0
 1807 006a 3DD1     		bne	.L65
 596:main.c        ****         fillRect(40,170,
 1808              		.loc 1 596 0
 1809 006c 474B     		ldr	r3, .L67+16
 1810 006e 0093     		str	r3, [sp]
ARM GAS  C:\Users\megan\AppData\Local\Temp\ccPHoCT8.s 			page 45


 1811 0070 3C23     		movs	r3, #60
 1812 0072 B422     		movs	r2, #180
 1813 0074 AA21     		movs	r1, #170
 1814 0076 2820     		movs	r0, #40
 1815 0078 FFF7FEFF 		bl	fillRect
 597:main.c        ****             180,60,
 598:main.c        ****             RA8875_WHITE);
 599:main.c        ****         textEnlarge(2);
 1816              		.loc 1 599 0
 1817 007c 0220     		movs	r0, #2
 1818 007e FFF7FEFF 		bl	textEnlarge
 600:main.c        ****         textTransparent(RA8875_BLACK);
 1819              		.loc 1 600 0
 1820 0082 0020     		movs	r0, #0
 1821 0084 FFF7FEFF 		bl	textTransparent
 601:main.c        ****         textSetCursor(60,175);
 1822              		.loc 1 601 0
 1823 0088 AF21     		movs	r1, #175
 1824 008a 3C20     		movs	r0, #60
 1825 008c FFF7FEFF 		bl	textSetCursor
 602:main.c        ****         textWrite(manual,strlen(manual));
 1826              		.loc 1 602 0
 1827 0090 0823     		movs	r3, #8
 1828 0092 FB18     		adds	r3, r7, r3
 1829 0094 1800     		movs	r0, r3
 1830 0096 FFF7FEFF 		bl	strlen
 1831 009a 0300     		movs	r3, r0
 1832 009c 9AB2     		uxth	r2, r3
 1833 009e 0823     		movs	r3, #8
 1834 00a0 FB18     		adds	r3, r7, r3
 1835 00a2 1100     		movs	r1, r2
 1836 00a4 1800     		movs	r0, r3
 1837 00a6 FFF7FEFF 		bl	textWrite
 603:main.c        ****         drawRect(40,270,
 1838              		.loc 1 603 0
 1839 00aa 8723     		movs	r3, #135
 1840 00ac 5900     		lsls	r1, r3, #1
 1841 00ae 374B     		ldr	r3, .L67+16
 1842 00b0 0093     		str	r3, [sp]
 1843 00b2 3C23     		movs	r3, #60
 1844 00b4 B422     		movs	r2, #180
 1845 00b6 2820     		movs	r0, #40
 1846 00b8 FFF7FEFF 		bl	drawRect
 604:main.c        ****                 180,60,
 605:main.c        ****                 RA8875_WHITE);
 606:main.c        ****         textTransparent(RA8875_WHITE);
 1847              		.loc 1 606 0
 1848 00bc 334B     		ldr	r3, .L67+16
 1849 00be 1800     		movs	r0, r3
 1850 00c0 FFF7FEFF 		bl	textTransparent
 607:main.c        ****         textSetCursor(80,275);
 1851              		.loc 1 607 0
 1852 00c4 1423     		movs	r3, #20
 1853 00c6 FF33     		adds	r3, r3, #255
 1854 00c8 1900     		movs	r1, r3
 1855 00ca 5020     		movs	r0, #80
 1856 00cc FFF7FEFF 		bl	textSetCursor
ARM GAS  C:\Users\megan\AppData\Local\Temp\ccPHoCT8.s 			page 46


 608:main.c        ****         textWrite(automatic,strlen(automatic));
 1857              		.loc 1 608 0
 1858 00d0 3B00     		movs	r3, r7
 1859 00d2 1800     		movs	r0, r3
 1860 00d4 FFF7FEFF 		bl	strlen
 1861 00d8 0300     		movs	r3, r0
 1862 00da 9AB2     		uxth	r2, r3
 1863 00dc 3B00     		movs	r3, r7
 1864 00de 1100     		movs	r1, r2
 1865 00e0 1800     		movs	r0, r3
 1866 00e2 FFF7FEFF 		bl	textWrite
 1867 00e6 40E0     		b	.L66
 1868              	.L65:
 609:main.c        ****     }  
 610:main.c        ****     else if (settings.mode == AUTOMATIC) {
 1869              		.loc 1 610 0
 1870 00e8 274B     		ldr	r3, .L67+12
 1871 00ea 1B78     		ldrb	r3, [r3]
 1872 00ec 012B     		cmp	r3, #1
 1873 00ee 3CD1     		bne	.L66
 611:main.c        ****         drawRect(40,170,
 1874              		.loc 1 611 0
 1875 00f0 264B     		ldr	r3, .L67+16
 1876 00f2 0093     		str	r3, [sp]
 1877 00f4 3C23     		movs	r3, #60
 1878 00f6 B422     		movs	r2, #180
 1879 00f8 AA21     		movs	r1, #170
 1880 00fa 2820     		movs	r0, #40
 1881 00fc FFF7FEFF 		bl	drawRect
 612:main.c        ****             180,60,
 613:main.c        ****             RA8875_WHITE);
 614:main.c        ****         textEnlarge(2);
 1882              		.loc 1 614 0
 1883 0100 0220     		movs	r0, #2
 1884 0102 FFF7FEFF 		bl	textEnlarge
 615:main.c        ****         textTransparent(RA8875_WHITE);
 1885              		.loc 1 615 0
 1886 0106 214B     		ldr	r3, .L67+16
 1887 0108 1800     		movs	r0, r3
 1888 010a FFF7FEFF 		bl	textTransparent
 616:main.c        ****         textSetCursor(60,175);
 1889              		.loc 1 616 0
 1890 010e AF21     		movs	r1, #175
 1891 0110 3C20     		movs	r0, #60
 1892 0112 FFF7FEFF 		bl	textSetCursor
 617:main.c        ****         textWrite(manual,strlen(manual));
 1893              		.loc 1 617 0
 1894 0116 0823     		movs	r3, #8
 1895 0118 FB18     		adds	r3, r7, r3
 1896 011a 1800     		movs	r0, r3
 1897 011c FFF7FEFF 		bl	strlen
 1898 0120 0300     		movs	r3, r0
 1899 0122 9AB2     		uxth	r2, r3
 1900 0124 0823     		movs	r3, #8
 1901 0126 FB18     		adds	r3, r7, r3
 1902 0128 1100     		movs	r1, r2
 1903 012a 1800     		movs	r0, r3
ARM GAS  C:\Users\megan\AppData\Local\Temp\ccPHoCT8.s 			page 47


 1904 012c FFF7FEFF 		bl	textWrite
 618:main.c        ****         fillRect(40,270,
 1905              		.loc 1 618 0
 1906 0130 8723     		movs	r3, #135
 1907 0132 5900     		lsls	r1, r3, #1
 1908 0134 154B     		ldr	r3, .L67+16
 1909 0136 0093     		str	r3, [sp]
 1910 0138 3C23     		movs	r3, #60
 1911 013a B422     		movs	r2, #180
 1912 013c 2820     		movs	r0, #40
 1913 013e FFF7FEFF 		bl	fillRect
 619:main.c        ****                 180,60,
 620:main.c        ****                 RA8875_WHITE);
 621:main.c        ****         textTransparent(RA8875_BLACK);
 1914              		.loc 1 621 0
 1915 0142 0020     		movs	r0, #0
 1916 0144 FFF7FEFF 		bl	textTransparent
 622:main.c        ****         textSetCursor(80,275);
 1917              		.loc 1 622 0
 1918 0148 1423     		movs	r3, #20
 1919 014a FF33     		adds	r3, r3, #255
 1920 014c 1900     		movs	r1, r3
 1921 014e 5020     		movs	r0, #80
 1922 0150 FFF7FEFF 		bl	textSetCursor
 623:main.c        ****         textWrite(automatic,strlen(automatic));
 1923              		.loc 1 623 0
 1924 0154 3B00     		movs	r3, r7
 1925 0156 1800     		movs	r0, r3
 1926 0158 FFF7FEFF 		bl	strlen
 1927 015c 0300     		movs	r3, r0
 1928 015e 9AB2     		uxth	r2, r3
 1929 0160 3B00     		movs	r3, r7
 1930 0162 1100     		movs	r1, r2
 1931 0164 1800     		movs	r0, r3
 1932 0166 FFF7FEFF 		bl	textWrite
 1933              	.L66:
 624:main.c        ****     }
 625:main.c        ****     GUIUpdateControls();
 1934              		.loc 1 625 0
 1935 016a FFF7FEFF 		bl	GUIUpdateControls
 626:main.c        ****     graphicsMode();
 1936              		.loc 1 626 0
 1937 016e FFF7FEFF 		bl	graphicsMode
 627:main.c        **** }
 1938              		.loc 1 627 0
 1939 0172 C046     		nop
 1940 0174 BD46     		mov	sp, r7
 1941 0176 08B0     		add	sp, sp, #32
 1942              		@ sp needed
 1943 0178 80BD     		pop	{r7, pc}
 1944              	.L68:
 1945 017a C046     		.align	2
 1946              	.L67:
 1947 017c 1C010000 		.word	.LC45
 1948 0180 24010000 		.word	.LC47
 1949 0184 2C010000 		.word	.LC49
 1950 0188 00000000 		.word	settings
ARM GAS  C:\Users\megan\AppData\Local\Temp\ccPHoCT8.s 			page 48


 1951 018c FFFF0000 		.word	65535
 1952              		.cfi_endproc
 1953              	.LFE44:
 1954              		.size	GUIUpdateMode, .-GUIUpdateMode
 1955              		.section	.text.GUIUpdateBin1ActualTemp,"ax",%progbits
 1956              		.align	2
 1957              		.global	GUIUpdateBin1ActualTemp
 1958              		.code	16
 1959              		.thumb_func
 1960              		.type	GUIUpdateBin1ActualTemp, %function
 1961              	GUIUpdateBin1ActualTemp:
 1962              	.LFB45:
 628:main.c        **** 
 629:main.c        **** void GUIUpdateBin1ActualTemp() {
 1963              		.loc 1 629 0
 1964              		.cfi_startproc
 1965              		@ args = 0, pretend = 0, frame = 8
 1966              		@ frame_needed = 1, uses_anonymous_args = 0
 1967 0000 80B5     		push	{r7, lr}
 1968              		.cfi_def_cfa_offset 8
 1969              		.cfi_offset 7, -8
 1970              		.cfi_offset 14, -4
 1971 0002 82B0     		sub	sp, sp, #8
 1972              		.cfi_def_cfa_offset 16
 1973 0004 00AF     		add	r7, sp, #0
 1974              		.cfi_def_cfa_register 7
 630:main.c        ****     
 631:main.c        ****     char space[] = " ";
 1975              		.loc 1 631 0
 1976 0006 3B00     		movs	r3, r7
 1977 0008 2022     		movs	r2, #32
 1978 000a 1A80     		strh	r2, [r3]
 632:main.c        ****     int scr_width = 800;
 1979              		.loc 1 632 0
 1980 000c C823     		movs	r3, #200
 1981 000e 9B00     		lsls	r3, r3, #2
 1982 0010 7B60     		str	r3, [r7, #4]
 633:main.c        ****     
 634:main.c        ****     textMode();
 1983              		.loc 1 634 0
 1984 0012 FFF7FEFF 		bl	textMode
 635:main.c        ****     textEnlarge(4);
 1985              		.loc 1 635 0
 1986 0016 0420     		movs	r0, #4
 1987 0018 FFF7FEFF 		bl	textEnlarge
 636:main.c        ****     textColor(RA8875_BLACK,RA8875_RED);
 1988              		.loc 1 636 0
 1989 001c F823     		movs	r3, #248
 1990 001e 1B02     		lsls	r3, r3, #8
 1991 0020 1900     		movs	r1, r3
 1992 0022 0020     		movs	r0, #0
 1993 0024 FFF7FEFF 		bl	textColor
 637:main.c        ****     textSetCursor(2*scr_width/3+50,170);
 1994              		.loc 1 637 0
 1995 0028 7B68     		ldr	r3, [r7, #4]
 1996 002a 5B00     		lsls	r3, r3, #1
 1997 002c 0321     		movs	r1, #3
ARM GAS  C:\Users\megan\AppData\Local\Temp\ccPHoCT8.s 			page 49


 1998 002e 1800     		movs	r0, r3
 1999 0030 FFF7FEFF 		bl	__aeabi_idiv
 2000 0034 0300     		movs	r3, r0
 2001 0036 9BB2     		uxth	r3, r3
 2002 0038 3233     		adds	r3, r3, #50
 2003 003a 9BB2     		uxth	r3, r3
 2004 003c AA21     		movs	r1, #170
 2005 003e 1800     		movs	r0, r3
 2006 0040 FFF7FEFF 		bl	textSetCursor
 638:main.c        ****     PrintFloat(bin1.actual_temp);
 2007              		.loc 1 638 0
 2008 0044 0A4B     		ldr	r3, .L70
 2009 0046 1B68     		ldr	r3, [r3]
 2010 0048 181C     		adds	r0, r3, #0
 2011 004a FFF7FEFF 		bl	PrintFloat
 639:main.c        ****     textWrite(space,strlen(space));
 2012              		.loc 1 639 0
 2013 004e 3B00     		movs	r3, r7
 2014 0050 1800     		movs	r0, r3
 2015 0052 FFF7FEFF 		bl	strlen
 2016 0056 0300     		movs	r3, r0
 2017 0058 9AB2     		uxth	r2, r3
 2018 005a 3B00     		movs	r3, r7
 2019 005c 1100     		movs	r1, r2
 2020 005e 1800     		movs	r0, r3
 2021 0060 FFF7FEFF 		bl	textWrite
 640:main.c        ****     graphicsMode();
 2022              		.loc 1 640 0
 2023 0064 FFF7FEFF 		bl	graphicsMode
 641:main.c        **** }
 2024              		.loc 1 641 0
 2025 0068 C046     		nop
 2026 006a BD46     		mov	sp, r7
 2027 006c 02B0     		add	sp, sp, #8
 2028              		@ sp needed
 2029 006e 80BD     		pop	{r7, pc}
 2030              	.L71:
 2031              		.align	2
 2032              	.L70:
 2033 0070 00000000 		.word	bin1
 2034              		.cfi_endproc
 2035              	.LFE45:
 2036              		.size	GUIUpdateBin1ActualTemp, .-GUIUpdateBin1ActualTemp
 2037              		.section	.text.GUIUpdateOutsideTemp,"ax",%progbits
 2038              		.align	2
 2039              		.global	GUIUpdateOutsideTemp
 2040              		.code	16
 2041              		.thumb_func
 2042              		.type	GUIUpdateOutsideTemp, %function
 2043              	GUIUpdateOutsideTemp:
 2044              	.LFB46:
 642:main.c        **** 
 643:main.c        **** void GUIUpdateOutsideTemp() {
 2045              		.loc 1 643 0
 2046              		.cfi_startproc
 2047              		@ args = 0, pretend = 0, frame = 8
 2048              		@ frame_needed = 1, uses_anonymous_args = 0
ARM GAS  C:\Users\megan\AppData\Local\Temp\ccPHoCT8.s 			page 50


 2049 0000 80B5     		push	{r7, lr}
 2050              		.cfi_def_cfa_offset 8
 2051              		.cfi_offset 7, -8
 2052              		.cfi_offset 14, -4
 2053 0002 82B0     		sub	sp, sp, #8
 2054              		.cfi_def_cfa_offset 16
 2055 0004 00AF     		add	r7, sp, #0
 2056              		.cfi_def_cfa_register 7
 644:main.c        ****     
 645:main.c        ****     char space[] = " ";
 2057              		.loc 1 645 0
 2058 0006 3B00     		movs	r3, r7
 2059 0008 2022     		movs	r2, #32
 2060 000a 1A80     		strh	r2, [r3]
 646:main.c        ****     int scr_width = 800;
 2061              		.loc 1 646 0
 2062 000c C823     		movs	r3, #200
 2063 000e 9B00     		lsls	r3, r3, #2
 2064 0010 7B60     		str	r3, [r7, #4]
 647:main.c        **** 
 648:main.c        ****     
 649:main.c        ****     textMode();
 2065              		.loc 1 649 0
 2066 0012 FFF7FEFF 		bl	textMode
 650:main.c        ****     textEnlarge(4);
 2067              		.loc 1 650 0
 2068 0016 0420     		movs	r0, #4
 2069 0018 FFF7FEFF 		bl	textEnlarge
 651:main.c        ****     textColor(RA8875_BLACK,RA8875_CYAN);
 2070              		.loc 1 651 0
 2071 001c 134B     		ldr	r3, .L73
 2072 001e 1900     		movs	r1, r3
 2073 0020 0020     		movs	r0, #0
 2074 0022 FFF7FEFF 		bl	textColor
 652:main.c        ****     textSetCursor(scr_width/3+50,170);
 2075              		.loc 1 652 0
 2076 0026 7B68     		ldr	r3, [r7, #4]
 2077 0028 0321     		movs	r1, #3
 2078 002a 1800     		movs	r0, r3
 2079 002c FFF7FEFF 		bl	__aeabi_idiv
 2080 0030 0300     		movs	r3, r0
 2081 0032 9BB2     		uxth	r3, r3
 2082 0034 3233     		adds	r3, r3, #50
 2083 0036 9BB2     		uxth	r3, r3
 2084 0038 AA21     		movs	r1, #170
 2085 003a 1800     		movs	r0, r3
 2086 003c FFF7FEFF 		bl	textSetCursor
 653:main.c        ****     PrintFloat(outside.temp);
 2087              		.loc 1 653 0
 2088 0040 0B4B     		ldr	r3, .L73+4
 2089 0042 1B68     		ldr	r3, [r3]
 2090 0044 181C     		adds	r0, r3, #0
 2091 0046 FFF7FEFF 		bl	PrintFloat
 654:main.c        ****     textWrite(space,strlen(space));
 2092              		.loc 1 654 0
 2093 004a 3B00     		movs	r3, r7
 2094 004c 1800     		movs	r0, r3
ARM GAS  C:\Users\megan\AppData\Local\Temp\ccPHoCT8.s 			page 51


 2095 004e FFF7FEFF 		bl	strlen
 2096 0052 0300     		movs	r3, r0
 2097 0054 9AB2     		uxth	r2, r3
 2098 0056 3B00     		movs	r3, r7
 2099 0058 1100     		movs	r1, r2
 2100 005a 1800     		movs	r0, r3
 2101 005c FFF7FEFF 		bl	textWrite
 655:main.c        ****     graphicsMode();
 2102              		.loc 1 655 0
 2103 0060 FFF7FEFF 		bl	graphicsMode
 656:main.c        **** }
 2104              		.loc 1 656 0
 2105 0064 C046     		nop
 2106 0066 BD46     		mov	sp, r7
 2107 0068 02B0     		add	sp, sp, #8
 2108              		@ sp needed
 2109 006a 80BD     		pop	{r7, pc}
 2110              	.L74:
 2111              		.align	2
 2112              	.L73:
 2113 006c FF070000 		.word	2047
 2114 0070 00000000 		.word	outside
 2115              		.cfi_endproc
 2116              	.LFE46:
 2117              		.size	GUIUpdateOutsideTemp, .-GUIUpdateOutsideTemp
 2118              		.global	__aeabi_ui2f
 2119              		.section	.rodata
 2120 014b 00       		.align	2
 2121              	.LC63:
 2122 014c 4F4E00   		.ascii	"ON\000"
 2123 014f 00       		.align	2
 2124              	.LC65:
 2125 0150 46616E73 		.ascii	"Fans\000"
 2125      00
 2126              		.section	.text.GUIUpdateControls,"ax",%progbits
 2127              		.align	2
 2128              		.global	GUIUpdateControls
 2129              		.code	16
 2130              		.thumb_func
 2131              		.type	GUIUpdateControls, %function
 2132              	GUIUpdateControls:
 2133              	.LFB47:
 657:main.c        **** 
 658:main.c        **** void GUIUpdateControls() {
 2134              		.loc 1 658 0
 2135              		.cfi_startproc
 2136              		@ args = 0, pretend = 0, frame = 32
 2137              		@ frame_needed = 1, uses_anonymous_args = 0
 2138 0000 F0B5     		push	{r4, r5, r6, r7, lr}
 2139              		.cfi_def_cfa_offset 20
 2140              		.cfi_offset 4, -20
 2141              		.cfi_offset 5, -16
 2142              		.cfi_offset 6, -12
 2143              		.cfi_offset 7, -8
 2144              		.cfi_offset 14, -4
 2145 0002 4746     		mov	r7, r8
 2146 0004 80B4     		push	{r7}
ARM GAS  C:\Users\megan\AppData\Local\Temp\ccPHoCT8.s 			page 52


 2147              		.cfi_def_cfa_offset 24
 2148              		.cfi_offset 8, -24
 2149 0006 8CB0     		sub	sp, sp, #48
 2150              		.cfi_def_cfa_offset 72
 2151 0008 04AF     		add	r7, sp, #16
 2152              		.cfi_def_cfa 7, 56
 659:main.c        ****     
 660:main.c        ****     // LCD Strings
 661:main.c        ****     char on[] = "ON";
 2153              		.loc 1 661 0
 2154 000a 1423     		movs	r3, #20
 2155 000c FB18     		adds	r3, r7, r3
 2156 000e C24A     		ldr	r2, .L101
 2157 0010 1188     		ldrh	r1, [r2]
 2158 0012 1980     		strh	r1, [r3]
 2159 0014 9278     		ldrb	r2, [r2, #2]
 2160 0016 9A70     		strb	r2, [r3, #2]
 662:main.c        ****     char off[] = "OFF";
 2161              		.loc 1 662 0
 2162 0018 1023     		movs	r3, #16
 2163 001a FB18     		adds	r3, r7, r3
 2164 001c BF4A     		ldr	r2, .L101+4
 2165 001e 1A60     		str	r2, [r3]
 663:main.c        ****     char fans[] = "Fans";
 2166              		.loc 1 663 0
 2167 0020 0823     		movs	r3, #8
 2168 0022 FB18     		adds	r3, r7, r3
 2169 0024 BE4A     		ldr	r2, .L101+8
 2170 0026 1168     		ldr	r1, [r2]
 2171 0028 1960     		str	r1, [r3]
 2172 002a 1279     		ldrb	r2, [r2, #4]
 2173 002c 1A71     		strb	r2, [r3, #4]
 664:main.c        ****     char set[] = "Set";
 2174              		.loc 1 664 0
 2175 002e 3B1D     		adds	r3, r7, #4
 2176 0030 BC4A     		ldr	r2, .L101+12
 2177 0032 1A60     		str	r2, [r3]
 665:main.c        ****     
 666:main.c        ****     int scr_width = 800;
 2178              		.loc 1 666 0
 2179 0034 C823     		movs	r3, #200
 2180 0036 9B00     		lsls	r3, r3, #2
 2181 0038 FB61     		str	r3, [r7, #28]
 667:main.c        ****     int scr_height = 480;
 2182              		.loc 1 667 0
 2183 003a F023     		movs	r3, #240
 2184 003c 5B00     		lsls	r3, r3, #1
 2185 003e BB61     		str	r3, [r7, #24]
 668:main.c        ****     
 669:main.c        ****     
 670:main.c        ****     textMode();
 2186              		.loc 1 670 0
 2187 0040 FFF7FEFF 		bl	textMode
 671:main.c        ****     
 672:main.c        ****     // Controls
 673:main.c        ****     fillRect(scr_width/3-20,scr_height/2+120,
 2188              		.loc 1 673 0
ARM GAS  C:\Users\megan\AppData\Local\Temp\ccPHoCT8.s 			page 53


 2189 0044 FB69     		ldr	r3, [r7, #28]
 2190 0046 0321     		movs	r1, #3
 2191 0048 1800     		movs	r0, r3
 2192 004a FFF7FEFF 		bl	__aeabi_idiv
 2193 004e 0300     		movs	r3, r0
 2194 0050 9BB2     		uxth	r3, r3
 2195 0052 143B     		subs	r3, r3, #20
 2196 0054 9BB2     		uxth	r3, r3
 2197 0056 1CB2     		sxth	r4, r3
 2198 0058 BB69     		ldr	r3, [r7, #24]
 2199 005a 002B     		cmp	r3, #0
 2200 005c 00DA     		bge	.L76
 2201 005e 0133     		adds	r3, r3, #1
 2202              	.L76:
 2203 0060 5B10     		asrs	r3, r3, #1
 2204 0062 9BB2     		uxth	r3, r3
 2205 0064 7833     		adds	r3, r3, #120
 2206 0066 9BB2     		uxth	r3, r3
 2207 0068 1DB2     		sxth	r5, r3
 674:main.c        ****             2*scr_width/3,scr_height/2-140,
 2208              		.loc 1 674 0
 2209 006a FB69     		ldr	r3, [r7, #28]
 2210 006c 5B00     		lsls	r3, r3, #1
 2211 006e 0321     		movs	r1, #3
 2212 0070 1800     		movs	r0, r3
 2213 0072 FFF7FEFF 		bl	__aeabi_idiv
 2214 0076 0300     		movs	r3, r0
 673:main.c        ****             2*scr_width/3,scr_height/2-140,
 2215              		.loc 1 673 0
 2216 0078 1AB2     		sxth	r2, r3
 2217              		.loc 1 674 0
 2218 007a BB69     		ldr	r3, [r7, #24]
 2219 007c 002B     		cmp	r3, #0
 2220 007e 00DA     		bge	.L77
 2221 0080 0133     		adds	r3, r3, #1
 2222              	.L77:
 2223 0082 5B10     		asrs	r3, r3, #1
 673:main.c        ****             2*scr_width/3,scr_height/2-140,
 2224              		.loc 1 673 0
 2225 0084 9BB2     		uxth	r3, r3
 2226 0086 8C3B     		subs	r3, r3, #140
 2227 0088 9BB2     		uxth	r3, r3
 2228 008a 19B2     		sxth	r1, r3
 2229 008c A64B     		ldr	r3, .L101+16
 2230 008e 0093     		str	r3, [sp]
 2231 0090 0B00     		movs	r3, r1
 2232 0092 2900     		movs	r1, r5
 2233 0094 2000     		movs	r0, r4
 2234 0096 FFF7FEFF 		bl	fillRect
 675:main.c        ****             RA8875_YELLOW); 
 676:main.c        ****     
 677:main.c        ****     if (settings.mode == MANUAL) {
 2235              		.loc 1 677 0
 2236 009a A44B     		ldr	r3, .L101+20
 2237 009c 1B78     		ldrb	r3, [r3]
 2238 009e 002B     		cmp	r3, #0
 2239 00a0 00D0     		beq	.LCB1799
ARM GAS  C:\Users\megan\AppData\Local\Temp\ccPHoCT8.s 			page 54


 2240 00a2 47E1     		b	.L78	@long jump
 2241              	.LCB1799:
 678:main.c        ****         textEnlarge(3);
 2242              		.loc 1 678 0
 2243 00a4 0320     		movs	r0, #3
 2244 00a6 FFF7FEFF 		bl	textEnlarge
 679:main.c        ****         textTransparent(RA8875_BLACK);
 2245              		.loc 1 679 0
 2246 00aa 0020     		movs	r0, #0
 2247 00ac FFF7FEFF 		bl	textTransparent
 680:main.c        ****         textSetCursor(scr_width/3+10,scr_height/2+135);
 2248              		.loc 1 680 0
 2249 00b0 FB69     		ldr	r3, [r7, #28]
 2250 00b2 0321     		movs	r1, #3
 2251 00b4 1800     		movs	r0, r3
 2252 00b6 FFF7FEFF 		bl	__aeabi_idiv
 2253 00ba 0300     		movs	r3, r0
 2254 00bc 9BB2     		uxth	r3, r3
 2255 00be 0A33     		adds	r3, r3, #10
 2256 00c0 9AB2     		uxth	r2, r3
 2257 00c2 BB69     		ldr	r3, [r7, #24]
 2258 00c4 002B     		cmp	r3, #0
 2259 00c6 00DA     		bge	.L79
 2260 00c8 0133     		adds	r3, r3, #1
 2261              	.L79:
 2262 00ca 5B10     		asrs	r3, r3, #1
 2263 00cc 9BB2     		uxth	r3, r3
 2264 00ce 8733     		adds	r3, r3, #135
 2265 00d0 9BB2     		uxth	r3, r3
 2266 00d2 1900     		movs	r1, r3
 2267 00d4 1000     		movs	r0, r2
 2268 00d6 FFF7FEFF 		bl	textSetCursor
 681:main.c        ****         textWrite(fans,strlen(fans));
 2269              		.loc 1 681 0
 2270 00da 0823     		movs	r3, #8
 2271 00dc FB18     		adds	r3, r7, r3
 2272 00de 1800     		movs	r0, r3
 2273 00e0 FFF7FEFF 		bl	strlen
 2274 00e4 0300     		movs	r3, r0
 2275 00e6 9AB2     		uxth	r2, r3
 2276 00e8 0823     		movs	r3, #8
 2277 00ea FB18     		adds	r3, r7, r3
 2278 00ec 1100     		movs	r1, r2
 2279 00ee 1800     		movs	r0, r3
 2280 00f0 FFF7FEFF 		bl	textWrite
 682:main.c        ****         if (bin1.fan_on == false) {
 2281              		.loc 1 682 0
 2282 00f4 8E4B     		ldr	r3, .L101+24
 2283 00f6 5B79     		ldrb	r3, [r3, #5]
 2284 00f8 002B     		cmp	r3, #0
 2285 00fa 00D0     		beq	.LCB1839
 2286 00fc 85E0     		b	.L80	@long jump
 2287              	.LCB1839:
 683:main.c        ****             fillRect(scr_width/3+180,scr_height/2+135,
 2288              		.loc 1 683 0
 2289 00fe FB69     		ldr	r3, [r7, #28]
 2290 0100 0321     		movs	r1, #3
ARM GAS  C:\Users\megan\AppData\Local\Temp\ccPHoCT8.s 			page 55


 2291 0102 1800     		movs	r0, r3
 2292 0104 FFF7FEFF 		bl	__aeabi_idiv
 2293 0108 0300     		movs	r3, r0
 2294 010a 9BB2     		uxth	r3, r3
 2295 010c B433     		adds	r3, r3, #180
 2296 010e 9BB2     		uxth	r3, r3
 2297 0110 18B2     		sxth	r0, r3
 2298 0112 BB69     		ldr	r3, [r7, #24]
 2299 0114 002B     		cmp	r3, #0
 2300 0116 00DA     		bge	.L81
 2301 0118 0133     		adds	r3, r3, #1
 2302              	.L81:
 2303 011a 5B10     		asrs	r3, r3, #1
 2304 011c 9BB2     		uxth	r3, r3
 2305 011e 8733     		adds	r3, r3, #135
 2306 0120 9BB2     		uxth	r3, r3
 2307 0122 19B2     		sxth	r1, r3
 2308 0124 0023     		movs	r3, #0
 2309 0126 0093     		str	r3, [sp]
 2310 0128 4623     		movs	r3, #70
 2311 012a 7822     		movs	r2, #120
 2312 012c FFF7FEFF 		bl	fillRect
 684:main.c        ****                     120,70,
 685:main.c        ****                     RA8875_BLACK);
 686:main.c        ****             textEnlarge(3);
 2313              		.loc 1 686 0
 2314 0130 0320     		movs	r0, #3
 2315 0132 FFF7FEFF 		bl	textEnlarge
 687:main.c        ****             textTransparent(RA8875_YELLOW);
 2316              		.loc 1 687 0
 2317 0136 7C4B     		ldr	r3, .L101+16
 2318 0138 1800     		movs	r0, r3
 2319 013a FFF7FEFF 		bl	textTransparent
 688:main.c        ****             textSetCursor(scr_width/3+195,scr_height/2+135);
 2320              		.loc 1 688 0
 2321 013e FB69     		ldr	r3, [r7, #28]
 2322 0140 0321     		movs	r1, #3
 2323 0142 1800     		movs	r0, r3
 2324 0144 FFF7FEFF 		bl	__aeabi_idiv
 2325 0148 0300     		movs	r3, r0
 2326 014a 9BB2     		uxth	r3, r3
 2327 014c C333     		adds	r3, r3, #195
 2328 014e 9AB2     		uxth	r2, r3
 2329 0150 BB69     		ldr	r3, [r7, #24]
 2330 0152 002B     		cmp	r3, #0
 2331 0154 00DA     		bge	.L82
 2332 0156 0133     		adds	r3, r3, #1
 2333              	.L82:
 2334 0158 5B10     		asrs	r3, r3, #1
 2335 015a 9BB2     		uxth	r3, r3
 2336 015c 8733     		adds	r3, r3, #135
 2337 015e 9BB2     		uxth	r3, r3
 2338 0160 1900     		movs	r1, r3
 2339 0162 1000     		movs	r0, r2
 2340 0164 FFF7FEFF 		bl	textSetCursor
 689:main.c        ****             textWrite(off,strlen(off));
 2341              		.loc 1 689 0
ARM GAS  C:\Users\megan\AppData\Local\Temp\ccPHoCT8.s 			page 56


 2342 0168 1023     		movs	r3, #16
 2343 016a FB18     		adds	r3, r7, r3
 2344 016c 1800     		movs	r0, r3
 2345 016e FFF7FEFF 		bl	strlen
 2346 0172 0300     		movs	r3, r0
 2347 0174 9AB2     		uxth	r2, r3
 2348 0176 1023     		movs	r3, #16
 2349 0178 FB18     		adds	r3, r7, r3
 2350 017a 1100     		movs	r1, r2
 2351 017c 1800     		movs	r0, r3
 2352 017e FFF7FEFF 		bl	textWrite
 690:main.c        ****             
 691:main.c        ****             drawRect(2*scr_width/3+80,scr_height/2+135,
 2353              		.loc 1 691 0
 2354 0182 FB69     		ldr	r3, [r7, #28]
 2355 0184 5B00     		lsls	r3, r3, #1
 2356 0186 0321     		movs	r1, #3
 2357 0188 1800     		movs	r0, r3
 2358 018a FFF7FEFF 		bl	__aeabi_idiv
 2359 018e 0300     		movs	r3, r0
 2360 0190 9BB2     		uxth	r3, r3
 2361 0192 5033     		adds	r3, r3, #80
 2362 0194 9BB2     		uxth	r3, r3
 2363 0196 18B2     		sxth	r0, r3
 2364 0198 BB69     		ldr	r3, [r7, #24]
 2365 019a 002B     		cmp	r3, #0
 2366 019c 00DA     		bge	.L83
 2367 019e 0133     		adds	r3, r3, #1
 2368              	.L83:
 2369 01a0 5B10     		asrs	r3, r3, #1
 2370 01a2 9BB2     		uxth	r3, r3
 2371 01a4 8733     		adds	r3, r3, #135
 2372 01a6 9BB2     		uxth	r3, r3
 2373 01a8 19B2     		sxth	r1, r3
 2374 01aa 0023     		movs	r3, #0
 2375 01ac 0093     		str	r3, [sp]
 2376 01ae 4623     		movs	r3, #70
 2377 01b0 7822     		movs	r2, #120
 2378 01b2 FFF7FEFF 		bl	drawRect
 692:main.c        ****                     120,70,
 693:main.c        ****                     RA8875_BLACK);
 694:main.c        ****             textEnlarge(3);
 2379              		.loc 1 694 0
 2380 01b6 0320     		movs	r0, #3
 2381 01b8 FFF7FEFF 		bl	textEnlarge
 695:main.c        ****             textTransparent(RA8875_BLACK);
 2382              		.loc 1 695 0
 2383 01bc 0020     		movs	r0, #0
 2384 01be FFF7FEFF 		bl	textTransparent
 696:main.c        ****             textSetCursor(2*scr_width/3+110,scr_height/2+135);
 2385              		.loc 1 696 0
 2386 01c2 FB69     		ldr	r3, [r7, #28]
 2387 01c4 5B00     		lsls	r3, r3, #1
 2388 01c6 0321     		movs	r1, #3
 2389 01c8 1800     		movs	r0, r3
 2390 01ca FFF7FEFF 		bl	__aeabi_idiv
 2391 01ce 0300     		movs	r3, r0
ARM GAS  C:\Users\megan\AppData\Local\Temp\ccPHoCT8.s 			page 57


 2392 01d0 9BB2     		uxth	r3, r3
 2393 01d2 6E33     		adds	r3, r3, #110
 2394 01d4 9AB2     		uxth	r2, r3
 2395 01d6 BB69     		ldr	r3, [r7, #24]
 2396 01d8 002B     		cmp	r3, #0
 2397 01da 00DA     		bge	.L84
 2398 01dc 0133     		adds	r3, r3, #1
 2399              	.L84:
 2400 01de 5B10     		asrs	r3, r3, #1
 2401 01e0 9BB2     		uxth	r3, r3
 2402 01e2 8733     		adds	r3, r3, #135
 2403 01e4 9BB2     		uxth	r3, r3
 2404 01e6 1900     		movs	r1, r3
 2405 01e8 1000     		movs	r0, r2
 2406 01ea FFF7FEFF 		bl	textSetCursor
 697:main.c        ****             textWrite(on,strlen(on));
 2407              		.loc 1 697 0
 2408 01ee 1423     		movs	r3, #20
 2409 01f0 FB18     		adds	r3, r7, r3
 2410 01f2 1800     		movs	r0, r3
 2411 01f4 FFF7FEFF 		bl	strlen
 2412 01f8 0300     		movs	r3, r0
 2413 01fa 9AB2     		uxth	r2, r3
 2414 01fc 1423     		movs	r3, #20
 2415 01fe FB18     		adds	r3, r7, r3
 2416 0200 1100     		movs	r1, r2
 2417 0202 1800     		movs	r0, r3
 2418 0204 FFF7FEFF 		bl	textWrite
 2419 0208 9BE1     		b	.L90
 2420              	.L80:
 698:main.c        ****         } else {
 699:main.c        ****             drawRect(scr_width/3+180,scr_height/2+135,
 2421              		.loc 1 699 0
 2422 020a FB69     		ldr	r3, [r7, #28]
 2423 020c 0321     		movs	r1, #3
 2424 020e 1800     		movs	r0, r3
 2425 0210 FFF7FEFF 		bl	__aeabi_idiv
 2426 0214 0300     		movs	r3, r0
 2427 0216 9BB2     		uxth	r3, r3
 2428 0218 B433     		adds	r3, r3, #180
 2429 021a 9BB2     		uxth	r3, r3
 2430 021c 18B2     		sxth	r0, r3
 2431 021e BB69     		ldr	r3, [r7, #24]
 2432 0220 002B     		cmp	r3, #0
 2433 0222 00DA     		bge	.L86
 2434 0224 0133     		adds	r3, r3, #1
 2435              	.L86:
 2436 0226 5B10     		asrs	r3, r3, #1
 2437 0228 9BB2     		uxth	r3, r3
 2438 022a 8733     		adds	r3, r3, #135
 2439 022c 9BB2     		uxth	r3, r3
 2440 022e 19B2     		sxth	r1, r3
 2441 0230 0023     		movs	r3, #0
 2442 0232 0093     		str	r3, [sp]
 2443 0234 4623     		movs	r3, #70
 2444 0236 7822     		movs	r2, #120
 2445 0238 FFF7FEFF 		bl	drawRect
ARM GAS  C:\Users\megan\AppData\Local\Temp\ccPHoCT8.s 			page 58


 700:main.c        ****                     120,70,
 701:main.c        ****                     RA8875_BLACK);
 702:main.c        ****             textEnlarge(3);
 2446              		.loc 1 702 0
 2447 023c 0320     		movs	r0, #3
 2448 023e FFF7FEFF 		bl	textEnlarge
 703:main.c        ****             textTransparent(RA8875_BLACK);
 2449              		.loc 1 703 0
 2450 0242 0020     		movs	r0, #0
 2451 0244 FFF7FEFF 		bl	textTransparent
 704:main.c        ****             textSetCursor(scr_width/3+195,scr_height/2+135);
 2452              		.loc 1 704 0
 2453 0248 FB69     		ldr	r3, [r7, #28]
 2454 024a 0321     		movs	r1, #3
 2455 024c 1800     		movs	r0, r3
 2456 024e FFF7FEFF 		bl	__aeabi_idiv
 2457 0252 0300     		movs	r3, r0
 2458 0254 9BB2     		uxth	r3, r3
 2459 0256 C333     		adds	r3, r3, #195
 2460 0258 9AB2     		uxth	r2, r3
 2461 025a BB69     		ldr	r3, [r7, #24]
 2462 025c 002B     		cmp	r3, #0
 2463 025e 00DA     		bge	.L87
 2464 0260 0133     		adds	r3, r3, #1
 2465              	.L87:
 2466 0262 5B10     		asrs	r3, r3, #1
 2467 0264 9BB2     		uxth	r3, r3
 2468 0266 8733     		adds	r3, r3, #135
 2469 0268 9BB2     		uxth	r3, r3
 2470 026a 1900     		movs	r1, r3
 2471 026c 1000     		movs	r0, r2
 2472 026e FFF7FEFF 		bl	textSetCursor
 705:main.c        ****             textWrite(off,strlen(off));
 2473              		.loc 1 705 0
 2474 0272 1023     		movs	r3, #16
 2475 0274 FB18     		adds	r3, r7, r3
 2476 0276 1800     		movs	r0, r3
 2477 0278 FFF7FEFF 		bl	strlen
 2478 027c 0300     		movs	r3, r0
 2479 027e 9AB2     		uxth	r2, r3
 2480 0280 1023     		movs	r3, #16
 2481 0282 FB18     		adds	r3, r7, r3
 2482 0284 1100     		movs	r1, r2
 2483 0286 1800     		movs	r0, r3
 2484 0288 FFF7FEFF 		bl	textWrite
 706:main.c        ****             
 707:main.c        ****             fillRect(2*scr_width/3+80,scr_height/2+135,
 2485              		.loc 1 707 0
 2486 028c FB69     		ldr	r3, [r7, #28]
 2487 028e 5B00     		lsls	r3, r3, #1
 2488 0290 0321     		movs	r1, #3
 2489 0292 1800     		movs	r0, r3
 2490 0294 FFF7FEFF 		bl	__aeabi_idiv
 2491 0298 0300     		movs	r3, r0
 2492 029a 9BB2     		uxth	r3, r3
 2493 029c 5033     		adds	r3, r3, #80
 2494 029e 9BB2     		uxth	r3, r3
ARM GAS  C:\Users\megan\AppData\Local\Temp\ccPHoCT8.s 			page 59


 2495 02a0 18B2     		sxth	r0, r3
 2496 02a2 BB69     		ldr	r3, [r7, #24]
 2497 02a4 002B     		cmp	r3, #0
 2498 02a6 00DA     		bge	.L88
 2499 02a8 0133     		adds	r3, r3, #1
 2500              	.L88:
 2501 02aa 5B10     		asrs	r3, r3, #1
 2502 02ac 9BB2     		uxth	r3, r3
 2503 02ae 8733     		adds	r3, r3, #135
 2504 02b0 9BB2     		uxth	r3, r3
 2505 02b2 19B2     		sxth	r1, r3
 2506 02b4 0023     		movs	r3, #0
 2507 02b6 0093     		str	r3, [sp]
 2508 02b8 4623     		movs	r3, #70
 2509 02ba 7822     		movs	r2, #120
 2510 02bc FFF7FEFF 		bl	fillRect
 708:main.c        ****                     120,70,
 709:main.c        ****                     RA8875_BLACK);
 710:main.c        ****             textEnlarge(3);
 2511              		.loc 1 710 0
 2512 02c0 0320     		movs	r0, #3
 2513 02c2 FFF7FEFF 		bl	textEnlarge
 711:main.c        ****             textTransparent(RA8875_YELLOW);
 2514              		.loc 1 711 0
 2515 02c6 184B     		ldr	r3, .L101+16
 2516 02c8 1800     		movs	r0, r3
 2517 02ca FFF7FEFF 		bl	textTransparent
 712:main.c        ****             textSetCursor(2*scr_width/3+110,scr_height/2+135);
 2518              		.loc 1 712 0
 2519 02ce FB69     		ldr	r3, [r7, #28]
 2520 02d0 5B00     		lsls	r3, r3, #1
 2521 02d2 0321     		movs	r1, #3
 2522 02d4 1800     		movs	r0, r3
 2523 02d6 FFF7FEFF 		bl	__aeabi_idiv
 2524 02da 0300     		movs	r3, r0
 2525 02dc 9BB2     		uxth	r3, r3
 2526 02de 6E33     		adds	r3, r3, #110
 2527 02e0 9AB2     		uxth	r2, r3
 2528 02e2 BB69     		ldr	r3, [r7, #24]
 2529 02e4 002B     		cmp	r3, #0
 2530 02e6 00DA     		bge	.L89
 2531 02e8 0133     		adds	r3, r3, #1
 2532              	.L89:
 2533 02ea 5B10     		asrs	r3, r3, #1
 2534 02ec 9BB2     		uxth	r3, r3
 2535 02ee 8733     		adds	r3, r3, #135
 2536 02f0 9BB2     		uxth	r3, r3
 2537 02f2 1900     		movs	r1, r3
 2538 02f4 1000     		movs	r0, r2
 2539 02f6 FFF7FEFF 		bl	textSetCursor
 713:main.c        ****             textWrite(on,strlen(on));
 2540              		.loc 1 713 0
 2541 02fa 1423     		movs	r3, #20
 2542 02fc FB18     		adds	r3, r7, r3
 2543 02fe 1800     		movs	r0, r3
 2544 0300 FFF7FEFF 		bl	strlen
 2545 0304 0300     		movs	r3, r0
ARM GAS  C:\Users\megan\AppData\Local\Temp\ccPHoCT8.s 			page 60


 2546 0306 9AB2     		uxth	r2, r3
 2547 0308 1423     		movs	r3, #20
 2548 030a FB18     		adds	r3, r7, r3
 2549 030c 1100     		movs	r1, r2
 2550 030e 1800     		movs	r0, r3
 2551 0310 FFF7FEFF 		bl	textWrite
 2552 0314 15E1     		b	.L90
 2553              	.L102:
 2554 0316 C046     		.align	2
 2555              	.L101:
 2556 0318 4C010000 		.word	.LC63
 2557 031c 4F464600 		.word	4605519
 2558 0320 50010000 		.word	.LC65
 2559 0324 53657400 		.word	7628115
 2560 0328 E0FF0000 		.word	65504
 2561 032c 00000000 		.word	settings
 2562 0330 00000000 		.word	bin1
 2563              	.L78:
 714:main.c        ****         }        
 715:main.c        ****     }
 716:main.c        ****     else if (settings.mode == AUTOMATIC) {
 2564              		.loc 1 716 0
 2565 0334 874B     		ldr	r3, .L103
 2566 0336 1B78     		ldrb	r3, [r3]
 2567 0338 012B     		cmp	r3, #1
 2568 033a 00D0     		beq	.LCB2113
 2569 033c 01E1     		b	.L90	@long jump
 2570              	.LCB2113:
 717:main.c        ****         textEnlarge(3);
 2571              		.loc 1 717 0
 2572 033e 0320     		movs	r0, #3
 2573 0340 FFF7FEFF 		bl	textEnlarge
 718:main.c        ****         textTransparent(RA8875_BLACK);
 2574              		.loc 1 718 0
 2575 0344 0020     		movs	r0, #0
 2576 0346 FFF7FEFF 		bl	textTransparent
 719:main.c        ****         textSetCursor(scr_width/3+10,scr_height/2+135);
 2577              		.loc 1 719 0
 2578 034a FB69     		ldr	r3, [r7, #28]
 2579 034c 0321     		movs	r1, #3
 2580 034e 1800     		movs	r0, r3
 2581 0350 FFF7FEFF 		bl	__aeabi_idiv
 2582 0354 0300     		movs	r3, r0
 2583 0356 9BB2     		uxth	r3, r3
 2584 0358 0A33     		adds	r3, r3, #10
 2585 035a 9AB2     		uxth	r2, r3
 2586 035c BB69     		ldr	r3, [r7, #24]
 2587 035e 002B     		cmp	r3, #0
 2588 0360 00DA     		bge	.L91
 2589 0362 0133     		adds	r3, r3, #1
 2590              	.L91:
 2591 0364 5B10     		asrs	r3, r3, #1
 2592 0366 9BB2     		uxth	r3, r3
 2593 0368 8733     		adds	r3, r3, #135
 2594 036a 9BB2     		uxth	r3, r3
 2595 036c 1900     		movs	r1, r3
 2596 036e 1000     		movs	r0, r2
ARM GAS  C:\Users\megan\AppData\Local\Temp\ccPHoCT8.s 			page 61


 2597 0370 FFF7FEFF 		bl	textSetCursor
 720:main.c        ****         textWrite(set,strlen(set));
 2598              		.loc 1 720 0
 2599 0374 3B1D     		adds	r3, r7, #4
 2600 0376 1800     		movs	r0, r3
 2601 0378 FFF7FEFF 		bl	strlen
 2602 037c 0300     		movs	r3, r0
 2603 037e 9AB2     		uxth	r2, r3
 2604 0380 3B1D     		adds	r3, r7, #4
 2605 0382 1100     		movs	r1, r2
 2606 0384 1800     		movs	r0, r3
 2607 0386 FFF7FEFF 		bl	textWrite
 721:main.c        ****         
 722:main.c        ****         textSetCursor(scr_width/3+250,scr_height/2+135);
 2608              		.loc 1 722 0
 2609 038a FB69     		ldr	r3, [r7, #28]
 2610 038c 0321     		movs	r1, #3
 2611 038e 1800     		movs	r0, r3
 2612 0390 FFF7FEFF 		bl	__aeabi_idiv
 2613 0394 0300     		movs	r3, r0
 2614 0396 9BB2     		uxth	r3, r3
 2615 0398 FA33     		adds	r3, r3, #250
 2616 039a 9AB2     		uxth	r2, r3
 2617 039c BB69     		ldr	r3, [r7, #24]
 2618 039e 002B     		cmp	r3, #0
 2619 03a0 00DA     		bge	.L92
 2620 03a2 0133     		adds	r3, r3, #1
 2621              	.L92:
 2622 03a4 5B10     		asrs	r3, r3, #1
 2623 03a6 9BB2     		uxth	r3, r3
 2624 03a8 8733     		adds	r3, r3, #135
 2625 03aa 9BB2     		uxth	r3, r3
 2626 03ac 1900     		movs	r1, r3
 2627 03ae 1000     		movs	r0, r2
 2628 03b0 FFF7FEFF 		bl	textSetCursor
 723:main.c        ****         PrintFloat(bin1.set_temp);
 2629              		.loc 1 723 0
 2630 03b4 684B     		ldr	r3, .L103+4
 2631 03b6 1B79     		ldrb	r3, [r3, #4]
 2632 03b8 1800     		movs	r0, r3
 2633 03ba FFF7FEFF 		bl	__aeabi_ui2f
 2634 03be 031C     		adds	r3, r0, #0
 2635 03c0 181C     		adds	r0, r3, #0
 2636 03c2 FFF7FEFF 		bl	PrintFloat
 724:main.c        ****         
 725:main.c        ****         drawRect(scr_width/3+160,scr_height/2+135,
 2637              		.loc 1 725 0
 2638 03c6 FB69     		ldr	r3, [r7, #28]
 2639 03c8 0321     		movs	r1, #3
 2640 03ca 1800     		movs	r0, r3
 2641 03cc FFF7FEFF 		bl	__aeabi_idiv
 2642 03d0 0300     		movs	r3, r0
 2643 03d2 9BB2     		uxth	r3, r3
 2644 03d4 A033     		adds	r3, r3, #160
 2645 03d6 9BB2     		uxth	r3, r3
 2646 03d8 18B2     		sxth	r0, r3
 2647 03da BB69     		ldr	r3, [r7, #24]
ARM GAS  C:\Users\megan\AppData\Local\Temp\ccPHoCT8.s 			page 62


 2648 03dc 002B     		cmp	r3, #0
 2649 03de 00DA     		bge	.L93
 2650 03e0 0133     		adds	r3, r3, #1
 2651              	.L93:
 2652 03e2 5B10     		asrs	r3, r3, #1
 2653 03e4 9BB2     		uxth	r3, r3
 2654 03e6 8733     		adds	r3, r3, #135
 2655 03e8 9BB2     		uxth	r3, r3
 2656 03ea 19B2     		sxth	r1, r3
 2657 03ec 0023     		movs	r3, #0
 2658 03ee 0093     		str	r3, [sp]
 2659 03f0 4623     		movs	r3, #70
 2660 03f2 4622     		movs	r2, #70
 2661 03f4 FFF7FEFF 		bl	drawRect
 726:main.c        ****                     70,70,
 727:main.c        ****                     RA8875_BLACK);
 728:main.c        ****         fillTriangle(scr_width/3+195,scr_height/2+185,
 2662              		.loc 1 728 0
 2663 03f8 FB69     		ldr	r3, [r7, #28]
 2664 03fa 0321     		movs	r1, #3
 2665 03fc 1800     		movs	r0, r3
 2666 03fe FFF7FEFF 		bl	__aeabi_idiv
 2667 0402 0300     		movs	r3, r0
 2668 0404 9BB2     		uxth	r3, r3
 2669 0406 C333     		adds	r3, r3, #195
 2670 0408 9BB2     		uxth	r3, r3
 2671 040a 1CB2     		sxth	r4, r3
 2672 040c BB69     		ldr	r3, [r7, #24]
 2673 040e 002B     		cmp	r3, #0
 2674 0410 00DA     		bge	.L94
 2675 0412 0133     		adds	r3, r3, #1
 2676              	.L94:
 2677 0414 5B10     		asrs	r3, r3, #1
 2678 0416 9BB2     		uxth	r3, r3
 2679 0418 B933     		adds	r3, r3, #185
 2680 041a 9BB2     		uxth	r3, r3
 2681 041c 1DB2     		sxth	r5, r3
 729:main.c        ****                     scr_width/3+215,scr_height/2+155,
 2682              		.loc 1 729 0
 2683 041e FB69     		ldr	r3, [r7, #28]
 2684 0420 0321     		movs	r1, #3
 2685 0422 1800     		movs	r0, r3
 2686 0424 FFF7FEFF 		bl	__aeabi_idiv
 2687 0428 0300     		movs	r3, r0
 728:main.c        ****                     scr_width/3+215,scr_height/2+155,
 2688              		.loc 1 728 0
 2689 042a 9BB2     		uxth	r3, r3
 2690 042c D733     		adds	r3, r3, #215
 2691 042e 9BB2     		uxth	r3, r3
 2692 0430 1EB2     		sxth	r6, r3
 2693              		.loc 1 729 0
 2694 0432 BB69     		ldr	r3, [r7, #24]
 2695 0434 002B     		cmp	r3, #0
 2696 0436 00DA     		bge	.L95
 2697 0438 0133     		adds	r3, r3, #1
 2698              	.L95:
 2699 043a 5B10     		asrs	r3, r3, #1
ARM GAS  C:\Users\megan\AppData\Local\Temp\ccPHoCT8.s 			page 63


 728:main.c        ****                     scr_width/3+215,scr_height/2+155,
 2700              		.loc 1 728 0
 2701 043c 9BB2     		uxth	r3, r3
 2702 043e 9B33     		adds	r3, r3, #155
 2703 0440 9BB2     		uxth	r3, r3
 2704 0442 1BB2     		sxth	r3, r3
 2705 0444 9846     		mov	r8, r3
 730:main.c        ****                     scr_width/3+175,scr_height/2+155,
 2706              		.loc 1 730 0
 2707 0446 FB69     		ldr	r3, [r7, #28]
 2708 0448 0321     		movs	r1, #3
 2709 044a 1800     		movs	r0, r3
 2710 044c FFF7FEFF 		bl	__aeabi_idiv
 2711 0450 0300     		movs	r3, r0
 728:main.c        ****                     scr_width/3+215,scr_height/2+155,
 2712              		.loc 1 728 0
 2713 0452 9BB2     		uxth	r3, r3
 2714 0454 AF33     		adds	r3, r3, #175
 2715 0456 9BB2     		uxth	r3, r3
 2716 0458 1AB2     		sxth	r2, r3
 2717              		.loc 1 730 0
 2718 045a BB69     		ldr	r3, [r7, #24]
 2719 045c 002B     		cmp	r3, #0
 2720 045e 00DA     		bge	.L96
 2721 0460 0133     		adds	r3, r3, #1
 2722              	.L96:
 2723 0462 5B10     		asrs	r3, r3, #1
 728:main.c        ****                     scr_width/3+215,scr_height/2+155,
 2724              		.loc 1 728 0
 2725 0464 9BB2     		uxth	r3, r3
 2726 0466 9B33     		adds	r3, r3, #155
 2727 0468 9BB2     		uxth	r3, r3
 2728 046a 1BB2     		sxth	r3, r3
 2729 046c 0021     		movs	r1, #0
 2730 046e 0291     		str	r1, [sp, #8]
 2731 0470 0193     		str	r3, [sp, #4]
 2732 0472 0092     		str	r2, [sp]
 2733 0474 4346     		mov	r3, r8
 2734 0476 3200     		movs	r2, r6
 2735 0478 2900     		movs	r1, r5
 2736 047a 2000     		movs	r0, r4
 2737 047c FFF7FEFF 		bl	fillTriangle
 731:main.c        ****                     RA8875_BLACK);
 732:main.c        ****         
 733:main.c        ****         drawRect(scr_width/3+400,scr_height/2+135,
 2738              		.loc 1 733 0
 2739 0480 FB69     		ldr	r3, [r7, #28]
 2740 0482 0321     		movs	r1, #3
 2741 0484 1800     		movs	r0, r3
 2742 0486 FFF7FEFF 		bl	__aeabi_idiv
 2743 048a 0300     		movs	r3, r0
 2744 048c 9BB2     		uxth	r3, r3
 2745 048e 9133     		adds	r3, r3, #145
 2746 0490 FF33     		adds	r3, r3, #255
 2747 0492 9BB2     		uxth	r3, r3
 2748 0494 18B2     		sxth	r0, r3
 2749 0496 BB69     		ldr	r3, [r7, #24]
ARM GAS  C:\Users\megan\AppData\Local\Temp\ccPHoCT8.s 			page 64


 2750 0498 002B     		cmp	r3, #0
 2751 049a 00DA     		bge	.L97
 2752 049c 0133     		adds	r3, r3, #1
 2753              	.L97:
 2754 049e 5B10     		asrs	r3, r3, #1
 2755 04a0 9BB2     		uxth	r3, r3
 2756 04a2 8733     		adds	r3, r3, #135
 2757 04a4 9BB2     		uxth	r3, r3
 2758 04a6 19B2     		sxth	r1, r3
 2759 04a8 0023     		movs	r3, #0
 2760 04aa 0093     		str	r3, [sp]
 2761 04ac 4623     		movs	r3, #70
 2762 04ae 4622     		movs	r2, #70
 2763 04b0 FFF7FEFF 		bl	drawRect
 734:main.c        ****                     70,70,
 735:main.c        ****                     RA8875_BLACK);
 736:main.c        ****         fillTriangle(scr_width/3+435,scr_height/2+155,
 2764              		.loc 1 736 0
 2765 04b4 FB69     		ldr	r3, [r7, #28]
 2766 04b6 0321     		movs	r1, #3
 2767 04b8 1800     		movs	r0, r3
 2768 04ba FFF7FEFF 		bl	__aeabi_idiv
 2769 04be 0300     		movs	r3, r0
 2770 04c0 9BB2     		uxth	r3, r3
 2771 04c2 B433     		adds	r3, r3, #180
 2772 04c4 FF33     		adds	r3, r3, #255
 2773 04c6 9BB2     		uxth	r3, r3
 2774 04c8 1CB2     		sxth	r4, r3
 2775 04ca BB69     		ldr	r3, [r7, #24]
 2776 04cc 002B     		cmp	r3, #0
 2777 04ce 00DA     		bge	.L98
 2778 04d0 0133     		adds	r3, r3, #1
 2779              	.L98:
 2780 04d2 5B10     		asrs	r3, r3, #1
 2781 04d4 9BB2     		uxth	r3, r3
 2782 04d6 9B33     		adds	r3, r3, #155
 2783 04d8 9BB2     		uxth	r3, r3
 2784 04da 1DB2     		sxth	r5, r3
 737:main.c        ****                     scr_width/3+455,scr_height/2+185,
 2785              		.loc 1 737 0
 2786 04dc FB69     		ldr	r3, [r7, #28]
 2787 04de 0321     		movs	r1, #3
 2788 04e0 1800     		movs	r0, r3
 2789 04e2 FFF7FEFF 		bl	__aeabi_idiv
 2790 04e6 0300     		movs	r3, r0
 736:main.c        ****                     scr_width/3+455,scr_height/2+185,
 2791              		.loc 1 736 0
 2792 04e8 9BB2     		uxth	r3, r3
 2793 04ea C833     		adds	r3, r3, #200
 2794 04ec FF33     		adds	r3, r3, #255
 2795 04ee 9BB2     		uxth	r3, r3
 2796 04f0 1EB2     		sxth	r6, r3
 2797              		.loc 1 737 0
 2798 04f2 BB69     		ldr	r3, [r7, #24]
 2799 04f4 002B     		cmp	r3, #0
 2800 04f6 00DA     		bge	.L99
 2801 04f8 0133     		adds	r3, r3, #1
ARM GAS  C:\Users\megan\AppData\Local\Temp\ccPHoCT8.s 			page 65


 2802              	.L99:
 2803 04fa 5B10     		asrs	r3, r3, #1
 736:main.c        ****                     scr_width/3+455,scr_height/2+185,
 2804              		.loc 1 736 0
 2805 04fc 9BB2     		uxth	r3, r3
 2806 04fe B933     		adds	r3, r3, #185
 2807 0500 9BB2     		uxth	r3, r3
 2808 0502 1BB2     		sxth	r3, r3
 2809 0504 9846     		mov	r8, r3
 738:main.c        ****                     scr_width/3+415,scr_height/2+185,
 2810              		.loc 1 738 0
 2811 0506 FB69     		ldr	r3, [r7, #28]
 2812 0508 0321     		movs	r1, #3
 2813 050a 1800     		movs	r0, r3
 2814 050c FFF7FEFF 		bl	__aeabi_idiv
 2815 0510 0300     		movs	r3, r0
 736:main.c        ****                     scr_width/3+455,scr_height/2+185,
 2816              		.loc 1 736 0
 2817 0512 9BB2     		uxth	r3, r3
 2818 0514 A033     		adds	r3, r3, #160
 2819 0516 FF33     		adds	r3, r3, #255
 2820 0518 9BB2     		uxth	r3, r3
 2821 051a 1AB2     		sxth	r2, r3
 2822              		.loc 1 738 0
 2823 051c BB69     		ldr	r3, [r7, #24]
 2824 051e 002B     		cmp	r3, #0
 2825 0520 00DA     		bge	.L100
 2826 0522 0133     		adds	r3, r3, #1
 2827              	.L100:
 2828 0524 5B10     		asrs	r3, r3, #1
 736:main.c        ****                     scr_width/3+455,scr_height/2+185,
 2829              		.loc 1 736 0
 2830 0526 9BB2     		uxth	r3, r3
 2831 0528 B933     		adds	r3, r3, #185
 2832 052a 9BB2     		uxth	r3, r3
 2833 052c 1BB2     		sxth	r3, r3
 2834 052e 0021     		movs	r1, #0
 2835 0530 0291     		str	r1, [sp, #8]
 2836 0532 0193     		str	r3, [sp, #4]
 2837 0534 0092     		str	r2, [sp]
 2838 0536 4346     		mov	r3, r8
 2839 0538 3200     		movs	r2, r6
 2840 053a 2900     		movs	r1, r5
 2841 053c 2000     		movs	r0, r4
 2842 053e FFF7FEFF 		bl	fillTriangle
 2843              	.L90:
 739:main.c        ****                     RA8875_BLACK);
 740:main.c        ****     }
 741:main.c        ****     graphicsMode();
 2844              		.loc 1 741 0
 2845 0542 FFF7FEFF 		bl	graphicsMode
 742:main.c        **** }
 2846              		.loc 1 742 0
 2847 0546 C046     		nop
 2848 0548 BD46     		mov	sp, r7
 2849 054a 08B0     		add	sp, sp, #32
 2850              		@ sp needed
ARM GAS  C:\Users\megan\AppData\Local\Temp\ccPHoCT8.s 			page 66


 2851 054c 04BC     		pop	{r2}
 2852 054e 9046     		mov	r8, r2
 2853 0550 F0BD     		pop	{r4, r5, r6, r7, pc}
 2854              	.L104:
 2855 0552 C046     		.align	2
 2856              	.L103:
 2857 0554 00000000 		.word	settings
 2858 0558 00000000 		.word	bin1
 2859              		.cfi_endproc
 2860              	.LFE47:
 2861              		.size	GUIUpdateControls, .-GUIUpdateControls
 2862              		.section	.text.GUITouchHandler,"ax",%progbits
 2863              		.align	2
 2864              		.global	GUITouchHandler
 2865              		.code	16
 2866              		.thumb_func
 2867              		.type	GUITouchHandler, %function
 2868              	GUITouchHandler:
 2869              	.LFB48:
 743:main.c        **** 
 744:main.c        **** void GUITouchHandler(uint16_t *tx, uint16_t *ty) {
 2870              		.loc 1 744 0
 2871              		.cfi_startproc
 2872              		@ args = 0, pretend = 0, frame = 32
 2873              		@ frame_needed = 1, uses_anonymous_args = 0
 2874 0000 90B5     		push	{r4, r7, lr}
 2875              		.cfi_def_cfa_offset 12
 2876              		.cfi_offset 4, -12
 2877              		.cfi_offset 7, -8
 2878              		.cfi_offset 14, -4
 2879 0002 89B0     		sub	sp, sp, #36
 2880              		.cfi_def_cfa_offset 48
 2881 0004 00AF     		add	r7, sp, #0
 2882              		.cfi_def_cfa_register 7
 2883 0006 7860     		str	r0, [r7, #4]
 2884 0008 3960     		str	r1, [r7]
 745:main.c        ****     
 746:main.c        ****     float xScale = 1024.0F/width();
 2885              		.loc 1 746 0
 2886 000a FFF7FEFF 		bl	width
 2887 000e 0300     		movs	r3, r0
 2888 0010 1800     		movs	r0, r3
 2889 0012 FFF7FEFF 		bl	__aeabi_i2f
 2890 0016 031C     		adds	r3, r0, #0
 2891 0018 191C     		adds	r1, r3, #0
 2892 001a 8920     		movs	r0, #137
 2893 001c C005     		lsls	r0, r0, #23
 2894 001e FFF7FEFF 		bl	__aeabi_fdiv
 2895 0022 031C     		adds	r3, r0, #0
 2896 0024 FB61     		str	r3, [r7, #28]
 747:main.c        ****     float yScale = 1024.0F/height();
 2897              		.loc 1 747 0
 2898 0026 FFF7FEFF 		bl	height
 2899 002a 0300     		movs	r3, r0
 2900 002c 1800     		movs	r0, r3
 2901 002e FFF7FEFF 		bl	__aeabi_i2f
 2902 0032 031C     		adds	r3, r0, #0
ARM GAS  C:\Users\megan\AppData\Local\Temp\ccPHoCT8.s 			page 67


 2903 0034 191C     		adds	r1, r3, #0
 2904 0036 8920     		movs	r0, #137
 2905 0038 C005     		lsls	r0, r0, #23
 2906 003a FFF7FEFF 		bl	__aeabi_fdiv
 2907 003e 031C     		adds	r3, r0, #0
 2908 0040 BB61     		str	r3, [r7, #24]
 748:main.c        ****     
 749:main.c        ****     uint16_t x = *tx/xScale;
 2909              		.loc 1 749 0
 2910 0042 7B68     		ldr	r3, [r7, #4]
 2911 0044 1B88     		ldrh	r3, [r3]
 2912 0046 1800     		movs	r0, r3
 2913 0048 FFF7FEFF 		bl	__aeabi_i2f
 2914 004c 031C     		adds	r3, r0, #0
 2915 004e F969     		ldr	r1, [r7, #28]
 2916 0050 181C     		adds	r0, r3, #0
 2917 0052 FFF7FEFF 		bl	__aeabi_fdiv
 2918 0056 031C     		adds	r3, r0, #0
 2919 0058 1622     		movs	r2, #22
 2920 005a BC18     		adds	r4, r7, r2
 2921 005c 181C     		adds	r0, r3, #0
 2922 005e FFF7FEFF 		bl	__aeabi_f2uiz
 2923 0062 0300     		movs	r3, r0
 2924 0064 2380     		strh	r3, [r4]
 750:main.c        ****     uint16_t y = *ty/yScale;
 2925              		.loc 1 750 0
 2926 0066 3B68     		ldr	r3, [r7]
 2927 0068 1B88     		ldrh	r3, [r3]
 2928 006a 1800     		movs	r0, r3
 2929 006c FFF7FEFF 		bl	__aeabi_i2f
 2930 0070 031C     		adds	r3, r0, #0
 2931 0072 B969     		ldr	r1, [r7, #24]
 2932 0074 181C     		adds	r0, r3, #0
 2933 0076 FFF7FEFF 		bl	__aeabi_fdiv
 2934 007a 031C     		adds	r3, r0, #0
 2935 007c 1422     		movs	r2, #20
 2936 007e BC18     		adds	r4, r7, r2
 2937 0080 181C     		adds	r0, r3, #0
 2938 0082 FFF7FEFF 		bl	__aeabi_f2uiz
 2939 0086 0300     		movs	r3, r0
 2940 0088 2380     		strh	r3, [r4]
 751:main.c        ****     
 752:main.c        ****     int scr_width = 800;
 2941              		.loc 1 752 0
 2942 008a C823     		movs	r3, #200
 2943 008c 9B00     		lsls	r3, r3, #2
 2944 008e 3B61     		str	r3, [r7, #16]
 753:main.c        ****     int scr_height = 480;
 2945              		.loc 1 753 0
 2946 0090 F023     		movs	r3, #240
 2947 0092 5B00     		lsls	r3, r3, #1
 2948 0094 FB60     		str	r3, [r7, #12]
 754:main.c        ****     
 755:main.c        ****     
 756:main.c        ****     // MODES
 757:main.c        ****     // Manual button
 758:main.c        ****     if (x > 40 && x < 170 && y > 170 && y < 230) {
ARM GAS  C:\Users\megan\AppData\Local\Temp\ccPHoCT8.s 			page 68


 2949              		.loc 1 758 0
 2950 0096 1623     		movs	r3, #22
 2951 0098 FB18     		adds	r3, r7, r3
 2952 009a 1B88     		ldrh	r3, [r3]
 2953 009c 282B     		cmp	r3, #40
 2954 009e 19D9     		bls	.L106
 2955              		.loc 1 758 0 is_stmt 0 discriminator 1
 2956 00a0 1623     		movs	r3, #22
 2957 00a2 FB18     		adds	r3, r7, r3
 2958 00a4 1B88     		ldrh	r3, [r3]
 2959 00a6 A92B     		cmp	r3, #169
 2960 00a8 14D8     		bhi	.L106
 2961              		.loc 1 758 0 discriminator 2
 2962 00aa 1423     		movs	r3, #20
 2963 00ac FB18     		adds	r3, r7, r3
 2964 00ae 1B88     		ldrh	r3, [r3]
 2965 00b0 AA2B     		cmp	r3, #170
 2966 00b2 0FD9     		bls	.L106
 2967              		.loc 1 758 0 discriminator 3
 2968 00b4 1423     		movs	r3, #20
 2969 00b6 FB18     		adds	r3, r7, r3
 2970 00b8 1B88     		ldrh	r3, [r3]
 2971 00ba E52B     		cmp	r3, #229
 2972 00bc 0AD8     		bhi	.L106
 759:main.c        ****         if (settings.mode != MANUAL) {
 2973              		.loc 1 759 0 is_stmt 1
 2974 00be 934B     		ldr	r3, .L125
 2975 00c0 1B78     		ldrb	r3, [r3]
 2976 00c2 002B     		cmp	r3, #0
 2977 00c4 00D1     		bne	.LCB2490
 2978 00c6 1DE1     		b	.L108	@long jump
 2979              	.LCB2490:
 760:main.c        ****             settings.mode = MANUAL;
 2980              		.loc 1 760 0
 2981 00c8 904B     		ldr	r3, .L125
 2982 00ca 0022     		movs	r2, #0
 2983 00cc 1A70     		strb	r2, [r3]
 761:main.c        ****             GUIUpdateMode();
 2984              		.loc 1 761 0
 2985 00ce FFF7FEFF 		bl	GUIUpdateMode
 759:main.c        ****         if (settings.mode != MANUAL) {
 2986              		.loc 1 759 0
 2987 00d2 17E1     		b	.L108
 2988              	.L106:
 762:main.c        ****         }
 763:main.c        ****     }
 764:main.c        ****     // Auto button
 765:main.c        ****     else if (x > 40 && x < 270 && y > 170 && y < 330) {
 2989              		.loc 1 765 0
 2990 00d4 1623     		movs	r3, #22
 2991 00d6 FB18     		adds	r3, r7, r3
 2992 00d8 1B88     		ldrh	r3, [r3]
 2993 00da 282B     		cmp	r3, #40
 2994 00dc 1DD9     		bls	.L109
 2995              		.loc 1 765 0 is_stmt 0 discriminator 1
 2996 00de 1623     		movs	r3, #22
 2997 00e0 FB18     		adds	r3, r7, r3
ARM GAS  C:\Users\megan\AppData\Local\Temp\ccPHoCT8.s 			page 69


 2998 00e2 1A88     		ldrh	r2, [r3]
 2999 00e4 0E23     		movs	r3, #14
 3000 00e6 FF33     		adds	r3, r3, #255
 3001 00e8 9A42     		cmp	r2, r3
 3002 00ea 16D8     		bhi	.L109
 3003              		.loc 1 765 0 discriminator 2
 3004 00ec 1423     		movs	r3, #20
 3005 00ee FB18     		adds	r3, r7, r3
 3006 00f0 1B88     		ldrh	r3, [r3]
 3007 00f2 AA2B     		cmp	r3, #170
 3008 00f4 11D9     		bls	.L109
 3009              		.loc 1 765 0 discriminator 3
 3010 00f6 1423     		movs	r3, #20
 3011 00f8 FB18     		adds	r3, r7, r3
 3012 00fa 1A88     		ldrh	r2, [r3]
 3013 00fc 4A23     		movs	r3, #74
 3014 00fe FF33     		adds	r3, r3, #255
 3015 0100 9A42     		cmp	r2, r3
 3016 0102 0AD8     		bhi	.L109
 766:main.c        ****         if (settings.mode != AUTOMATIC) {
 3017              		.loc 1 766 0 is_stmt 1
 3018 0104 814B     		ldr	r3, .L125
 3019 0106 1B78     		ldrb	r3, [r3]
 3020 0108 012B     		cmp	r3, #1
 3021 010a 00D1     		bne	.LCB2526
 3022 010c FAE0     		b	.L108	@long jump
 3023              	.LCB2526:
 767:main.c        ****             settings.mode = AUTOMATIC;
 3024              		.loc 1 767 0
 3025 010e 7F4B     		ldr	r3, .L125
 3026 0110 0122     		movs	r2, #1
 3027 0112 1A70     		strb	r2, [r3]
 768:main.c        ****             GUIUpdateMode();
 3028              		.loc 1 768 0
 3029 0114 FFF7FEFF 		bl	GUIUpdateMode
 766:main.c        ****         if (settings.mode != AUTOMATIC) {
 3030              		.loc 1 766 0
 3031 0118 F4E0     		b	.L108
 3032              	.L109:
 769:main.c        ****         }
 770:main.c        ****     }    
 771:main.c        ****     
 772:main.c        ****     // FAN
 773:main.c        ****     // Off
 774:main.c        ****     else if (settings.mode == MANUAL && x > scr_width/3+180 && x < scr_width/3+300 && y > scr_heigh
 3033              		.loc 1 774 0
 3034 011a 7C4B     		ldr	r3, .L125
 3035 011c 1B78     		ldrb	r3, [r3]
 3036 011e 002B     		cmp	r3, #0
 3037 0120 39D1     		bne	.L111
 3038              		.loc 1 774 0 is_stmt 0 discriminator 1
 3039 0122 1623     		movs	r3, #22
 3040 0124 FB18     		adds	r3, r7, r3
 3041 0126 1C88     		ldrh	r4, [r3]
 3042 0128 3B69     		ldr	r3, [r7, #16]
 3043 012a 0321     		movs	r1, #3
 3044 012c 1800     		movs	r0, r3
ARM GAS  C:\Users\megan\AppData\Local\Temp\ccPHoCT8.s 			page 70


 3045 012e FFF7FEFF 		bl	__aeabi_idiv
 3046 0132 0300     		movs	r3, r0
 3047 0134 B433     		adds	r3, r3, #180
 3048 0136 9C42     		cmp	r4, r3
 3049 0138 2DDD     		ble	.L111
 3050              		.loc 1 774 0 discriminator 2
 3051 013a 1623     		movs	r3, #22
 3052 013c FB18     		adds	r3, r7, r3
 3053 013e 1C88     		ldrh	r4, [r3]
 3054 0140 3B69     		ldr	r3, [r7, #16]
 3055 0142 0321     		movs	r1, #3
 3056 0144 1800     		movs	r0, r3
 3057 0146 FFF7FEFF 		bl	__aeabi_idiv
 3058 014a 0300     		movs	r3, r0
 3059 014c 2D33     		adds	r3, r3, #45
 3060 014e FF33     		adds	r3, r3, #255
 3061 0150 9C42     		cmp	r4, r3
 3062 0152 20DA     		bge	.L111
 3063              		.loc 1 774 0 discriminator 3
 3064 0154 1423     		movs	r3, #20
 3065 0156 FB18     		adds	r3, r7, r3
 3066 0158 1A88     		ldrh	r2, [r3]
 3067 015a FB68     		ldr	r3, [r7, #12]
 3068 015c 002B     		cmp	r3, #0
 3069 015e 00DA     		bge	.L112
 3070 0160 0133     		adds	r3, r3, #1
 3071              	.L112:
 3072 0162 5B10     		asrs	r3, r3, #1
 3073 0164 8733     		adds	r3, r3, #135
 3074 0166 9A42     		cmp	r2, r3
 3075 0168 15DD     		ble	.L111
 3076              		.loc 1 774 0 discriminator 4
 3077 016a 1423     		movs	r3, #20
 3078 016c FB18     		adds	r3, r7, r3
 3079 016e 1A88     		ldrh	r2, [r3]
 3080 0170 FB68     		ldr	r3, [r7, #12]
 3081 0172 002B     		cmp	r3, #0
 3082 0174 00DA     		bge	.L113
 3083 0176 0133     		adds	r3, r3, #1
 3084              	.L113:
 3085 0178 5B10     		asrs	r3, r3, #1
 3086 017a CD33     		adds	r3, r3, #205
 3087 017c 9A42     		cmp	r2, r3
 3088 017e 0ADA     		bge	.L111
 775:main.c        ****         if (bin1.fan_on != false) {
 3089              		.loc 1 775 0 is_stmt 1
 3090 0180 634B     		ldr	r3, .L125+4
 3091 0182 5B79     		ldrb	r3, [r3, #5]
 3092 0184 002B     		cmp	r3, #0
 3093 0186 00D1     		bne	.LCB2591
 3094 0188 BCE0     		b	.L108	@long jump
 3095              	.LCB2591:
 776:main.c        ****             bin1.fan_on = false;
 3096              		.loc 1 776 0
 3097 018a 614B     		ldr	r3, .L125+4
 3098 018c 0022     		movs	r2, #0
 3099 018e 5A71     		strb	r2, [r3, #5]
ARM GAS  C:\Users\megan\AppData\Local\Temp\ccPHoCT8.s 			page 71


 777:main.c        ****             GUIUpdateControls();
 3100              		.loc 1 777 0
 3101 0190 FFF7FEFF 		bl	GUIUpdateControls
 775:main.c        ****         if (bin1.fan_on != false) {
 3102              		.loc 1 775 0
 3103 0194 B6E0     		b	.L108
 3104              	.L111:
 778:main.c        ****         }
 779:main.c        ****     }
 780:main.c        ****     // On
 781:main.c        ****     else if (settings.mode == MANUAL && x > 2*scr_width/3+80 && x < 2*scr_width/3+200 && y > scr_he
 3105              		.loc 1 781 0
 3106 0196 5D4B     		ldr	r3, .L125
 3107 0198 1B78     		ldrb	r3, [r3]
 3108 019a 002B     		cmp	r3, #0
 3109 019c 3AD1     		bne	.L115
 3110              		.loc 1 781 0 is_stmt 0 discriminator 1
 3111 019e 1623     		movs	r3, #22
 3112 01a0 FB18     		adds	r3, r7, r3
 3113 01a2 1C88     		ldrh	r4, [r3]
 3114 01a4 3B69     		ldr	r3, [r7, #16]
 3115 01a6 5B00     		lsls	r3, r3, #1
 3116 01a8 0321     		movs	r1, #3
 3117 01aa 1800     		movs	r0, r3
 3118 01ac FFF7FEFF 		bl	__aeabi_idiv
 3119 01b0 0300     		movs	r3, r0
 3120 01b2 5033     		adds	r3, r3, #80
 3121 01b4 9C42     		cmp	r4, r3
 3122 01b6 2DDD     		ble	.L115
 3123              		.loc 1 781 0 discriminator 2
 3124 01b8 1623     		movs	r3, #22
 3125 01ba FB18     		adds	r3, r7, r3
 3126 01bc 1C88     		ldrh	r4, [r3]
 3127 01be 3B69     		ldr	r3, [r7, #16]
 3128 01c0 5B00     		lsls	r3, r3, #1
 3129 01c2 0321     		movs	r1, #3
 3130 01c4 1800     		movs	r0, r3
 3131 01c6 FFF7FEFF 		bl	__aeabi_idiv
 3132 01ca 0300     		movs	r3, r0
 3133 01cc C833     		adds	r3, r3, #200
 3134 01ce 9C42     		cmp	r4, r3
 3135 01d0 20DA     		bge	.L115
 3136              		.loc 1 781 0 discriminator 3
 3137 01d2 1423     		movs	r3, #20
 3138 01d4 FB18     		adds	r3, r7, r3
 3139 01d6 1A88     		ldrh	r2, [r3]
 3140 01d8 FB68     		ldr	r3, [r7, #12]
 3141 01da 002B     		cmp	r3, #0
 3142 01dc 00DA     		bge	.L116
 3143 01de 0133     		adds	r3, r3, #1
 3144              	.L116:
 3145 01e0 5B10     		asrs	r3, r3, #1
 3146 01e2 8733     		adds	r3, r3, #135
 3147 01e4 9A42     		cmp	r2, r3
 3148 01e6 15DD     		ble	.L115
 3149              		.loc 1 781 0 discriminator 4
 3150 01e8 1423     		movs	r3, #20
ARM GAS  C:\Users\megan\AppData\Local\Temp\ccPHoCT8.s 			page 72


 3151 01ea FB18     		adds	r3, r7, r3
 3152 01ec 1A88     		ldrh	r2, [r3]
 3153 01ee FB68     		ldr	r3, [r7, #12]
 3154 01f0 002B     		cmp	r3, #0
 3155 01f2 00DA     		bge	.L117
 3156 01f4 0133     		adds	r3, r3, #1
 3157              	.L117:
 3158 01f6 5B10     		asrs	r3, r3, #1
 3159 01f8 CD33     		adds	r3, r3, #205
 3160 01fa 9A42     		cmp	r2, r3
 3161 01fc 0ADA     		bge	.L115
 782:main.c        ****         if (bin1.fan_on != true) {
 3162              		.loc 1 782 0 is_stmt 1
 3163 01fe 444B     		ldr	r3, .L125+4
 3164 0200 5B79     		ldrb	r3, [r3, #5]
 3165 0202 012B     		cmp	r3, #1
 3166 0204 00D1     		bne	.LCB2657
 3167 0206 7DE0     		b	.L108	@long jump
 3168              	.LCB2657:
 783:main.c        ****             bin1.fan_on = true;
 3169              		.loc 1 783 0
 3170 0208 414B     		ldr	r3, .L125+4
 3171 020a 0122     		movs	r2, #1
 3172 020c 5A71     		strb	r2, [r3, #5]
 784:main.c        ****             GUIUpdateControls();
 3173              		.loc 1 784 0
 3174 020e FFF7FEFF 		bl	GUIUpdateControls
 782:main.c        ****         if (bin1.fan_on != true) {
 3175              		.loc 1 782 0
 3176 0212 77E0     		b	.L108
 3177              	.L115:
 785:main.c        ****         }
 786:main.c        ****     }
 787:main.c        ****     
 788:main.c        ****     // SET TEMP
 789:main.c        ****     // Down
 790:main.c        ****     else if (settings.mode == AUTOMATIC && x > scr_width/3+160 && x < scr_width/3+230 && y > scr_he
 3178              		.loc 1 790 0
 3179 0214 3D4B     		ldr	r3, .L125
 3180 0216 1B78     		ldrb	r3, [r3]
 3181 0218 012B     		cmp	r3, #1
 3182 021a 36D1     		bne	.L119
 3183              		.loc 1 790 0 is_stmt 0 discriminator 1
 3184 021c 1623     		movs	r3, #22
 3185 021e FB18     		adds	r3, r7, r3
 3186 0220 1C88     		ldrh	r4, [r3]
 3187 0222 3B69     		ldr	r3, [r7, #16]
 3188 0224 0321     		movs	r1, #3
 3189 0226 1800     		movs	r0, r3
 3190 0228 FFF7FEFF 		bl	__aeabi_idiv
 3191 022c 0300     		movs	r3, r0
 3192 022e A033     		adds	r3, r3, #160
 3193 0230 9C42     		cmp	r4, r3
 3194 0232 2ADD     		ble	.L119
 3195              		.loc 1 790 0 discriminator 2
 3196 0234 1623     		movs	r3, #22
 3197 0236 FB18     		adds	r3, r7, r3
ARM GAS  C:\Users\megan\AppData\Local\Temp\ccPHoCT8.s 			page 73


 3198 0238 1C88     		ldrh	r4, [r3]
 3199 023a 3B69     		ldr	r3, [r7, #16]
 3200 023c 0321     		movs	r1, #3
 3201 023e 1800     		movs	r0, r3
 3202 0240 FFF7FEFF 		bl	__aeabi_idiv
 3203 0244 0300     		movs	r3, r0
 3204 0246 E633     		adds	r3, r3, #230
 3205 0248 9C42     		cmp	r4, r3
 3206 024a 1EDA     		bge	.L119
 3207              		.loc 1 790 0 discriminator 3
 3208 024c 1423     		movs	r3, #20
 3209 024e FB18     		adds	r3, r7, r3
 3210 0250 1A88     		ldrh	r2, [r3]
 3211 0252 FB68     		ldr	r3, [r7, #12]
 3212 0254 002B     		cmp	r3, #0
 3213 0256 00DA     		bge	.L120
 3214 0258 0133     		adds	r3, r3, #1
 3215              	.L120:
 3216 025a 5B10     		asrs	r3, r3, #1
 3217 025c 8733     		adds	r3, r3, #135
 3218 025e 9A42     		cmp	r2, r3
 3219 0260 13DD     		ble	.L119
 3220              		.loc 1 790 0 discriminator 4
 3221 0262 1423     		movs	r3, #20
 3222 0264 FB18     		adds	r3, r7, r3
 3223 0266 1A88     		ldrh	r2, [r3]
 3224 0268 FB68     		ldr	r3, [r7, #12]
 3225 026a 002B     		cmp	r3, #0
 3226 026c 00DA     		bge	.L121
 3227 026e 0133     		adds	r3, r3, #1
 3228              	.L121:
 3229 0270 5B10     		asrs	r3, r3, #1
 3230 0272 CD33     		adds	r3, r3, #205
 3231 0274 9A42     		cmp	r2, r3
 3232 0276 08DA     		bge	.L119
 791:main.c        ****         bin1.set_temp--;
 3233              		.loc 1 791 0 is_stmt 1
 3234 0278 254B     		ldr	r3, .L125+4
 3235 027a 1B79     		ldrb	r3, [r3, #4]
 3236 027c 013B     		subs	r3, r3, #1
 3237 027e DAB2     		uxtb	r2, r3
 3238 0280 234B     		ldr	r3, .L125+4
 3239 0282 1A71     		strb	r2, [r3, #4]
 792:main.c        ****         GUIUpdateControls();
 3240              		.loc 1 792 0
 3241 0284 FFF7FEFF 		bl	GUIUpdateControls
 3242 0288 3CE0     		b	.L108
 3243              	.L119:
 793:main.c        ****     }
 794:main.c        ****     // Up
 795:main.c        ****     else if (settings.mode == AUTOMATIC && x > scr_width/3+400 && x < scr_width/3+470 && y > scr_he
 3244              		.loc 1 795 0
 3245 028a 204B     		ldr	r3, .L125
 3246 028c 1B78     		ldrb	r3, [r3]
 3247 028e 012B     		cmp	r3, #1
 3248 0290 38D1     		bne	.L124
 3249              		.loc 1 795 0 is_stmt 0 discriminator 1
ARM GAS  C:\Users\megan\AppData\Local\Temp\ccPHoCT8.s 			page 74


 3250 0292 1623     		movs	r3, #22
 3251 0294 FB18     		adds	r3, r7, r3
 3252 0296 1C88     		ldrh	r4, [r3]
 3253 0298 3B69     		ldr	r3, [r7, #16]
 3254 029a 0321     		movs	r1, #3
 3255 029c 1800     		movs	r0, r3
 3256 029e FFF7FEFF 		bl	__aeabi_idiv
 3257 02a2 0300     		movs	r3, r0
 3258 02a4 9133     		adds	r3, r3, #145
 3259 02a6 FF33     		adds	r3, r3, #255
 3260 02a8 9C42     		cmp	r4, r3
 3261 02aa 2BDD     		ble	.L124
 3262              		.loc 1 795 0 discriminator 2
 3263 02ac 1623     		movs	r3, #22
 3264 02ae FB18     		adds	r3, r7, r3
 3265 02b0 1C88     		ldrh	r4, [r3]
 3266 02b2 3B69     		ldr	r3, [r7, #16]
 3267 02b4 0321     		movs	r1, #3
 3268 02b6 1800     		movs	r0, r3
 3269 02b8 FFF7FEFF 		bl	__aeabi_idiv
 3270 02bc 0300     		movs	r3, r0
 3271 02be D733     		adds	r3, r3, #215
 3272 02c0 FF33     		adds	r3, r3, #255
 3273 02c2 9C42     		cmp	r4, r3
 3274 02c4 1EDA     		bge	.L124
 3275              		.loc 1 795 0 discriminator 3
 3276 02c6 1423     		movs	r3, #20
 3277 02c8 FB18     		adds	r3, r7, r3
 3278 02ca 1A88     		ldrh	r2, [r3]
 3279 02cc FB68     		ldr	r3, [r7, #12]
 3280 02ce 002B     		cmp	r3, #0
 3281 02d0 00DA     		bge	.L122
 3282 02d2 0133     		adds	r3, r3, #1
 3283              	.L122:
 3284 02d4 5B10     		asrs	r3, r3, #1
 3285 02d6 8733     		adds	r3, r3, #135
 3286 02d8 9A42     		cmp	r2, r3
 3287 02da 13DD     		ble	.L124
 3288              		.loc 1 795 0 discriminator 4
 3289 02dc 1423     		movs	r3, #20
 3290 02de FB18     		adds	r3, r7, r3
 3291 02e0 1A88     		ldrh	r2, [r3]
 3292 02e2 FB68     		ldr	r3, [r7, #12]
 3293 02e4 002B     		cmp	r3, #0
 3294 02e6 00DA     		bge	.L123
 3295 02e8 0133     		adds	r3, r3, #1
 3296              	.L123:
 3297 02ea 5B10     		asrs	r3, r3, #1
 3298 02ec CD33     		adds	r3, r3, #205
 3299 02ee 9A42     		cmp	r2, r3
 3300 02f0 08DA     		bge	.L124
 796:main.c        ****         bin1.set_temp++;
 3301              		.loc 1 796 0 is_stmt 1
 3302 02f2 074B     		ldr	r3, .L125+4
 3303 02f4 1B79     		ldrb	r3, [r3, #4]
 3304 02f6 0133     		adds	r3, r3, #1
 3305 02f8 DAB2     		uxtb	r2, r3
ARM GAS  C:\Users\megan\AppData\Local\Temp\ccPHoCT8.s 			page 75


 3306 02fa 054B     		ldr	r3, .L125+4
 3307 02fc 1A71     		strb	r2, [r3, #4]
 797:main.c        ****         GUIUpdateControls();
 3308              		.loc 1 797 0
 3309 02fe FFF7FEFF 		bl	GUIUpdateControls
 798:main.c        ****     }
 799:main.c        **** }
 3310              		.loc 1 799 0
 3311 0302 FFE7     		b	.L124
 3312              	.L108:
 3313              	.L124:
 3314 0304 C046     		nop
 3315 0306 BD46     		mov	sp, r7
 3316 0308 09B0     		add	sp, sp, #36
 3317              		@ sp needed
 3318 030a 90BD     		pop	{r4, r7, pc}
 3319              	.L126:
 3320              		.align	2
 3321              	.L125:
 3322 030c 00000000 		.word	settings
 3323 0310 00000000 		.word	bin1
 3324              		.cfi_endproc
 3325              	.LFE48:
 3326              		.size	GUITouchHandler, .-GUITouchHandler
 3327              		.section	.text.GUITest,"ax",%progbits
 3328              		.align	2
 3329              		.global	GUITest
 3330              		.code	16
 3331              		.thumb_func
 3332              		.type	GUITest, %function
 3333              	GUITest:
 3334              	.LFB49:
 800:main.c        **** 
 801:main.c        **** void GUITest() {
 3335              		.loc 1 801 0
 3336              		.cfi_startproc
 3337              		@ args = 0, pretend = 0, frame = 8
 3338              		@ frame_needed = 1, uses_anonymous_args = 0
 3339 0000 80B5     		push	{r7, lr}
 3340              		.cfi_def_cfa_offset 8
 3341              		.cfi_offset 7, -8
 3342              		.cfi_offset 14, -4
 3343 0002 82B0     		sub	sp, sp, #8
 3344              		.cfi_def_cfa_offset 16
 3345 0004 00AF     		add	r7, sp, #0
 3346              		.cfi_def_cfa_register 7
 802:main.c        ****     
 803:main.c        ****     //------ Declarations ------/
 804:main.c        ****     // LCD Strings
 805:main.c        ****     char temp[] = "113";
 3347              		.loc 1 805 0
 3348 0006 3B00     		movs	r3, r7
 3349 0008 134A     		ldr	r2, .L130
 3350 000a 1A60     		str	r2, [r3]
 806:main.c        ****     
 807:main.c        ****     //------ Procedure ------//
 808:main.c        ****     
ARM GAS  C:\Users\megan\AppData\Local\Temp\ccPHoCT8.s 			page 76


 809:main.c        ****     // Screen start-up
 810:main.c        ****     PWM1out(0);
 3351              		.loc 1 810 0
 3352 000c 0020     		movs	r0, #0
 3353 000e FFF7FEFF 		bl	PWM1out
 811:main.c        ****     fillScreen(RA8875_WHITE);
 3354              		.loc 1 811 0
 3355 0012 124B     		ldr	r3, .L130+4
 3356 0014 1800     		movs	r0, r3
 3357 0016 FFF7FEFF 		bl	fillScreen
 3358              	.LBB3:
 812:main.c        ****     for (int i = 0; i < 256; i++) {
 3359              		.loc 1 812 0
 3360 001a 0023     		movs	r3, #0
 3361 001c 7B60     		str	r3, [r7, #4]
 3362 001e 0AE0     		b	.L128
 3363              	.L129:
 813:main.c        ****         PWM1out(i);
 3364              		.loc 1 813 0 discriminator 3
 3365 0020 7B68     		ldr	r3, [r7, #4]
 3366 0022 DBB2     		uxtb	r3, r3
 3367 0024 1800     		movs	r0, r3
 3368 0026 FFF7FEFF 		bl	PWM1out
 814:main.c        ****         CyDelay(1);
 3369              		.loc 1 814 0 discriminator 3
 3370 002a 0120     		movs	r0, #1
 3371 002c FFF7FEFF 		bl	CyDelay
 812:main.c        ****     for (int i = 0; i < 256; i++) {
 3372              		.loc 1 812 0 discriminator 3
 3373 0030 7B68     		ldr	r3, [r7, #4]
 3374 0032 0133     		adds	r3, r3, #1
 3375 0034 7B60     		str	r3, [r7, #4]
 3376              	.L128:
 812:main.c        ****     for (int i = 0; i < 256; i++) {
 3377              		.loc 1 812 0 is_stmt 0 discriminator 1
 3378 0036 7B68     		ldr	r3, [r7, #4]
 3379 0038 FF2B     		cmp	r3, #255
 3380 003a F1DD     		ble	.L129
 3381              	.LBE3:
 815:main.c        ****     }
 816:main.c        ****     
 817:main.c        ****     // Print Temp
 818:main.c        ****     textMode();
 3382              		.loc 1 818 0 is_stmt 1
 3383 003c FFF7FEFF 		bl	textMode
 819:main.c        ****     textSetCursor(100, 100);
 3384              		.loc 1 819 0
 3385 0040 6421     		movs	r1, #100
 3386 0042 6420     		movs	r0, #100
 3387 0044 FFF7FEFF 		bl	textSetCursor
 820:main.c        ****     textTransparent(RA8875_BLUE); 
 3388              		.loc 1 820 0
 3389 0048 1F20     		movs	r0, #31
 3390 004a FFF7FEFF 		bl	textTransparent
 821:main.c        **** //    PrintInt(255);
 822:main.c        **** //    textSetCursor(100, 200);
 823:main.c        **** }
ARM GAS  C:\Users\megan\AppData\Local\Temp\ccPHoCT8.s 			page 77


 3391              		.loc 1 823 0
 3392 004e C046     		nop
 3393 0050 BD46     		mov	sp, r7
 3394 0052 02B0     		add	sp, sp, #8
 3395              		@ sp needed
 3396 0054 80BD     		pop	{r7, pc}
 3397              	.L131:
 3398 0056 C046     		.align	2
 3399              	.L130:
 3400 0058 31313300 		.word	3354929
 3401 005c FFFF0000 		.word	65535
 3402              		.cfi_endproc
 3403              	.LFE49:
 3404              		.size	GUITest, .-GUITest
 3405              		.section	.text.TempReceive,"ax",%progbits
 3406              		.align	2
 3407              		.global	TempReceive
 3408              		.code	16
 3409              		.thumb_func
 3410              		.type	TempReceive, %function
 3411              	TempReceive:
 3412              	.LFB50:
 824:main.c        **** 
 825:main.c        **** void TempReceive(Bin * bin, uint8_t * fl_bytes) {
 3413              		.loc 1 825 0
 3414              		.cfi_startproc
 3415              		@ args = 0, pretend = 0, frame = 16
 3416              		@ frame_needed = 1, uses_anonymous_args = 0
 3417 0000 80B5     		push	{r7, lr}
 3418              		.cfi_def_cfa_offset 8
 3419              		.cfi_offset 7, -8
 3420              		.cfi_offset 14, -4
 3421 0002 84B0     		sub	sp, sp, #16
 3422              		.cfi_def_cfa_offset 24
 3423 0004 00AF     		add	r7, sp, #0
 3424              		.cfi_def_cfa_register 7
 3425 0006 7860     		str	r0, [r7, #4]
 3426 0008 3960     		str	r1, [r7]
 826:main.c        ****     
 827:main.c        ****     char space[] = " ";
 3427              		.loc 1 827 0
 3428 000a 0C23     		movs	r3, #12
 3429 000c FB18     		adds	r3, r7, r3
 3430 000e 2022     		movs	r2, #32
 3431 0010 1A80     		strh	r2, [r3]
 828:main.c        ****     
 829:main.c        ****     
 830:main.c        ****     // Store value
 831:main.c        ****     bin->actual_temp = *(float32*)(fl_bytes);
 3432              		.loc 1 831 0
 3433 0012 3B68     		ldr	r3, [r7]
 3434 0014 1A68     		ldr	r2, [r3]
 3435 0016 7B68     		ldr	r3, [r7, #4]
 3436 0018 1A60     		str	r2, [r3]
 832:main.c        ****     
 833:main.c        ****     // Update interface
 834:main.c        ****     GUIUpdateBin1ActualTemp();
ARM GAS  C:\Users\megan\AppData\Local\Temp\ccPHoCT8.s 			page 78


 3437              		.loc 1 834 0
 3438 001a FFF7FEFF 		bl	GUIUpdateBin1ActualTemp
 835:main.c        **** }
 3439              		.loc 1 835 0
 3440 001e C046     		nop
 3441 0020 BD46     		mov	sp, r7
 3442 0022 04B0     		add	sp, sp, #16
 3443              		@ sp needed
 3444 0024 80BD     		pop	{r7, pc}
 3445              		.cfi_endproc
 3446              	.LFE50:
 3447              		.size	TempReceive, .-TempReceive
 3448 0026 C046     		.section	.text.TempOutsideReceive,"ax",%progbits
 3449              		.align	2
 3450              		.global	TempOutsideReceive
 3451              		.code	16
 3452              		.thumb_func
 3453              		.type	TempOutsideReceive, %function
 3454              	TempOutsideReceive:
 3455              	.LFB51:
 836:main.c        **** 
 837:main.c        **** void TempOutsideReceive(uint8_t * fl_bytes) {
 3456              		.loc 1 837 0
 3457              		.cfi_startproc
 3458              		@ args = 0, pretend = 0, frame = 16
 3459              		@ frame_needed = 1, uses_anonymous_args = 0
 3460 0000 80B5     		push	{r7, lr}
 3461              		.cfi_def_cfa_offset 8
 3462              		.cfi_offset 7, -8
 3463              		.cfi_offset 14, -4
 3464 0002 84B0     		sub	sp, sp, #16
 3465              		.cfi_def_cfa_offset 24
 3466 0004 00AF     		add	r7, sp, #0
 3467              		.cfi_def_cfa_register 7
 3468 0006 7860     		str	r0, [r7, #4]
 838:main.c        ****     
 839:main.c        ****     char space[] = " ";
 3469              		.loc 1 839 0
 3470 0008 0C23     		movs	r3, #12
 3471 000a FB18     		adds	r3, r7, r3
 3472 000c 2022     		movs	r2, #32
 3473 000e 1A80     		strh	r2, [r3]
 840:main.c        ****     
 841:main.c        ****     
 842:main.c        ****     // Store value
 843:main.c        ****     outside.temp = *(float32*)(fl_bytes);
 3474              		.loc 1 843 0
 3475 0010 7B68     		ldr	r3, [r7, #4]
 3476 0012 1A68     		ldr	r2, [r3]
 3477 0014 034B     		ldr	r3, .L134
 3478 0016 1A60     		str	r2, [r3]
 844:main.c        ****     
 845:main.c        ****     // Update interface
 846:main.c        ****     GUIUpdateOutsideTemp();
 3479              		.loc 1 846 0
 3480 0018 FFF7FEFF 		bl	GUIUpdateOutsideTemp
 847:main.c        **** }
ARM GAS  C:\Users\megan\AppData\Local\Temp\ccPHoCT8.s 			page 79


 3481              		.loc 1 847 0
 3482 001c C046     		nop
 3483 001e BD46     		mov	sp, r7
 3484 0020 04B0     		add	sp, sp, #16
 3485              		@ sp needed
 3486 0022 80BD     		pop	{r7, pc}
 3487              	.L135:
 3488              		.align	2
 3489              	.L134:
 3490 0024 00000000 		.word	outside
 3491              		.cfi_endproc
 3492              	.LFE51:
 3493              		.size	TempOutsideReceive, .-TempOutsideReceive
 3494              		.global	__aeabi_uidivmod
 3495              		.global	__aeabi_uidiv
 3496              		.section	.text.PrintInt,"ax",%progbits
 3497              		.align	2
 3498              		.global	PrintInt
 3499              		.code	16
 3500              		.thumb_func
 3501              		.type	PrintInt, %function
 3502              	PrintInt:
 3503              	.LFB52:
 848:main.c        **** 
 849:main.c        **** void PrintInt(uint8_t n) {
 3504              		.loc 1 849 0
 3505              		.cfi_startproc
 3506              		@ args = 0, pretend = 0, frame = 16
 3507              		@ frame_needed = 1, uses_anonymous_args = 0
 3508 0000 90B5     		push	{r4, r7, lr}
 3509              		.cfi_def_cfa_offset 12
 3510              		.cfi_offset 4, -12
 3511              		.cfi_offset 7, -8
 3512              		.cfi_offset 14, -4
 3513 0002 85B0     		sub	sp, sp, #20
 3514              		.cfi_def_cfa_offset 32
 3515 0004 00AF     		add	r7, sp, #0
 3516              		.cfi_def_cfa_register 7
 3517 0006 0200     		movs	r2, r0
 3518 0008 FB1D     		adds	r3, r7, #7
 3519 000a 1A70     		strb	r2, [r3]
 850:main.c        ****     // Declarations
 851:main.c        ****     uint8_t d;
 852:main.c        ****     char p[] = "0";
 3520              		.loc 1 852 0
 3521 000c 0C23     		movs	r3, #12
 3522 000e FB18     		adds	r3, r7, r3
 3523 0010 3022     		movs	r2, #48
 3524 0012 1A80     		strh	r2, [r3]
 853:main.c        ****     
 854:main.c        ****     // Separate LSB
 855:main.c        ****     d = n % 10;
 3525              		.loc 1 855 0
 3526 0014 0F23     		movs	r3, #15
 3527 0016 FC18     		adds	r4, r7, r3
 3528 0018 FB1D     		adds	r3, r7, #7
 3529 001a 1B78     		ldrb	r3, [r3]
ARM GAS  C:\Users\megan\AppData\Local\Temp\ccPHoCT8.s 			page 80


 3530 001c 0A21     		movs	r1, #10
 3531 001e 1800     		movs	r0, r3
 3532 0020 FFF7FEFF 		bl	__aeabi_uidivmod
 3533 0024 0B00     		movs	r3, r1
 3534 0026 2370     		strb	r3, [r4]
 856:main.c        ****     
 857:main.c        ****     // Convert to ASCII (+48)
 858:main.c        ****     p[0] = (d + 48);
 3535              		.loc 1 858 0
 3536 0028 0F23     		movs	r3, #15
 3537 002a FB18     		adds	r3, r7, r3
 3538 002c 1B78     		ldrb	r3, [r3]
 3539 002e 3033     		adds	r3, r3, #48
 3540 0030 DAB2     		uxtb	r2, r3
 3541 0032 0C23     		movs	r3, #12
 3542 0034 FB18     		adds	r3, r7, r3
 3543 0036 1A70     		strb	r2, [r3]
 859:main.c        ****     
 860:main.c        ****     // Any digits to the left?
 861:main.c        ****     if (n / 10 != 0) {
 3544              		.loc 1 861 0
 3545 0038 FB1D     		adds	r3, r7, #7
 3546 003a 1B78     		ldrb	r3, [r3]
 3547 003c 092B     		cmp	r3, #9
 3548 003e 0AD9     		bls	.L137
 862:main.c        ****         PrintInt(n/10);
 3549              		.loc 1 862 0
 3550 0040 FB1D     		adds	r3, r7, #7
 3551 0042 1B78     		ldrb	r3, [r3]
 3552 0044 0A21     		movs	r1, #10
 3553 0046 1800     		movs	r0, r3
 3554 0048 FFF7FEFF 		bl	__aeabi_uidiv
 3555 004c 0300     		movs	r3, r0
 3556 004e DBB2     		uxtb	r3, r3
 3557 0050 1800     		movs	r0, r3
 3558 0052 FFF7FEFF 		bl	PrintInt
 3559              	.L137:
 863:main.c        ****     }
 864:main.c        ****     
 865:main.c        ****     textWrite(p,strlen(p));
 3560              		.loc 1 865 0
 3561 0056 0C23     		movs	r3, #12
 3562 0058 FB18     		adds	r3, r7, r3
 3563 005a 1800     		movs	r0, r3
 3564 005c FFF7FEFF 		bl	strlen
 3565 0060 0300     		movs	r3, r0
 3566 0062 9AB2     		uxth	r2, r3
 3567 0064 0C23     		movs	r3, #12
 3568 0066 FB18     		adds	r3, r7, r3
 3569 0068 1100     		movs	r1, r2
 3570 006a 1800     		movs	r0, r3
 3571 006c FFF7FEFF 		bl	textWrite
 866:main.c        ****     return;
 3572              		.loc 1 866 0
 3573 0070 C046     		nop
 867:main.c        **** }
 3574              		.loc 1 867 0
ARM GAS  C:\Users\megan\AppData\Local\Temp\ccPHoCT8.s 			page 81


 3575 0072 BD46     		mov	sp, r7
 3576 0074 05B0     		add	sp, sp, #20
 3577              		@ sp needed
 3578 0076 90BD     		pop	{r4, r7, pc}
 3579              		.cfi_endproc
 3580              	.LFE52:
 3581              		.size	PrintInt, .-PrintInt
 3582              		.global	__aeabi_f2iz
 3583              		.global	__aeabi_fsub
 3584              		.global	__aeabi_fmul
 3585              		.section	.text.PrintFloat,"ax",%progbits
 3586              		.align	2
 3587              		.global	PrintFloat
 3588              		.code	16
 3589              		.thumb_func
 3590              		.type	PrintFloat, %function
 3591              	PrintFloat:
 3592              	.LFB53:
 868:main.c        **** 
 869:main.c        **** void PrintFloat(float n) {
 3593              		.loc 1 869 0
 3594              		.cfi_startproc
 3595              		@ args = 0, pretend = 0, frame = 24
 3596              		@ frame_needed = 1, uses_anonymous_args = 0
 3597 0000 80B5     		push	{r7, lr}
 3598              		.cfi_def_cfa_offset 8
 3599              		.cfi_offset 7, -8
 3600              		.cfi_offset 14, -4
 3601 0002 86B0     		sub	sp, sp, #24
 3602              		.cfi_def_cfa_offset 32
 3603 0004 00AF     		add	r7, sp, #0
 3604              		.cfi_def_cfa_register 7
 3605 0006 7860     		str	r0, [r7, #4]
 870:main.c        ****     
 871:main.c        ****     char negative[] = "-";
 3606              		.loc 1 871 0
 3607 0008 0C23     		movs	r3, #12
 3608 000a FB18     		adds	r3, r7, r3
 3609 000c 2D22     		movs	r2, #45
 3610 000e 1A80     		strh	r2, [r3]
 872:main.c        ****     char dot[] = ".";
 3611              		.loc 1 872 0
 3612 0010 0823     		movs	r3, #8
 3613 0012 FB18     		adds	r3, r7, r3
 3614 0014 2E22     		movs	r2, #46
 3615 0016 1A80     		strh	r2, [r3]
 873:main.c        ****     
 874:main.c        ****     
 875:main.c        ****     // Extract integer part
 876:main.c        ****     int ipart = (int) n;
 3616              		.loc 1 876 0
 3617 0018 7868     		ldr	r0, [r7, #4]
 3618 001a FFF7FEFF 		bl	__aeabi_f2iz
 3619 001e 0300     		movs	r3, r0
 3620 0020 7B61     		str	r3, [r7, #20]
 877:main.c        ****     
 878:main.c        ****     // Extract floating part
ARM GAS  C:\Users\megan\AppData\Local\Temp\ccPHoCT8.s 			page 82


 879:main.c        ****     float fpart = n - (float) ipart;
 3621              		.loc 1 879 0
 3622 0022 7869     		ldr	r0, [r7, #20]
 3623 0024 FFF7FEFF 		bl	__aeabi_i2f
 3624 0028 031C     		adds	r3, r0, #0
 3625 002a 191C     		adds	r1, r3, #0
 3626 002c 7868     		ldr	r0, [r7, #4]
 3627 002e FFF7FEFF 		bl	__aeabi_fsub
 3628 0032 031C     		adds	r3, r0, #0
 3629 0034 3B61     		str	r3, [r7, #16]
 880:main.c        ****     
 881:main.c        ****     // Convert integer part to string
 882:main.c        ****     if (ipart < 0) {
 3630              		.loc 1 882 0
 3631 0036 7B69     		ldr	r3, [r7, #20]
 3632 0038 002B     		cmp	r3, #0
 3633 003a 0FDA     		bge	.L140
 883:main.c        ****         textWrite(negative,strlen(negative));
 3634              		.loc 1 883 0
 3635 003c 0C23     		movs	r3, #12
 3636 003e FB18     		adds	r3, r7, r3
 3637 0040 1800     		movs	r0, r3
 3638 0042 FFF7FEFF 		bl	strlen
 3639 0046 0300     		movs	r3, r0
 3640 0048 9AB2     		uxth	r2, r3
 3641 004a 0C23     		movs	r3, #12
 3642 004c FB18     		adds	r3, r7, r3
 3643 004e 1100     		movs	r1, r2
 3644 0050 1800     		movs	r0, r3
 3645 0052 FFF7FEFF 		bl	textWrite
 884:main.c        ****         ipart *= -1;
 3646              		.loc 1 884 0
 3647 0056 7B69     		ldr	r3, [r7, #20]
 3648 0058 5B42     		rsbs	r3, r3, #0
 3649 005a 7B61     		str	r3, [r7, #20]
 3650              	.L140:
 885:main.c        ****     }
 886:main.c        ****     PrintInt(ipart);
 3651              		.loc 1 886 0
 3652 005c 7B69     		ldr	r3, [r7, #20]
 3653 005e DBB2     		uxtb	r3, r3
 3654 0060 1800     		movs	r0, r3
 3655 0062 FFF7FEFF 		bl	PrintInt
 887:main.c        ****     
 888:main.c        ****     // Display 1 digit after decimal point
 889:main.c        ****     textWrite(dot,strlen(dot));
 3656              		.loc 1 889 0
 3657 0066 0823     		movs	r3, #8
 3658 0068 FB18     		adds	r3, r7, r3
 3659 006a 1800     		movs	r0, r3
 3660 006c FFF7FEFF 		bl	strlen
 3661 0070 0300     		movs	r3, r0
 3662 0072 9AB2     		uxth	r2, r3
 3663 0074 0823     		movs	r3, #8
 3664 0076 FB18     		adds	r3, r7, r3
 3665 0078 1100     		movs	r1, r2
 3666 007a 1800     		movs	r0, r3
ARM GAS  C:\Users\megan\AppData\Local\Temp\ccPHoCT8.s 			page 83


 3667 007c FFF7FEFF 		bl	textWrite
 890:main.c        ****     
 891:main.c        ****     // Get the value of the fraction part up to 1 digit
 892:main.c        ****     // after the dot.
 893:main.c        ****     fpart = fpart * pow(10,1);
 3668              		.loc 1 893 0
 3669 0080 0849     		ldr	r1, .L141
 3670 0082 3869     		ldr	r0, [r7, #16]
 3671 0084 FFF7FEFF 		bl	__aeabi_fmul
 3672 0088 031C     		adds	r3, r0, #0
 3673 008a 3B61     		str	r3, [r7, #16]
 894:main.c        ****     
 895:main.c        ****     PrintInt((int) fpart);    
 3674              		.loc 1 895 0
 3675 008c 3869     		ldr	r0, [r7, #16]
 3676 008e FFF7FEFF 		bl	__aeabi_f2iz
 3677 0092 0300     		movs	r3, r0
 3678 0094 DBB2     		uxtb	r3, r3
 3679 0096 1800     		movs	r0, r3
 3680 0098 FFF7FEFF 		bl	PrintInt
 896:main.c        **** }
 3681              		.loc 1 896 0
 3682 009c C046     		nop
 3683 009e BD46     		mov	sp, r7
 3684 00a0 06B0     		add	sp, sp, #24
 3685              		@ sp needed
 3686 00a2 80BD     		pop	{r7, pc}
 3687              	.L142:
 3688              		.align	2
 3689              	.L141:
 3690 00a4 00002041 		.word	1092616192
 3691              		.cfi_endproc
 3692              	.LFE53:
 3693              		.size	PrintFloat, .-PrintFloat
 3694              		.section	.text.RegReadTest,"ax",%progbits
 3695              		.align	2
 3696              		.global	RegReadTest
 3697              		.code	16
 3698              		.thumb_func
 3699              		.type	RegReadTest, %function
 3700              	RegReadTest:
 3701              	.LFB54:
 897:main.c        **** 
 898:main.c        **** void RegReadTest() {
 3702              		.loc 1 898 0
 3703              		.cfi_startproc
 3704              		@ args = 0, pretend = 0, frame = 8
 3705              		@ frame_needed = 1, uses_anonymous_args = 0
 3706 0000 80B5     		push	{r7, lr}
 3707              		.cfi_def_cfa_offset 8
 3708              		.cfi_offset 7, -8
 3709              		.cfi_offset 14, -4
 3710 0002 82B0     		sub	sp, sp, #8
 3711              		.cfi_def_cfa_offset 16
 3712 0004 00AF     		add	r7, sp, #0
 3713              		.cfi_def_cfa_register 7
 899:main.c        ****     uint32 size_result = LCDSPI_SpiUartGetRxBufferSize();
ARM GAS  C:\Users\megan\AppData\Local\Temp\ccPHoCT8.s 			page 84


 3714              		.loc 1 899 0
 3715 0006 FFF7FEFF 		bl	LCDSPI_SpiUartGetRxBufferSize
 3716 000a 0300     		movs	r3, r0
 3717 000c 7B60     		str	r3, [r7, #4]
 900:main.c        ****     uint32 reg_result = readReg(0x22);
 3718              		.loc 1 900 0
 3719 000e 2220     		movs	r0, #34
 3720 0010 FFF7FEFF 		bl	readReg
 3721 0014 0300     		movs	r3, r0
 3722 0016 3B60     		str	r3, [r7]
 901:main.c        ****     
 902:main.c        ****     if (size_result > 0) {
 3723              		.loc 1 902 0
 3724 0018 7B68     		ldr	r3, [r7, #4]
 3725 001a 002B     		cmp	r3, #0
 3726 001c 02D0     		beq	.L144
 903:main.c        ****         LED_BLUE_Write(0);
 3727              		.loc 1 903 0
 3728 001e 0020     		movs	r0, #0
 3729 0020 FFF7FEFF 		bl	LED_BLUE_Write
 3730              	.L144:
 904:main.c        ****     }
 905:main.c        ****     
 906:main.c        ****     if (reg_result != 0x0000) {
 3731              		.loc 1 906 0
 3732 0024 3B68     		ldr	r3, [r7]
 3733 0026 002B     		cmp	r3, #0
 3734 0028 03D0     		beq	.L145
 907:main.c        ****         LED_GREEN_Write(0);    
 3735              		.loc 1 907 0
 3736 002a 0020     		movs	r0, #0
 3737 002c FFF7FEFF 		bl	LED_GREEN_Write
 908:main.c        ****     }
 909:main.c        ****     else {
 910:main.c        ****         LED_GREEN_Write(1);
 911:main.c        ****     }  
 912:main.c        **** }
 3738              		.loc 1 912 0
 3739 0030 02E0     		b	.L147
 3740              	.L145:
 910:main.c        ****     }  
 3741              		.loc 1 910 0
 3742 0032 0120     		movs	r0, #1
 3743 0034 FFF7FEFF 		bl	LED_GREEN_Write
 3744              	.L147:
 3745              		.loc 1 912 0
 3746 0038 C046     		nop
 3747 003a BD46     		mov	sp, r7
 3748 003c 02B0     		add	sp, sp, #8
 3749              		@ sp needed
 3750 003e 80BD     		pop	{r7, pc}
 3751              		.cfi_endproc
 3752              	.LFE54:
 3753              		.size	RegReadTest, .-RegReadTest
 3754              		.section	.rodata
 3755 0155 000000   		.align	2
 3756              	.LC74:
ARM GAS  C:\Users\megan\AppData\Local\Temp\ccPHoCT8.s 			page 85


 3757 0158 4359424C 		.ascii	"CYBLE_ERROR_INVALID_PARAMETER\000"
 3757      455F4552 
 3757      524F525F 
 3757      494E5641 
 3757      4C49445F 
 3758 0176 0000     		.align	2
 3759              	.LC76:
 3760 0178 4359424C 		.ascii	"CYBLE_ERROR_INVALID_OPERATION\000"
 3760      455F4552 
 3760      524F525F 
 3760      494E5641 
 3760      4C49445F 
 3761 0196 0000     		.align	2
 3762              	.LC78:
 3763 0198 4359424C 		.ascii	"CYBLE_ERROR_MEMORY_ALLOCATION_FAILED\000"
 3763      455F4552 
 3763      524F525F 
 3763      4D454D4F 
 3763      52595F41 
 3764 01bd 000000   		.align	2
 3765              	.LC80:
 3766 01c0 4359424C 		.ascii	"CYBLE_ERROR_INVALID_STATE\000"
 3766      455F4552 
 3766      524F525F 
 3766      494E5641 
 3766      4C49445F 
 3767 01da 0000     		.align	2
 3768              	.LC0:
 3769 01dc 01       		.byte	1
 3770 01dd 00       		.byte	0
 3771 01de 00       		.byte	0
 3772 01df 50       		.byte	80
 3773 01e0 A0       		.byte	-96
 3774 01e1 00       		.byte	0
 3775 01e2 00       		.byte	0
 3776              		.section	.text.BLEConnect,"ax",%progbits
 3777              		.align	2
 3778              		.global	BLEConnect
 3779              		.code	16
 3780              		.thumb_func
 3781              		.type	BLEConnect, %function
 3782              	BLEConnect:
 3783              	.LFB55:
 913:main.c        **** 
 914:main.c        **** void BLEConnect() {
 3784              		.loc 1 914 0
 3785              		.cfi_startproc
 3786              		@ args = 0, pretend = 0, frame = 224
 3787              		@ frame_needed = 1, uses_anonymous_args = 0
 3788 0000 90B5     		push	{r4, r7, lr}
 3789              		.cfi_def_cfa_offset 12
 3790              		.cfi_offset 4, -12
 3791              		.cfi_offset 7, -8
 3792              		.cfi_offset 14, -4
 3793 0002 B9B0     		sub	sp, sp, #228
 3794              		.cfi_def_cfa_offset 240
 3795 0004 00AF     		add	r7, sp, #0
ARM GAS  C:\Users\megan\AppData\Local\Temp\ccPHoCT8.s 			page 86


 3796              		.cfi_def_cfa_register 7
 915:main.c        ****     
 916:main.c        ****      //------ Declarations ------/
 917:main.c        ****     // LCD Strings
 918:main.c        ****     char ok[] = "CYBLE_ERROR_OK";
 3797              		.loc 1 918 0
 3798 0006 CC23     		movs	r3, #204
 3799 0008 FB18     		adds	r3, r7, r3
 3800 000a 474A     		ldr	r2, .L153
 3801 000c 13CA     		ldmia	r2!, {r0, r1, r4}
 3802 000e 13C3     		stmia	r3!, {r0, r1, r4}
 3803 0010 1188     		ldrh	r1, [r2]
 3804 0012 1980     		strh	r1, [r3]
 3805 0014 9278     		ldrb	r2, [r2, #2]
 3806 0016 9A70     		strb	r2, [r3, #2]
 919:main.c        ****     char error[] = "CYBLE_ERROR_OCCURED";
 3807              		.loc 1 919 0
 3808 0018 B823     		movs	r3, #184
 3809 001a FB18     		adds	r3, r7, r3
 3810 001c 434A     		ldr	r2, .L153+4
 3811 001e 13CA     		ldmia	r2!, {r0, r1, r4}
 3812 0020 13C3     		stmia	r3!, {r0, r1, r4}
 3813 0022 03CA     		ldmia	r2!, {r0, r1}
 3814 0024 03C3     		stmia	r3!, {r0, r1}
 920:main.c        ****     char param[] = "CYBLE_ERROR_INVALID_PARAMETER";
 3815              		.loc 1 920 0
 3816 0026 9823     		movs	r3, #152
 3817 0028 FB18     		adds	r3, r7, r3
 3818 002a 414A     		ldr	r2, .L153+8
 3819 002c 13CA     		ldmia	r2!, {r0, r1, r4}
 3820 002e 13C3     		stmia	r3!, {r0, r1, r4}
 3821 0030 13CA     		ldmia	r2!, {r0, r1, r4}
 3822 0032 13C3     		stmia	r3!, {r0, r1, r4}
 3823 0034 1168     		ldr	r1, [r2]
 3824 0036 1960     		str	r1, [r3]
 3825 0038 9288     		ldrh	r2, [r2, #4]
 3826 003a 9A80     		strh	r2, [r3, #4]
 921:main.c        ****     char operation[] = "CYBLE_ERROR_INVALID_OPERATION";
 3827              		.loc 1 921 0
 3828 003c 7823     		movs	r3, #120
 3829 003e FB18     		adds	r3, r7, r3
 3830 0040 3C4A     		ldr	r2, .L153+12
 3831 0042 13CA     		ldmia	r2!, {r0, r1, r4}
 3832 0044 13C3     		stmia	r3!, {r0, r1, r4}
 3833 0046 13CA     		ldmia	r2!, {r0, r1, r4}
 3834 0048 13C3     		stmia	r3!, {r0, r1, r4}
 3835 004a 1168     		ldr	r1, [r2]
 3836 004c 1960     		str	r1, [r3]
 3837 004e 9288     		ldrh	r2, [r2, #4]
 3838 0050 9A80     		strh	r2, [r3, #4]
 922:main.c        ****     char mem[] = "CYBLE_ERROR_MEMORY_ALLOCATION_FAILED";
 3839              		.loc 1 922 0
 3840 0052 5023     		movs	r3, #80
 3841 0054 FB18     		adds	r3, r7, r3
 3842 0056 384A     		ldr	r2, .L153+16
 3843 0058 13CA     		ldmia	r2!, {r0, r1, r4}
 3844 005a 13C3     		stmia	r3!, {r0, r1, r4}
ARM GAS  C:\Users\megan\AppData\Local\Temp\ccPHoCT8.s 			page 87


 3845 005c 13CA     		ldmia	r2!, {r0, r1, r4}
 3846 005e 13C3     		stmia	r3!, {r0, r1, r4}
 3847 0060 13CA     		ldmia	r2!, {r0, r1, r4}
 3848 0062 13C3     		stmia	r3!, {r0, r1, r4}
 3849 0064 1278     		ldrb	r2, [r2]
 3850 0066 1A70     		strb	r2, [r3]
 923:main.c        ****     char state[] = "CYBLE_ERROR_INVALID_STATE";
 3851              		.loc 1 923 0
 3852 0068 3423     		movs	r3, #52
 3853 006a FB18     		adds	r3, r7, r3
 3854 006c 334A     		ldr	r2, .L153+20
 3855 006e 13CA     		ldmia	r2!, {r0, r1, r4}
 3856 0070 13C3     		stmia	r3!, {r0, r1, r4}
 3857 0072 13CA     		ldmia	r2!, {r0, r1, r4}
 3858 0074 13C3     		stmia	r3!, {r0, r1, r4}
 3859 0076 1288     		ldrh	r2, [r2]
 3860 0078 1A80     		strh	r2, [r3]
 924:main.c        ****     
 925:main.c        ****     CYBLE_API_RESULT_T                      apiResult;
 926:main.c        ****     
 927:main.c        **** //    CYBLE_CONN_HANDLE_T                     connHandle;
 928:main.c        ****     CYBLE_GATT_ATTR_HANDLE_RANGE_T          range;
 929:main.c        ****     CYBLE_UUID_T                            uuid;
 930:main.c        ****     CYBLE_GATTC_READ_BY_TYPE_REQ_T          readByTypeReqParam;
 931:main.c        ****     
 932:main.c        ****     CYBLE_API_RESULT_T scan_result;
 933:main.c        ****     CYBLE_API_RESULT_T connect_result;
 934:main.c        ****     CYBLE_STATE_T ble_state;
 935:main.c        ****     
 936:main.c        ****     //uint8 peripheral_address[6] = "000001";
 937:main.c        ****     //uint8 peripheral_add_type = 0;
 938:main.c        ****    // CYBLE_GAP_BD_ADDR_T peripheral_addr = {{0x00,0xA0,0x50,0x00,0x00,0x01}, 0};
 939:main.c        ****     CYBLE_GAP_BD_ADDR_T peripheral_addr = {{0x01,0x00,0x00,0x50,0xA0,0x00}, 0};
 3861              		.loc 1 939 0
 3862 007a 3A00     		movs	r2, r7
 3863 007c 304B     		ldr	r3, .L153+24
 3864 007e 1000     		movs	r0, r2
 3865 0080 1900     		movs	r1, r3
 3866 0082 0723     		movs	r3, #7
 3867 0084 1A00     		movs	r2, r3
 3868 0086 FFF7FEFF 		bl	memcpy
 940:main.c        ****     
 941:main.c        ****     //------ GAP -------//
 942:main.c        ****     
 943:main.c        ****     CyBle_ProcessEvents();
 3869              		.loc 1 943 0
 3870 008a FFF7FEFF 		bl	CyBle_ProcessEvents
 944:main.c        ****     
 945:main.c        ****     scan_result = CyBle_GapcStartScan( CYBLE_SCANNING_FAST );
 3871              		.loc 1 945 0
 3872 008e DE23     		movs	r3, #222
 3873 0090 FC18     		adds	r4, r7, r3
 3874 0092 0020     		movs	r0, #0
 3875 0094 FFF7FEFF 		bl	CyBle_GapcStartScan
 3876 0098 0300     		movs	r3, r0
 3877 009a 2380     		strh	r3, [r4]
 946:main.c        ****     if (scan_result == CYBLE_ERROR_OK) {
ARM GAS  C:\Users\megan\AppData\Local\Temp\ccPHoCT8.s 			page 88


 3878              		.loc 1 946 0
 3879 009c DE23     		movs	r3, #222
 3880 009e FB18     		adds	r3, r7, r3
 3881 00a0 1B88     		ldrh	r3, [r3]
 3882 00a2 002B     		cmp	r3, #0
 3883 00a4 02D1     		bne	.L149
 947:main.c        ****           LED_GREEN_Write(0);  
 3884              		.loc 1 947 0
 3885 00a6 0020     		movs	r0, #0
 3886 00a8 FFF7FEFF 		bl	LED_GREEN_Write
 3887              	.L149:
 948:main.c        ****     }
 949:main.c        ****     CyBle_ProcessEvents();
 3888              		.loc 1 949 0
 3889 00ac FFF7FEFF 		bl	CyBle_ProcessEvents
 950:main.c        ****     CyBle_GapcStopScan();
 3890              		.loc 1 950 0
 3891 00b0 FFF7FEFF 		bl	CyBle_GapcStopScan
 951:main.c        ****     CyBle_ProcessEvents();
 3892              		.loc 1 951 0
 3893 00b4 FFF7FEFF 		bl	CyBle_ProcessEvents
 952:main.c        **** //    if (DevicesNearBy == 0) {
 953:main.c        **** //        LED_BLUE_Write(0);   
 954:main.c        **** //    }
 955:main.c        **** //    CyDelay(1000);
 956:main.c        ****     connect_result = CyBle_GapcConnectDevice( &peripheral_addr );
 3894              		.loc 1 956 0
 3895 00b8 DC23     		movs	r3, #220
 3896 00ba FC18     		adds	r4, r7, r3
 3897 00bc 3B00     		movs	r3, r7
 3898 00be 1800     		movs	r0, r3
 3899 00c0 FFF7FEFF 		bl	CyBle_GapcConnectDevice
 3900 00c4 0300     		movs	r3, r0
 3901 00c6 2380     		strh	r3, [r4]
 957:main.c        ****     
 958:main.c        ****     CyBle_ProcessEvents();
 3902              		.loc 1 958 0
 3903 00c8 FFF7FEFF 		bl	CyBle_ProcessEvents
 959:main.c        ****     if (connect_result == CYBLE_ERROR_OK) {
 3904              		.loc 1 959 0
 3905 00cc DC23     		movs	r3, #220
 3906 00ce FB18     		adds	r3, r7, r3
 3907 00d0 1B88     		ldrh	r3, [r3]
 3908 00d2 002B     		cmp	r3, #0
 3909 00d4 0FD1     		bne	.L150
 960:main.c        ****         LED_BLUE_Write(0); 
 3910              		.loc 1 960 0
 3911 00d6 0020     		movs	r0, #0
 3912 00d8 FFF7FEFF 		bl	LED_BLUE_Write
 961:main.c        ****         CyDelay(500);
 3913              		.loc 1 961 0
 3914 00dc FA23     		movs	r3, #250
 3915 00de 5B00     		lsls	r3, r3, #1
 3916 00e0 1800     		movs	r0, r3
 3917 00e2 FFF7FEFF 		bl	CyDelay
 962:main.c        ****         LED_BLUE_Write(1);
 3918              		.loc 1 962 0
ARM GAS  C:\Users\megan\AppData\Local\Temp\ccPHoCT8.s 			page 89


 3919 00e6 0120     		movs	r0, #1
 3920 00e8 FFF7FEFF 		bl	LED_BLUE_Write
 963:main.c        ****         CyDelay(500);
 3921              		.loc 1 963 0
 3922 00ec FA23     		movs	r3, #250
 3923 00ee 5B00     		lsls	r3, r3, #1
 3924 00f0 1800     		movs	r0, r3
 3925 00f2 FFF7FEFF 		bl	CyDelay
 3926              	.L150:
 964:main.c        ****     }
 965:main.c        ****     
 966:main.c        ****     //------ GATT ------//
 967:main.c        **** //    
 968:main.c        **** //            range.startHandle   = 0x0001;
 969:main.c        **** //            range.endHandle     = 0xFFFF;
 970:main.c        **** //            uuid.uuid16         = 0x14BF; 
 971:main.c        **** //   
 972:main.c        **** //            readByTypeReqParam.range = range;
 973:main.c        **** //            readByTypeReqParam.uuid = uuid;
 974:main.c        **** //            readByTypeReqParam.uuidFormat = 0x01;
 975:main.c        ****     
 976:main.c        **** //    connHandle.bdHandle = CYBLE_GAP_MAX_BONDED_DEVICE;
 977:main.c        **** //    connHandle.attId = 0;
 978:main.c        ****     
 979:main.c        **** //    apiResult = CyBle_GattcStartDiscovery(cyBle_connHandle);
 980:main.c        **** //    
 981:main.c        **** //     if ( apiResult == CYBLE_ERROR_OK )
 982:main.c        **** //                textWrite(ok,strlen(ok));
 983:main.c        **** //    else if ( apiResult == CYBLE_ERROR_INVALID_PARAMETER)
 984:main.c        **** //        textWrite(param,strlen(param));                                             
 985:main.c        **** //    else if ( apiResult == CYBLE_ERROR_INVALID_OPERATION) 
 986:main.c        **** //        textWrite(operation,strlen(operation));
 987:main.c        **** //    else if ( apiResult == CYBLE_ERROR_MEMORY_ALLOCATION_FAILED) 
 988:main.c        **** //        textWrite(mem,strlen(mem)); 
 989:main.c        **** //    else if ( apiResult == CYBLE_ERROR_INVALID_STATE)                       // ERRORING HERE!
 990:main.c        **** //        textWrite(state,strlen(state)); 
 991:main.c        **** 
 992:main.c        ****     
 993:main.c        ****     //while(1) {
 994:main.c        ****         ble_state = CyBle_GetState();
 3927              		.loc 1 994 0
 3928 00f6 DB23     		movs	r3, #219
 3929 00f8 FB18     		adds	r3, r7, r3
 3930 00fa 124A     		ldr	r2, .L153+28
 3931 00fc 1278     		ldrb	r2, [r2]
 3932 00fe 1A70     		strb	r2, [r3]
 995:main.c        ****         CyBle_ProcessEvents();
 3933              		.loc 1 995 0
 3934 0100 FFF7FEFF 		bl	CyBle_ProcessEvents
 996:main.c        ****         if (ble_state == CYBLE_STATE_CONNECTED ) {
 3935              		.loc 1 996 0
 3936 0104 DB23     		movs	r3, #219
 3937 0106 FB18     		adds	r3, r7, r3
 3938 0108 1B78     		ldrb	r3, [r3]
 3939 010a 022B     		cmp	r3, #2
 3940 010c 03D1     		bne	.L151
 997:main.c        ****             LED_BLUE_Write(0);   
ARM GAS  C:\Users\megan\AppData\Local\Temp\ccPHoCT8.s 			page 90


 3941              		.loc 1 997 0
 3942 010e 0020     		movs	r0, #0
 3943 0110 FFF7FEFF 		bl	LED_BLUE_Write
 3944 0114 02E0     		b	.L152
 3945              	.L151:
 998:main.c        **** //                        apiResult = CyBle_GattcReadUsingCharacteristicUuid(cyBle_connHandle,&read
 999:main.c        **** //                    if ( apiResult == CYBLE_ERROR_OK )
1000:main.c        **** //                textWrite(ok,strlen(ok));
1001:main.c        **** //            else if ( apiResult == CYBLE_ERROR_INVALID_PARAMETER )
1002:main.c        **** //                textWrite(param,strlen(param));
1003:main.c        **** //            else if ( apiResult == CYBLE_ERROR_INVALID_OPERATION )
1004:main.c        **** //                textWrite(operation,strlen(operation));
1005:main.c        ****         }
1006:main.c        ****         else {
1007:main.c        ****             LED_BLUE_Write(1);
 3946              		.loc 1 1007 0
 3947 0116 0120     		movs	r0, #1
 3948 0118 FFF7FEFF 		bl	LED_BLUE_Write
 3949              	.L152:
1008:main.c        ****         }
1009:main.c        ****             
1010:main.c        ****             
1011:main.c        ****             //textWrite(serviceCount,strlen(serviceCount));
1012:main.c        ****             //PrintInt(CYBLE_SRVI_COUNT);
1013:main.c        ****             
1014:main.c        ****             //apiResult = CyBle_GattcDiscoverAllCharacteristics(connHandle, range);
1015:main.c        ****    
1016:main.c        **** 
1017:main.c        ****         CyBle_ProcessEvents();
 3950              		.loc 1 1017 0
 3951 011c FFF7FEFF 		bl	CyBle_ProcessEvents
1018:main.c        **** //        CyDelay(1000);
1019:main.c        ****     //}
1020:main.c        ****     
1021:main.c        ****     
1022:main.c        **** }
 3952              		.loc 1 1022 0
 3953 0120 C046     		nop
 3954 0122 BD46     		mov	sp, r7
 3955 0124 39B0     		add	sp, sp, #228
 3956              		@ sp needed
 3957 0126 90BD     		pop	{r4, r7, pc}
 3958              	.L154:
 3959              		.align	2
 3960              	.L153:
 3961 0128 00000000 		.word	.LC7
 3962 012c 10000000 		.word	.LC9
 3963 0130 58010000 		.word	.LC74
 3964 0134 78010000 		.word	.LC76
 3965 0138 98010000 		.word	.LC78
 3966 013c C0010000 		.word	.LC80
 3967 0140 DC010000 		.word	.LC0
 3968 0144 00000000 		.word	cyBle_state
 3969              		.cfi_endproc
 3970              	.LFE55:
 3971              		.size	BLEConnect, .-BLEConnect
 3972              		.section	.rodata
ARM GAS  C:\Users\megan\AppData\Local\Temp\ccPHoCT8.s 			page 91


 3973 01e3 00       		.align	2
 3974              	.LC84:
 3975 01e4 436F6E6E 		.ascii	"Connected\000"
 3975      65637465 
 3975      6400
 3976 01ee 0000     		.align	2
 3977              	.LC86:
 3978 01f0 44697363 		.ascii	"Disconnected\000"
 3978      6F6E6E65 
 3978      63746564 
 3978      00
 3979              		.section	.text.BLEIndicator,"ax",%progbits
 3980              		.align	2
 3981              		.global	BLEIndicator
 3982              		.code	16
 3983              		.thumb_func
 3984              		.type	BLEIndicator, %function
 3985              	BLEIndicator:
 3986              	.LFB56:
1023:main.c        **** 
1024:main.c        **** void BLEIndicator() {
 3987              		.loc 1 1024 0
 3988              		.cfi_startproc
 3989              		@ args = 0, pretend = 0, frame = 40
 3990              		@ frame_needed = 1, uses_anonymous_args = 0
 3991 0000 90B5     		push	{r4, r7, lr}
 3992              		.cfi_def_cfa_offset 12
 3993              		.cfi_offset 4, -12
 3994              		.cfi_offset 7, -8
 3995              		.cfi_offset 14, -4
 3996 0002 8DB0     		sub	sp, sp, #52
 3997              		.cfi_def_cfa_offset 64
 3998 0004 02AF     		add	r7, sp, #8
 3999              		.cfi_def_cfa 7, 56
1025:main.c        ****     
1026:main.c        ****     // LCD Strings
1027:main.c        ****     char connected[] = "Connected";
 4000              		.loc 1 1027 0
 4001 0006 1423     		movs	r3, #20
 4002 0008 FB18     		adds	r3, r7, r3
 4003 000a 594A     		ldr	r2, .L159
 4004 000c 03CA     		ldmia	r2!, {r0, r1}
 4005 000e 03C3     		stmia	r3!, {r0, r1}
 4006 0010 1288     		ldrh	r2, [r2]
 4007 0012 1A80     		strh	r2, [r3]
1028:main.c        ****     char disconnected[] = "Disconnected";
 4008              		.loc 1 1028 0
 4009 0014 3B1D     		adds	r3, r7, #4
 4010 0016 574A     		ldr	r2, .L159+4
 4011 0018 13CA     		ldmia	r2!, {r0, r1, r4}
 4012 001a 13C3     		stmia	r3!, {r0, r1, r4}
 4013 001c 1278     		ldrb	r2, [r2]
 4014 001e 1A70     		strb	r2, [r3]
1029:main.c        ****     
1030:main.c        ****     int scr_width = 800;
 4015              		.loc 1 1030 0
 4016 0020 C823     		movs	r3, #200
ARM GAS  C:\Users\megan\AppData\Local\Temp\ccPHoCT8.s 			page 92


 4017 0022 9B00     		lsls	r3, r3, #2
 4018 0024 7B62     		str	r3, [r7, #36]
1031:main.c        ****     int scr_height = 480;
 4019              		.loc 1 1031 0
 4020 0026 F023     		movs	r3, #240
 4021 0028 5B00     		lsls	r3, r3, #1
 4022 002a 3B62     		str	r3, [r7, #32]
1032:main.c        ****     
1033:main.c        ****     CYBLE_STATE_T ble_state;
1034:main.c        ****     
1035:main.c        ****     
1036:main.c        ****     textMode();
 4023              		.loc 1 1036 0
 4024 002c FFF7FEFF 		bl	textMode
1037:main.c        ****     
1038:main.c        ****     ble_state = CyBle_GetState();
 4025              		.loc 1 1038 0
 4026 0030 1F23     		movs	r3, #31
 4027 0032 FB18     		adds	r3, r7, r3
 4028 0034 504A     		ldr	r2, .L159+8
 4029 0036 1278     		ldrb	r2, [r2]
 4030 0038 1A70     		strb	r2, [r3]
1039:main.c        ****     if (ble_state == CYBLE_STATE_CONNECTED ) {
 4031              		.loc 1 1039 0
 4032 003a 1F23     		movs	r3, #31
 4033 003c FB18     		adds	r3, r7, r3
 4034 003e 1B78     		ldrb	r3, [r3]
 4035 0040 022B     		cmp	r3, #2
 4036 0042 49D1     		bne	.L156
1040:main.c        ****         LED_BLUE_Write(0);
 4037              		.loc 1 1040 0
 4038 0044 0020     		movs	r0, #0
 4039 0046 FFF7FEFF 		bl	LED_BLUE_Write
1041:main.c        ****         
1042:main.c        ****         if (!bin1.ble_connected) {
 4040              		.loc 1 1042 0
 4041 004a 4C4B     		ldr	r3, .L159+12
 4042 004c 9B79     		ldrb	r3, [r3, #6]
 4043 004e 002B     		cmp	r3, #0
 4044 0050 00D0     		beq	.LCB3371
 4045 0052 87E0     		b	.L158	@long jump
 4046              	.LCB3371:
1043:main.c        ****             fillRect(2*scr_width/3,260,
 4047              		.loc 1 1043 0
 4048 0054 7B6A     		ldr	r3, [r7, #36]
 4049 0056 5B00     		lsls	r3, r3, #1
 4050 0058 0321     		movs	r1, #3
 4051 005a 1800     		movs	r0, r3
 4052 005c FFF7FEFF 		bl	__aeabi_idiv
 4053 0060 0300     		movs	r3, r0
 4054 0062 1CB2     		sxth	r4, r3
1044:main.c        ****                     scr_width/3-50,80,
 4055              		.loc 1 1044 0
 4056 0064 7B6A     		ldr	r3, [r7, #36]
 4057 0066 0321     		movs	r1, #3
 4058 0068 1800     		movs	r0, r3
 4059 006a FFF7FEFF 		bl	__aeabi_idiv
ARM GAS  C:\Users\megan\AppData\Local\Temp\ccPHoCT8.s 			page 93


 4060 006e 0300     		movs	r3, r0
1043:main.c        ****             fillRect(2*scr_width/3,260,
 4061              		.loc 1 1043 0
 4062 0070 9BB2     		uxth	r3, r3
 4063 0072 323B     		subs	r3, r3, #50
 4064 0074 9BB2     		uxth	r3, r3
 4065 0076 1AB2     		sxth	r2, r3
 4066 0078 8223     		movs	r3, #130
 4067 007a 5900     		lsls	r1, r3, #1
 4068 007c F823     		movs	r3, #248
 4069 007e 1B02     		lsls	r3, r3, #8
 4070 0080 0093     		str	r3, [sp]
 4071 0082 5023     		movs	r3, #80
 4072 0084 2000     		movs	r0, r4
 4073 0086 FFF7FEFF 		bl	fillRect
1045:main.c        ****                     RA8875_RED);
1046:main.c        ****             
1047:main.c        ****             textEnlarge(1);
 4074              		.loc 1 1047 0
 4075 008a 0120     		movs	r0, #1
 4076 008c FFF7FEFF 		bl	textEnlarge
1048:main.c        ****             textTransparent(RA8875_BLACK);
 4077              		.loc 1 1048 0
 4078 0090 0020     		movs	r0, #0
 4079 0092 FFF7FEFF 		bl	textTransparent
1049:main.c        ****             textSetCursor(2*scr_width/3+40,260);
 4080              		.loc 1 1049 0
 4081 0096 7B6A     		ldr	r3, [r7, #36]
 4082 0098 5B00     		lsls	r3, r3, #1
 4083 009a 0321     		movs	r1, #3
 4084 009c 1800     		movs	r0, r3
 4085 009e FFF7FEFF 		bl	__aeabi_idiv
 4086 00a2 0300     		movs	r3, r0
 4087 00a4 9BB2     		uxth	r3, r3
 4088 00a6 2833     		adds	r3, r3, #40
 4089 00a8 9AB2     		uxth	r2, r3
 4090 00aa 8223     		movs	r3, #130
 4091 00ac 5B00     		lsls	r3, r3, #1
 4092 00ae 1900     		movs	r1, r3
 4093 00b0 1000     		movs	r0, r2
 4094 00b2 FFF7FEFF 		bl	textSetCursor
1050:main.c        ****             textWrite(connected,strlen(connected));
 4095              		.loc 1 1050 0
 4096 00b6 1423     		movs	r3, #20
 4097 00b8 FB18     		adds	r3, r7, r3
 4098 00ba 1800     		movs	r0, r3
 4099 00bc FFF7FEFF 		bl	strlen
 4100 00c0 0300     		movs	r3, r0
 4101 00c2 9AB2     		uxth	r2, r3
 4102 00c4 1423     		movs	r3, #20
 4103 00c6 FB18     		adds	r3, r7, r3
 4104 00c8 1100     		movs	r1, r2
 4105 00ca 1800     		movs	r0, r3
 4106 00cc FFF7FEFF 		bl	textWrite
1051:main.c        ****             bin1.ble_connected = true;
 4107              		.loc 1 1051 0
 4108 00d0 2A4B     		ldr	r3, .L159+12
ARM GAS  C:\Users\megan\AppData\Local\Temp\ccPHoCT8.s 			page 94


 4109 00d2 0122     		movs	r2, #1
 4110 00d4 9A71     		strb	r2, [r3, #6]
 4111 00d6 45E0     		b	.L158
 4112              	.L156:
1052:main.c        ****         }
1053:main.c        ****     }
1054:main.c        ****     else {
1055:main.c        ****         LED_BLUE_Write(1);
 4113              		.loc 1 1055 0
 4114 00d8 0120     		movs	r0, #1
 4115 00da FFF7FEFF 		bl	LED_BLUE_Write
1056:main.c        ****         
1057:main.c        ****         if (bin1.ble_connected) {
 4116              		.loc 1 1057 0
 4117 00de 274B     		ldr	r3, .L159+12
 4118 00e0 9B79     		ldrb	r3, [r3, #6]
 4119 00e2 002B     		cmp	r3, #0
 4120 00e4 3ED0     		beq	.L158
1058:main.c        ****             fillRect(2*scr_width/3,260,
 4121              		.loc 1 1058 0
 4122 00e6 7B6A     		ldr	r3, [r7, #36]
 4123 00e8 5B00     		lsls	r3, r3, #1
 4124 00ea 0321     		movs	r1, #3
 4125 00ec 1800     		movs	r0, r3
 4126 00ee FFF7FEFF 		bl	__aeabi_idiv
 4127 00f2 0300     		movs	r3, r0
 4128 00f4 1CB2     		sxth	r4, r3
1059:main.c        ****                     scr_width/3-50,80,
 4129              		.loc 1 1059 0
 4130 00f6 7B6A     		ldr	r3, [r7, #36]
 4131 00f8 0321     		movs	r1, #3
 4132 00fa 1800     		movs	r0, r3
 4133 00fc FFF7FEFF 		bl	__aeabi_idiv
 4134 0100 0300     		movs	r3, r0
1058:main.c        ****             fillRect(2*scr_width/3,260,
 4135              		.loc 1 1058 0
 4136 0102 9BB2     		uxth	r3, r3
 4137 0104 323B     		subs	r3, r3, #50
 4138 0106 9BB2     		uxth	r3, r3
 4139 0108 1AB2     		sxth	r2, r3
 4140 010a 8223     		movs	r3, #130
 4141 010c 5900     		lsls	r1, r3, #1
 4142 010e F823     		movs	r3, #248
 4143 0110 1B02     		lsls	r3, r3, #8
 4144 0112 0093     		str	r3, [sp]
 4145 0114 5023     		movs	r3, #80
 4146 0116 2000     		movs	r0, r4
 4147 0118 FFF7FEFF 		bl	fillRect
1060:main.c        ****                     RA8875_RED);
1061:main.c        ****             
1062:main.c        ****             textEnlarge(1);
 4148              		.loc 1 1062 0
 4149 011c 0120     		movs	r0, #1
 4150 011e FFF7FEFF 		bl	textEnlarge
1063:main.c        ****             textTransparent(RA8875_BLACK);
 4151              		.loc 1 1063 0
 4152 0122 0020     		movs	r0, #0
ARM GAS  C:\Users\megan\AppData\Local\Temp\ccPHoCT8.s 			page 95


 4153 0124 FFF7FEFF 		bl	textTransparent
1064:main.c        ****             textSetCursor(2*scr_width/3+20,260);
 4154              		.loc 1 1064 0
 4155 0128 7B6A     		ldr	r3, [r7, #36]
 4156 012a 5B00     		lsls	r3, r3, #1
 4157 012c 0321     		movs	r1, #3
 4158 012e 1800     		movs	r0, r3
 4159 0130 FFF7FEFF 		bl	__aeabi_idiv
 4160 0134 0300     		movs	r3, r0
 4161 0136 9BB2     		uxth	r3, r3
 4162 0138 1433     		adds	r3, r3, #20
 4163 013a 9AB2     		uxth	r2, r3
 4164 013c 8223     		movs	r3, #130
 4165 013e 5B00     		lsls	r3, r3, #1
 4166 0140 1900     		movs	r1, r3
 4167 0142 1000     		movs	r0, r2
 4168 0144 FFF7FEFF 		bl	textSetCursor
1065:main.c        ****             textWrite(disconnected,strlen(disconnected));
 4169              		.loc 1 1065 0
 4170 0148 3B1D     		adds	r3, r7, #4
 4171 014a 1800     		movs	r0, r3
 4172 014c FFF7FEFF 		bl	strlen
 4173 0150 0300     		movs	r3, r0
 4174 0152 9AB2     		uxth	r2, r3
 4175 0154 3B1D     		adds	r3, r7, #4
 4176 0156 1100     		movs	r1, r2
 4177 0158 1800     		movs	r0, r3
 4178 015a FFF7FEFF 		bl	textWrite
1066:main.c        ****             bin1.ble_connected = false;
 4179              		.loc 1 1066 0
 4180 015e 074B     		ldr	r3, .L159+12
 4181 0160 0022     		movs	r2, #0
 4182 0162 9A71     		strb	r2, [r3, #6]
 4183              	.L158:
1067:main.c        ****         }
1068:main.c        ****     }
1069:main.c        ****     graphicsMode();
 4184              		.loc 1 1069 0
 4185 0164 FFF7FEFF 		bl	graphicsMode
1070:main.c        **** }
 4186              		.loc 1 1070 0
 4187 0168 C046     		nop
 4188 016a BD46     		mov	sp, r7
 4189 016c 0BB0     		add	sp, sp, #44
 4190              		@ sp needed
 4191 016e 90BD     		pop	{r4, r7, pc}
 4192              	.L160:
 4193              		.align	2
 4194              	.L159:
 4195 0170 E4010000 		.word	.LC84
 4196 0174 F0010000 		.word	.LC86
 4197 0178 00000000 		.word	cyBle_state
 4198 017c 00000000 		.word	bin1
 4199              		.cfi_endproc
 4200              	.LFE56:
 4201              		.size	BLEIndicator, .-BLEIndicator
 4202              		.section	.text.FanTest,"ax",%progbits
ARM GAS  C:\Users\megan\AppData\Local\Temp\ccPHoCT8.s 			page 96


 4203              		.align	2
 4204              		.global	FanTest
 4205              		.code	16
 4206              		.thumb_func
 4207              		.type	FanTest, %function
 4208              	FanTest:
 4209              	.LFB57:
1071:main.c        **** 
1072:main.c        **** void FanTest() {
 4210              		.loc 1 1072 0
 4211              		.cfi_startproc
 4212              		@ args = 0, pretend = 0, frame = 0
 4213              		@ frame_needed = 1, uses_anonymous_args = 0
 4214 0000 80B5     		push	{r7, lr}
 4215              		.cfi_def_cfa_offset 8
 4216              		.cfi_offset 7, -8
 4217              		.cfi_offset 14, -4
 4218 0002 00AF     		add	r7, sp, #0
 4219              		.cfi_def_cfa_register 7
 4220              	.L162:
1073:main.c        ****     while(1) {
1074:main.c        ****         FAN1_Write(1);
 4221              		.loc 1 1074 0 discriminator 1
 4222 0004 0120     		movs	r0, #1
 4223 0006 FFF7FEFF 		bl	FAN1_Write
1075:main.c        ****         FAN2_Write(1);
 4224              		.loc 1 1075 0 discriminator 1
 4225 000a 0120     		movs	r0, #1
 4226 000c FFF7FEFF 		bl	FAN2_Write
1076:main.c        ****         FAN3_Write(1);
 4227              		.loc 1 1076 0 discriminator 1
 4228 0010 0120     		movs	r0, #1
 4229 0012 FFF7FEFF 		bl	FAN3_Write
1077:main.c        ****         CyDelay(1000);
 4230              		.loc 1 1077 0 discriminator 1
 4231 0016 FA23     		movs	r3, #250
 4232 0018 9B00     		lsls	r3, r3, #2
 4233 001a 1800     		movs	r0, r3
 4234 001c FFF7FEFF 		bl	CyDelay
1078:main.c        ****         FAN1_Write(0);
 4235              		.loc 1 1078 0 discriminator 1
 4236 0020 0020     		movs	r0, #0
 4237 0022 FFF7FEFF 		bl	FAN1_Write
1079:main.c        ****         FAN2_Write(0);
 4238              		.loc 1 1079 0 discriminator 1
 4239 0026 0020     		movs	r0, #0
 4240 0028 FFF7FEFF 		bl	FAN2_Write
1080:main.c        ****         FAN3_Write(0);
 4241              		.loc 1 1080 0 discriminator 1
 4242 002c 0020     		movs	r0, #0
 4243 002e FFF7FEFF 		bl	FAN3_Write
1081:main.c        ****         CyDelay(1000);
 4244              		.loc 1 1081 0 discriminator 1
 4245 0032 FA23     		movs	r3, #250
 4246 0034 9B00     		lsls	r3, r3, #2
 4247 0036 1800     		movs	r0, r3
 4248 0038 FFF7FEFF 		bl	CyDelay
ARM GAS  C:\Users\megan\AppData\Local\Temp\ccPHoCT8.s 			page 97


1082:main.c        ****     }
 4249              		.loc 1 1082 0 discriminator 1
 4250 003c E2E7     		b	.L162
 4251              		.cfi_endproc
 4252              	.LFE57:
 4253              		.size	FanTest, .-FanTest
 4254              		.global	__aeabi_fcmplt
 4255              		.global	__aeabi_fcmpgt
 4256 003e C046     		.section	.text.FanUpdate,"ax",%progbits
 4257              		.align	2
 4258              		.global	FanUpdate
 4259              		.code	16
 4260              		.thumb_func
 4261              		.type	FanUpdate, %function
 4262              	FanUpdate:
 4263              	.LFB58:
1083:main.c        **** }
1084:main.c        **** 
1085:main.c        **** void FanUpdate() {
 4264              		.loc 1 1085 0
 4265              		.cfi_startproc
 4266              		@ args = 0, pretend = 0, frame = 8
 4267              		@ frame_needed = 1, uses_anonymous_args = 0
 4268 0000 90B5     		push	{r4, r7, lr}
 4269              		.cfi_def_cfa_offset 12
 4270              		.cfi_offset 4, -12
 4271              		.cfi_offset 7, -8
 4272              		.cfi_offset 14, -4
 4273 0002 83B0     		sub	sp, sp, #12
 4274              		.cfi_def_cfa_offset 24
 4275 0004 00AF     		add	r7, sp, #0
 4276              		.cfi_def_cfa_register 7
1086:main.c        ****     
1087:main.c        ****     uint8_t buffer = 5;
 4277              		.loc 1 1087 0
 4278 0006 FB1D     		adds	r3, r7, #7
 4279 0008 0522     		movs	r2, #5
 4280 000a 1A70     		strb	r2, [r3]
1088:main.c        ****     
1089:main.c        ****     // Auto Mode:  Update fan state
1090:main.c        ****     if (settings.mode == AUTOMATIC) {
 4281              		.loc 1 1090 0
 4282 000c 234B     		ldr	r3, .L172
 4283 000e 1B78     		ldrb	r3, [r3]
 4284 0010 012B     		cmp	r3, #1
 4285 0012 34D1     		bne	.L164
1091:main.c        ****         if (!bin1.fan_on) {
 4286              		.loc 1 1091 0
 4287 0014 224B     		ldr	r3, .L172+4
 4288 0016 5B79     		ldrb	r3, [r3, #5]
 4289 0018 002B     		cmp	r3, #0
 4290 001a 2AD1     		bne	.L165
1092:main.c        ****             // Must be outside buffer zone to turn on
1093:main.c        ****             if (bin1.actual_temp < bin1.set_temp-buffer || bin1.actual_temp > bin1.set_temp+buffer)
 4291              		.loc 1 1093 0
 4292 001c 204B     		ldr	r3, .L172+4
 4293 001e 1C68     		ldr	r4, [r3]
ARM GAS  C:\Users\megan\AppData\Local\Temp\ccPHoCT8.s 			page 98


 4294 0020 1F4B     		ldr	r3, .L172+4
 4295 0022 1B79     		ldrb	r3, [r3, #4]
 4296 0024 1A00     		movs	r2, r3
 4297 0026 FB1D     		adds	r3, r7, #7
 4298 0028 1B78     		ldrb	r3, [r3]
 4299 002a D31A     		subs	r3, r2, r3
 4300 002c 1800     		movs	r0, r3
 4301 002e FFF7FEFF 		bl	__aeabi_i2f
 4302 0032 031C     		adds	r3, r0, #0
 4303 0034 191C     		adds	r1, r3, #0
 4304 0036 201C     		adds	r0, r4, #0
 4305 0038 FFF7FEFF 		bl	__aeabi_fcmplt
 4306 003c 031E     		subs	r3, r0, #0
 4307 003e 11D1     		bne	.L166
 4308              		.loc 1 1093 0 is_stmt 0 discriminator 1
 4309 0040 174B     		ldr	r3, .L172+4
 4310 0042 1C68     		ldr	r4, [r3]
 4311 0044 164B     		ldr	r3, .L172+4
 4312 0046 1B79     		ldrb	r3, [r3, #4]
 4313 0048 1A00     		movs	r2, r3
 4314 004a FB1D     		adds	r3, r7, #7
 4315 004c 1B78     		ldrb	r3, [r3]
 4316 004e D318     		adds	r3, r2, r3
 4317 0050 1800     		movs	r0, r3
 4318 0052 FFF7FEFF 		bl	__aeabi_i2f
 4319 0056 031C     		adds	r3, r0, #0
 4320 0058 191C     		adds	r1, r3, #0
 4321 005a 201C     		adds	r0, r4, #0
 4322 005c FFF7FEFF 		bl	__aeabi_fcmpgt
 4323 0060 031E     		subs	r3, r0, #0
 4324 0062 0CD0     		beq	.L164
 4325              	.L166:
1094:main.c        ****                 // Then must meet valid fan running conditions
1095:main.c        ****                 bin1.fan_on = FanValidCondition();
 4326              		.loc 1 1095 0 is_stmt 1
 4327 0064 FFF7FEFF 		bl	FanValidCondition
 4328 0068 0300     		movs	r3, r0
 4329 006a 1A00     		movs	r2, r3
 4330 006c 0C4B     		ldr	r3, .L172+4
 4331 006e 5A71     		strb	r2, [r3, #5]
 4332 0070 05E0     		b	.L164
 4333              	.L165:
1096:main.c        ****             }
1097:main.c        ****         }
1098:main.c        ****         else {
1099:main.c        ****             bin1.fan_on = FanValidCondition();
 4334              		.loc 1 1099 0
 4335 0072 FFF7FEFF 		bl	FanValidCondition
 4336 0076 0300     		movs	r3, r0
 4337 0078 1A00     		movs	r2, r3
 4338 007a 094B     		ldr	r3, .L172+4
 4339 007c 5A71     		strb	r2, [r3, #5]
 4340              	.L164:
1100:main.c        ****         }
1101:main.c        ****     }
1102:main.c        ****     
1103:main.c        ****     if (bin1.fan_on == true) {
ARM GAS  C:\Users\megan\AppData\Local\Temp\ccPHoCT8.s 			page 99


 4341              		.loc 1 1103 0
 4342 007e 084B     		ldr	r3, .L172+4
 4343 0080 5B79     		ldrb	r3, [r3, #5]
 4344 0082 012B     		cmp	r3, #1
 4345 0084 03D1     		bne	.L169
1104:main.c        ****         FAN1_Write(1);
 4346              		.loc 1 1104 0
 4347 0086 0120     		movs	r0, #1
 4348 0088 FFF7FEFF 		bl	FAN1_Write
1105:main.c        ****     } else {
1106:main.c        ****         FAN1_Write(0);
1107:main.c        ****     }
1108:main.c        **** }
 4349              		.loc 1 1108 0
 4350 008c 02E0     		b	.L171
 4351              	.L169:
1106:main.c        ****     }
 4352              		.loc 1 1106 0
 4353 008e 0020     		movs	r0, #0
 4354 0090 FFF7FEFF 		bl	FAN1_Write
 4355              	.L171:
 4356              		.loc 1 1108 0
 4357 0094 C046     		nop
 4358 0096 BD46     		mov	sp, r7
 4359 0098 03B0     		add	sp, sp, #12
 4360              		@ sp needed
 4361 009a 90BD     		pop	{r4, r7, pc}
 4362              	.L173:
 4363              		.align	2
 4364              	.L172:
 4365 009c 00000000 		.word	settings
 4366 00a0 00000000 		.word	bin1
 4367              		.cfi_endproc
 4368              	.LFE58:
 4369              		.size	FanUpdate, .-FanUpdate
 4370              		.section	.text.FanValidCondition,"ax",%progbits
 4371              		.align	2
 4372              		.global	FanValidCondition
 4373              		.code	16
 4374              		.thumb_func
 4375              		.type	FanValidCondition, %function
 4376              	FanValidCondition:
 4377              	.LFB59:
1109:main.c        **** 
1110:main.c        **** bool FanValidCondition() {
 4378              		.loc 1 1110 0
 4379              		.cfi_startproc
 4380              		@ args = 0, pretend = 0, frame = 0
 4381              		@ frame_needed = 1, uses_anonymous_args = 0
 4382 0000 80B5     		push	{r7, lr}
 4383              		.cfi_def_cfa_offset 8
 4384              		.cfi_offset 7, -8
 4385              		.cfi_offset 14, -4
 4386 0002 00AF     		add	r7, sp, #0
 4387              		.cfi_def_cfa_register 7
1111:main.c        ****     
1112:main.c        ****     if (bin1.set_temp < bin1.actual_temp && outside.temp < bin1.actual_temp) return true;
ARM GAS  C:\Users\megan\AppData\Local\Temp\ccPHoCT8.s 			page 100


 4388              		.loc 1 1112 0
 4389 0004 1B4B     		ldr	r3, .L186
 4390 0006 1B79     		ldrb	r3, [r3, #4]
 4391 0008 1800     		movs	r0, r3
 4392 000a FFF7FEFF 		bl	__aeabi_i2f
 4393 000e 021C     		adds	r2, r0, #0
 4394 0010 184B     		ldr	r3, .L186
 4395 0012 1B68     		ldr	r3, [r3]
 4396 0014 191C     		adds	r1, r3, #0
 4397 0016 101C     		adds	r0, r2, #0
 4398 0018 FFF7FEFF 		bl	__aeabi_fcmplt
 4399 001c 031E     		subs	r3, r0, #0
 4400 001e 0BD0     		beq	.L175
 4401              		.loc 1 1112 0 is_stmt 0 discriminator 1
 4402 0020 154B     		ldr	r3, .L186+4
 4403 0022 1A68     		ldr	r2, [r3]
 4404 0024 134B     		ldr	r3, .L186
 4405 0026 1B68     		ldr	r3, [r3]
 4406 0028 191C     		adds	r1, r3, #0
 4407 002a 101C     		adds	r0, r2, #0
 4408 002c FFF7FEFF 		bl	__aeabi_fcmplt
 4409 0030 031E     		subs	r3, r0, #0
 4410 0032 01D0     		beq	.L175
 4411              		.loc 1 1112 0 discriminator 2
 4412 0034 0123     		movs	r3, #1
 4413 0036 1AE0     		b	.L178
 4414              	.L175:
1113:main.c        ****     else if (bin1.set_temp > bin1.actual_temp && outside.temp > bin1.actual_temp) return true;
 4415              		.loc 1 1113 0 is_stmt 1
 4416 0038 0E4B     		ldr	r3, .L186
 4417 003a 1B79     		ldrb	r3, [r3, #4]
 4418 003c 1800     		movs	r0, r3
 4419 003e FFF7FEFF 		bl	__aeabi_i2f
 4420 0042 021C     		adds	r2, r0, #0
 4421 0044 0B4B     		ldr	r3, .L186
 4422 0046 1B68     		ldr	r3, [r3]
 4423 0048 191C     		adds	r1, r3, #0
 4424 004a 101C     		adds	r0, r2, #0
 4425 004c FFF7FEFF 		bl	__aeabi_fcmpgt
 4426 0050 031E     		subs	r3, r0, #0
 4427 0052 0BD0     		beq	.L179
 4428              		.loc 1 1113 0 is_stmt 0 discriminator 1
 4429 0054 084B     		ldr	r3, .L186+4
 4430 0056 1A68     		ldr	r2, [r3]
 4431 0058 064B     		ldr	r3, .L186
 4432 005a 1B68     		ldr	r3, [r3]
 4433 005c 191C     		adds	r1, r3, #0
 4434 005e 101C     		adds	r0, r2, #0
 4435 0060 FFF7FEFF 		bl	__aeabi_fcmpgt
 4436 0064 031E     		subs	r3, r0, #0
 4437 0066 01D0     		beq	.L179
 4438              		.loc 1 1113 0 discriminator 2
 4439 0068 0123     		movs	r3, #1
 4440 006a 00E0     		b	.L178
 4441              	.L179:
1114:main.c        ****     else return false;
 4442              		.loc 1 1114 0 is_stmt 1
ARM GAS  C:\Users\megan\AppData\Local\Temp\ccPHoCT8.s 			page 101


 4443 006c 0023     		movs	r3, #0
 4444              	.L178:
1115:main.c        **** }
 4445              		.loc 1 1115 0
 4446 006e 1800     		movs	r0, r3
 4447 0070 BD46     		mov	sp, r7
 4448              		@ sp needed
 4449 0072 80BD     		pop	{r7, pc}
 4450              	.L187:
 4451              		.align	2
 4452              	.L186:
 4453 0074 00000000 		.word	bin1
 4454 0078 00000000 		.word	outside
 4455              		.cfi_endproc
 4456              	.LFE59:
 4457              		.size	FanValidCondition, .-FanValidCondition
 4458              		.text
 4459              	.Letext0:
 4460              		.file 2 "c:\\program files (x86)\\cypress\\psoc creator\\4.1\\psoc creator\\import\\gnu\\arm\\5.4.
 4461              		.file 3 "c:\\program files (x86)\\cypress\\psoc creator\\4.1\\psoc creator\\import\\gnu\\arm\\5.4.
 4462              		.file 4 "Generated_Source\\PSoC4/cytypes.h"
 4463              		.file 5 "Generated_Source\\PSoC4/BLE_1_Stack.h"
 4464              		.file 6 "Generated_Source\\PSoC4/BLE_1_StackGap.h"
 4465              		.file 7 "Generated_Source\\PSoC4/BLE_1_StackGatt.h"
 4466              		.file 8 "Generated_Source\\PSoC4/BLE_1_StackGattClient.h"
 4467              		.file 9 "Generated_Source\\PSoC4/BLE_1_eventHandler.h"
 4468              		.file 10 "./RA8875.h"