ARM GAS  C:\Users\megan\AppData\Local\Temp\ccD8G3YI.s 			page 1


   1              		.syntax unified
   2              		.cpu cortex-m0
   3              		.fpu softvfp
   4              		.eabi_attribute 20, 1
   5              		.eabi_attribute 21, 1
   6              		.eabi_attribute 23, 3
   7              		.eabi_attribute 24, 1
   8              		.eabi_attribute 25, 1
   9              		.eabi_attribute 26, 1
  10              		.eabi_attribute 30, 6
  11              		.eabi_attribute 34, 0
  12              		.eabi_attribute 18, 4
  13              		.thumb
  14              		.syntax unified
  15              		.file	"RA8875.c"
  16              		.text
  17              	.Ltext0:
  18              		.cfi_sections	.debug_frame
  19              		.comm	_cs,1,1
  20              		.comm	_rst,1,1
  21              		.comm	_width,2,2
  22              		.comm	_height,2,2
  23              		.comm	_textScale,1,1
  24              		.comm	_size,1,1
  25              		.global	spi_speed
  26              		.data
  27              		.align	2
  28              		.type	spi_speed, %object
  29              		.size	spi_speed, 4
  30              	spi_speed:
  31 0000 00093D00 		.word	4000000
  32              		.section	.text.begin,"ax",%progbits
  33              		.align	2
  34              		.global	begin
  35              		.code	16
  36              		.thumb_func
  37              		.type	begin, %function
  38              	begin:
  39              	.LFB35:
  40              		.file 1 "RA8875.c"
   1:RA8875.c      **** /**************************************************************************/
   2:RA8875.c      **** /*!
   3:RA8875.c      ****     @file     Adafruit_RA8875.cpp
   4:RA8875.c      ****     @author   Limor Friend/Ladyada, K.Townsend/KTOWN for Adafruit Industries
   5:RA8875.c      ****     @license  BSD license, all text above and below must be included in
   6:RA8875.c      ****               any redistribution
   7:RA8875.c      **** 
   8:RA8875.c      ****  This is the library for the Adafruit RA8875 Driver board for TFT displays
   9:RA8875.c      ****  ---------------> http://www.adafruit.com/products/1590
  10:RA8875.c      ****  The RA8875 is a TFT driver for up to 800x480 dotclock'd displays
  11:RA8875.c      ****  It is tested to work with displays in the Adafruit shop. Other displays
  12:RA8875.c      ****  may need timing adjustments and are not guanteed to work.
  13:RA8875.c      ****  
  14:RA8875.c      ****  Adafruit invests time and resources providing this open
  15:RA8875.c      ****  source code, please support Adafruit and open-source hardware
  16:RA8875.c      ****  by purchasing products from Adafruit!
  17:RA8875.c      ****  
ARM GAS  C:\Users\megan\AppData\Local\Temp\ccD8G3YI.s 			page 2


  18:RA8875.c      ****  Written by Limor Fried/Ladyada for Adafruit Industries.
  19:RA8875.c      ****  BSD license, check license.txt for more information.
  20:RA8875.c      ****  All text above must be included in any redistribution.
  21:RA8875.c      **** 
  22:RA8875.c      ****     @section  HISTORY
  23:RA8875.c      ****     
  24:RA8875.c      ****     v1.0 - First release
  25:RA8875.c      **** */
  26:RA8875.c      **** /**************************************************************************/
  27:RA8875.c      **** 
  28:RA8875.c      **** #include <project.h>
  29:RA8875.c      **** #include "RA8875.h"
  30:RA8875.c      **** 
  31:RA8875.c      **** #if defined (ARDUINO_ARCH_ARC32)
  32:RA8875.c      ****   uint32_t spi_speed = 12000000;
  33:RA8875.c      **** #else
  34:RA8875.c      ****   uint32_t spi_speed = 4000000;
  35:RA8875.c      **** #endif
  36:RA8875.c      **** 
  37:RA8875.c      **** // If the SPI library has transaction support, these functions
  38:RA8875.c      **** // establish settings and protect from interference from other
  39:RA8875.c      **** // libraries.  Otherwise, they simply do nothing.
  40:RA8875.c      **** #ifdef SPI_HAS_TRANSACTION
  41:RA8875.c      ****     static inline void spi_begin(void) __attribute__((always_inline));
  42:RA8875.c      ****     static inline void spi_begin(void) {
  43:RA8875.c      ****         // max speed!
  44:RA8875.c      ****         SPI.beginTransaction(SPISettings(spi_speed, MSBFIRST, SPI_MODE0));
  45:RA8875.c      ****     }
  46:RA8875.c      ****     static inline void spi_end(void) __attribute__((always_inline));
  47:RA8875.c      ****     static inline void spi_end(void) {
  48:RA8875.c      ****         SPI.endTransaction();
  49:RA8875.c      ****     }
  50:RA8875.c      **** #else
  51:RA8875.c      ****     #define spi_begin()
  52:RA8875.c      ****     #define spi_end()
  53:RA8875.c      **** #endif
  54:RA8875.c      **** 
  55:RA8875.c      **** 
  56:RA8875.c      **** /**************************************************************************/
  57:RA8875.c      **** /*!
  58:RA8875.c      ****       Constructor for a new RA8875 instance
  59:RA8875.c      ****       
  60:RA8875.c      ****       @args CS[in]  Location of the SPI chip select pin
  61:RA8875.c      ****       @args RST[in] Location of the reset pin
  62:RA8875.c      **** */
  63:RA8875.c      **** /**************************************************************************/
  64:RA8875.c      **** //Adafruit_RA8875::Adafruit_RA8875(uint8_t CS, uint8_t RST) : Adafruit_GFX(800, 480) {
  65:RA8875.c      **** //  _cs = CS;
  66:RA8875.c      **** //  _rst = RST;
  67:RA8875.c      **** //}
  68:RA8875.c      **** 
  69:RA8875.c      **** /**************************************************************************/
  70:RA8875.c      **** /*!
  71:RA8875.c      ****       Initialises the LCD driver and any HW required by the display
  72:RA8875.c      ****       
  73:RA8875.c      ****       @args s[in] The display size, which can be either:
  74:RA8875.c      ****                   'RA8875_480x272' (4.3" displays) r
ARM GAS  C:\Users\megan\AppData\Local\Temp\ccD8G3YI.s 			page 3


  75:RA8875.c      ****                   'RA8875_800x480' (5" and 7" displays)
  76:RA8875.c      **** */
  77:RA8875.c      **** /**************************************************************************/
  78:RA8875.c      **** boolean begin(enum RA8875sizes s) {
  41              		.loc 1 78 0
  42              		.cfi_startproc
  43              		@ args = 0, pretend = 0, frame = 16
  44              		@ frame_needed = 1, uses_anonymous_args = 0
  45 0000 90B5     		push	{r4, r7, lr}
  46              		.cfi_def_cfa_offset 12
  47              		.cfi_offset 4, -12
  48              		.cfi_offset 7, -8
  49              		.cfi_offset 14, -4
  50 0002 85B0     		sub	sp, sp, #20
  51              		.cfi_def_cfa_offset 32
  52 0004 00AF     		add	r7, sp, #0
  53              		.cfi_def_cfa_register 7
  54 0006 0200     		movs	r2, r0
  55 0008 FB1D     		adds	r3, r7, #7
  56 000a 1A70     		strb	r2, [r3]
  79:RA8875.c      ****   uint8_t x;
  80:RA8875.c      **** //  uint32_t compare;  
  81:RA8875.c      ****     _size = s;
  57              		.loc 1 81 0
  58 000c 214B     		ldr	r3, .L6
  59 000e FA1D     		adds	r2, r7, #7
  60 0010 1278     		ldrb	r2, [r2]
  61 0012 1A70     		strb	r2, [r3]
  82:RA8875.c      **** 
  83:RA8875.c      ****   if (_size == RA8875_480x272) {
  62              		.loc 1 83 0
  63 0014 1F4B     		ldr	r3, .L6
  64 0016 1B78     		ldrb	r3, [r3]
  65 0018 002B     		cmp	r3, #0
  66 001a 08D1     		bne	.L2
  84:RA8875.c      ****     _width = 480;
  67              		.loc 1 84 0
  68 001c 1E4B     		ldr	r3, .L6+4
  69 001e F022     		movs	r2, #240
  70 0020 5200     		lsls	r2, r2, #1
  71 0022 1A80     		strh	r2, [r3]
  85:RA8875.c      ****     _height = 272;
  72              		.loc 1 85 0
  73 0024 1D4B     		ldr	r3, .L6+8
  74 0026 8822     		movs	r2, #136
  75 0028 5200     		lsls	r2, r2, #1
  76 002a 1A80     		strh	r2, [r3]
  77 002c 0EE0     		b	.L3
  78              	.L2:
  86:RA8875.c      ****   } 
  87:RA8875.c      ****   else if (_size == RA8875_800x480) {
  79              		.loc 1 87 0
  80 002e 194B     		ldr	r3, .L6
  81 0030 1B78     		ldrb	r3, [r3]
  82 0032 012B     		cmp	r3, #1
  83 0034 08D1     		bne	.L4
  88:RA8875.c      ****     _width = 800;
ARM GAS  C:\Users\megan\AppData\Local\Temp\ccD8G3YI.s 			page 4


  84              		.loc 1 88 0
  85 0036 184B     		ldr	r3, .L6+4
  86 0038 C822     		movs	r2, #200
  87 003a 9200     		lsls	r2, r2, #2
  88 003c 1A80     		strh	r2, [r3]
  89:RA8875.c      ****     _height = 480;
  89              		.loc 1 89 0
  90 003e 174B     		ldr	r3, .L6+8
  91 0040 F022     		movs	r2, #240
  92 0042 5200     		lsls	r2, r2, #1
  93 0044 1A80     		strh	r2, [r3]
  94 0046 01E0     		b	.L3
  95              	.L4:
  90:RA8875.c      ****     //CyDelay(5000); //TESTING, REMOVE
  91:RA8875.c      ****   }
  92:RA8875.c      ****   else {
  93:RA8875.c      ****     return false;
  96              		.loc 1 93 0
  97 0048 0023     		movs	r3, #0
  98 004a 1FE0     		b	.L5
  99              	.L3:
  94:RA8875.c      ****   }
  95:RA8875.c      **** 
  96:RA8875.c      ****  // pinMode(_cs, OUTPUT);
  97:RA8875.c      ****   //digitalWrite(_cs, HIGH);
  98:RA8875.c      ****     //LCDSPI_ss0_m_SetDriveMode(LCDSPI_ss0_m_DM_STRONG);
  99:RA8875.c      ****     //CyDelay(100);
 100:RA8875.c      ****     //LCDSPI_ss0_m_Write(0u);
 101:RA8875.c      ****     //CyDelay(100);
 102:RA8875.c      ****     LCDSPI_ss0_m_Write(1u);
 100              		.loc 1 102 0
 101 004c 0120     		movs	r0, #1
 102 004e FFF7FEFF 		bl	LCDSPI_ss0_m_Write
 103:RA8875.c      **** 
 104:RA8875.c      ****     //pinMode(_rst, OUTPUT);
 105:RA8875.c      ****   //digitalWrite(_rst, LOW);
 106:RA8875.c      ****     rst0_m_Write(0u);
 103              		.loc 1 106 0
 104 0052 0020     		movs	r0, #0
 105 0054 FFF7FEFF 		bl	rst0_m_Write
 107:RA8875.c      ****   CyDelay(100);
 106              		.loc 1 107 0
 107 0058 6420     		movs	r0, #100
 108 005a FFF7FEFF 		bl	CyDelay
 108:RA8875.c      ****   //digitalWrite(_rst, HIGH);
 109:RA8875.c      ****     rst0_m_Write(1u);
 109              		.loc 1 109 0
 110 005e 0120     		movs	r0, #1
 111 0060 FFF7FEFF 		bl	rst0_m_Write
 110:RA8875.c      ****   CyDelay(10);
 112              		.loc 1 110 0
 113 0064 0A20     		movs	r0, #10
 114 0066 FFF7FEFF 		bl	CyDelay
 111:RA8875.c      ****   
 112:RA8875.c      ****     //LCDSPI_Start();  // Need this?
 113:RA8875.c      ****     
 114:RA8875.c      ****     
ARM GAS  C:\Users\megan\AppData\Local\Temp\ccD8G3YI.s 			page 5


 115:RA8875.c      **** #ifdef SPI_HAS_TRANSACTION
 116:RA8875.c      ****     #if defined (ARDUINO_ARCH_ARC32)
 117:RA8875.c      ****         spi_speed = 2000000;
 118:RA8875.c      ****     #else
 119:RA8875.c      ****         spi_speed = 125000;
 120:RA8875.c      ****     #endif
 121:RA8875.c      **** #else
 122:RA8875.c      ****     #ifdef __AVR__
 123:RA8875.c      ****         SPI.setClockDivider(SPI_CLOCK_DIV128);
 124:RA8875.c      ****         SPI.setDataMode(SPI_MODE0);
 125:RA8875.c      ****     #endif
 126:RA8875.c      **** #endif
 127:RA8875.c      **** 
 128:RA8875.c      ****     x = readReg(0);
 115              		.loc 1 128 0
 116 006a 0F23     		movs	r3, #15
 117 006c FC18     		adds	r4, r7, r3
 118 006e 0020     		movs	r0, #0
 119 0070 FFF7FEFF 		bl	readReg
 120 0074 0300     		movs	r3, r0
 121 0076 2370     		strb	r3, [r4]
 129:RA8875.c      **** //    compare = 0x75;
 130:RA8875.c      ****     writeReg(0,x);
 122              		.loc 1 130 0
 123 0078 0F23     		movs	r3, #15
 124 007a FB18     		adds	r3, r7, r3
 125 007c 1B78     		ldrb	r3, [r3]
 126 007e 1900     		movs	r1, r3
 127 0080 0020     		movs	r0, #0
 128 0082 FFF7FEFF 		bl	writeReg
 131:RA8875.c      **** //    CyDelay(100);
 132:RA8875.c      **** //    writeReg(0,compare);
 133:RA8875.c      **** //    CyDelay(100);
 134:RA8875.c      **** //    Serial.print("x = 0x"); Serial.println(x,HEX);
 135:RA8875.c      **** //    if (x != 0x75) {
 136:RA8875.c      **** //        return false;
 137:RA8875.c      **** //    }
 138:RA8875.c      **** //    CyDelay(100);
 139:RA8875.c      ****   initialize();
 129              		.loc 1 139 0
 130 0086 FFF7FEFF 		bl	initialize
 140:RA8875.c      **** 
 141:RA8875.c      **** #ifdef SPI_HAS_TRANSACTION
 142:RA8875.c      ****     #if defined (ARDUINO_ARCH_ARC32)
 143:RA8875.c      ****         spi_speed = 12000000L;
 144:RA8875.c      ****     #else
 145:RA8875.c      ****         spi_speed = 4000000L;
 146:RA8875.c      ****     #endif
 147:RA8875.c      **** #else
 148:RA8875.c      ****     #ifdef __AVR__
 149:RA8875.c      ****         SPI.setClockDivider(SPI_CLOCK_DIV4);
 150:RA8875.c      ****     #endif
 151:RA8875.c      **** #endif
 152:RA8875.c      ****     
 153:RA8875.c      ****   return true;
 131              		.loc 1 153 0
 132 008a 0123     		movs	r3, #1
ARM GAS  C:\Users\megan\AppData\Local\Temp\ccD8G3YI.s 			page 6


 133              	.L5:
 154:RA8875.c      **** }
 134              		.loc 1 154 0
 135 008c 1800     		movs	r0, r3
 136 008e BD46     		mov	sp, r7
 137 0090 05B0     		add	sp, sp, #20
 138              		@ sp needed
 139 0092 90BD     		pop	{r4, r7, pc}
 140              	.L7:
 141              		.align	2
 142              	.L6:
 143 0094 00000000 		.word	_size
 144 0098 00000000 		.word	_width
 145 009c 00000000 		.word	_height
 146              		.cfi_endproc
 147              	.LFE35:
 148              		.size	begin, .-begin
 149              		.section	.text.softReset,"ax",%progbits
 150              		.align	2
 151              		.global	softReset
 152              		.code	16
 153              		.thumb_func
 154              		.type	softReset, %function
 155              	softReset:
 156              	.LFB36:
 155:RA8875.c      **** 
 156:RA8875.c      **** /************************* Initialization *********************************/
 157:RA8875.c      **** 
 158:RA8875.c      **** /**************************************************************************/
 159:RA8875.c      **** /*!
 160:RA8875.c      ****       Performs a SW-based reset of the RA8875
 161:RA8875.c      **** */
 162:RA8875.c      **** /**************************************************************************/
 163:RA8875.c      **** void softReset(void) {
 157              		.loc 1 163 0
 158              		.cfi_startproc
 159              		@ args = 0, pretend = 0, frame = 0
 160              		@ frame_needed = 1, uses_anonymous_args = 0
 161 0000 80B5     		push	{r7, lr}
 162              		.cfi_def_cfa_offset 8
 163              		.cfi_offset 7, -8
 164              		.cfi_offset 14, -4
 165 0002 00AF     		add	r7, sp, #0
 166              		.cfi_def_cfa_register 7
 164:RA8875.c      ****   writeCommand(RA8875_PWRR);
 167              		.loc 1 164 0
 168 0004 0120     		movs	r0, #1
 169 0006 FFF7FEFF 		bl	writeCommand
 165:RA8875.c      ****   writeData(RA8875_PWRR_SOFTRESET);
 170              		.loc 1 165 0
 171 000a 0120     		movs	r0, #1
 172 000c FFF7FEFF 		bl	writeData
 166:RA8875.c      ****   writeData(RA8875_PWRR_NORMAL);
 173              		.loc 1 166 0
 174 0010 0020     		movs	r0, #0
 175 0012 FFF7FEFF 		bl	writeData
 167:RA8875.c      ****   CyDelay(1);
ARM GAS  C:\Users\megan\AppData\Local\Temp\ccD8G3YI.s 			page 7


 176              		.loc 1 167 0
 177 0016 0120     		movs	r0, #1
 178 0018 FFF7FEFF 		bl	CyDelay
 168:RA8875.c      **** }
 179              		.loc 1 168 0
 180 001c C046     		nop
 181 001e BD46     		mov	sp, r7
 182              		@ sp needed
 183 0020 80BD     		pop	{r7, pc}
 184              		.cfi_endproc
 185              	.LFE36:
 186              		.size	softReset, .-softReset
 187 0022 C046     		.section	.text.PLLinit,"ax",%progbits
 188              		.align	2
 189              		.global	PLLinit
 190              		.code	16
 191              		.thumb_func
 192              		.type	PLLinit, %function
 193              	PLLinit:
 194              	.LFB37:
 169:RA8875.c      **** 
 170:RA8875.c      **** /**************************************************************************/
 171:RA8875.c      **** /*!
 172:RA8875.c      ****       Initialise the PLL
 173:RA8875.c      **** */
 174:RA8875.c      **** /**************************************************************************/
 175:RA8875.c      **** void PLLinit(void) {
 195              		.loc 1 175 0
 196              		.cfi_startproc
 197              		@ args = 0, pretend = 0, frame = 0
 198              		@ frame_needed = 1, uses_anonymous_args = 0
 199 0000 80B5     		push	{r7, lr}
 200              		.cfi_def_cfa_offset 8
 201              		.cfi_offset 7, -8
 202              		.cfi_offset 14, -4
 203 0002 00AF     		add	r7, sp, #0
 204              		.cfi_def_cfa_register 7
 176:RA8875.c      ****   if (_size == RA8875_480x272) {
 205              		.loc 1 176 0
 206 0004 114B     		ldr	r3, .L13
 207 0006 1B78     		ldrb	r3, [r3]
 208 0008 002B     		cmp	r3, #0
 209 000a 0ED1     		bne	.L10
 177:RA8875.c      ****     writeReg(RA8875_PLLC1, RA8875_PLLC1_PLLDIV1 + 10);
 210              		.loc 1 177 0
 211 000c 0A21     		movs	r1, #10
 212 000e 8820     		movs	r0, #136
 213 0010 FFF7FEFF 		bl	writeReg
 178:RA8875.c      ****     CyDelay(1);
 214              		.loc 1 178 0
 215 0014 0120     		movs	r0, #1
 216 0016 FFF7FEFF 		bl	CyDelay
 179:RA8875.c      ****     writeReg(RA8875_PLLC2, RA8875_PLLC2_DIV4);
 217              		.loc 1 179 0
 218 001a 0221     		movs	r1, #2
 219 001c 8920     		movs	r0, #137
 220 001e FFF7FEFF 		bl	writeReg
ARM GAS  C:\Users\megan\AppData\Local\Temp\ccD8G3YI.s 			page 8


 180:RA8875.c      ****     CyDelay(1);
 221              		.loc 1 180 0
 222 0022 0120     		movs	r0, #1
 223 0024 FFF7FEFF 		bl	CyDelay
 181:RA8875.c      ****   }
 182:RA8875.c      ****   else /* (_size == RA8875_800x480) */ {
 183:RA8875.c      ****     writeReg(RA8875_PLLC1, RA8875_PLLC1_PLLDIV1 + 10);
 184:RA8875.c      ****     //writeReg(RA8875_PLLC1, 0x0b);
 185:RA8875.c      ****     CyDelay(1);
 186:RA8875.c      ****     writeReg(RA8875_PLLC2, RA8875_PLLC2_DIV4);
 187:RA8875.c      ****     CyDelay(1);
 188:RA8875.c      ****   }
 189:RA8875.c      **** }
 224              		.loc 1 189 0
 225 0028 0DE0     		b	.L12
 226              	.L10:
 183:RA8875.c      ****     //writeReg(RA8875_PLLC1, 0x0b);
 227              		.loc 1 183 0
 228 002a 0A21     		movs	r1, #10
 229 002c 8820     		movs	r0, #136
 230 002e FFF7FEFF 		bl	writeReg
 185:RA8875.c      ****     writeReg(RA8875_PLLC2, RA8875_PLLC2_DIV4);
 231              		.loc 1 185 0
 232 0032 0120     		movs	r0, #1
 233 0034 FFF7FEFF 		bl	CyDelay
 186:RA8875.c      ****     CyDelay(1);
 234              		.loc 1 186 0
 235 0038 0221     		movs	r1, #2
 236 003a 8920     		movs	r0, #137
 237 003c FFF7FEFF 		bl	writeReg
 187:RA8875.c      ****   }
 238              		.loc 1 187 0
 239 0040 0120     		movs	r0, #1
 240 0042 FFF7FEFF 		bl	CyDelay
 241              	.L12:
 242              		.loc 1 189 0
 243 0046 C046     		nop
 244 0048 BD46     		mov	sp, r7
 245              		@ sp needed
 246 004a 80BD     		pop	{r7, pc}
 247              	.L14:
 248              		.align	2
 249              	.L13:
 250 004c 00000000 		.word	_size
 251              		.cfi_endproc
 252              	.LFE37:
 253              		.size	PLLinit, .-PLLinit
 254              		.section	.text.initialize,"ax",%progbits
 255              		.align	2
 256              		.global	initialize
 257              		.code	16
 258              		.thumb_func
 259              		.type	initialize, %function
 260              	initialize:
 261              	.LFB38:
 190:RA8875.c      **** 
 191:RA8875.c      **** /**************************************************************************/
ARM GAS  C:\Users\megan\AppData\Local\Temp\ccD8G3YI.s 			page 9


 192:RA8875.c      **** /*!
 193:RA8875.c      ****       Initialises the driver IC (clock setup, etc.)
 194:RA8875.c      **** */
 195:RA8875.c      **** /**************************************************************************/
 196:RA8875.c      **** void initialize(void) {
 262              		.loc 1 196 0
 263              		.cfi_startproc
 264              		@ args = 0, pretend = 0, frame = 16
 265              		@ frame_needed = 1, uses_anonymous_args = 0
 266 0000 80B5     		push	{r7, lr}
 267              		.cfi_def_cfa_offset 8
 268              		.cfi_offset 7, -8
 269              		.cfi_offset 14, -4
 270 0002 84B0     		sub	sp, sp, #16
 271              		.cfi_def_cfa_offset 24
 272 0004 00AF     		add	r7, sp, #0
 273              		.cfi_def_cfa_register 7
 197:RA8875.c      ****   PLLinit();
 274              		.loc 1 197 0
 275 0006 FFF7FEFF 		bl	PLLinit
 198:RA8875.c      ****   writeReg(RA8875_SYSR, RA8875_SYSR_16BPP | RA8875_SYSR_MCU8);
 276              		.loc 1 198 0
 277 000a 0C21     		movs	r1, #12
 278 000c 1020     		movs	r0, #16
 279 000e FFF7FEFF 		bl	writeReg
 199:RA8875.c      **** 
 200:RA8875.c      ****   /* Timing values */
 201:RA8875.c      ****   uint8_t pixclk;
 202:RA8875.c      ****   uint8_t hsync_start;
 203:RA8875.c      ****   uint8_t hsync_pw;
 204:RA8875.c      ****   uint8_t hsync_finetune;
 205:RA8875.c      ****   uint8_t hsync_nondisp;
 206:RA8875.c      ****   uint8_t vsync_pw; 
 207:RA8875.c      ****   uint16_t vsync_nondisp;
 208:RA8875.c      ****   uint16_t vsync_start;
 209:RA8875.c      **** 
 210:RA8875.c      ****   /* Set the correct values for the display being used */  
 211:RA8875.c      ****   if (_size == RA8875_480x272) 
 280              		.loc 1 211 0
 281 0012 874B     		ldr	r3, .L19
 282 0014 1B78     		ldrb	r3, [r3]
 283 0016 002B     		cmp	r3, #0
 284 0018 1FD1     		bne	.L16
 212:RA8875.c      ****   {
 213:RA8875.c      ****     pixclk          = RA8875_PCSR_PDATL | RA8875_PCSR_4CLK;
 285              		.loc 1 213 0
 286 001a 0F23     		movs	r3, #15
 287 001c FB18     		adds	r3, r7, r3
 288 001e 8222     		movs	r2, #130
 289 0020 1A70     		strb	r2, [r3]
 214:RA8875.c      ****     hsync_nondisp   = 10;
 290              		.loc 1 214 0
 291 0022 0B23     		movs	r3, #11
 292 0024 FB18     		adds	r3, r7, r3
 293 0026 0A22     		movs	r2, #10
 294 0028 1A70     		strb	r2, [r3]
 215:RA8875.c      ****     hsync_start     = 8;
ARM GAS  C:\Users\megan\AppData\Local\Temp\ccD8G3YI.s 			page 10


 295              		.loc 1 215 0
 296 002a 0E23     		movs	r3, #14
 297 002c FB18     		adds	r3, r7, r3
 298 002e 0822     		movs	r2, #8
 299 0030 1A70     		strb	r2, [r3]
 216:RA8875.c      ****     hsync_pw        = 48;
 300              		.loc 1 216 0
 301 0032 0D23     		movs	r3, #13
 302 0034 FB18     		adds	r3, r7, r3
 303 0036 3022     		movs	r2, #48
 304 0038 1A70     		strb	r2, [r3]
 217:RA8875.c      ****     hsync_finetune  = 0;
 305              		.loc 1 217 0
 306 003a 0C23     		movs	r3, #12
 307 003c FB18     		adds	r3, r7, r3
 308 003e 0022     		movs	r2, #0
 309 0040 1A70     		strb	r2, [r3]
 218:RA8875.c      ****     vsync_nondisp   = 3;
 310              		.loc 1 218 0
 311 0042 0823     		movs	r3, #8
 312 0044 FB18     		adds	r3, r7, r3
 313 0046 0322     		movs	r2, #3
 314 0048 1A80     		strh	r2, [r3]
 219:RA8875.c      ****     vsync_start     = 8;
 315              		.loc 1 219 0
 316 004a BB1D     		adds	r3, r7, #6
 317 004c 0822     		movs	r2, #8
 318 004e 1A80     		strh	r2, [r3]
 220:RA8875.c      ****     vsync_pw        = 10;
 319              		.loc 1 220 0
 320 0050 0A23     		movs	r3, #10
 321 0052 FB18     		adds	r3, r7, r3
 322 0054 0A22     		movs	r2, #10
 323 0056 1A70     		strb	r2, [r3]
 324 0058 1EE0     		b	.L17
 325              	.L16:
 221:RA8875.c      ****   } 
 222:RA8875.c      ****   else // (_size == RA8875_800x480)
 223:RA8875.c      ****   {
 224:RA8875.c      ****     pixclk          = RA8875_PCSR_PDATL | RA8875_PCSR_2CLK;
 326              		.loc 1 224 0
 327 005a 0F23     		movs	r3, #15
 328 005c FB18     		adds	r3, r7, r3
 329 005e 8122     		movs	r2, #129
 330 0060 1A70     		strb	r2, [r3]
 225:RA8875.c      ****     hsync_nondisp   = 26;
 331              		.loc 1 225 0
 332 0062 0B23     		movs	r3, #11
 333 0064 FB18     		adds	r3, r7, r3
 334 0066 1A22     		movs	r2, #26
 335 0068 1A70     		strb	r2, [r3]
 226:RA8875.c      ****     hsync_start     = 32;
 336              		.loc 1 226 0
 337 006a 0E23     		movs	r3, #14
 338 006c FB18     		adds	r3, r7, r3
 339 006e 2022     		movs	r2, #32
 340 0070 1A70     		strb	r2, [r3]
ARM GAS  C:\Users\megan\AppData\Local\Temp\ccD8G3YI.s 			page 11


 227:RA8875.c      ****     hsync_pw        = 96;
 341              		.loc 1 227 0
 342 0072 0D23     		movs	r3, #13
 343 0074 FB18     		adds	r3, r7, r3
 344 0076 6022     		movs	r2, #96
 345 0078 1A70     		strb	r2, [r3]
 228:RA8875.c      ****     hsync_finetune  = 0;
 346              		.loc 1 228 0
 347 007a 0C23     		movs	r3, #12
 348 007c FB18     		adds	r3, r7, r3
 349 007e 0022     		movs	r2, #0
 350 0080 1A70     		strb	r2, [r3]
 229:RA8875.c      ****     vsync_nondisp   = 32;
 351              		.loc 1 229 0
 352 0082 0823     		movs	r3, #8
 353 0084 FB18     		adds	r3, r7, r3
 354 0086 2022     		movs	r2, #32
 355 0088 1A80     		strh	r2, [r3]
 230:RA8875.c      ****     vsync_start     = 23;
 356              		.loc 1 230 0
 357 008a BB1D     		adds	r3, r7, #6
 358 008c 1722     		movs	r2, #23
 359 008e 1A80     		strh	r2, [r3]
 231:RA8875.c      ****     vsync_pw        = 2;
 360              		.loc 1 231 0
 361 0090 0A23     		movs	r3, #10
 362 0092 FB18     		adds	r3, r7, r3
 363 0094 0222     		movs	r2, #2
 364 0096 1A70     		strb	r2, [r3]
 365              	.L17:
 232:RA8875.c      ****   }
 233:RA8875.c      **** 
 234:RA8875.c      ****   writeReg(RA8875_PCSR, pixclk);
 366              		.loc 1 234 0
 367 0098 0F23     		movs	r3, #15
 368 009a FB18     		adds	r3, r7, r3
 369 009c 1B78     		ldrb	r3, [r3]
 370 009e 1900     		movs	r1, r3
 371 00a0 0420     		movs	r0, #4
 372 00a2 FFF7FEFF 		bl	writeReg
 235:RA8875.c      ****   CyDelay(1);
 373              		.loc 1 235 0
 374 00a6 0120     		movs	r0, #1
 375 00a8 FFF7FEFF 		bl	CyDelay
 236:RA8875.c      ****   
 237:RA8875.c      ****   /* Horizontal settings registers */
 238:RA8875.c      ****   writeReg(RA8875_HDWR, (_width / 8) - 1);                          // H width: (HDWR + 1) * 8 = 48
 376              		.loc 1 238 0
 377 00ac 614B     		ldr	r3, .L19+4
 378 00ae 1B88     		ldrh	r3, [r3]
 379 00b0 DB08     		lsrs	r3, r3, #3
 380 00b2 9BB2     		uxth	r3, r3
 381 00b4 DBB2     		uxtb	r3, r3
 382 00b6 013B     		subs	r3, r3, #1
 383 00b8 DBB2     		uxtb	r3, r3
 384 00ba 1900     		movs	r1, r3
 385 00bc 1420     		movs	r0, #20
ARM GAS  C:\Users\megan\AppData\Local\Temp\ccD8G3YI.s 			page 12


 386 00be FFF7FEFF 		bl	writeReg
 239:RA8875.c      ****   writeReg(RA8875_HNDFTR, RA8875_HNDFTR_DE_HIGH + hsync_finetune);
 387              		.loc 1 239 0
 388 00c2 0C23     		movs	r3, #12
 389 00c4 FB18     		adds	r3, r7, r3
 390 00c6 1B78     		ldrb	r3, [r3]
 391 00c8 1900     		movs	r1, r3
 392 00ca 1520     		movs	r0, #21
 393 00cc FFF7FEFF 		bl	writeReg
 240:RA8875.c      ****   writeReg(RA8875_HNDR, (hsync_nondisp - hsync_finetune - 2)/8);    // H non-display: HNDR * 8 + HN
 394              		.loc 1 240 0
 395 00d0 0B23     		movs	r3, #11
 396 00d2 FB18     		adds	r3, r7, r3
 397 00d4 1A78     		ldrb	r2, [r3]
 398 00d6 0C23     		movs	r3, #12
 399 00d8 FB18     		adds	r3, r7, r3
 400 00da 1B78     		ldrb	r3, [r3]
 401 00dc D31A     		subs	r3, r2, r3
 402 00de 023B     		subs	r3, r3, #2
 403 00e0 002B     		cmp	r3, #0
 404 00e2 00DA     		bge	.L18
 405 00e4 0733     		adds	r3, r3, #7
 406              	.L18:
 407 00e6 DB10     		asrs	r3, r3, #3
 408 00e8 DBB2     		uxtb	r3, r3
 409 00ea 1900     		movs	r1, r3
 410 00ec 1620     		movs	r0, #22
 411 00ee FFF7FEFF 		bl	writeReg
 241:RA8875.c      ****   writeReg(RA8875_HSTR, hsync_start/8 - 1);                         // Hsync start: (HSTR + 1)*8 
 412              		.loc 1 241 0
 413 00f2 0E23     		movs	r3, #14
 414 00f4 FB18     		adds	r3, r7, r3
 415 00f6 1B78     		ldrb	r3, [r3]
 416 00f8 DB08     		lsrs	r3, r3, #3
 417 00fa DBB2     		uxtb	r3, r3
 418 00fc 013B     		subs	r3, r3, #1
 419 00fe DBB2     		uxtb	r3, r3
 420 0100 1900     		movs	r1, r3
 421 0102 1720     		movs	r0, #23
 422 0104 FFF7FEFF 		bl	writeReg
 242:RA8875.c      ****   writeReg(RA8875_HPWR, RA8875_HPWR_LOW + (hsync_pw/8 - 1));        // HSync pulse width = (HPWR+1)
 423              		.loc 1 242 0
 424 0108 0D23     		movs	r3, #13
 425 010a FB18     		adds	r3, r7, r3
 426 010c 1B78     		ldrb	r3, [r3]
 427 010e DB08     		lsrs	r3, r3, #3
 428 0110 DBB2     		uxtb	r3, r3
 429 0112 013B     		subs	r3, r3, #1
 430 0114 DBB2     		uxtb	r3, r3
 431 0116 1900     		movs	r1, r3
 432 0118 1820     		movs	r0, #24
 433 011a FFF7FEFF 		bl	writeReg
 243:RA8875.c      ****   
 244:RA8875.c      ****   /* Vertical settings registers */
 245:RA8875.c      ****   writeReg(RA8875_VDHR0, (uint16_t)(_height - 1) & 0xFF);
 434              		.loc 1 245 0
 435 011e 464B     		ldr	r3, .L19+8
ARM GAS  C:\Users\megan\AppData\Local\Temp\ccD8G3YI.s 			page 13


 436 0120 1B88     		ldrh	r3, [r3]
 437 0122 DBB2     		uxtb	r3, r3
 438 0124 013B     		subs	r3, r3, #1
 439 0126 DBB2     		uxtb	r3, r3
 440 0128 1900     		movs	r1, r3
 441 012a 1920     		movs	r0, #25
 442 012c FFF7FEFF 		bl	writeReg
 246:RA8875.c      ****   writeReg(RA8875_VDHR1, (uint16_t)(_height - 1) >> 8);
 443              		.loc 1 246 0
 444 0130 414B     		ldr	r3, .L19+8
 445 0132 1B88     		ldrh	r3, [r3]
 446 0134 013B     		subs	r3, r3, #1
 447 0136 9BB2     		uxth	r3, r3
 448 0138 1B0A     		lsrs	r3, r3, #8
 449 013a 9BB2     		uxth	r3, r3
 450 013c DBB2     		uxtb	r3, r3
 451 013e 1900     		movs	r1, r3
 452 0140 1A20     		movs	r0, #26
 453 0142 FFF7FEFF 		bl	writeReg
 247:RA8875.c      ****   writeReg(RA8875_VNDR0, vsync_nondisp-1);                          // V non-display period = VNDR 
 454              		.loc 1 247 0
 455 0146 0823     		movs	r3, #8
 456 0148 FB18     		adds	r3, r7, r3
 457 014a 1B88     		ldrh	r3, [r3]
 458 014c DBB2     		uxtb	r3, r3
 459 014e 013B     		subs	r3, r3, #1
 460 0150 DBB2     		uxtb	r3, r3
 461 0152 1900     		movs	r1, r3
 462 0154 1B20     		movs	r0, #27
 463 0156 FFF7FEFF 		bl	writeReg
 248:RA8875.c      ****   //writeReg(RA8875_VNDR0, 0x20);
 249:RA8875.c      ****   writeReg(RA8875_VNDR1, vsync_nondisp >> 8);
 464              		.loc 1 249 0
 465 015a 0823     		movs	r3, #8
 466 015c FB18     		adds	r3, r7, r3
 467 015e 1B88     		ldrh	r3, [r3]
 468 0160 1B0A     		lsrs	r3, r3, #8
 469 0162 9BB2     		uxth	r3, r3
 470 0164 DBB2     		uxtb	r3, r3
 471 0166 1900     		movs	r1, r3
 472 0168 1C20     		movs	r0, #28
 473 016a FFF7FEFF 		bl	writeReg
 250:RA8875.c      ****   writeReg(RA8875_VSTR0, vsync_start-1);                            // Vsync start position = VSTR 
 474              		.loc 1 250 0
 475 016e BB1D     		adds	r3, r7, #6
 476 0170 1B88     		ldrh	r3, [r3]
 477 0172 DBB2     		uxtb	r3, r3
 478 0174 013B     		subs	r3, r3, #1
 479 0176 DBB2     		uxtb	r3, r3
 480 0178 1900     		movs	r1, r3
 481 017a 1D20     		movs	r0, #29
 482 017c FFF7FEFF 		bl	writeReg
 251:RA8875.c      ****   writeReg(RA8875_VSTR1, vsync_start >> 8);
 483              		.loc 1 251 0
 484 0180 BB1D     		adds	r3, r7, #6
 485 0182 1B88     		ldrh	r3, [r3]
 486 0184 1B0A     		lsrs	r3, r3, #8
ARM GAS  C:\Users\megan\AppData\Local\Temp\ccD8G3YI.s 			page 14


 487 0186 9BB2     		uxth	r3, r3
 488 0188 DBB2     		uxtb	r3, r3
 489 018a 1900     		movs	r1, r3
 490 018c 1E20     		movs	r0, #30
 491 018e FFF7FEFF 		bl	writeReg
 252:RA8875.c      ****   writeReg(RA8875_VPWR, RA8875_VPWR_LOW + vsync_pw - 1);            // Vsync pulse width = VPWR + 1
 492              		.loc 1 252 0
 493 0192 0A23     		movs	r3, #10
 494 0194 FB18     		adds	r3, r7, r3
 495 0196 1B78     		ldrb	r3, [r3]
 496 0198 013B     		subs	r3, r3, #1
 497 019a DBB2     		uxtb	r3, r3
 498 019c 1900     		movs	r1, r3
 499 019e 1F20     		movs	r0, #31
 500 01a0 FFF7FEFF 		bl	writeReg
 253:RA8875.c      ****   
 254:RA8875.c      ****   /* Set active window X */
 255:RA8875.c      ****   writeReg(RA8875_HSAW0, 0);                                        // horizontal start point
 501              		.loc 1 255 0
 502 01a4 0021     		movs	r1, #0
 503 01a6 3020     		movs	r0, #48
 504 01a8 FFF7FEFF 		bl	writeReg
 256:RA8875.c      ****   writeReg(RA8875_HSAW1, 0);
 505              		.loc 1 256 0
 506 01ac 0021     		movs	r1, #0
 507 01ae 3120     		movs	r0, #49
 508 01b0 FFF7FEFF 		bl	writeReg
 257:RA8875.c      ****   writeReg(RA8875_HEAW0, (uint16_t)(_width - 1) & 0xFF);            // horizontal end point
 509              		.loc 1 257 0
 510 01b4 1F4B     		ldr	r3, .L19+4
 511 01b6 1B88     		ldrh	r3, [r3]
 512 01b8 DBB2     		uxtb	r3, r3
 513 01ba 013B     		subs	r3, r3, #1
 514 01bc DBB2     		uxtb	r3, r3
 515 01be 1900     		movs	r1, r3
 516 01c0 3420     		movs	r0, #52
 517 01c2 FFF7FEFF 		bl	writeReg
 258:RA8875.c      ****   writeReg(RA8875_HEAW1, (uint16_t)(_width - 1) >> 8);
 518              		.loc 1 258 0
 519 01c6 1B4B     		ldr	r3, .L19+4
 520 01c8 1B88     		ldrh	r3, [r3]
 521 01ca 013B     		subs	r3, r3, #1
 522 01cc 9BB2     		uxth	r3, r3
 523 01ce 1B0A     		lsrs	r3, r3, #8
 524 01d0 9BB2     		uxth	r3, r3
 525 01d2 DBB2     		uxtb	r3, r3
 526 01d4 1900     		movs	r1, r3
 527 01d6 3520     		movs	r0, #53
 528 01d8 FFF7FEFF 		bl	writeReg
 259:RA8875.c      ****   
 260:RA8875.c      ****   /* Set active window Y */
 261:RA8875.c      ****   writeReg(RA8875_VSAW0, 0);                                        // vertical start point
 529              		.loc 1 261 0
 530 01dc 0021     		movs	r1, #0
 531 01de 3220     		movs	r0, #50
 532 01e0 FFF7FEFF 		bl	writeReg
 262:RA8875.c      ****   writeReg(RA8875_VSAW1, 0);  
ARM GAS  C:\Users\megan\AppData\Local\Temp\ccD8G3YI.s 			page 15


 533              		.loc 1 262 0
 534 01e4 0021     		movs	r1, #0
 535 01e6 3320     		movs	r0, #51
 536 01e8 FFF7FEFF 		bl	writeReg
 263:RA8875.c      ****   writeReg(RA8875_VEAW0, (uint16_t)(_height - 1) & 0xFF);           // horizontal end point
 537              		.loc 1 263 0
 538 01ec 124B     		ldr	r3, .L19+8
 539 01ee 1B88     		ldrh	r3, [r3]
 540 01f0 DBB2     		uxtb	r3, r3
 541 01f2 013B     		subs	r3, r3, #1
 542 01f4 DBB2     		uxtb	r3, r3
 543 01f6 1900     		movs	r1, r3
 544 01f8 3620     		movs	r0, #54
 545 01fa FFF7FEFF 		bl	writeReg
 264:RA8875.c      ****   writeReg(RA8875_VEAW1, (uint16_t)(_height - 1) >> 8);
 546              		.loc 1 264 0
 547 01fe 0E4B     		ldr	r3, .L19+8
 548 0200 1B88     		ldrh	r3, [r3]
 549 0202 013B     		subs	r3, r3, #1
 550 0204 9BB2     		uxth	r3, r3
 551 0206 1B0A     		lsrs	r3, r3, #8
 552 0208 9BB2     		uxth	r3, r3
 553 020a DBB2     		uxtb	r3, r3
 554 020c 1900     		movs	r1, r3
 555 020e 3720     		movs	r0, #55
 556 0210 FFF7FEFF 		bl	writeReg
 265:RA8875.c      ****   
 266:RA8875.c      ****   /* ToDo: Setup touch panel? */
 267:RA8875.c      ****   
 268:RA8875.c      ****   /* Clear the entire window */
 269:RA8875.c      ****   writeReg(RA8875_MCLR, RA8875_MCLR_START | RA8875_MCLR_FULL);
 557              		.loc 1 269 0
 558 0214 8021     		movs	r1, #128
 559 0216 8E20     		movs	r0, #142
 560 0218 FFF7FEFF 		bl	writeReg
 270:RA8875.c      ****   CyDelay(500); 
 561              		.loc 1 270 0
 562 021c FA23     		movs	r3, #250
 563 021e 5B00     		lsls	r3, r3, #1
 564 0220 1800     		movs	r0, r3
 565 0222 FFF7FEFF 		bl	CyDelay
 271:RA8875.c      **** }
 566              		.loc 1 271 0
 567 0226 C046     		nop
 568 0228 BD46     		mov	sp, r7
 569 022a 04B0     		add	sp, sp, #16
 570              		@ sp needed
 571 022c 80BD     		pop	{r7, pc}
 572              	.L20:
 573 022e C046     		.align	2
 574              	.L19:
 575 0230 00000000 		.word	_size
 576 0234 00000000 		.word	_width
 577 0238 00000000 		.word	_height
 578              		.cfi_endproc
 579              	.LFE38:
 580              		.size	initialize, .-initialize
ARM GAS  C:\Users\megan\AppData\Local\Temp\ccD8G3YI.s 			page 16


 581              		.section	.text.width,"ax",%progbits
 582              		.align	2
 583              		.global	width
 584              		.code	16
 585              		.thumb_func
 586              		.type	width, %function
 587              	width:
 588              	.LFB39:
 272:RA8875.c      **** 
 273:RA8875.c      **** /**************************************************************************/
 274:RA8875.c      **** /*!
 275:RA8875.c      ****       Returns the display width in pixels
 276:RA8875.c      ****       
 277:RA8875.c      ****       @returns  The 1-based display width in pixels
 278:RA8875.c      **** */
 279:RA8875.c      **** /**************************************************************************/
 280:RA8875.c      **** uint16_t width(void) { return _width; }
 589              		.loc 1 280 0
 590              		.cfi_startproc
 591              		@ args = 0, pretend = 0, frame = 0
 592              		@ frame_needed = 1, uses_anonymous_args = 0
 593 0000 80B5     		push	{r7, lr}
 594              		.cfi_def_cfa_offset 8
 595              		.cfi_offset 7, -8
 596              		.cfi_offset 14, -4
 597 0002 00AF     		add	r7, sp, #0
 598              		.cfi_def_cfa_register 7
 599              		.loc 1 280 0
 600 0004 024B     		ldr	r3, .L23
 601 0006 1B88     		ldrh	r3, [r3]
 602 0008 1800     		movs	r0, r3
 603 000a BD46     		mov	sp, r7
 604              		@ sp needed
 605 000c 80BD     		pop	{r7, pc}
 606              	.L24:
 607 000e C046     		.align	2
 608              	.L23:
 609 0010 00000000 		.word	_width
 610              		.cfi_endproc
 611              	.LFE39:
 612              		.size	width, .-width
 613              		.section	.text.height,"ax",%progbits
 614              		.align	2
 615              		.global	height
 616              		.code	16
 617              		.thumb_func
 618              		.type	height, %function
 619              	height:
 620              	.LFB40:
 281:RA8875.c      **** 
 282:RA8875.c      **** /**************************************************************************/
 283:RA8875.c      **** /*!
 284:RA8875.c      ****       Returns the display height in pixels
 285:RA8875.c      **** 
 286:RA8875.c      ****       @returns  The 1-based display height in pixels
 287:RA8875.c      **** */
 288:RA8875.c      **** /**************************************************************************/
ARM GAS  C:\Users\megan\AppData\Local\Temp\ccD8G3YI.s 			page 17


 289:RA8875.c      **** uint16_t height(void) { return _height; }
 621              		.loc 1 289 0
 622              		.cfi_startproc
 623              		@ args = 0, pretend = 0, frame = 0
 624              		@ frame_needed = 1, uses_anonymous_args = 0
 625 0000 80B5     		push	{r7, lr}
 626              		.cfi_def_cfa_offset 8
 627              		.cfi_offset 7, -8
 628              		.cfi_offset 14, -4
 629 0002 00AF     		add	r7, sp, #0
 630              		.cfi_def_cfa_register 7
 631              		.loc 1 289 0
 632 0004 024B     		ldr	r3, .L27
 633 0006 1B88     		ldrh	r3, [r3]
 634 0008 1800     		movs	r0, r3
 635 000a BD46     		mov	sp, r7
 636              		@ sp needed
 637 000c 80BD     		pop	{r7, pc}
 638              	.L28:
 639 000e C046     		.align	2
 640              	.L27:
 641 0010 00000000 		.word	_height
 642              		.cfi_endproc
 643              	.LFE40:
 644              		.size	height, .-height
 645              		.section	.text.textMode,"ax",%progbits
 646              		.align	2
 647              		.global	textMode
 648              		.code	16
 649              		.thumb_func
 650              		.type	textMode, %function
 651              	textMode:
 652              	.LFB41:
 290:RA8875.c      **** 
 291:RA8875.c      **** /************************* Text Mode ***********************************/
 292:RA8875.c      **** 
 293:RA8875.c      **** /**************************************************************************/
 294:RA8875.c      **** /*!
 295:RA8875.c      ****       Sets the display in text mode (as opposed to graphics mode)
 296:RA8875.c      **** */
 297:RA8875.c      **** /**************************************************************************/
 298:RA8875.c      **** void textMode(void) 
 299:RA8875.c      **** {
 653              		.loc 1 299 0
 654              		.cfi_startproc
 655              		@ args = 0, pretend = 0, frame = 8
 656              		@ frame_needed = 1, uses_anonymous_args = 0
 657 0000 90B5     		push	{r4, r7, lr}
 658              		.cfi_def_cfa_offset 12
 659              		.cfi_offset 4, -12
 660              		.cfi_offset 7, -8
 661              		.cfi_offset 14, -4
 662 0002 83B0     		sub	sp, sp, #12
 663              		.cfi_def_cfa_offset 24
 664 0004 00AF     		add	r7, sp, #0
 665              		.cfi_def_cfa_register 7
 300:RA8875.c      ****   /* Set text mode */
ARM GAS  C:\Users\megan\AppData\Local\Temp\ccD8G3YI.s 			page 18


 301:RA8875.c      ****   writeCommand(RA8875_MWCR0);
 666              		.loc 1 301 0
 667 0006 4020     		movs	r0, #64
 668 0008 FFF7FEFF 		bl	writeCommand
 302:RA8875.c      ****   uint8_t temp = readData();
 669              		.loc 1 302 0
 670 000c FC1D     		adds	r4, r7, #7
 671 000e FFF7FEFF 		bl	readData
 672 0012 0300     		movs	r3, r0
 673 0014 2370     		strb	r3, [r4]
 303:RA8875.c      ****   //temp |= RA8875_MWCR0_TXTMODE; // Set bit 7
 304:RA8875.c      ****     temp = 0x80;
 674              		.loc 1 304 0
 675 0016 FB1D     		adds	r3, r7, #7
 676 0018 8022     		movs	r2, #128
 677 001a 1A70     		strb	r2, [r3]
 305:RA8875.c      ****   writeData(temp);
 678              		.loc 1 305 0
 679 001c FB1D     		adds	r3, r7, #7
 680 001e 1B78     		ldrb	r3, [r3]
 681 0020 1800     		movs	r0, r3
 682 0022 FFF7FEFF 		bl	writeData
 306:RA8875.c      ****   
 307:RA8875.c      ****   /* Select the internal (ROM) font */
 308:RA8875.c      ****   writeCommand(0x21);
 683              		.loc 1 308 0
 684 0026 2120     		movs	r0, #33
 685 0028 FFF7FEFF 		bl	writeCommand
 309:RA8875.c      ****   temp = readData();
 686              		.loc 1 309 0
 687 002c FC1D     		adds	r4, r7, #7
 688 002e FFF7FEFF 		bl	readData
 689 0032 0300     		movs	r3, r0
 690 0034 2370     		strb	r3, [r4]
 310:RA8875.c      ****   temp &= ~((1<<7) | (1<<5)); // Clear bits 7 and 5
 691              		.loc 1 310 0
 692 0036 FB1D     		adds	r3, r7, #7
 693 0038 FA1D     		adds	r2, r7, #7
 694 003a 1278     		ldrb	r2, [r2]
 695 003c 5F21     		movs	r1, #95
 696 003e 0A40     		ands	r2, r1
 697 0040 1A70     		strb	r2, [r3]
 311:RA8875.c      ****   writeData(temp);
 698              		.loc 1 311 0
 699 0042 FB1D     		adds	r3, r7, #7
 700 0044 1B78     		ldrb	r3, [r3]
 701 0046 1800     		movs	r0, r3
 702 0048 FFF7FEFF 		bl	writeData
 312:RA8875.c      **** 
 313:RA8875.c      **** }
 703              		.loc 1 313 0
 704 004c C046     		nop
 705 004e BD46     		mov	sp, r7
 706 0050 03B0     		add	sp, sp, #12
 707              		@ sp needed
 708 0052 90BD     		pop	{r4, r7, pc}
 709              		.cfi_endproc
ARM GAS  C:\Users\megan\AppData\Local\Temp\ccD8G3YI.s 			page 19


 710              	.LFE41:
 711              		.size	textMode, .-textMode
 712              		.section	.text.textSetCursor,"ax",%progbits
 713              		.align	2
 714              		.global	textSetCursor
 715              		.code	16
 716              		.thumb_func
 717              		.type	textSetCursor, %function
 718              	textSetCursor:
 719              	.LFB42:
 314:RA8875.c      **** 
 315:RA8875.c      **** /**************************************************************************/
 316:RA8875.c      **** /*!
 317:RA8875.c      ****       Sets the display in text mode (as opposed to graphics mode)
 318:RA8875.c      ****       
 319:RA8875.c      ****       @args x[in] The x position of the cursor (in pixels, 0..1023)
 320:RA8875.c      ****       @args y[in] The y position of the cursor (in pixels, 0..511)
 321:RA8875.c      **** */
 322:RA8875.c      **** /**************************************************************************/
 323:RA8875.c      **** void textSetCursor(uint16_t x, uint16_t y) 
 324:RA8875.c      **** {
 720              		.loc 1 324 0
 721              		.cfi_startproc
 722              		@ args = 0, pretend = 0, frame = 8
 723              		@ frame_needed = 1, uses_anonymous_args = 0
 724 0000 80B5     		push	{r7, lr}
 725              		.cfi_def_cfa_offset 8
 726              		.cfi_offset 7, -8
 727              		.cfi_offset 14, -4
 728 0002 82B0     		sub	sp, sp, #8
 729              		.cfi_def_cfa_offset 16
 730 0004 00AF     		add	r7, sp, #0
 731              		.cfi_def_cfa_register 7
 732 0006 0200     		movs	r2, r0
 733 0008 BB1D     		adds	r3, r7, #6
 734 000a 1A80     		strh	r2, [r3]
 735 000c 3B1D     		adds	r3, r7, #4
 736 000e 0A1C     		adds	r2, r1, #0
 737 0010 1A80     		strh	r2, [r3]
 325:RA8875.c      ****   /* Set cursor location */
 326:RA8875.c      ****   writeCommand(0x2A);
 738              		.loc 1 326 0
 739 0012 2A20     		movs	r0, #42
 740 0014 FFF7FEFF 		bl	writeCommand
 327:RA8875.c      ****   writeData(x & 0xFF);
 741              		.loc 1 327 0
 742 0018 BB1D     		adds	r3, r7, #6
 743 001a 1B88     		ldrh	r3, [r3]
 744 001c DBB2     		uxtb	r3, r3
 745 001e 1800     		movs	r0, r3
 746 0020 FFF7FEFF 		bl	writeData
 328:RA8875.c      ****   writeCommand(0x2B);
 747              		.loc 1 328 0
 748 0024 2B20     		movs	r0, #43
 749 0026 FFF7FEFF 		bl	writeCommand
 329:RA8875.c      ****   writeData(x >> 8);
 750              		.loc 1 329 0
ARM GAS  C:\Users\megan\AppData\Local\Temp\ccD8G3YI.s 			page 20


 751 002a BB1D     		adds	r3, r7, #6
 752 002c 1B88     		ldrh	r3, [r3]
 753 002e 1B0A     		lsrs	r3, r3, #8
 754 0030 9BB2     		uxth	r3, r3
 755 0032 DBB2     		uxtb	r3, r3
 756 0034 1800     		movs	r0, r3
 757 0036 FFF7FEFF 		bl	writeData
 330:RA8875.c      ****   writeCommand(0x2C);
 758              		.loc 1 330 0
 759 003a 2C20     		movs	r0, #44
 760 003c FFF7FEFF 		bl	writeCommand
 331:RA8875.c      ****   writeData(y & 0xFF);
 761              		.loc 1 331 0
 762 0040 3B1D     		adds	r3, r7, #4
 763 0042 1B88     		ldrh	r3, [r3]
 764 0044 DBB2     		uxtb	r3, r3
 765 0046 1800     		movs	r0, r3
 766 0048 FFF7FEFF 		bl	writeData
 332:RA8875.c      ****   writeCommand(0x2D);
 767              		.loc 1 332 0
 768 004c 2D20     		movs	r0, #45
 769 004e FFF7FEFF 		bl	writeCommand
 333:RA8875.c      ****   writeData(y >> 8);
 770              		.loc 1 333 0
 771 0052 3B1D     		adds	r3, r7, #4
 772 0054 1B88     		ldrh	r3, [r3]
 773 0056 1B0A     		lsrs	r3, r3, #8
 774 0058 9BB2     		uxth	r3, r3
 775 005a DBB2     		uxtb	r3, r3
 776 005c 1800     		movs	r0, r3
 777 005e FFF7FEFF 		bl	writeData
 334:RA8875.c      **** }
 778              		.loc 1 334 0
 779 0062 C046     		nop
 780 0064 BD46     		mov	sp, r7
 781 0066 02B0     		add	sp, sp, #8
 782              		@ sp needed
 783 0068 80BD     		pop	{r7, pc}
 784              		.cfi_endproc
 785              	.LFE42:
 786              		.size	textSetCursor, .-textSetCursor
 787 006a C046     		.section	.text.textColor,"ax",%progbits
 788              		.align	2
 789              		.global	textColor
 790              		.code	16
 791              		.thumb_func
 792              		.type	textColor, %function
 793              	textColor:
 794              	.LFB43:
 335:RA8875.c      **** 
 336:RA8875.c      **** /**************************************************************************/
 337:RA8875.c      **** /*!
 338:RA8875.c      ****       Sets the fore and background color when rendering text
 339:RA8875.c      ****       
 340:RA8875.c      ****       @args foreColor[in] The RGB565 color to use when rendering the text
 341:RA8875.c      ****       @args bgColor[in]   The RGB565 colot to use for the background
 342:RA8875.c      **** */
ARM GAS  C:\Users\megan\AppData\Local\Temp\ccD8G3YI.s 			page 21


 343:RA8875.c      **** /**************************************************************************/
 344:RA8875.c      **** void textColor(uint16_t foreColor, uint16_t bgColor)
 345:RA8875.c      **** {
 795              		.loc 1 345 0
 796              		.cfi_startproc
 797              		@ args = 0, pretend = 0, frame = 16
 798              		@ frame_needed = 1, uses_anonymous_args = 0
 799 0000 90B5     		push	{r4, r7, lr}
 800              		.cfi_def_cfa_offset 12
 801              		.cfi_offset 4, -12
 802              		.cfi_offset 7, -8
 803              		.cfi_offset 14, -4
 804 0002 85B0     		sub	sp, sp, #20
 805              		.cfi_def_cfa_offset 32
 806 0004 00AF     		add	r7, sp, #0
 807              		.cfi_def_cfa_register 7
 808 0006 0200     		movs	r2, r0
 809 0008 BB1D     		adds	r3, r7, #6
 810 000a 1A80     		strh	r2, [r3]
 811 000c 3B1D     		adds	r3, r7, #4
 812 000e 0A1C     		adds	r2, r1, #0
 813 0010 1A80     		strh	r2, [r3]
 346:RA8875.c      ****   /* Set Fore Color */
 347:RA8875.c      ****   writeCommand(0x63);
 814              		.loc 1 347 0
 815 0012 6320     		movs	r0, #99
 816 0014 FFF7FEFF 		bl	writeCommand
 348:RA8875.c      ****   writeData((foreColor & 0xf800) >> 11);
 817              		.loc 1 348 0
 818 0018 BB1D     		adds	r3, r7, #6
 819 001a 1B88     		ldrh	r3, [r3]
 820 001c DB0A     		lsrs	r3, r3, #11
 821 001e 9BB2     		uxth	r3, r3
 822 0020 DBB2     		uxtb	r3, r3
 823 0022 1800     		movs	r0, r3
 824 0024 FFF7FEFF 		bl	writeData
 349:RA8875.c      ****   writeCommand(0x64);
 825              		.loc 1 349 0
 826 0028 6420     		movs	r0, #100
 827 002a FFF7FEFF 		bl	writeCommand
 350:RA8875.c      ****   writeData((foreColor & 0x07e0) >> 5);
 828              		.loc 1 350 0
 829 002e BB1D     		adds	r3, r7, #6
 830 0030 1B88     		ldrh	r3, [r3]
 831 0032 5B11     		asrs	r3, r3, #5
 832 0034 DBB2     		uxtb	r3, r3
 833 0036 3F22     		movs	r2, #63
 834 0038 1340     		ands	r3, r2
 835 003a DBB2     		uxtb	r3, r3
 836 003c 1800     		movs	r0, r3
 837 003e FFF7FEFF 		bl	writeData
 351:RA8875.c      ****   writeCommand(0x65);
 838              		.loc 1 351 0
 839 0042 6520     		movs	r0, #101
 840 0044 FFF7FEFF 		bl	writeCommand
 352:RA8875.c      ****   writeData((foreColor & 0x001f));
 841              		.loc 1 352 0
ARM GAS  C:\Users\megan\AppData\Local\Temp\ccD8G3YI.s 			page 22


 842 0048 BB1D     		adds	r3, r7, #6
 843 004a 1B88     		ldrh	r3, [r3]
 844 004c DBB2     		uxtb	r3, r3
 845 004e 1F22     		movs	r2, #31
 846 0050 1340     		ands	r3, r2
 847 0052 DBB2     		uxtb	r3, r3
 848 0054 1800     		movs	r0, r3
 849 0056 FFF7FEFF 		bl	writeData
 353:RA8875.c      ****   
 354:RA8875.c      ****   /* Set Background Color */
 355:RA8875.c      ****   writeCommand(0x60);
 850              		.loc 1 355 0
 851 005a 6020     		movs	r0, #96
 852 005c FFF7FEFF 		bl	writeCommand
 356:RA8875.c      ****   writeData((bgColor & 0xf800) >> 11);
 853              		.loc 1 356 0
 854 0060 3B1D     		adds	r3, r7, #4
 855 0062 1B88     		ldrh	r3, [r3]
 856 0064 DB0A     		lsrs	r3, r3, #11
 857 0066 9BB2     		uxth	r3, r3
 858 0068 DBB2     		uxtb	r3, r3
 859 006a 1800     		movs	r0, r3
 860 006c FFF7FEFF 		bl	writeData
 357:RA8875.c      ****   writeCommand(0x61);
 861              		.loc 1 357 0
 862 0070 6120     		movs	r0, #97
 863 0072 FFF7FEFF 		bl	writeCommand
 358:RA8875.c      ****   writeData((bgColor & 0x07e0) >> 5);
 864              		.loc 1 358 0
 865 0076 3B1D     		adds	r3, r7, #4
 866 0078 1B88     		ldrh	r3, [r3]
 867 007a 5B11     		asrs	r3, r3, #5
 868 007c DBB2     		uxtb	r3, r3
 869 007e 3F22     		movs	r2, #63
 870 0080 1340     		ands	r3, r2
 871 0082 DBB2     		uxtb	r3, r3
 872 0084 1800     		movs	r0, r3
 873 0086 FFF7FEFF 		bl	writeData
 359:RA8875.c      ****   writeCommand(0x62);
 874              		.loc 1 359 0
 875 008a 6220     		movs	r0, #98
 876 008c FFF7FEFF 		bl	writeCommand
 360:RA8875.c      ****   writeData((bgColor & 0x001f));
 877              		.loc 1 360 0
 878 0090 3B1D     		adds	r3, r7, #4
 879 0092 1B88     		ldrh	r3, [r3]
 880 0094 DBB2     		uxtb	r3, r3
 881 0096 1F22     		movs	r2, #31
 882 0098 1340     		ands	r3, r2
 883 009a DBB2     		uxtb	r3, r3
 884 009c 1800     		movs	r0, r3
 885 009e FFF7FEFF 		bl	writeData
 361:RA8875.c      ****   
 362:RA8875.c      ****   /* Clear transparency flag */
 363:RA8875.c      ****   writeCommand(0x22);
 886              		.loc 1 363 0
 887 00a2 2220     		movs	r0, #34
ARM GAS  C:\Users\megan\AppData\Local\Temp\ccD8G3YI.s 			page 23


 888 00a4 FFF7FEFF 		bl	writeCommand
 364:RA8875.c      ****   uint8_t temp = readData();
 889              		.loc 1 364 0
 890 00a8 0F23     		movs	r3, #15
 891 00aa FC18     		adds	r4, r7, r3
 892 00ac FFF7FEFF 		bl	readData
 893 00b0 0300     		movs	r3, r0
 894 00b2 2370     		strb	r3, [r4]
 365:RA8875.c      ****   temp &= ~(1<<6); // Clear bit 6
 895              		.loc 1 365 0
 896 00b4 0F23     		movs	r3, #15
 897 00b6 FB18     		adds	r3, r7, r3
 898 00b8 0F22     		movs	r2, #15
 899 00ba BA18     		adds	r2, r7, r2
 900 00bc 1278     		ldrb	r2, [r2]
 901 00be 4021     		movs	r1, #64
 902 00c0 8A43     		bics	r2, r1
 903 00c2 1A70     		strb	r2, [r3]
 366:RA8875.c      ****   writeData(temp);
 904              		.loc 1 366 0
 905 00c4 0F23     		movs	r3, #15
 906 00c6 FB18     		adds	r3, r7, r3
 907 00c8 1B78     		ldrb	r3, [r3]
 908 00ca 1800     		movs	r0, r3
 909 00cc FFF7FEFF 		bl	writeData
 367:RA8875.c      **** }
 910              		.loc 1 367 0
 911 00d0 C046     		nop
 912 00d2 BD46     		mov	sp, r7
 913 00d4 05B0     		add	sp, sp, #20
 914              		@ sp needed
 915 00d6 90BD     		pop	{r4, r7, pc}
 916              		.cfi_endproc
 917              	.LFE43:
 918              		.size	textColor, .-textColor
 919              		.section	.text.textTransparent,"ax",%progbits
 920              		.align	2
 921              		.global	textTransparent
 922              		.code	16
 923              		.thumb_func
 924              		.type	textTransparent, %function
 925              	textTransparent:
 926              	.LFB44:
 368:RA8875.c      **** 
 369:RA8875.c      **** /**************************************************************************/
 370:RA8875.c      **** /*!
 371:RA8875.c      ****       Sets the fore color when rendering text with a transparent bg
 372:RA8875.c      ****       
 373:RA8875.c      ****       @args foreColor[in] The RGB565 color to use when rendering the text
 374:RA8875.c      **** */
 375:RA8875.c      **** /**************************************************************************/
 376:RA8875.c      **** void textTransparent(uint16_t foreColor)
 377:RA8875.c      **** {
 927              		.loc 1 377 0
 928              		.cfi_startproc
 929              		@ args = 0, pretend = 0, frame = 16
 930              		@ frame_needed = 1, uses_anonymous_args = 0
ARM GAS  C:\Users\megan\AppData\Local\Temp\ccD8G3YI.s 			page 24


 931 0000 90B5     		push	{r4, r7, lr}
 932              		.cfi_def_cfa_offset 12
 933              		.cfi_offset 4, -12
 934              		.cfi_offset 7, -8
 935              		.cfi_offset 14, -4
 936 0002 85B0     		sub	sp, sp, #20
 937              		.cfi_def_cfa_offset 32
 938 0004 00AF     		add	r7, sp, #0
 939              		.cfi_def_cfa_register 7
 940 0006 0200     		movs	r2, r0
 941 0008 BB1D     		adds	r3, r7, #6
 942 000a 1A80     		strh	r2, [r3]
 378:RA8875.c      ****   /* Set Fore Color */
 379:RA8875.c      ****   writeCommand(0x63);
 943              		.loc 1 379 0
 944 000c 6320     		movs	r0, #99
 945 000e FFF7FEFF 		bl	writeCommand
 380:RA8875.c      ****   writeData((foreColor & 0xf800) >> 11);
 946              		.loc 1 380 0
 947 0012 BB1D     		adds	r3, r7, #6
 948 0014 1B88     		ldrh	r3, [r3]
 949 0016 DB0A     		lsrs	r3, r3, #11
 950 0018 9BB2     		uxth	r3, r3
 951 001a DBB2     		uxtb	r3, r3
 952 001c 1800     		movs	r0, r3
 953 001e FFF7FEFF 		bl	writeData
 381:RA8875.c      ****   writeCommand(0x64);
 954              		.loc 1 381 0
 955 0022 6420     		movs	r0, #100
 956 0024 FFF7FEFF 		bl	writeCommand
 382:RA8875.c      ****   writeData((foreColor & 0x07e0) >> 5);
 957              		.loc 1 382 0
 958 0028 BB1D     		adds	r3, r7, #6
 959 002a 1B88     		ldrh	r3, [r3]
 960 002c 5B11     		asrs	r3, r3, #5
 961 002e DBB2     		uxtb	r3, r3
 962 0030 3F22     		movs	r2, #63
 963 0032 1340     		ands	r3, r2
 964 0034 DBB2     		uxtb	r3, r3
 965 0036 1800     		movs	r0, r3
 966 0038 FFF7FEFF 		bl	writeData
 383:RA8875.c      ****   writeCommand(0x65);
 967              		.loc 1 383 0
 968 003c 6520     		movs	r0, #101
 969 003e FFF7FEFF 		bl	writeCommand
 384:RA8875.c      ****   writeData((foreColor & 0x001f));
 970              		.loc 1 384 0
 971 0042 BB1D     		adds	r3, r7, #6
 972 0044 1B88     		ldrh	r3, [r3]
 973 0046 DBB2     		uxtb	r3, r3
 974 0048 1F22     		movs	r2, #31
 975 004a 1340     		ands	r3, r2
 976 004c DBB2     		uxtb	r3, r3
 977 004e 1800     		movs	r0, r3
 978 0050 FFF7FEFF 		bl	writeData
 385:RA8875.c      **** 
 386:RA8875.c      **** // testing
ARM GAS  C:\Users\megan\AppData\Local\Temp\ccD8G3YI.s 			page 25


 387:RA8875.c      ****     //writeReg(0x22,0x00);
 388:RA8875.c      ****     
 389:RA8875.c      ****   /* Set transparency flag */
 390:RA8875.c      ****   writeCommand(0x22);
 979              		.loc 1 390 0
 980 0054 2220     		movs	r0, #34
 981 0056 FFF7FEFF 		bl	writeCommand
 391:RA8875.c      ****   uint8_t temp = readData();
 982              		.loc 1 391 0
 983 005a 0F23     		movs	r3, #15
 984 005c FC18     		adds	r4, r7, r3
 985 005e FFF7FEFF 		bl	readData
 986 0062 0300     		movs	r3, r0
 987 0064 2370     		strb	r3, [r4]
 392:RA8875.c      ****   temp |= (1<<6); // Set bit 6 
 988              		.loc 1 392 0
 989 0066 0F23     		movs	r3, #15
 990 0068 FB18     		adds	r3, r7, r3
 991 006a 0F22     		movs	r2, #15
 992 006c BA18     		adds	r2, r7, r2
 993 006e 1278     		ldrb	r2, [r2]
 994 0070 4021     		movs	r1, #64
 995 0072 0A43     		orrs	r2, r1
 996 0074 1A70     		strb	r2, [r3]
 393:RA8875.c      ****   writeData(temp); 
 997              		.loc 1 393 0
 998 0076 0F23     		movs	r3, #15
 999 0078 FB18     		adds	r3, r7, r3
 1000 007a 1B78     		ldrb	r3, [r3]
 1001 007c 1800     		movs	r0, r3
 1002 007e FFF7FEFF 		bl	writeData
 394:RA8875.c      **** 
 395:RA8875.c      ****   // testing
 396:RA8875.c      **** //  temp = readReg(0x22);
 397:RA8875.c      **** //  temp |= (1<<6); // Set bit 6 
 398:RA8875.c      **** //  writeReg(0x22,temp);
 399:RA8875.c      **** 
 400:RA8875.c      **** }
 1003              		.loc 1 400 0
 1004 0082 C046     		nop
 1005 0084 BD46     		mov	sp, r7
 1006 0086 05B0     		add	sp, sp, #20
 1007              		@ sp needed
 1008 0088 90BD     		pop	{r4, r7, pc}
 1009              		.cfi_endproc
 1010              	.LFE44:
 1011              		.size	textTransparent, .-textTransparent
 1012 008a C046     		.section	.text.textEnlarge,"ax",%progbits
 1013              		.align	2
 1014              		.global	textEnlarge
 1015              		.code	16
 1016              		.thumb_func
 1017              		.type	textEnlarge, %function
 1018              	textEnlarge:
 1019              	.LFB45:
 401:RA8875.c      **** 
 402:RA8875.c      **** /**************************************************************************/
ARM GAS  C:\Users\megan\AppData\Local\Temp\ccD8G3YI.s 			page 26


 403:RA8875.c      **** /*!
 404:RA8875.c      ****       Sets the text enlarge settings, using one of the following values:
 405:RA8875.c      ****       
 406:RA8875.c      ****       0 = 1x zoom
 407:RA8875.c      ****       1 = 2x zoom
 408:RA8875.c      ****       2 = 3x zoom
 409:RA8875.c      ****       3 = 4x zoom
 410:RA8875.c      ****       
 411:RA8875.c      ****       @args scale[in]   The zoom factor (0..3 for 1-4x zoom)
 412:RA8875.c      **** */
 413:RA8875.c      **** /**************************************************************************/
 414:RA8875.c      **** void textEnlarge(uint8_t scale)
 415:RA8875.c      **** {
 1020              		.loc 1 415 0
 1021              		.cfi_startproc
 1022              		@ args = 0, pretend = 0, frame = 16
 1023              		@ frame_needed = 1, uses_anonymous_args = 0
 1024 0000 90B5     		push	{r4, r7, lr}
 1025              		.cfi_def_cfa_offset 12
 1026              		.cfi_offset 4, -12
 1027              		.cfi_offset 7, -8
 1028              		.cfi_offset 14, -4
 1029 0002 85B0     		sub	sp, sp, #20
 1030              		.cfi_def_cfa_offset 32
 1031 0004 00AF     		add	r7, sp, #0
 1032              		.cfi_def_cfa_register 7
 1033 0006 0200     		movs	r2, r0
 1034 0008 FB1D     		adds	r3, r7, #7
 1035 000a 1A70     		strb	r2, [r3]
 416:RA8875.c      ****   if (scale > 3) scale = 3;
 1036              		.loc 1 416 0
 1037 000c FB1D     		adds	r3, r7, #7
 1038 000e 1B78     		ldrb	r3, [r3]
 1039 0010 032B     		cmp	r3, #3
 1040 0012 02D9     		bls	.L34
 1041              		.loc 1 416 0 is_stmt 0 discriminator 1
 1042 0014 FB1D     		adds	r3, r7, #7
 1043 0016 0322     		movs	r2, #3
 1044 0018 1A70     		strb	r2, [r3]
 1045              	.L34:
 417:RA8875.c      **** 
 418:RA8875.c      ****   /* Set font size flags */
 419:RA8875.c      ****   writeCommand(0x22);
 1046              		.loc 1 419 0 is_stmt 1
 1047 001a 2220     		movs	r0, #34
 1048 001c FFF7FEFF 		bl	writeCommand
 420:RA8875.c      ****   uint8_t temp = readData();
 1049              		.loc 1 420 0
 1050 0020 0F23     		movs	r3, #15
 1051 0022 FC18     		adds	r4, r7, r3
 1052 0024 FFF7FEFF 		bl	readData
 1053 0028 0300     		movs	r3, r0
 1054 002a 2370     		strb	r3, [r4]
 421:RA8875.c      ****   temp &= ~(0xF); // Clears bits 0..3
 1055              		.loc 1 421 0
 1056 002c 0F23     		movs	r3, #15
 1057 002e FB18     		adds	r3, r7, r3
ARM GAS  C:\Users\megan\AppData\Local\Temp\ccD8G3YI.s 			page 27


 1058 0030 0F22     		movs	r2, #15
 1059 0032 BA18     		adds	r2, r7, r2
 1060 0034 1278     		ldrb	r2, [r2]
 1061 0036 0F21     		movs	r1, #15
 1062 0038 8A43     		bics	r2, r1
 1063 003a 1A70     		strb	r2, [r3]
 422:RA8875.c      ****   temp |= scale << 2;
 1064              		.loc 1 422 0
 1065 003c FB1D     		adds	r3, r7, #7
 1066 003e 1B78     		ldrb	r3, [r3]
 1067 0040 9B00     		lsls	r3, r3, #2
 1068 0042 5AB2     		sxtb	r2, r3
 1069 0044 0F23     		movs	r3, #15
 1070 0046 FB18     		adds	r3, r7, r3
 1071 0048 1B78     		ldrb	r3, [r3]
 1072 004a 5BB2     		sxtb	r3, r3
 1073 004c 1343     		orrs	r3, r2
 1074 004e 5AB2     		sxtb	r2, r3
 1075 0050 0F23     		movs	r3, #15
 1076 0052 FB18     		adds	r3, r7, r3
 1077 0054 1A70     		strb	r2, [r3]
 423:RA8875.c      ****   temp |= scale;
 1078              		.loc 1 423 0
 1079 0056 0F23     		movs	r3, #15
 1080 0058 FB18     		adds	r3, r7, r3
 1081 005a 0F22     		movs	r2, #15
 1082 005c B918     		adds	r1, r7, r2
 1083 005e FA1D     		adds	r2, r7, #7
 1084 0060 0978     		ldrb	r1, [r1]
 1085 0062 1278     		ldrb	r2, [r2]
 1086 0064 0A43     		orrs	r2, r1
 1087 0066 1A70     		strb	r2, [r3]
 424:RA8875.c      ****   writeData(temp);  
 1088              		.loc 1 424 0
 1089 0068 0F23     		movs	r3, #15
 1090 006a FB18     		adds	r3, r7, r3
 1091 006c 1B78     		ldrb	r3, [r3]
 1092 006e 1800     		movs	r0, r3
 1093 0070 FFF7FEFF 		bl	writeData
 425:RA8875.c      **** 
 426:RA8875.c      ****   _textScale = scale;
 1094              		.loc 1 426 0
 1095 0074 034B     		ldr	r3, .L35
 1096 0076 FA1D     		adds	r2, r7, #7
 1097 0078 1278     		ldrb	r2, [r2]
 1098 007a 1A70     		strb	r2, [r3]
 427:RA8875.c      **** }
 1099              		.loc 1 427 0
 1100 007c C046     		nop
 1101 007e BD46     		mov	sp, r7
 1102 0080 05B0     		add	sp, sp, #20
 1103              		@ sp needed
 1104 0082 90BD     		pop	{r4, r7, pc}
 1105              	.L36:
 1106              		.align	2
 1107              	.L35:
 1108 0084 00000000 		.word	_textScale
ARM GAS  C:\Users\megan\AppData\Local\Temp\ccD8G3YI.s 			page 28


 1109              		.cfi_endproc
 1110              	.LFE45:
 1111              		.size	textEnlarge, .-textEnlarge
 1112              		.section	.text.textWrite,"ax",%progbits
 1113              		.align	2
 1114              		.global	textWrite
 1115              		.code	16
 1116              		.thumb_func
 1117              		.type	textWrite, %function
 1118              	textWrite:
 1119              	.LFB46:
 428:RA8875.c      **** 
 429:RA8875.c      **** /**************************************************************************/
 430:RA8875.c      **** /*!
 431:RA8875.c      ****       Renders some text on the screen when in text mode
 432:RA8875.c      ****       
 433:RA8875.c      ****       @args buffer[in]    The buffer containing the characters to render
 434:RA8875.c      ****       @args len[in]       The size of the buffer in bytes
 435:RA8875.c      **** */
 436:RA8875.c      **** /**************************************************************************/
 437:RA8875.c      **** void textWrite(const char* buffer, uint16_t len) 
 438:RA8875.c      **** {
 1120              		.loc 1 438 0
 1121              		.cfi_startproc
 1122              		@ args = 0, pretend = 0, frame = 16
 1123              		@ frame_needed = 1, uses_anonymous_args = 0
 1124 0000 80B5     		push	{r7, lr}
 1125              		.cfi_def_cfa_offset 8
 1126              		.cfi_offset 7, -8
 1127              		.cfi_offset 14, -4
 1128 0002 84B0     		sub	sp, sp, #16
 1129              		.cfi_def_cfa_offset 24
 1130 0004 00AF     		add	r7, sp, #0
 1131              		.cfi_def_cfa_register 7
 1132 0006 7860     		str	r0, [r7, #4]
 1133 0008 0A00     		movs	r2, r1
 1134 000a BB1C     		adds	r3, r7, #2
 1135 000c 1A80     		strh	r2, [r3]
 439:RA8875.c      ****   if (len == 0) len = strlen(buffer);
 1136              		.loc 1 439 0
 1137 000e BB1C     		adds	r3, r7, #2
 1138 0010 1B88     		ldrh	r3, [r3]
 1139 0012 002B     		cmp	r3, #0
 1140 0014 06D1     		bne	.L38
 1141              		.loc 1 439 0 is_stmt 0 discriminator 1
 1142 0016 7B68     		ldr	r3, [r7, #4]
 1143 0018 1800     		movs	r0, r3
 1144 001a FFF7FEFF 		bl	strlen
 1145 001e 0200     		movs	r2, r0
 1146 0020 BB1C     		adds	r3, r7, #2
 1147 0022 1A80     		strh	r2, [r3]
 1148              	.L38:
 440:RA8875.c      ****   writeCommand(RA8875_MRWC);
 1149              		.loc 1 440 0 is_stmt 1
 1150 0024 0220     		movs	r0, #2
 1151 0026 FFF7FEFF 		bl	writeCommand
 1152              	.LBB2:
ARM GAS  C:\Users\megan\AppData\Local\Temp\ccD8G3YI.s 			page 29


 441:RA8875.c      ****   for (uint16_t i=0;i<len;i++)
 1153              		.loc 1 441 0
 1154 002a 0E23     		movs	r3, #14
 1155 002c FB18     		adds	r3, r7, r3
 1156 002e 0022     		movs	r2, #0
 1157 0030 1A80     		strh	r2, [r3]
 1158 0032 16E0     		b	.L39
 1159              	.L41:
 442:RA8875.c      ****   {
 443:RA8875.c      ****     writeData(buffer[i]);
 1160              		.loc 1 443 0
 1161 0034 0E23     		movs	r3, #14
 1162 0036 FB18     		adds	r3, r7, r3
 1163 0038 1B88     		ldrh	r3, [r3]
 1164 003a 7A68     		ldr	r2, [r7, #4]
 1165 003c D318     		adds	r3, r2, r3
 1166 003e 1B78     		ldrb	r3, [r3]
 1167 0040 1800     		movs	r0, r3
 1168 0042 FFF7FEFF 		bl	writeData
 444:RA8875.c      **** #if defined(__AVR__)
 445:RA8875.c      ****     if (_textScale > 1) delay(1);
 446:RA8875.c      **** #elif defined(__arm__)
 447:RA8875.c      ****     // This delay is needed with textEnlarge(1) because
 448:RA8875.c      ****     // Teensy 3.X is much faster than Arduino Uno
 449:RA8875.c      ****     if (_textScale > 0) CyDelay(1);
 1169              		.loc 1 449 0
 1170 0046 0C4B     		ldr	r3, .L42
 1171 0048 1B78     		ldrb	r3, [r3]
 1172 004a 002B     		cmp	r3, #0
 1173 004c 02D0     		beq	.L40
 1174              		.loc 1 449 0 is_stmt 0 discriminator 1
 1175 004e 0120     		movs	r0, #1
 1176 0050 FFF7FEFF 		bl	CyDelay
 1177              	.L40:
 441:RA8875.c      ****   {
 1178              		.loc 1 441 0 is_stmt 1 discriminator 2
 1179 0054 0E23     		movs	r3, #14
 1180 0056 FB18     		adds	r3, r7, r3
 1181 0058 1A88     		ldrh	r2, [r3]
 1182 005a 0E23     		movs	r3, #14
 1183 005c FB18     		adds	r3, r7, r3
 1184 005e 0132     		adds	r2, r2, #1
 1185 0060 1A80     		strh	r2, [r3]
 1186              	.L39:
 441:RA8875.c      ****   {
 1187              		.loc 1 441 0 is_stmt 0 discriminator 1
 1188 0062 0E23     		movs	r3, #14
 1189 0064 FA18     		adds	r2, r7, r3
 1190 0066 BB1C     		adds	r3, r7, #2
 1191 0068 1288     		ldrh	r2, [r2]
 1192 006a 1B88     		ldrh	r3, [r3]
 1193 006c 9A42     		cmp	r2, r3
 1194 006e E1D3     		bcc	.L41
 1195              	.LBE2:
 450:RA8875.c      **** #endif
 451:RA8875.c      ****   }
 452:RA8875.c      **** }
ARM GAS  C:\Users\megan\AppData\Local\Temp\ccD8G3YI.s 			page 30


 1196              		.loc 1 452 0 is_stmt 1
 1197 0070 C046     		nop
 1198 0072 BD46     		mov	sp, r7
 1199 0074 04B0     		add	sp, sp, #16
 1200              		@ sp needed
 1201 0076 80BD     		pop	{r7, pc}
 1202              	.L43:
 1203              		.align	2
 1204              	.L42:
 1205 0078 00000000 		.word	_textScale
 1206              		.cfi_endproc
 1207              	.LFE46:
 1208              		.size	textWrite, .-textWrite
 1209              		.section	.text.graphicsMode,"ax",%progbits
 1210              		.align	2
 1211              		.global	graphicsMode
 1212              		.code	16
 1213              		.thumb_func
 1214              		.type	graphicsMode, %function
 1215              	graphicsMode:
 1216              	.LFB47:
 453:RA8875.c      **** 
 454:RA8875.c      **** /************************* Graphics ***********************************/
 455:RA8875.c      **** 
 456:RA8875.c      **** /**************************************************************************/
 457:RA8875.c      **** /*!
 458:RA8875.c      ****       Sets the display in graphics mode (as opposed to text mode)
 459:RA8875.c      **** */
 460:RA8875.c      **** /**************************************************************************/
 461:RA8875.c      **** void graphicsMode(void) {
 1217              		.loc 1 461 0
 1218              		.cfi_startproc
 1219              		@ args = 0, pretend = 0, frame = 8
 1220              		@ frame_needed = 1, uses_anonymous_args = 0
 1221 0000 90B5     		push	{r4, r7, lr}
 1222              		.cfi_def_cfa_offset 12
 1223              		.cfi_offset 4, -12
 1224              		.cfi_offset 7, -8
 1225              		.cfi_offset 14, -4
 1226 0002 83B0     		sub	sp, sp, #12
 1227              		.cfi_def_cfa_offset 24
 1228 0004 00AF     		add	r7, sp, #0
 1229              		.cfi_def_cfa_register 7
 462:RA8875.c      ****   writeCommand(RA8875_MWCR0);
 1230              		.loc 1 462 0
 1231 0006 4020     		movs	r0, #64
 1232 0008 FFF7FEFF 		bl	writeCommand
 463:RA8875.c      ****   uint8_t temp = readData();
 1233              		.loc 1 463 0
 1234 000c FC1D     		adds	r4, r7, #7
 1235 000e FFF7FEFF 		bl	readData
 1236 0012 0300     		movs	r3, r0
 1237 0014 2370     		strb	r3, [r4]
 464:RA8875.c      ****   temp &= ~RA8875_MWCR0_TXTMODE; // bit #7
 1238              		.loc 1 464 0
 1239 0016 FB1D     		adds	r3, r7, #7
 1240 0018 FA1D     		adds	r2, r7, #7
ARM GAS  C:\Users\megan\AppData\Local\Temp\ccD8G3YI.s 			page 31


 1241 001a 1278     		ldrb	r2, [r2]
 1242 001c 7F21     		movs	r1, #127
 1243 001e 0A40     		ands	r2, r1
 1244 0020 1A70     		strb	r2, [r3]
 465:RA8875.c      ****   writeData(temp);
 1245              		.loc 1 465 0
 1246 0022 FB1D     		adds	r3, r7, #7
 1247 0024 1B78     		ldrb	r3, [r3]
 1248 0026 1800     		movs	r0, r3
 1249 0028 FFF7FEFF 		bl	writeData
 466:RA8875.c      **** }
 1250              		.loc 1 466 0
 1251 002c C046     		nop
 1252 002e BD46     		mov	sp, r7
 1253 0030 03B0     		add	sp, sp, #12
 1254              		@ sp needed
 1255 0032 90BD     		pop	{r4, r7, pc}
 1256              		.cfi_endproc
 1257              	.LFE47:
 1258              		.size	graphicsMode, .-graphicsMode
 1259              		.section	.text.waitPoll,"ax",%progbits
 1260              		.align	2
 1261              		.global	waitPoll
 1262              		.code	16
 1263              		.thumb_func
 1264              		.type	waitPoll, %function
 1265              	waitPoll:
 1266              	.LFB48:
 467:RA8875.c      **** 
 468:RA8875.c      **** /**************************************************************************/
 469:RA8875.c      **** /*!
 470:RA8875.c      ****       Waits for screen to finish by polling the status!
 471:RA8875.c      **** */
 472:RA8875.c      **** /**************************************************************************/
 473:RA8875.c      **** boolean waitPoll(uint8_t regname, uint8_t waitflag) {
 1267              		.loc 1 473 0
 1268              		.cfi_startproc
 1269              		@ args = 0, pretend = 0, frame = 16
 1270              		@ frame_needed = 1, uses_anonymous_args = 0
 1271 0000 90B5     		push	{r4, r7, lr}
 1272              		.cfi_def_cfa_offset 12
 1273              		.cfi_offset 4, -12
 1274              		.cfi_offset 7, -8
 1275              		.cfi_offset 14, -4
 1276 0002 85B0     		sub	sp, sp, #20
 1277              		.cfi_def_cfa_offset 32
 1278 0004 00AF     		add	r7, sp, #0
 1279              		.cfi_def_cfa_register 7
 1280 0006 0200     		movs	r2, r0
 1281 0008 FB1D     		adds	r3, r7, #7
 1282 000a 1A70     		strb	r2, [r3]
 1283 000c BB1D     		adds	r3, r7, #6
 1284 000e 0A1C     		adds	r2, r1, #0
 1285 0010 1A70     		strb	r2, [r3]
 1286              	.L48:
 1287              	.LBB3:
 474:RA8875.c      ****   /* Wait for the command to finish */
ARM GAS  C:\Users\megan\AppData\Local\Temp\ccD8G3YI.s 			page 32


 475:RA8875.c      ****   while (1)
 476:RA8875.c      ****   {
 477:RA8875.c      ****     uint8_t temp = readReg(regname);
 1288              		.loc 1 477 0
 1289 0012 0F23     		movs	r3, #15
 1290 0014 FC18     		adds	r4, r7, r3
 1291 0016 FB1D     		adds	r3, r7, #7
 1292 0018 1B78     		ldrb	r3, [r3]
 1293 001a 1800     		movs	r0, r3
 1294 001c FFF7FEFF 		bl	readReg
 1295 0020 0300     		movs	r3, r0
 1296 0022 2370     		strb	r3, [r4]
 478:RA8875.c      ****     if (!(temp & waitflag))
 1297              		.loc 1 478 0
 1298 0024 0F23     		movs	r3, #15
 1299 0026 FB18     		adds	r3, r7, r3
 1300 0028 BA1D     		adds	r2, r7, #6
 1301 002a 1B78     		ldrb	r3, [r3]
 1302 002c 1278     		ldrb	r2, [r2]
 1303 002e 1340     		ands	r3, r2
 1304 0030 DBB2     		uxtb	r3, r3
 1305 0032 002B     		cmp	r3, #0
 1306 0034 EDD1     		bne	.L48
 479:RA8875.c      ****       return true;
 1307              		.loc 1 479 0
 1308 0036 0123     		movs	r3, #1
 1309              	.LBE3:
 480:RA8875.c      ****   }  
 481:RA8875.c      ****   return false; // MEMEFIX: yeah i know, unreached! - add timeout?
 482:RA8875.c      **** }
 1310              		.loc 1 482 0
 1311 0038 1800     		movs	r0, r3
 1312 003a BD46     		mov	sp, r7
 1313 003c 05B0     		add	sp, sp, #20
 1314              		@ sp needed
 1315 003e 90BD     		pop	{r4, r7, pc}
 1316              		.cfi_endproc
 1317              	.LFE48:
 1318              		.size	waitPoll, .-waitPoll
 1319              		.section	.text.setXY,"ax",%progbits
 1320              		.align	2
 1321              		.global	setXY
 1322              		.code	16
 1323              		.thumb_func
 1324              		.type	setXY, %function
 1325              	setXY:
 1326              	.LFB49:
 483:RA8875.c      **** 
 484:RA8875.c      **** 
 485:RA8875.c      **** /**************************************************************************/
 486:RA8875.c      **** /*!
 487:RA8875.c      ****       Sets the current X/Y position on the display before drawing
 488:RA8875.c      ****       
 489:RA8875.c      ****       @args x[in] The 0-based x location
 490:RA8875.c      ****       @args y[in] The 0-base y location
 491:RA8875.c      **** */
 492:RA8875.c      **** /**************************************************************************/
ARM GAS  C:\Users\megan\AppData\Local\Temp\ccD8G3YI.s 			page 33


 493:RA8875.c      **** void setXY(uint16_t x, uint16_t y) {
 1327              		.loc 1 493 0
 1328              		.cfi_startproc
 1329              		@ args = 0, pretend = 0, frame = 8
 1330              		@ frame_needed = 1, uses_anonymous_args = 0
 1331 0000 80B5     		push	{r7, lr}
 1332              		.cfi_def_cfa_offset 8
 1333              		.cfi_offset 7, -8
 1334              		.cfi_offset 14, -4
 1335 0002 82B0     		sub	sp, sp, #8
 1336              		.cfi_def_cfa_offset 16
 1337 0004 00AF     		add	r7, sp, #0
 1338              		.cfi_def_cfa_register 7
 1339 0006 0200     		movs	r2, r0
 1340 0008 BB1D     		adds	r3, r7, #6
 1341 000a 1A80     		strh	r2, [r3]
 1342 000c 3B1D     		adds	r3, r7, #4
 1343 000e 0A1C     		adds	r2, r1, #0
 1344 0010 1A80     		strh	r2, [r3]
 494:RA8875.c      ****   writeReg(RA8875_CURH0, x);
 1345              		.loc 1 494 0
 1346 0012 BB1D     		adds	r3, r7, #6
 1347 0014 1B88     		ldrh	r3, [r3]
 1348 0016 DBB2     		uxtb	r3, r3
 1349 0018 1900     		movs	r1, r3
 1350 001a 4620     		movs	r0, #70
 1351 001c FFF7FEFF 		bl	writeReg
 495:RA8875.c      ****   writeReg(RA8875_CURH1, x >> 8);
 1352              		.loc 1 495 0
 1353 0020 BB1D     		adds	r3, r7, #6
 1354 0022 1B88     		ldrh	r3, [r3]
 1355 0024 1B0A     		lsrs	r3, r3, #8
 1356 0026 9BB2     		uxth	r3, r3
 1357 0028 DBB2     		uxtb	r3, r3
 1358 002a 1900     		movs	r1, r3
 1359 002c 4720     		movs	r0, #71
 1360 002e FFF7FEFF 		bl	writeReg
 496:RA8875.c      ****   writeReg(RA8875_CURV0, y);
 1361              		.loc 1 496 0
 1362 0032 3B1D     		adds	r3, r7, #4
 1363 0034 1B88     		ldrh	r3, [r3]
 1364 0036 DBB2     		uxtb	r3, r3
 1365 0038 1900     		movs	r1, r3
 1366 003a 4820     		movs	r0, #72
 1367 003c FFF7FEFF 		bl	writeReg
 497:RA8875.c      ****   writeReg(RA8875_CURV1, y >> 8);  
 1368              		.loc 1 497 0
 1369 0040 3B1D     		adds	r3, r7, #4
 1370 0042 1B88     		ldrh	r3, [r3]
 1371 0044 1B0A     		lsrs	r3, r3, #8
 1372 0046 9BB2     		uxth	r3, r3
 1373 0048 DBB2     		uxtb	r3, r3
 1374 004a 1900     		movs	r1, r3
 1375 004c 4920     		movs	r0, #73
 1376 004e FFF7FEFF 		bl	writeReg
 498:RA8875.c      **** }
 1377              		.loc 1 498 0
ARM GAS  C:\Users\megan\AppData\Local\Temp\ccD8G3YI.s 			page 34


 1378 0052 C046     		nop
 1379 0054 BD46     		mov	sp, r7
 1380 0056 02B0     		add	sp, sp, #8
 1381              		@ sp needed
 1382 0058 80BD     		pop	{r7, pc}
 1383              		.cfi_endproc
 1384              	.LFE49:
 1385              		.size	setXY, .-setXY
 1386 005a C046     		.section	.text.pushPixels,"ax",%progbits
 1387              		.align	2
 1388              		.global	pushPixels
 1389              		.code	16
 1390              		.thumb_func
 1391              		.type	pushPixels, %function
 1392              	pushPixels:
 1393              	.LFB50:
 499:RA8875.c      **** 
 500:RA8875.c      **** /**************************************************************************/
 501:RA8875.c      **** /*!
 502:RA8875.c      ****       HW accelerated function to push a chunk of raw pixel data
 503:RA8875.c      ****       
 504:RA8875.c      ****       @args num[in] The number of pixels to push
 505:RA8875.c      ****       @args p[in]   The pixel color to use
 506:RA8875.c      **** */
 507:RA8875.c      **** /**************************************************************************/
 508:RA8875.c      **** void pushPixels(uint32_t num, uint16_t p) {
 1394              		.loc 1 508 0
 1395              		.cfi_startproc
 1396              		@ args = 0, pretend = 0, frame = 8
 1397              		@ frame_needed = 1, uses_anonymous_args = 0
 1398 0000 80B5     		push	{r7, lr}
 1399              		.cfi_def_cfa_offset 8
 1400              		.cfi_offset 7, -8
 1401              		.cfi_offset 14, -4
 1402 0002 82B0     		sub	sp, sp, #8
 1403              		.cfi_def_cfa_offset 16
 1404 0004 00AF     		add	r7, sp, #0
 1405              		.cfi_def_cfa_register 7
 1406 0006 7860     		str	r0, [r7, #4]
 1407 0008 0A00     		movs	r2, r1
 1408 000a BB1C     		adds	r3, r7, #2
 1409 000c 1A80     		strh	r2, [r3]
 509:RA8875.c      ****     //LCDSPI_Start(); 
 510:RA8875.c      ****  
 511:RA8875.c      ****     LCDSPI_SpiUartWriteTxData(RA8875_DATAWRITE);
 1410              		.loc 1 511 0
 1411 000e 0020     		movs	r0, #0
 1412 0010 FFF7FEFF 		bl	LCDSPI_SpiUartWriteTxData
 512:RA8875.c      ****     
 513:RA8875.c      ****   while (num--) {
 1413              		.loc 1 513 0
 1414 0014 0BE0     		b	.L52
 1415              	.L53:
 514:RA8875.c      ****     LCDSPI_SpiUartWriteTxData(p >> 8);
 1416              		.loc 1 514 0
 1417 0016 BB1C     		adds	r3, r7, #2
 1418 0018 1B88     		ldrh	r3, [r3]
ARM GAS  C:\Users\megan\AppData\Local\Temp\ccD8G3YI.s 			page 35


 1419 001a 1B0A     		lsrs	r3, r3, #8
 1420 001c 9BB2     		uxth	r3, r3
 1421 001e 1800     		movs	r0, r3
 1422 0020 FFF7FEFF 		bl	LCDSPI_SpiUartWriteTxData
 515:RA8875.c      ****     LCDSPI_SpiUartWriteTxData(p);
 1423              		.loc 1 515 0
 1424 0024 BB1C     		adds	r3, r7, #2
 1425 0026 1B88     		ldrh	r3, [r3]
 1426 0028 1800     		movs	r0, r3
 1427 002a FFF7FEFF 		bl	LCDSPI_SpiUartWriteTxData
 1428              	.L52:
 513:RA8875.c      ****     LCDSPI_SpiUartWriteTxData(p >> 8);
 1429              		.loc 1 513 0
 1430 002e 7B68     		ldr	r3, [r7, #4]
 1431 0030 5A1E     		subs	r2, r3, #1
 1432 0032 7A60     		str	r2, [r7, #4]
 1433 0034 002B     		cmp	r3, #0
 1434 0036 EED1     		bne	.L53
 516:RA8875.c      ****   }
 517:RA8875.c      **** 
 518:RA8875.c      ****     //LCDSPI_Stop();
 519:RA8875.c      **** }
 1435              		.loc 1 519 0
 1436 0038 C046     		nop
 1437 003a BD46     		mov	sp, r7
 1438 003c 02B0     		add	sp, sp, #8
 1439              		@ sp needed
 1440 003e 80BD     		pop	{r7, pc}
 1441              		.cfi_endproc
 1442              	.LFE50:
 1443              		.size	pushPixels, .-pushPixels
 1444              		.section	.text.fillRect1,"ax",%progbits
 1445              		.align	2
 1446              		.global	fillRect1
 1447              		.code	16
 1448              		.thumb_func
 1449              		.type	fillRect1, %function
 1450              	fillRect1:
 1451              	.LFB51:
 520:RA8875.c      **** 
 521:RA8875.c      **** /**************************************************************************/
 522:RA8875.c      **** /*!
 523:RA8875.c      **** 
 524:RA8875.c      **** */
 525:RA8875.c      **** /**************************************************************************/
 526:RA8875.c      **** void fillRect1(void) {
 1452              		.loc 1 526 0
 1453              		.cfi_startproc
 1454              		@ args = 0, pretend = 0, frame = 0
 1455              		@ frame_needed = 1, uses_anonymous_args = 0
 1456 0000 80B5     		push	{r7, lr}
 1457              		.cfi_def_cfa_offset 8
 1458              		.cfi_offset 7, -8
 1459              		.cfi_offset 14, -4
 1460 0002 00AF     		add	r7, sp, #0
 1461              		.cfi_def_cfa_register 7
 527:RA8875.c      ****   writeCommand(RA8875_DCR);
ARM GAS  C:\Users\megan\AppData\Local\Temp\ccD8G3YI.s 			page 36


 1462              		.loc 1 527 0
 1463 0004 9020     		movs	r0, #144
 1464 0006 FFF7FEFF 		bl	writeCommand
 528:RA8875.c      ****   writeData(RA8875_DCR_LINESQUTRI_STOP | RA8875_DCR_DRAWSQUARE);
 1465              		.loc 1 528 0
 1466 000a 1020     		movs	r0, #16
 1467 000c FFF7FEFF 		bl	writeData
 529:RA8875.c      ****   writeData(RA8875_DCR_LINESQUTRI_START | RA8875_DCR_FILL | RA8875_DCR_DRAWSQUARE);
 1468              		.loc 1 529 0
 1469 0010 B020     		movs	r0, #176
 1470 0012 FFF7FEFF 		bl	writeData
 530:RA8875.c      **** }
 1471              		.loc 1 530 0
 1472 0016 C046     		nop
 1473 0018 BD46     		mov	sp, r7
 1474              		@ sp needed
 1475 001a 80BD     		pop	{r7, pc}
 1476              		.cfi_endproc
 1477              	.LFE51:
 1478              		.size	fillRect1, .-fillRect1
 1479              		.section	.text.drawPixel,"ax",%progbits
 1480              		.align	2
 1481              		.global	drawPixel
 1482              		.code	16
 1483              		.thumb_func
 1484              		.type	drawPixel, %function
 1485              	drawPixel:
 1486              	.LFB52:
 531:RA8875.c      **** 
 532:RA8875.c      **** /**************************************************************************/
 533:RA8875.c      **** /*!
 534:RA8875.c      ****       Draws a single pixel at the specified location
 535:RA8875.c      **** 
 536:RA8875.c      ****       @args x[in]     The 0-based x location
 537:RA8875.c      ****       @args y[in]     The 0-base y location
 538:RA8875.c      ****       @args color[in] The RGB565 color to use when drawing the pixel
 539:RA8875.c      **** */
 540:RA8875.c      **** /**************************************************************************/
 541:RA8875.c      **** void drawPixel(int16_t x, int16_t y, uint16_t color)
 542:RA8875.c      **** {
 1487              		.loc 1 542 0
 1488              		.cfi_startproc
 1489              		@ args = 0, pretend = 0, frame = 8
 1490              		@ frame_needed = 1, uses_anonymous_args = 0
 1491 0000 90B5     		push	{r4, r7, lr}
 1492              		.cfi_def_cfa_offset 12
 1493              		.cfi_offset 4, -12
 1494              		.cfi_offset 7, -8
 1495              		.cfi_offset 14, -4
 1496 0002 83B0     		sub	sp, sp, #12
 1497              		.cfi_def_cfa_offset 24
 1498 0004 00AF     		add	r7, sp, #0
 1499              		.cfi_def_cfa_register 7
 1500 0006 0400     		movs	r4, r0
 1501 0008 0800     		movs	r0, r1
 1502 000a 1100     		movs	r1, r2
 1503 000c BB1D     		adds	r3, r7, #6
ARM GAS  C:\Users\megan\AppData\Local\Temp\ccD8G3YI.s 			page 37


 1504 000e 221C     		adds	r2, r4, #0
 1505 0010 1A80     		strh	r2, [r3]
 1506 0012 3B1D     		adds	r3, r7, #4
 1507 0014 021C     		adds	r2, r0, #0
 1508 0016 1A80     		strh	r2, [r3]
 1509 0018 BB1C     		adds	r3, r7, #2
 1510 001a 0A1C     		adds	r2, r1, #0
 1511 001c 1A80     		strh	r2, [r3]
 543:RA8875.c      ****   writeReg(RA8875_CURH0, x);
 1512              		.loc 1 543 0
 1513 001e BB1D     		adds	r3, r7, #6
 1514 0020 1B88     		ldrh	r3, [r3]
 1515 0022 DBB2     		uxtb	r3, r3
 1516 0024 1900     		movs	r1, r3
 1517 0026 4620     		movs	r0, #70
 1518 0028 FFF7FEFF 		bl	writeReg
 544:RA8875.c      ****   writeReg(RA8875_CURH1, x >> 8);
 1519              		.loc 1 544 0
 1520 002c BB1D     		adds	r3, r7, #6
 1521 002e 0022     		movs	r2, #0
 1522 0030 9B5E     		ldrsh	r3, [r3, r2]
 1523 0032 1B12     		asrs	r3, r3, #8
 1524 0034 1BB2     		sxth	r3, r3
 1525 0036 DBB2     		uxtb	r3, r3
 1526 0038 1900     		movs	r1, r3
 1527 003a 4720     		movs	r0, #71
 1528 003c FFF7FEFF 		bl	writeReg
 545:RA8875.c      ****   writeReg(RA8875_CURV0, y);
 1529              		.loc 1 545 0
 1530 0040 3B1D     		adds	r3, r7, #4
 1531 0042 1B88     		ldrh	r3, [r3]
 1532 0044 DBB2     		uxtb	r3, r3
 1533 0046 1900     		movs	r1, r3
 1534 0048 4820     		movs	r0, #72
 1535 004a FFF7FEFF 		bl	writeReg
 546:RA8875.c      ****   writeReg(RA8875_CURV1, y >> 8);  
 1536              		.loc 1 546 0
 1537 004e 3B1D     		adds	r3, r7, #4
 1538 0050 0022     		movs	r2, #0
 1539 0052 9B5E     		ldrsh	r3, [r3, r2]
 1540 0054 1B12     		asrs	r3, r3, #8
 1541 0056 1BB2     		sxth	r3, r3
 1542 0058 DBB2     		uxtb	r3, r3
 1543 005a 1900     		movs	r1, r3
 1544 005c 4920     		movs	r0, #73
 1545 005e FFF7FEFF 		bl	writeReg
 547:RA8875.c      ****   writeCommand(RA8875_MRWC);
 1546              		.loc 1 547 0
 1547 0062 0220     		movs	r0, #2
 1548 0064 FFF7FEFF 		bl	writeCommand
 548:RA8875.c      **** 
 549:RA8875.c      ****     //LCDSPI_Start(); 
 550:RA8875.c      ****  
 551:RA8875.c      ****     LCDSPI_SpiUartWriteTxData(RA8875_DATAWRITE);
 1549              		.loc 1 551 0
 1550 0068 0020     		movs	r0, #0
 1551 006a FFF7FEFF 		bl	LCDSPI_SpiUartWriteTxData
ARM GAS  C:\Users\megan\AppData\Local\Temp\ccD8G3YI.s 			page 38


 552:RA8875.c      ****     
 553:RA8875.c      ****     LCDSPI_SpiUartWriteTxData(color >> 8);
 1552              		.loc 1 553 0
 1553 006e BB1C     		adds	r3, r7, #2
 1554 0070 1B88     		ldrh	r3, [r3]
 1555 0072 1B0A     		lsrs	r3, r3, #8
 1556 0074 9BB2     		uxth	r3, r3
 1557 0076 1800     		movs	r0, r3
 1558 0078 FFF7FEFF 		bl	LCDSPI_SpiUartWriteTxData
 554:RA8875.c      ****     LCDSPI_SpiUartWriteTxData(color);
 1559              		.loc 1 554 0
 1560 007c BB1C     		adds	r3, r7, #2
 1561 007e 1B88     		ldrh	r3, [r3]
 1562 0080 1800     		movs	r0, r3
 1563 0082 FFF7FEFF 		bl	LCDSPI_SpiUartWriteTxData
 555:RA8875.c      ****     
 556:RA8875.c      ****     //LCDSPI_Stop();
 557:RA8875.c      **** }
 1564              		.loc 1 557 0
 1565 0086 C046     		nop
 1566 0088 BD46     		mov	sp, r7
 1567 008a 03B0     		add	sp, sp, #12
 1568              		@ sp needed
 1569 008c 90BD     		pop	{r4, r7, pc}
 1570              		.cfi_endproc
 1571              	.LFE52:
 1572              		.size	drawPixel, .-drawPixel
 1573 008e C046     		.section	.text.drawLine,"ax",%progbits
 1574              		.align	2
 1575              		.global	drawLine
 1576              		.code	16
 1577              		.thumb_func
 1578              		.type	drawLine, %function
 1579              	drawLine:
 1580              	.LFB53:
 558:RA8875.c      **** 
 559:RA8875.c      **** /**************************************************************************/
 560:RA8875.c      **** /*!
 561:RA8875.c      ****       Draws a HW accelerated line on the display
 562:RA8875.c      ****     
 563:RA8875.c      ****       @args x0[in]    The 0-based starting x location
 564:RA8875.c      ****       @args y0[in]    The 0-base starting y location
 565:RA8875.c      ****       @args x1[in]    The 0-based ending x location
 566:RA8875.c      ****       @args y1[in]    The 0-base ending y location
 567:RA8875.c      ****       @args color[in] The RGB565 color to use when drawing the pixel
 568:RA8875.c      **** */
 569:RA8875.c      **** /**************************************************************************/
 570:RA8875.c      **** void drawLine(int16_t x0, int16_t y0, int16_t x1, int16_t y1, uint16_t color)
 571:RA8875.c      **** {
 1581              		.loc 1 571 0
 1582              		.cfi_startproc
 1583              		@ args = 4, pretend = 0, frame = 8
 1584              		@ frame_needed = 1, uses_anonymous_args = 0
 1585 0000 B0B5     		push	{r4, r5, r7, lr}
 1586              		.cfi_def_cfa_offset 16
 1587              		.cfi_offset 4, -16
 1588              		.cfi_offset 5, -12
ARM GAS  C:\Users\megan\AppData\Local\Temp\ccD8G3YI.s 			page 39


 1589              		.cfi_offset 7, -8
 1590              		.cfi_offset 14, -4
 1591 0002 82B0     		sub	sp, sp, #8
 1592              		.cfi_def_cfa_offset 24
 1593 0004 00AF     		add	r7, sp, #0
 1594              		.cfi_def_cfa_register 7
 1595 0006 0500     		movs	r5, r0
 1596 0008 0C00     		movs	r4, r1
 1597 000a 1000     		movs	r0, r2
 1598 000c 1900     		movs	r1, r3
 1599 000e BB1D     		adds	r3, r7, #6
 1600 0010 2A1C     		adds	r2, r5, #0
 1601 0012 1A80     		strh	r2, [r3]
 1602 0014 3B1D     		adds	r3, r7, #4
 1603 0016 221C     		adds	r2, r4, #0
 1604 0018 1A80     		strh	r2, [r3]
 1605 001a BB1C     		adds	r3, r7, #2
 1606 001c 021C     		adds	r2, r0, #0
 1607 001e 1A80     		strh	r2, [r3]
 1608 0020 3B00     		movs	r3, r7
 1609 0022 0A1C     		adds	r2, r1, #0
 1610 0024 1A80     		strh	r2, [r3]
 572:RA8875.c      ****   /* Set X */
 573:RA8875.c      ****   writeCommand(0x91);
 1611              		.loc 1 573 0
 1612 0026 9120     		movs	r0, #145
 1613 0028 FFF7FEFF 		bl	writeCommand
 574:RA8875.c      ****   writeData(x0);
 1614              		.loc 1 574 0
 1615 002c BB1D     		adds	r3, r7, #6
 1616 002e 1B88     		ldrh	r3, [r3]
 1617 0030 DBB2     		uxtb	r3, r3
 1618 0032 1800     		movs	r0, r3
 1619 0034 FFF7FEFF 		bl	writeData
 575:RA8875.c      ****   writeCommand(0x92);
 1620              		.loc 1 575 0
 1621 0038 9220     		movs	r0, #146
 1622 003a FFF7FEFF 		bl	writeCommand
 576:RA8875.c      ****   writeData(x0 >> 8);
 1623              		.loc 1 576 0
 1624 003e BB1D     		adds	r3, r7, #6
 1625 0040 0022     		movs	r2, #0
 1626 0042 9B5E     		ldrsh	r3, [r3, r2]
 1627 0044 1B12     		asrs	r3, r3, #8
 1628 0046 1BB2     		sxth	r3, r3
 1629 0048 DBB2     		uxtb	r3, r3
 1630 004a 1800     		movs	r0, r3
 1631 004c FFF7FEFF 		bl	writeData
 577:RA8875.c      ****   
 578:RA8875.c      ****   /* Set Y */
 579:RA8875.c      ****   writeCommand(0x93);
 1632              		.loc 1 579 0
 1633 0050 9320     		movs	r0, #147
 1634 0052 FFF7FEFF 		bl	writeCommand
 580:RA8875.c      ****   writeData(y0); 
 1635              		.loc 1 580 0
 1636 0056 3B1D     		adds	r3, r7, #4
ARM GAS  C:\Users\megan\AppData\Local\Temp\ccD8G3YI.s 			page 40


 1637 0058 1B88     		ldrh	r3, [r3]
 1638 005a DBB2     		uxtb	r3, r3
 1639 005c 1800     		movs	r0, r3
 1640 005e FFF7FEFF 		bl	writeData
 581:RA8875.c      ****   writeCommand(0x94);
 1641              		.loc 1 581 0
 1642 0062 9420     		movs	r0, #148
 1643 0064 FFF7FEFF 		bl	writeCommand
 582:RA8875.c      ****   writeData(y0 >> 8);
 1644              		.loc 1 582 0
 1645 0068 3B1D     		adds	r3, r7, #4
 1646 006a 0022     		movs	r2, #0
 1647 006c 9B5E     		ldrsh	r3, [r3, r2]
 1648 006e 1B12     		asrs	r3, r3, #8
 1649 0070 1BB2     		sxth	r3, r3
 1650 0072 DBB2     		uxtb	r3, r3
 1651 0074 1800     		movs	r0, r3
 1652 0076 FFF7FEFF 		bl	writeData
 583:RA8875.c      ****   
 584:RA8875.c      ****   /* Set X1 */
 585:RA8875.c      ****   writeCommand(0x95);
 1653              		.loc 1 585 0
 1654 007a 9520     		movs	r0, #149
 1655 007c FFF7FEFF 		bl	writeCommand
 586:RA8875.c      ****   writeData(x1);
 1656              		.loc 1 586 0
 1657 0080 BB1C     		adds	r3, r7, #2
 1658 0082 1B88     		ldrh	r3, [r3]
 1659 0084 DBB2     		uxtb	r3, r3
 1660 0086 1800     		movs	r0, r3
 1661 0088 FFF7FEFF 		bl	writeData
 587:RA8875.c      ****   writeCommand(0x96);
 1662              		.loc 1 587 0
 1663 008c 9620     		movs	r0, #150
 1664 008e FFF7FEFF 		bl	writeCommand
 588:RA8875.c      ****   writeData((x1) >> 8);
 1665              		.loc 1 588 0
 1666 0092 BB1C     		adds	r3, r7, #2
 1667 0094 0022     		movs	r2, #0
 1668 0096 9B5E     		ldrsh	r3, [r3, r2]
 1669 0098 1B12     		asrs	r3, r3, #8
 1670 009a 1BB2     		sxth	r3, r3
 1671 009c DBB2     		uxtb	r3, r3
 1672 009e 1800     		movs	r0, r3
 1673 00a0 FFF7FEFF 		bl	writeData
 589:RA8875.c      ****   
 590:RA8875.c      ****   /* Set Y1 */
 591:RA8875.c      ****   writeCommand(0x97);
 1674              		.loc 1 591 0
 1675 00a4 9720     		movs	r0, #151
 1676 00a6 FFF7FEFF 		bl	writeCommand
 592:RA8875.c      ****   writeData(y1); 
 1677              		.loc 1 592 0
 1678 00aa 3B00     		movs	r3, r7
 1679 00ac 1B88     		ldrh	r3, [r3]
 1680 00ae DBB2     		uxtb	r3, r3
 1681 00b0 1800     		movs	r0, r3
ARM GAS  C:\Users\megan\AppData\Local\Temp\ccD8G3YI.s 			page 41


 1682 00b2 FFF7FEFF 		bl	writeData
 593:RA8875.c      ****   writeCommand(0x98);
 1683              		.loc 1 593 0
 1684 00b6 9820     		movs	r0, #152
 1685 00b8 FFF7FEFF 		bl	writeCommand
 594:RA8875.c      ****   writeData((y1) >> 8);
 1686              		.loc 1 594 0
 1687 00bc 3B00     		movs	r3, r7
 1688 00be 0022     		movs	r2, #0
 1689 00c0 9B5E     		ldrsh	r3, [r3, r2]
 1690 00c2 1B12     		asrs	r3, r3, #8
 1691 00c4 1BB2     		sxth	r3, r3
 1692 00c6 DBB2     		uxtb	r3, r3
 1693 00c8 1800     		movs	r0, r3
 1694 00ca FFF7FEFF 		bl	writeData
 595:RA8875.c      ****   
 596:RA8875.c      ****   /* Set Color */
 597:RA8875.c      ****   writeCommand(0x63);
 1695              		.loc 1 597 0
 1696 00ce 6320     		movs	r0, #99
 1697 00d0 FFF7FEFF 		bl	writeCommand
 598:RA8875.c      ****   writeData((color & 0xf800) >> 11);
 1698              		.loc 1 598 0
 1699 00d4 1823     		movs	r3, #24
 1700 00d6 FB18     		adds	r3, r7, r3
 1701 00d8 1B88     		ldrh	r3, [r3]
 1702 00da DB0A     		lsrs	r3, r3, #11
 1703 00dc 9BB2     		uxth	r3, r3
 1704 00de DBB2     		uxtb	r3, r3
 1705 00e0 1800     		movs	r0, r3
 1706 00e2 FFF7FEFF 		bl	writeData
 599:RA8875.c      ****   writeCommand(0x64);
 1707              		.loc 1 599 0
 1708 00e6 6420     		movs	r0, #100
 1709 00e8 FFF7FEFF 		bl	writeCommand
 600:RA8875.c      ****   writeData((color & 0x07e0) >> 5);
 1710              		.loc 1 600 0
 1711 00ec 1823     		movs	r3, #24
 1712 00ee FB18     		adds	r3, r7, r3
 1713 00f0 1B88     		ldrh	r3, [r3]
 1714 00f2 5B11     		asrs	r3, r3, #5
 1715 00f4 DBB2     		uxtb	r3, r3
 1716 00f6 3F22     		movs	r2, #63
 1717 00f8 1340     		ands	r3, r2
 1718 00fa DBB2     		uxtb	r3, r3
 1719 00fc 1800     		movs	r0, r3
 1720 00fe FFF7FEFF 		bl	writeData
 601:RA8875.c      ****   writeCommand(0x65);
 1721              		.loc 1 601 0
 1722 0102 6520     		movs	r0, #101
 1723 0104 FFF7FEFF 		bl	writeCommand
 602:RA8875.c      ****   writeData((color & 0x001f));
 1724              		.loc 1 602 0
 1725 0108 1823     		movs	r3, #24
 1726 010a FB18     		adds	r3, r7, r3
 1727 010c 1B88     		ldrh	r3, [r3]
 1728 010e DBB2     		uxtb	r3, r3
ARM GAS  C:\Users\megan\AppData\Local\Temp\ccD8G3YI.s 			page 42


 1729 0110 1F22     		movs	r2, #31
 1730 0112 1340     		ands	r3, r2
 1731 0114 DBB2     		uxtb	r3, r3
 1732 0116 1800     		movs	r0, r3
 1733 0118 FFF7FEFF 		bl	writeData
 603:RA8875.c      **** 
 604:RA8875.c      ****   /* Draw! */
 605:RA8875.c      ****   writeCommand(RA8875_DCR);
 1734              		.loc 1 605 0
 1735 011c 9020     		movs	r0, #144
 1736 011e FFF7FEFF 		bl	writeCommand
 606:RA8875.c      ****   writeData(0x80);
 1737              		.loc 1 606 0
 1738 0122 8020     		movs	r0, #128
 1739 0124 FFF7FEFF 		bl	writeData
 607:RA8875.c      ****   
 608:RA8875.c      ****   /* Wait for the command to finish */
 609:RA8875.c      ****   waitPoll(RA8875_DCR, RA8875_DCR_LINESQUTRI_STATUS);
 1740              		.loc 1 609 0
 1741 0128 8021     		movs	r1, #128
 1742 012a 9020     		movs	r0, #144
 1743 012c FFF7FEFF 		bl	waitPoll
 610:RA8875.c      **** }
 1744              		.loc 1 610 0
 1745 0130 C046     		nop
 1746 0132 BD46     		mov	sp, r7
 1747 0134 02B0     		add	sp, sp, #8
 1748              		@ sp needed
 1749 0136 B0BD     		pop	{r4, r5, r7, pc}
 1750              		.cfi_endproc
 1751              	.LFE53:
 1752              		.size	drawLine, .-drawLine
 1753              		.section	.text.drawFastVLine,"ax",%progbits
 1754              		.align	2
 1755              		.global	drawFastVLine
 1756              		.code	16
 1757              		.thumb_func
 1758              		.type	drawFastVLine, %function
 1759              	drawFastVLine:
 1760              	.LFB54:
 611:RA8875.c      **** 
 612:RA8875.c      **** /**************************************************************************/
 613:RA8875.c      **** /*!
 614:RA8875.c      **** 
 615:RA8875.c      **** */
 616:RA8875.c      **** /**************************************************************************/
 617:RA8875.c      **** void drawFastVLine(int16_t x, int16_t y, int16_t h, uint16_t color)
 618:RA8875.c      **** {
 1761              		.loc 1 618 0
 1762              		.cfi_startproc
 1763              		@ args = 0, pretend = 0, frame = 8
 1764              		@ frame_needed = 1, uses_anonymous_args = 0
 1765 0000 B0B5     		push	{r4, r5, r7, lr}
 1766              		.cfi_def_cfa_offset 16
 1767              		.cfi_offset 4, -16
 1768              		.cfi_offset 5, -12
 1769              		.cfi_offset 7, -8
ARM GAS  C:\Users\megan\AppData\Local\Temp\ccD8G3YI.s 			page 43


 1770              		.cfi_offset 14, -4
 1771 0002 84B0     		sub	sp, sp, #16
 1772              		.cfi_def_cfa_offset 32
 1773 0004 02AF     		add	r7, sp, #8
 1774              		.cfi_def_cfa 7, 24
 1775 0006 0500     		movs	r5, r0
 1776 0008 0C00     		movs	r4, r1
 1777 000a 1000     		movs	r0, r2
 1778 000c 1900     		movs	r1, r3
 1779 000e BB1D     		adds	r3, r7, #6
 1780 0010 2A1C     		adds	r2, r5, #0
 1781 0012 1A80     		strh	r2, [r3]
 1782 0014 3B1D     		adds	r3, r7, #4
 1783 0016 221C     		adds	r2, r4, #0
 1784 0018 1A80     		strh	r2, [r3]
 1785 001a BB1C     		adds	r3, r7, #2
 1786 001c 021C     		adds	r2, r0, #0
 1787 001e 1A80     		strh	r2, [r3]
 1788 0020 3B00     		movs	r3, r7
 1789 0022 0A1C     		adds	r2, r1, #0
 1790 0024 1A80     		strh	r2, [r3]
 619:RA8875.c      ****   drawLine(x, y, x, y+h, color);
 1791              		.loc 1 619 0
 1792 0026 3B1D     		adds	r3, r7, #4
 1793 0028 1A88     		ldrh	r2, [r3]
 1794 002a BB1C     		adds	r3, r7, #2
 1795 002c 1B88     		ldrh	r3, [r3]
 1796 002e D318     		adds	r3, r2, r3
 1797 0030 9BB2     		uxth	r3, r3
 1798 0032 1CB2     		sxth	r4, r3
 1799 0034 BB1D     		adds	r3, r7, #6
 1800 0036 0022     		movs	r2, #0
 1801 0038 9A5E     		ldrsh	r2, [r3, r2]
 1802 003a 3B1D     		adds	r3, r7, #4
 1803 003c 0021     		movs	r1, #0
 1804 003e 595E     		ldrsh	r1, [r3, r1]
 1805 0040 BB1D     		adds	r3, r7, #6
 1806 0042 0020     		movs	r0, #0
 1807 0044 185E     		ldrsh	r0, [r3, r0]
 1808 0046 3B00     		movs	r3, r7
 1809 0048 1B88     		ldrh	r3, [r3]
 1810 004a 0093     		str	r3, [sp]
 1811 004c 2300     		movs	r3, r4
 1812 004e FFF7FEFF 		bl	drawLine
 620:RA8875.c      **** }
 1813              		.loc 1 620 0
 1814 0052 C046     		nop
 1815 0054 BD46     		mov	sp, r7
 1816 0056 02B0     		add	sp, sp, #8
 1817              		@ sp needed
 1818 0058 B0BD     		pop	{r4, r5, r7, pc}
 1819              		.cfi_endproc
 1820              	.LFE54:
 1821              		.size	drawFastVLine, .-drawFastVLine
 1822 005a C046     		.section	.text.drawFastHLine,"ax",%progbits
 1823              		.align	2
 1824              		.global	drawFastHLine
ARM GAS  C:\Users\megan\AppData\Local\Temp\ccD8G3YI.s 			page 44


 1825              		.code	16
 1826              		.thumb_func
 1827              		.type	drawFastHLine, %function
 1828              	drawFastHLine:
 1829              	.LFB55:
 621:RA8875.c      **** 
 622:RA8875.c      **** /**************************************************************************/
 623:RA8875.c      **** /*!
 624:RA8875.c      **** 
 625:RA8875.c      **** */
 626:RA8875.c      **** /**************************************************************************/
 627:RA8875.c      **** void drawFastHLine(int16_t x, int16_t y, int16_t w, uint16_t color)
 628:RA8875.c      **** {
 1830              		.loc 1 628 0
 1831              		.cfi_startproc
 1832              		@ args = 0, pretend = 0, frame = 8
 1833              		@ frame_needed = 1, uses_anonymous_args = 0
 1834 0000 B0B5     		push	{r4, r5, r7, lr}
 1835              		.cfi_def_cfa_offset 16
 1836              		.cfi_offset 4, -16
 1837              		.cfi_offset 5, -12
 1838              		.cfi_offset 7, -8
 1839              		.cfi_offset 14, -4
 1840 0002 84B0     		sub	sp, sp, #16
 1841              		.cfi_def_cfa_offset 32
 1842 0004 02AF     		add	r7, sp, #8
 1843              		.cfi_def_cfa 7, 24
 1844 0006 0500     		movs	r5, r0
 1845 0008 0C00     		movs	r4, r1
 1846 000a 1000     		movs	r0, r2
 1847 000c 1900     		movs	r1, r3
 1848 000e BB1D     		adds	r3, r7, #6
 1849 0010 2A1C     		adds	r2, r5, #0
 1850 0012 1A80     		strh	r2, [r3]
 1851 0014 3B1D     		adds	r3, r7, #4
 1852 0016 221C     		adds	r2, r4, #0
 1853 0018 1A80     		strh	r2, [r3]
 1854 001a BB1C     		adds	r3, r7, #2
 1855 001c 021C     		adds	r2, r0, #0
 1856 001e 1A80     		strh	r2, [r3]
 1857 0020 3B00     		movs	r3, r7
 1858 0022 0A1C     		adds	r2, r1, #0
 1859 0024 1A80     		strh	r2, [r3]
 629:RA8875.c      ****   drawLine(x, y, x+w, y, color);
 1860              		.loc 1 629 0
 1861 0026 BB1D     		adds	r3, r7, #6
 1862 0028 1A88     		ldrh	r2, [r3]
 1863 002a BB1C     		adds	r3, r7, #2
 1864 002c 1B88     		ldrh	r3, [r3]
 1865 002e D318     		adds	r3, r2, r3
 1866 0030 9BB2     		uxth	r3, r3
 1867 0032 1AB2     		sxth	r2, r3
 1868 0034 3B1D     		adds	r3, r7, #4
 1869 0036 0024     		movs	r4, #0
 1870 0038 1C5F     		ldrsh	r4, [r3, r4]
 1871 003a 3B1D     		adds	r3, r7, #4
 1872 003c 0021     		movs	r1, #0
ARM GAS  C:\Users\megan\AppData\Local\Temp\ccD8G3YI.s 			page 45


 1873 003e 595E     		ldrsh	r1, [r3, r1]
 1874 0040 BB1D     		adds	r3, r7, #6
 1875 0042 0020     		movs	r0, #0
 1876 0044 185E     		ldrsh	r0, [r3, r0]
 1877 0046 3B00     		movs	r3, r7
 1878 0048 1B88     		ldrh	r3, [r3]
 1879 004a 0093     		str	r3, [sp]
 1880 004c 2300     		movs	r3, r4
 1881 004e FFF7FEFF 		bl	drawLine
 630:RA8875.c      **** }
 1882              		.loc 1 630 0
 1883 0052 C046     		nop
 1884 0054 BD46     		mov	sp, r7
 1885 0056 02B0     		add	sp, sp, #8
 1886              		@ sp needed
 1887 0058 B0BD     		pop	{r4, r5, r7, pc}
 1888              		.cfi_endproc
 1889              	.LFE55:
 1890              		.size	drawFastHLine, .-drawFastHLine
 1891 005a C046     		.section	.text.drawRect,"ax",%progbits
 1892              		.align	2
 1893              		.global	drawRect
 1894              		.code	16
 1895              		.thumb_func
 1896              		.type	drawRect, %function
 1897              	drawRect:
 1898              	.LFB56:
 631:RA8875.c      **** 
 632:RA8875.c      **** /**************************************************************************/
 633:RA8875.c      **** /*!
 634:RA8875.c      ****       Draws a HW accelerated rectangle on the display
 635:RA8875.c      **** 
 636:RA8875.c      ****       @args x[in]     The 0-based x location of the top-right corner
 637:RA8875.c      ****       @args y[in]     The 0-based y location of the top-right corner
 638:RA8875.c      ****       @args w[in]     The rectangle width
 639:RA8875.c      ****       @args h[in]     The rectangle height
 640:RA8875.c      ****       @args color[in] The RGB565 color to use when drawing the pixel
 641:RA8875.c      **** */
 642:RA8875.c      **** /**************************************************************************/
 643:RA8875.c      **** void drawRect(int16_t x, int16_t y, int16_t w, int16_t h, uint16_t color)
 644:RA8875.c      **** {
 1899              		.loc 1 644 0
 1900              		.cfi_startproc
 1901              		@ args = 4, pretend = 0, frame = 8
 1902              		@ frame_needed = 1, uses_anonymous_args = 0
 1903 0000 B0B5     		push	{r4, r5, r7, lr}
 1904              		.cfi_def_cfa_offset 16
 1905              		.cfi_offset 4, -16
 1906              		.cfi_offset 5, -12
 1907              		.cfi_offset 7, -8
 1908              		.cfi_offset 14, -4
 1909 0002 84B0     		sub	sp, sp, #16
 1910              		.cfi_def_cfa_offset 32
 1911 0004 02AF     		add	r7, sp, #8
 1912              		.cfi_def_cfa 7, 24
 1913 0006 0500     		movs	r5, r0
 1914 0008 0C00     		movs	r4, r1
ARM GAS  C:\Users\megan\AppData\Local\Temp\ccD8G3YI.s 			page 46


 1915 000a 1000     		movs	r0, r2
 1916 000c 1900     		movs	r1, r3
 1917 000e BB1D     		adds	r3, r7, #6
 1918 0010 2A1C     		adds	r2, r5, #0
 1919 0012 1A80     		strh	r2, [r3]
 1920 0014 3B1D     		adds	r3, r7, #4
 1921 0016 221C     		adds	r2, r4, #0
 1922 0018 1A80     		strh	r2, [r3]
 1923 001a BB1C     		adds	r3, r7, #2
 1924 001c 021C     		adds	r2, r0, #0
 1925 001e 1A80     		strh	r2, [r3]
 1926 0020 3B00     		movs	r3, r7
 1927 0022 0A1C     		adds	r2, r1, #0
 1928 0024 1A80     		strh	r2, [r3]
 645:RA8875.c      ****   rectHelper(x, y, x+w, y+h, color, false);
 1929              		.loc 1 645 0
 1930 0026 BB1D     		adds	r3, r7, #6
 1931 0028 1A88     		ldrh	r2, [r3]
 1932 002a BB1C     		adds	r3, r7, #2
 1933 002c 1B88     		ldrh	r3, [r3]
 1934 002e D318     		adds	r3, r2, r3
 1935 0030 9BB2     		uxth	r3, r3
 1936 0032 1CB2     		sxth	r4, r3
 1937 0034 3B1D     		adds	r3, r7, #4
 1938 0036 1A88     		ldrh	r2, [r3]
 1939 0038 3B00     		movs	r3, r7
 1940 003a 1B88     		ldrh	r3, [r3]
 1941 003c D318     		adds	r3, r2, r3
 1942 003e 9BB2     		uxth	r3, r3
 1943 0040 1AB2     		sxth	r2, r3
 1944 0042 3B1D     		adds	r3, r7, #4
 1945 0044 0021     		movs	r1, #0
 1946 0046 595E     		ldrsh	r1, [r3, r1]
 1947 0048 BB1D     		adds	r3, r7, #6
 1948 004a 0020     		movs	r0, #0
 1949 004c 185E     		ldrsh	r0, [r3, r0]
 1950 004e 0023     		movs	r3, #0
 1951 0050 0193     		str	r3, [sp, #4]
 1952 0052 1823     		movs	r3, #24
 1953 0054 FB18     		adds	r3, r7, r3
 1954 0056 1B88     		ldrh	r3, [r3]
 1955 0058 0093     		str	r3, [sp]
 1956 005a 1300     		movs	r3, r2
 1957 005c 2200     		movs	r2, r4
 1958 005e FFF7FEFF 		bl	rectHelper
 646:RA8875.c      **** }
 1959              		.loc 1 646 0
 1960 0062 C046     		nop
 1961 0064 BD46     		mov	sp, r7
 1962 0066 02B0     		add	sp, sp, #8
 1963              		@ sp needed
 1964 0068 B0BD     		pop	{r4, r5, r7, pc}
 1965              		.cfi_endproc
 1966              	.LFE56:
 1967              		.size	drawRect, .-drawRect
 1968 006a C046     		.section	.text.fillRect,"ax",%progbits
 1969              		.align	2
ARM GAS  C:\Users\megan\AppData\Local\Temp\ccD8G3YI.s 			page 47


 1970              		.global	fillRect
 1971              		.code	16
 1972              		.thumb_func
 1973              		.type	fillRect, %function
 1974              	fillRect:
 1975              	.LFB57:
 647:RA8875.c      **** 
 648:RA8875.c      **** /**************************************************************************/
 649:RA8875.c      **** /*!
 650:RA8875.c      ****       Draws a HW accelerated filled rectangle on the display
 651:RA8875.c      **** 
 652:RA8875.c      ****       @args x[in]     The 0-based x location of the top-right corner
 653:RA8875.c      ****       @args y[in]     The 0-based y location of the top-right corner
 654:RA8875.c      ****       @args w[in]     The rectangle width
 655:RA8875.c      ****       @args h[in]     The rectangle height
 656:RA8875.c      ****       @args color[in] The RGB565 color to use when drawing the pixel
 657:RA8875.c      **** */
 658:RA8875.c      **** /**************************************************************************/
 659:RA8875.c      **** void fillRect(int16_t x, int16_t y, int16_t w, int16_t h, uint16_t color)
 660:RA8875.c      **** {
 1976              		.loc 1 660 0
 1977              		.cfi_startproc
 1978              		@ args = 4, pretend = 0, frame = 8
 1979              		@ frame_needed = 1, uses_anonymous_args = 0
 1980 0000 B0B5     		push	{r4, r5, r7, lr}
 1981              		.cfi_def_cfa_offset 16
 1982              		.cfi_offset 4, -16
 1983              		.cfi_offset 5, -12
 1984              		.cfi_offset 7, -8
 1985              		.cfi_offset 14, -4
 1986 0002 84B0     		sub	sp, sp, #16
 1987              		.cfi_def_cfa_offset 32
 1988 0004 02AF     		add	r7, sp, #8
 1989              		.cfi_def_cfa 7, 24
 1990 0006 0500     		movs	r5, r0
 1991 0008 0C00     		movs	r4, r1
 1992 000a 1000     		movs	r0, r2
 1993 000c 1900     		movs	r1, r3
 1994 000e BB1D     		adds	r3, r7, #6
 1995 0010 2A1C     		adds	r2, r5, #0
 1996 0012 1A80     		strh	r2, [r3]
 1997 0014 3B1D     		adds	r3, r7, #4
 1998 0016 221C     		adds	r2, r4, #0
 1999 0018 1A80     		strh	r2, [r3]
 2000 001a BB1C     		adds	r3, r7, #2
 2001 001c 021C     		adds	r2, r0, #0
 2002 001e 1A80     		strh	r2, [r3]
 2003 0020 3B00     		movs	r3, r7
 2004 0022 0A1C     		adds	r2, r1, #0
 2005 0024 1A80     		strh	r2, [r3]
 661:RA8875.c      ****   rectHelper(x, y, x+w, y+h, color, true);
 2006              		.loc 1 661 0
 2007 0026 BB1D     		adds	r3, r7, #6
 2008 0028 1A88     		ldrh	r2, [r3]
 2009 002a BB1C     		adds	r3, r7, #2
 2010 002c 1B88     		ldrh	r3, [r3]
 2011 002e D318     		adds	r3, r2, r3
ARM GAS  C:\Users\megan\AppData\Local\Temp\ccD8G3YI.s 			page 48


 2012 0030 9BB2     		uxth	r3, r3
 2013 0032 1CB2     		sxth	r4, r3
 2014 0034 3B1D     		adds	r3, r7, #4
 2015 0036 1A88     		ldrh	r2, [r3]
 2016 0038 3B00     		movs	r3, r7
 2017 003a 1B88     		ldrh	r3, [r3]
 2018 003c D318     		adds	r3, r2, r3
 2019 003e 9BB2     		uxth	r3, r3
 2020 0040 1AB2     		sxth	r2, r3
 2021 0042 3B1D     		adds	r3, r7, #4
 2022 0044 0021     		movs	r1, #0
 2023 0046 595E     		ldrsh	r1, [r3, r1]
 2024 0048 BB1D     		adds	r3, r7, #6
 2025 004a 0020     		movs	r0, #0
 2026 004c 185E     		ldrsh	r0, [r3, r0]
 2027 004e 0123     		movs	r3, #1
 2028 0050 0193     		str	r3, [sp, #4]
 2029 0052 1823     		movs	r3, #24
 2030 0054 FB18     		adds	r3, r7, r3
 2031 0056 1B88     		ldrh	r3, [r3]
 2032 0058 0093     		str	r3, [sp]
 2033 005a 1300     		movs	r3, r2
 2034 005c 2200     		movs	r2, r4
 2035 005e FFF7FEFF 		bl	rectHelper
 662:RA8875.c      **** }
 2036              		.loc 1 662 0
 2037 0062 C046     		nop
 2038 0064 BD46     		mov	sp, r7
 2039 0066 02B0     		add	sp, sp, #8
 2040              		@ sp needed
 2041 0068 B0BD     		pop	{r4, r5, r7, pc}
 2042              		.cfi_endproc
 2043              	.LFE57:
 2044              		.size	fillRect, .-fillRect
 2045 006a C046     		.section	.text.fillScreen,"ax",%progbits
 2046              		.align	2
 2047              		.global	fillScreen
 2048              		.code	16
 2049              		.thumb_func
 2050              		.type	fillScreen, %function
 2051              	fillScreen:
 2052              	.LFB58:
 663:RA8875.c      **** 
 664:RA8875.c      **** /**************************************************************************/
 665:RA8875.c      **** /*!
 666:RA8875.c      ****       Fills the screen with the spefied RGB565 color
 667:RA8875.c      **** 
 668:RA8875.c      ****       @args color[in] The RGB565 color to use when drawing the pixel
 669:RA8875.c      **** */
 670:RA8875.c      **** /**************************************************************************/
 671:RA8875.c      **** void fillScreen(uint16_t color)
 672:RA8875.c      **** {  
 2053              		.loc 1 672 0
 2054              		.cfi_startproc
 2055              		@ args = 0, pretend = 0, frame = 8
 2056              		@ frame_needed = 1, uses_anonymous_args = 0
 2057 0000 80B5     		push	{r7, lr}
ARM GAS  C:\Users\megan\AppData\Local\Temp\ccD8G3YI.s 			page 49


 2058              		.cfi_def_cfa_offset 8
 2059              		.cfi_offset 7, -8
 2060              		.cfi_offset 14, -4
 2061 0002 84B0     		sub	sp, sp, #16
 2062              		.cfi_def_cfa_offset 24
 2063 0004 02AF     		add	r7, sp, #8
 2064              		.cfi_def_cfa 7, 16
 2065 0006 0200     		movs	r2, r0
 2066 0008 BB1D     		adds	r3, r7, #6
 2067 000a 1A80     		strh	r2, [r3]
 673:RA8875.c      ****   rectHelper(0, 0, _width-1, _height-1, color, true);
 2068              		.loc 1 673 0
 2069 000c 0B4B     		ldr	r3, .L62
 2070 000e 1B88     		ldrh	r3, [r3]
 2071 0010 013B     		subs	r3, r3, #1
 2072 0012 9BB2     		uxth	r3, r3
 2073 0014 1AB2     		sxth	r2, r3
 2074 0016 0A4B     		ldr	r3, .L62+4
 2075 0018 1B88     		ldrh	r3, [r3]
 2076 001a 013B     		subs	r3, r3, #1
 2077 001c 9BB2     		uxth	r3, r3
 2078 001e 19B2     		sxth	r1, r3
 2079 0020 0123     		movs	r3, #1
 2080 0022 0193     		str	r3, [sp, #4]
 2081 0024 BB1D     		adds	r3, r7, #6
 2082 0026 1B88     		ldrh	r3, [r3]
 2083 0028 0093     		str	r3, [sp]
 2084 002a 0B00     		movs	r3, r1
 2085 002c 0021     		movs	r1, #0
 2086 002e 0020     		movs	r0, #0
 2087 0030 FFF7FEFF 		bl	rectHelper
 674:RA8875.c      **** }
 2088              		.loc 1 674 0
 2089 0034 C046     		nop
 2090 0036 BD46     		mov	sp, r7
 2091 0038 02B0     		add	sp, sp, #8
 2092              		@ sp needed
 2093 003a 80BD     		pop	{r7, pc}
 2094              	.L63:
 2095              		.align	2
 2096              	.L62:
 2097 003c 00000000 		.word	_width
 2098 0040 00000000 		.word	_height
 2099              		.cfi_endproc
 2100              	.LFE58:
 2101              		.size	fillScreen, .-fillScreen
 2102              		.section	.text.drawCircle,"ax",%progbits
 2103              		.align	2
 2104              		.global	drawCircle
 2105              		.code	16
 2106              		.thumb_func
 2107              		.type	drawCircle, %function
 2108              	drawCircle:
 2109              	.LFB59:
 675:RA8875.c      **** 
 676:RA8875.c      **** /**************************************************************************/
 677:RA8875.c      **** /*!
ARM GAS  C:\Users\megan\AppData\Local\Temp\ccD8G3YI.s 			page 50


 678:RA8875.c      ****       Draws a HW accelerated circle on the display
 679:RA8875.c      **** 
 680:RA8875.c      ****       @args x[in]     The 0-based x location of the center of the circle
 681:RA8875.c      ****       @args y[in]     The 0-based y location of the center of the circle
 682:RA8875.c      ****       @args w[in]     The circle's radius
 683:RA8875.c      ****       @args color[in] The RGB565 color to use when drawing the pixel
 684:RA8875.c      **** */
 685:RA8875.c      **** /**************************************************************************/
 686:RA8875.c      **** void drawCircle(int16_t x0, int16_t y0, int16_t r, uint16_t color)
 687:RA8875.c      **** {
 2110              		.loc 1 687 0
 2111              		.cfi_startproc
 2112              		@ args = 0, pretend = 0, frame = 8
 2113              		@ frame_needed = 1, uses_anonymous_args = 0
 2114 0000 B0B5     		push	{r4, r5, r7, lr}
 2115              		.cfi_def_cfa_offset 16
 2116              		.cfi_offset 4, -16
 2117              		.cfi_offset 5, -12
 2118              		.cfi_offset 7, -8
 2119              		.cfi_offset 14, -4
 2120 0002 84B0     		sub	sp, sp, #16
 2121              		.cfi_def_cfa_offset 32
 2122 0004 02AF     		add	r7, sp, #8
 2123              		.cfi_def_cfa 7, 24
 2124 0006 0500     		movs	r5, r0
 2125 0008 0C00     		movs	r4, r1
 2126 000a 1000     		movs	r0, r2
 2127 000c 1900     		movs	r1, r3
 2128 000e BB1D     		adds	r3, r7, #6
 2129 0010 2A1C     		adds	r2, r5, #0
 2130 0012 1A80     		strh	r2, [r3]
 2131 0014 3B1D     		adds	r3, r7, #4
 2132 0016 221C     		adds	r2, r4, #0
 2133 0018 1A80     		strh	r2, [r3]
 2134 001a BB1C     		adds	r3, r7, #2
 2135 001c 021C     		adds	r2, r0, #0
 2136 001e 1A80     		strh	r2, [r3]
 2137 0020 3B00     		movs	r3, r7
 2138 0022 0A1C     		adds	r2, r1, #0
 2139 0024 1A80     		strh	r2, [r3]
 688:RA8875.c      ****   circleHelper(x0, y0, r, color, false);
 2140              		.loc 1 688 0
 2141 0026 3B00     		movs	r3, r7
 2142 0028 1C88     		ldrh	r4, [r3]
 2143 002a BB1C     		adds	r3, r7, #2
 2144 002c 0022     		movs	r2, #0
 2145 002e 9A5E     		ldrsh	r2, [r3, r2]
 2146 0030 3B1D     		adds	r3, r7, #4
 2147 0032 0021     		movs	r1, #0
 2148 0034 595E     		ldrsh	r1, [r3, r1]
 2149 0036 BB1D     		adds	r3, r7, #6
 2150 0038 0020     		movs	r0, #0
 2151 003a 185E     		ldrsh	r0, [r3, r0]
 2152 003c 0023     		movs	r3, #0
 2153 003e 0093     		str	r3, [sp]
 2154 0040 2300     		movs	r3, r4
 2155 0042 FFF7FEFF 		bl	circleHelper
ARM GAS  C:\Users\megan\AppData\Local\Temp\ccD8G3YI.s 			page 51


 689:RA8875.c      **** }
 2156              		.loc 1 689 0
 2157 0046 C046     		nop
 2158 0048 BD46     		mov	sp, r7
 2159 004a 02B0     		add	sp, sp, #8
 2160              		@ sp needed
 2161 004c B0BD     		pop	{r4, r5, r7, pc}
 2162              		.cfi_endproc
 2163              	.LFE59:
 2164              		.size	drawCircle, .-drawCircle
 2165 004e C046     		.section	.text.fillCircle,"ax",%progbits
 2166              		.align	2
 2167              		.global	fillCircle
 2168              		.code	16
 2169              		.thumb_func
 2170              		.type	fillCircle, %function
 2171              	fillCircle:
 2172              	.LFB60:
 690:RA8875.c      **** 
 691:RA8875.c      **** /**************************************************************************/
 692:RA8875.c      **** /*!
 693:RA8875.c      ****       Draws a HW accelerated filled circle on the display
 694:RA8875.c      **** 
 695:RA8875.c      ****       @args x[in]     The 0-based x location of the center of the circle
 696:RA8875.c      ****       @args y[in]     The 0-based y location of the center of the circle
 697:RA8875.c      ****       @args w[in]     The circle's radius
 698:RA8875.c      ****       @args color[in] The RGB565 color to use when drawing the pixel
 699:RA8875.c      **** */
 700:RA8875.c      **** /**************************************************************************/
 701:RA8875.c      **** void fillCircle(int16_t x0, int16_t y0, int16_t r, uint16_t color)
 702:RA8875.c      **** {
 2173              		.loc 1 702 0
 2174              		.cfi_startproc
 2175              		@ args = 0, pretend = 0, frame = 8
 2176              		@ frame_needed = 1, uses_anonymous_args = 0
 2177 0000 B0B5     		push	{r4, r5, r7, lr}
 2178              		.cfi_def_cfa_offset 16
 2179              		.cfi_offset 4, -16
 2180              		.cfi_offset 5, -12
 2181              		.cfi_offset 7, -8
 2182              		.cfi_offset 14, -4
 2183 0002 84B0     		sub	sp, sp, #16
 2184              		.cfi_def_cfa_offset 32
 2185 0004 02AF     		add	r7, sp, #8
 2186              		.cfi_def_cfa 7, 24
 2187 0006 0500     		movs	r5, r0
 2188 0008 0C00     		movs	r4, r1
 2189 000a 1000     		movs	r0, r2
 2190 000c 1900     		movs	r1, r3
 2191 000e BB1D     		adds	r3, r7, #6
 2192 0010 2A1C     		adds	r2, r5, #0
 2193 0012 1A80     		strh	r2, [r3]
 2194 0014 3B1D     		adds	r3, r7, #4
 2195 0016 221C     		adds	r2, r4, #0
 2196 0018 1A80     		strh	r2, [r3]
 2197 001a BB1C     		adds	r3, r7, #2
 2198 001c 021C     		adds	r2, r0, #0
ARM GAS  C:\Users\megan\AppData\Local\Temp\ccD8G3YI.s 			page 52


 2199 001e 1A80     		strh	r2, [r3]
 2200 0020 3B00     		movs	r3, r7
 2201 0022 0A1C     		adds	r2, r1, #0
 2202 0024 1A80     		strh	r2, [r3]
 703:RA8875.c      ****   circleHelper(x0, y0, r, color, true);
 2203              		.loc 1 703 0
 2204 0026 3B00     		movs	r3, r7
 2205 0028 1C88     		ldrh	r4, [r3]
 2206 002a BB1C     		adds	r3, r7, #2
 2207 002c 0022     		movs	r2, #0
 2208 002e 9A5E     		ldrsh	r2, [r3, r2]
 2209 0030 3B1D     		adds	r3, r7, #4
 2210 0032 0021     		movs	r1, #0
 2211 0034 595E     		ldrsh	r1, [r3, r1]
 2212 0036 BB1D     		adds	r3, r7, #6
 2213 0038 0020     		movs	r0, #0
 2214 003a 185E     		ldrsh	r0, [r3, r0]
 2215 003c 0123     		movs	r3, #1
 2216 003e 0093     		str	r3, [sp]
 2217 0040 2300     		movs	r3, r4
 2218 0042 FFF7FEFF 		bl	circleHelper
 704:RA8875.c      **** }
 2219              		.loc 1 704 0
 2220 0046 C046     		nop
 2221 0048 BD46     		mov	sp, r7
 2222 004a 02B0     		add	sp, sp, #8
 2223              		@ sp needed
 2224 004c B0BD     		pop	{r4, r5, r7, pc}
 2225              		.cfi_endproc
 2226              	.LFE60:
 2227              		.size	fillCircle, .-fillCircle
 2228 004e C046     		.section	.text.drawTriangle,"ax",%progbits
 2229              		.align	2
 2230              		.global	drawTriangle
 2231              		.code	16
 2232              		.thumb_func
 2233              		.type	drawTriangle, %function
 2234              	drawTriangle:
 2235              	.LFB61:
 705:RA8875.c      **** 
 706:RA8875.c      **** /**************************************************************************/
 707:RA8875.c      **** /*!
 708:RA8875.c      ****       Draws a HW accelerated triangle on the display
 709:RA8875.c      **** 
 710:RA8875.c      ****       @args x0[in]    The 0-based x location of point 0 on the triangle
 711:RA8875.c      ****       @args y0[in]    The 0-based y location of point 0 on the triangle
 712:RA8875.c      ****       @args x1[in]    The 0-based x location of point 1 on the triangle
 713:RA8875.c      ****       @args y1[in]    The 0-based y location of point 1 on the triangle
 714:RA8875.c      ****       @args x2[in]    The 0-based x location of point 2 on the triangle
 715:RA8875.c      ****       @args y2[in]    The 0-based y location of point 2 on the triangle
 716:RA8875.c      ****       @args color[in] The RGB565 color to use when drawing the pixel
 717:RA8875.c      **** */
 718:RA8875.c      **** /**************************************************************************/
 719:RA8875.c      **** void drawTriangle(int16_t x0, int16_t y0, int16_t x1, int16_t y1, int16_t x2, int16_t y2, uint16_t 
 720:RA8875.c      **** {
 2236              		.loc 1 720 0
 2237              		.cfi_startproc
ARM GAS  C:\Users\megan\AppData\Local\Temp\ccD8G3YI.s 			page 53


 2238              		@ args = 12, pretend = 0, frame = 8
 2239              		@ frame_needed = 1, uses_anonymous_args = 0
 2240 0000 B0B5     		push	{r4, r5, r7, lr}
 2241              		.cfi_def_cfa_offset 16
 2242              		.cfi_offset 4, -16
 2243              		.cfi_offset 5, -12
 2244              		.cfi_offset 7, -8
 2245              		.cfi_offset 14, -4
 2246 0002 86B0     		sub	sp, sp, #24
 2247              		.cfi_def_cfa_offset 40
 2248 0004 04AF     		add	r7, sp, #16
 2249              		.cfi_def_cfa 7, 24
 2250 0006 0500     		movs	r5, r0
 2251 0008 0C00     		movs	r4, r1
 2252 000a 1000     		movs	r0, r2
 2253 000c 1900     		movs	r1, r3
 2254 000e BB1D     		adds	r3, r7, #6
 2255 0010 2A1C     		adds	r2, r5, #0
 2256 0012 1A80     		strh	r2, [r3]
 2257 0014 3B1D     		adds	r3, r7, #4
 2258 0016 221C     		adds	r2, r4, #0
 2259 0018 1A80     		strh	r2, [r3]
 2260 001a BB1C     		adds	r3, r7, #2
 2261 001c 021C     		adds	r2, r0, #0
 2262 001e 1A80     		strh	r2, [r3]
 2263 0020 3B00     		movs	r3, r7
 2264 0022 0A1C     		adds	r2, r1, #0
 2265 0024 1A80     		strh	r2, [r3]
 721:RA8875.c      ****   triangleHelper(x0, y0, x1, y1, x2, y2, color, false);
 2266              		.loc 1 721 0
 2267 0026 3B00     		movs	r3, r7
 2268 0028 0024     		movs	r4, #0
 2269 002a 1C5F     		ldrsh	r4, [r3, r4]
 2270 002c BB1C     		adds	r3, r7, #2
 2271 002e 0022     		movs	r2, #0
 2272 0030 9A5E     		ldrsh	r2, [r3, r2]
 2273 0032 3B1D     		adds	r3, r7, #4
 2274 0034 0021     		movs	r1, #0
 2275 0036 595E     		ldrsh	r1, [r3, r1]
 2276 0038 BB1D     		adds	r3, r7, #6
 2277 003a 0020     		movs	r0, #0
 2278 003c 185E     		ldrsh	r0, [r3, r0]
 2279 003e 0023     		movs	r3, #0
 2280 0040 0393     		str	r3, [sp, #12]
 2281 0042 2023     		movs	r3, #32
 2282 0044 FB18     		adds	r3, r7, r3
 2283 0046 1B88     		ldrh	r3, [r3]
 2284 0048 0293     		str	r3, [sp, #8]
 2285 004a 1C23     		movs	r3, #28
 2286 004c FB18     		adds	r3, r7, r3
 2287 004e 0025     		movs	r5, #0
 2288 0050 5B5F     		ldrsh	r3, [r3, r5]
 2289 0052 0193     		str	r3, [sp, #4]
 2290 0054 1823     		movs	r3, #24
 2291 0056 FB18     		adds	r3, r7, r3
 2292 0058 0025     		movs	r5, #0
 2293 005a 5B5F     		ldrsh	r3, [r3, r5]
ARM GAS  C:\Users\megan\AppData\Local\Temp\ccD8G3YI.s 			page 54


 2294 005c 0093     		str	r3, [sp]
 2295 005e 2300     		movs	r3, r4
 2296 0060 FFF7FEFF 		bl	triangleHelper
 722:RA8875.c      **** }
 2297              		.loc 1 722 0
 2298 0064 C046     		nop
 2299 0066 BD46     		mov	sp, r7
 2300 0068 02B0     		add	sp, sp, #8
 2301              		@ sp needed
 2302 006a B0BD     		pop	{r4, r5, r7, pc}
 2303              		.cfi_endproc
 2304              	.LFE61:
 2305              		.size	drawTriangle, .-drawTriangle
 2306              		.section	.text.fillTriangle,"ax",%progbits
 2307              		.align	2
 2308              		.global	fillTriangle
 2309              		.code	16
 2310              		.thumb_func
 2311              		.type	fillTriangle, %function
 2312              	fillTriangle:
 2313              	.LFB62:
 723:RA8875.c      **** 
 724:RA8875.c      **** /**************************************************************************/
 725:RA8875.c      **** /*!
 726:RA8875.c      ****       Draws a HW accelerated filled triangle on the display
 727:RA8875.c      **** 
 728:RA8875.c      ****       @args x0[in]    The 0-based x location of point 0 on the triangle
 729:RA8875.c      ****       @args y0[in]    The 0-based y location of point 0 on the triangle
 730:RA8875.c      ****       @args x1[in]    The 0-based x location of point 1 on the triangle
 731:RA8875.c      ****       @args y1[in]    The 0-based y location of point 1 on the triangle
 732:RA8875.c      ****       @args x2[in]    The 0-based x location of point 2 on the triangle
 733:RA8875.c      ****       @args y2[in]    The 0-based y location of point 2 on the triangle
 734:RA8875.c      ****       @args color[in] The RGB565 color to use when drawing the pixel
 735:RA8875.c      **** */
 736:RA8875.c      **** /**************************************************************************/
 737:RA8875.c      **** void fillTriangle(int16_t x0, int16_t y0, int16_t x1, int16_t y1, int16_t x2, int16_t y2, uint16_t 
 738:RA8875.c      **** {
 2314              		.loc 1 738 0
 2315              		.cfi_startproc
 2316              		@ args = 12, pretend = 0, frame = 8
 2317              		@ frame_needed = 1, uses_anonymous_args = 0
 2318 0000 B0B5     		push	{r4, r5, r7, lr}
 2319              		.cfi_def_cfa_offset 16
 2320              		.cfi_offset 4, -16
 2321              		.cfi_offset 5, -12
 2322              		.cfi_offset 7, -8
 2323              		.cfi_offset 14, -4
 2324 0002 86B0     		sub	sp, sp, #24
 2325              		.cfi_def_cfa_offset 40
 2326 0004 04AF     		add	r7, sp, #16
 2327              		.cfi_def_cfa 7, 24
 2328 0006 0500     		movs	r5, r0
 2329 0008 0C00     		movs	r4, r1
 2330 000a 1000     		movs	r0, r2
 2331 000c 1900     		movs	r1, r3
 2332 000e BB1D     		adds	r3, r7, #6
 2333 0010 2A1C     		adds	r2, r5, #0
ARM GAS  C:\Users\megan\AppData\Local\Temp\ccD8G3YI.s 			page 55


 2334 0012 1A80     		strh	r2, [r3]
 2335 0014 3B1D     		adds	r3, r7, #4
 2336 0016 221C     		adds	r2, r4, #0
 2337 0018 1A80     		strh	r2, [r3]
 2338 001a BB1C     		adds	r3, r7, #2
 2339 001c 021C     		adds	r2, r0, #0
 2340 001e 1A80     		strh	r2, [r3]
 2341 0020 3B00     		movs	r3, r7
 2342 0022 0A1C     		adds	r2, r1, #0
 2343 0024 1A80     		strh	r2, [r3]
 739:RA8875.c      ****   triangleHelper(x0, y0, x1, y1, x2, y2, color, true);
 2344              		.loc 1 739 0
 2345 0026 3B00     		movs	r3, r7
 2346 0028 0024     		movs	r4, #0
 2347 002a 1C5F     		ldrsh	r4, [r3, r4]
 2348 002c BB1C     		adds	r3, r7, #2
 2349 002e 0022     		movs	r2, #0
 2350 0030 9A5E     		ldrsh	r2, [r3, r2]
 2351 0032 3B1D     		adds	r3, r7, #4
 2352 0034 0021     		movs	r1, #0
 2353 0036 595E     		ldrsh	r1, [r3, r1]
 2354 0038 BB1D     		adds	r3, r7, #6
 2355 003a 0020     		movs	r0, #0
 2356 003c 185E     		ldrsh	r0, [r3, r0]
 2357 003e 0123     		movs	r3, #1
 2358 0040 0393     		str	r3, [sp, #12]
 2359 0042 2023     		movs	r3, #32
 2360 0044 FB18     		adds	r3, r7, r3
 2361 0046 1B88     		ldrh	r3, [r3]
 2362 0048 0293     		str	r3, [sp, #8]
 2363 004a 1C23     		movs	r3, #28
 2364 004c FB18     		adds	r3, r7, r3
 2365 004e 0025     		movs	r5, #0
 2366 0050 5B5F     		ldrsh	r3, [r3, r5]
 2367 0052 0193     		str	r3, [sp, #4]
 2368 0054 1823     		movs	r3, #24
 2369 0056 FB18     		adds	r3, r7, r3
 2370 0058 0025     		movs	r5, #0
 2371 005a 5B5F     		ldrsh	r3, [r3, r5]
 2372 005c 0093     		str	r3, [sp]
 2373 005e 2300     		movs	r3, r4
 2374 0060 FFF7FEFF 		bl	triangleHelper
 740:RA8875.c      **** }
 2375              		.loc 1 740 0
 2376 0064 C046     		nop
 2377 0066 BD46     		mov	sp, r7
 2378 0068 02B0     		add	sp, sp, #8
 2379              		@ sp needed
 2380 006a B0BD     		pop	{r4, r5, r7, pc}
 2381              		.cfi_endproc
 2382              	.LFE62:
 2383              		.size	fillTriangle, .-fillTriangle
 2384              		.section	.text.drawEllipse,"ax",%progbits
 2385              		.align	2
 2386              		.global	drawEllipse
 2387              		.code	16
 2388              		.thumb_func
ARM GAS  C:\Users\megan\AppData\Local\Temp\ccD8G3YI.s 			page 56


 2389              		.type	drawEllipse, %function
 2390              	drawEllipse:
 2391              	.LFB63:
 741:RA8875.c      **** 
 742:RA8875.c      **** /**************************************************************************/
 743:RA8875.c      **** /*!
 744:RA8875.c      ****       Draws a HW accelerated ellipse on the display
 745:RA8875.c      **** 
 746:RA8875.c      ****       @args xCenter[in]   The 0-based x location of the ellipse's center
 747:RA8875.c      ****       @args yCenter[in]   The 0-based y location of the ellipse's center
 748:RA8875.c      ****       @args longAxis[in]  The size in pixels of the ellipse's long axis
 749:RA8875.c      ****       @args shortAxis[in] The size in pixels of the ellipse's short axis
 750:RA8875.c      ****       @args color[in]     The RGB565 color to use when drawing the pixel
 751:RA8875.c      **** */
 752:RA8875.c      **** /**************************************************************************/
 753:RA8875.c      **** void drawEllipse(int16_t xCenter, int16_t yCenter, int16_t longAxis, int16_t shortAxis, uint16_t co
 754:RA8875.c      **** {
 2392              		.loc 1 754 0
 2393              		.cfi_startproc
 2394              		@ args = 4, pretend = 0, frame = 8
 2395              		@ frame_needed = 1, uses_anonymous_args = 0
 2396 0000 B0B5     		push	{r4, r5, r7, lr}
 2397              		.cfi_def_cfa_offset 16
 2398              		.cfi_offset 4, -16
 2399              		.cfi_offset 5, -12
 2400              		.cfi_offset 7, -8
 2401              		.cfi_offset 14, -4
 2402 0002 84B0     		sub	sp, sp, #16
 2403              		.cfi_def_cfa_offset 32
 2404 0004 02AF     		add	r7, sp, #8
 2405              		.cfi_def_cfa 7, 24
 2406 0006 0500     		movs	r5, r0
 2407 0008 0C00     		movs	r4, r1
 2408 000a 1000     		movs	r0, r2
 2409 000c 1900     		movs	r1, r3
 2410 000e BB1D     		adds	r3, r7, #6
 2411 0010 2A1C     		adds	r2, r5, #0
 2412 0012 1A80     		strh	r2, [r3]
 2413 0014 3B1D     		adds	r3, r7, #4
 2414 0016 221C     		adds	r2, r4, #0
 2415 0018 1A80     		strh	r2, [r3]
 2416 001a BB1C     		adds	r3, r7, #2
 2417 001c 021C     		adds	r2, r0, #0
 2418 001e 1A80     		strh	r2, [r3]
 2419 0020 3B00     		movs	r3, r7
 2420 0022 0A1C     		adds	r2, r1, #0
 2421 0024 1A80     		strh	r2, [r3]
 755:RA8875.c      ****   ellipseHelper(xCenter, yCenter, longAxis, shortAxis, color, false);
 2422              		.loc 1 755 0
 2423 0026 3B00     		movs	r3, r7
 2424 0028 0024     		movs	r4, #0
 2425 002a 1C5F     		ldrsh	r4, [r3, r4]
 2426 002c BB1C     		adds	r3, r7, #2
 2427 002e 0022     		movs	r2, #0
 2428 0030 9A5E     		ldrsh	r2, [r3, r2]
 2429 0032 3B1D     		adds	r3, r7, #4
 2430 0034 0021     		movs	r1, #0
ARM GAS  C:\Users\megan\AppData\Local\Temp\ccD8G3YI.s 			page 57


 2431 0036 595E     		ldrsh	r1, [r3, r1]
 2432 0038 BB1D     		adds	r3, r7, #6
 2433 003a 0020     		movs	r0, #0
 2434 003c 185E     		ldrsh	r0, [r3, r0]
 2435 003e 0023     		movs	r3, #0
 2436 0040 0193     		str	r3, [sp, #4]
 2437 0042 1823     		movs	r3, #24
 2438 0044 FB18     		adds	r3, r7, r3
 2439 0046 1B88     		ldrh	r3, [r3]
 2440 0048 0093     		str	r3, [sp]
 2441 004a 2300     		movs	r3, r4
 2442 004c FFF7FEFF 		bl	ellipseHelper
 756:RA8875.c      **** }
 2443              		.loc 1 756 0
 2444 0050 C046     		nop
 2445 0052 BD46     		mov	sp, r7
 2446 0054 02B0     		add	sp, sp, #8
 2447              		@ sp needed
 2448 0056 B0BD     		pop	{r4, r5, r7, pc}
 2449              		.cfi_endproc
 2450              	.LFE63:
 2451              		.size	drawEllipse, .-drawEllipse
 2452              		.section	.text.fillEllipse,"ax",%progbits
 2453              		.align	2
 2454              		.global	fillEllipse
 2455              		.code	16
 2456              		.thumb_func
 2457              		.type	fillEllipse, %function
 2458              	fillEllipse:
 2459              	.LFB64:
 757:RA8875.c      **** 
 758:RA8875.c      **** /**************************************************************************/
 759:RA8875.c      **** /*!
 760:RA8875.c      ****       Draws a HW accelerated filled ellipse on the display
 761:RA8875.c      **** 
 762:RA8875.c      ****       @args xCenter[in]   The 0-based x location of the ellipse's center
 763:RA8875.c      ****       @args yCenter[in]   The 0-based y location of the ellipse's center
 764:RA8875.c      ****       @args longAxis[in]  The size in pixels of the ellipse's long axis
 765:RA8875.c      ****       @args shortAxis[in] The size in pixels of the ellipse's short axis
 766:RA8875.c      ****       @args color[in]     The RGB565 color to use when drawing the pixel
 767:RA8875.c      **** */
 768:RA8875.c      **** /**************************************************************************/
 769:RA8875.c      **** void fillEllipse(int16_t xCenter, int16_t yCenter, int16_t longAxis, int16_t shortAxis, uint16_t co
 770:RA8875.c      **** {
 2460              		.loc 1 770 0
 2461              		.cfi_startproc
 2462              		@ args = 4, pretend = 0, frame = 8
 2463              		@ frame_needed = 1, uses_anonymous_args = 0
 2464 0000 B0B5     		push	{r4, r5, r7, lr}
 2465              		.cfi_def_cfa_offset 16
 2466              		.cfi_offset 4, -16
 2467              		.cfi_offset 5, -12
 2468              		.cfi_offset 7, -8
 2469              		.cfi_offset 14, -4
 2470 0002 84B0     		sub	sp, sp, #16
 2471              		.cfi_def_cfa_offset 32
 2472 0004 02AF     		add	r7, sp, #8
ARM GAS  C:\Users\megan\AppData\Local\Temp\ccD8G3YI.s 			page 58


 2473              		.cfi_def_cfa 7, 24
 2474 0006 0500     		movs	r5, r0
 2475 0008 0C00     		movs	r4, r1
 2476 000a 1000     		movs	r0, r2
 2477 000c 1900     		movs	r1, r3
 2478 000e BB1D     		adds	r3, r7, #6
 2479 0010 2A1C     		adds	r2, r5, #0
 2480 0012 1A80     		strh	r2, [r3]
 2481 0014 3B1D     		adds	r3, r7, #4
 2482 0016 221C     		adds	r2, r4, #0
 2483 0018 1A80     		strh	r2, [r3]
 2484 001a BB1C     		adds	r3, r7, #2
 2485 001c 021C     		adds	r2, r0, #0
 2486 001e 1A80     		strh	r2, [r3]
 2487 0020 3B00     		movs	r3, r7
 2488 0022 0A1C     		adds	r2, r1, #0
 2489 0024 1A80     		strh	r2, [r3]
 771:RA8875.c      ****   ellipseHelper(xCenter, yCenter, longAxis, shortAxis, color, true);
 2490              		.loc 1 771 0
 2491 0026 3B00     		movs	r3, r7
 2492 0028 0024     		movs	r4, #0
 2493 002a 1C5F     		ldrsh	r4, [r3, r4]
 2494 002c BB1C     		adds	r3, r7, #2
 2495 002e 0022     		movs	r2, #0
 2496 0030 9A5E     		ldrsh	r2, [r3, r2]
 2497 0032 3B1D     		adds	r3, r7, #4
 2498 0034 0021     		movs	r1, #0
 2499 0036 595E     		ldrsh	r1, [r3, r1]
 2500 0038 BB1D     		adds	r3, r7, #6
 2501 003a 0020     		movs	r0, #0
 2502 003c 185E     		ldrsh	r0, [r3, r0]
 2503 003e 0123     		movs	r3, #1
 2504 0040 0193     		str	r3, [sp, #4]
 2505 0042 1823     		movs	r3, #24
 2506 0044 FB18     		adds	r3, r7, r3
 2507 0046 1B88     		ldrh	r3, [r3]
 2508 0048 0093     		str	r3, [sp]
 2509 004a 2300     		movs	r3, r4
 2510 004c FFF7FEFF 		bl	ellipseHelper
 772:RA8875.c      **** }
 2511              		.loc 1 772 0
 2512 0050 C046     		nop
 2513 0052 BD46     		mov	sp, r7
 2514 0054 02B0     		add	sp, sp, #8
 2515              		@ sp needed
 2516 0056 B0BD     		pop	{r4, r5, r7, pc}
 2517              		.cfi_endproc
 2518              	.LFE64:
 2519              		.size	fillEllipse, .-fillEllipse
 2520              		.section	.text.drawCurve,"ax",%progbits
 2521              		.align	2
 2522              		.global	drawCurve
 2523              		.code	16
 2524              		.thumb_func
 2525              		.type	drawCurve, %function
 2526              	drawCurve:
 2527              	.LFB65:
ARM GAS  C:\Users\megan\AppData\Local\Temp\ccD8G3YI.s 			page 59


 773:RA8875.c      **** 
 774:RA8875.c      **** /**************************************************************************/
 775:RA8875.c      **** /*!
 776:RA8875.c      ****       Draws a HW accelerated curve on the display
 777:RA8875.c      **** 
 778:RA8875.c      ****       @args xCenter[in]   The 0-based x location of the ellipse's center
 779:RA8875.c      ****       @args yCenter[in]   The 0-based y location of the ellipse's center
 780:RA8875.c      ****       @args longAxis[in]  The size in pixels of the ellipse's long axis
 781:RA8875.c      ****       @args shortAxis[in] The size in pixels of the ellipse's short axis
 782:RA8875.c      ****       @args curvePart[in] The corner to draw, where in clock-wise motion:
 783:RA8875.c      ****                             0 = 180-270
 784:RA8875.c      ****                             1 = 270-0
 785:RA8875.c      ****                             2 = 0-90
 786:RA8875.c      ****                             3 = 90-180
 787:RA8875.c      ****       @args color[in]     The RGB565 color to use when drawing the pixel
 788:RA8875.c      **** */
 789:RA8875.c      **** /**************************************************************************/
 790:RA8875.c      **** void drawCurve(int16_t xCenter, int16_t yCenter, int16_t longAxis, int16_t shortAxis, uint8_t curve
 791:RA8875.c      **** {
 2528              		.loc 1 791 0
 2529              		.cfi_startproc
 2530              		@ args = 8, pretend = 0, frame = 8
 2531              		@ frame_needed = 1, uses_anonymous_args = 0
 2532 0000 B0B5     		push	{r4, r5, r7, lr}
 2533              		.cfi_def_cfa_offset 16
 2534              		.cfi_offset 4, -16
 2535              		.cfi_offset 5, -12
 2536              		.cfi_offset 7, -8
 2537              		.cfi_offset 14, -4
 2538 0002 86B0     		sub	sp, sp, #24
 2539              		.cfi_def_cfa_offset 40
 2540 0004 04AF     		add	r7, sp, #16
 2541              		.cfi_def_cfa 7, 24
 2542 0006 0500     		movs	r5, r0
 2543 0008 0C00     		movs	r4, r1
 2544 000a 1000     		movs	r0, r2
 2545 000c 1900     		movs	r1, r3
 2546 000e BB1D     		adds	r3, r7, #6
 2547 0010 2A1C     		adds	r2, r5, #0
 2548 0012 1A80     		strh	r2, [r3]
 2549 0014 3B1D     		adds	r3, r7, #4
 2550 0016 221C     		adds	r2, r4, #0
 2551 0018 1A80     		strh	r2, [r3]
 2552 001a BB1C     		adds	r3, r7, #2
 2553 001c 021C     		adds	r2, r0, #0
 2554 001e 1A80     		strh	r2, [r3]
 2555 0020 3B00     		movs	r3, r7
 2556 0022 0A1C     		adds	r2, r1, #0
 2557 0024 1A80     		strh	r2, [r3]
 792:RA8875.c      ****   curveHelper(xCenter, yCenter, longAxis, shortAxis, curvePart, color, false);
 2558              		.loc 1 792 0
 2559 0026 3B00     		movs	r3, r7
 2560 0028 0024     		movs	r4, #0
 2561 002a 1C5F     		ldrsh	r4, [r3, r4]
 2562 002c BB1C     		adds	r3, r7, #2
 2563 002e 0022     		movs	r2, #0
 2564 0030 9A5E     		ldrsh	r2, [r3, r2]
ARM GAS  C:\Users\megan\AppData\Local\Temp\ccD8G3YI.s 			page 60


 2565 0032 3B1D     		adds	r3, r7, #4
 2566 0034 0021     		movs	r1, #0
 2567 0036 595E     		ldrsh	r1, [r3, r1]
 2568 0038 BB1D     		adds	r3, r7, #6
 2569 003a 0020     		movs	r0, #0
 2570 003c 185E     		ldrsh	r0, [r3, r0]
 2571 003e 0023     		movs	r3, #0
 2572 0040 0293     		str	r3, [sp, #8]
 2573 0042 1C23     		movs	r3, #28
 2574 0044 FB18     		adds	r3, r7, r3
 2575 0046 1B88     		ldrh	r3, [r3]
 2576 0048 0193     		str	r3, [sp, #4]
 2577 004a 1823     		movs	r3, #24
 2578 004c FB18     		adds	r3, r7, r3
 2579 004e 1B78     		ldrb	r3, [r3]
 2580 0050 0093     		str	r3, [sp]
 2581 0052 2300     		movs	r3, r4
 2582 0054 FFF7FEFF 		bl	curveHelper
 793:RA8875.c      **** }
 2583              		.loc 1 793 0
 2584 0058 C046     		nop
 2585 005a BD46     		mov	sp, r7
 2586 005c 02B0     		add	sp, sp, #8
 2587              		@ sp needed
 2588 005e B0BD     		pop	{r4, r5, r7, pc}
 2589              		.cfi_endproc
 2590              	.LFE65:
 2591              		.size	drawCurve, .-drawCurve
 2592              		.section	.text.fillCurve,"ax",%progbits
 2593              		.align	2
 2594              		.global	fillCurve
 2595              		.code	16
 2596              		.thumb_func
 2597              		.type	fillCurve, %function
 2598              	fillCurve:
 2599              	.LFB66:
 794:RA8875.c      **** 
 795:RA8875.c      **** /**************************************************************************/
 796:RA8875.c      **** /*!
 797:RA8875.c      ****       Draws a HW accelerated filled curve on the display
 798:RA8875.c      **** 
 799:RA8875.c      ****       @args xCenter[in]   The 0-based x location of the ellipse's center
 800:RA8875.c      ****       @args yCenter[in]   The 0-based y location of the ellipse's center
 801:RA8875.c      ****       @args longAxis[in]  The size in pixels of the ellipse's long axis
 802:RA8875.c      ****       @args shortAxis[in] The size in pixels of the ellipse's short axis
 803:RA8875.c      ****       @args curvePart[in] The corner to draw, where in clock-wise motion:
 804:RA8875.c      ****                             0 = 180-270
 805:RA8875.c      ****                             1 = 270-0
 806:RA8875.c      ****                             2 = 0-90
 807:RA8875.c      ****                             3 = 90-180
 808:RA8875.c      ****       @args color[in]     The RGB565 color to use when drawing the pixel
 809:RA8875.c      **** */
 810:RA8875.c      **** /**************************************************************************/
 811:RA8875.c      **** void fillCurve(int16_t xCenter, int16_t yCenter, int16_t longAxis, int16_t shortAxis, uint8_t curve
 812:RA8875.c      **** {
 2600              		.loc 1 812 0
 2601              		.cfi_startproc
ARM GAS  C:\Users\megan\AppData\Local\Temp\ccD8G3YI.s 			page 61


 2602              		@ args = 8, pretend = 0, frame = 8
 2603              		@ frame_needed = 1, uses_anonymous_args = 0
 2604 0000 B0B5     		push	{r4, r5, r7, lr}
 2605              		.cfi_def_cfa_offset 16
 2606              		.cfi_offset 4, -16
 2607              		.cfi_offset 5, -12
 2608              		.cfi_offset 7, -8
 2609              		.cfi_offset 14, -4
 2610 0002 86B0     		sub	sp, sp, #24
 2611              		.cfi_def_cfa_offset 40
 2612 0004 04AF     		add	r7, sp, #16
 2613              		.cfi_def_cfa 7, 24
 2614 0006 0500     		movs	r5, r0
 2615 0008 0C00     		movs	r4, r1
 2616 000a 1000     		movs	r0, r2
 2617 000c 1900     		movs	r1, r3
 2618 000e BB1D     		adds	r3, r7, #6
 2619 0010 2A1C     		adds	r2, r5, #0
 2620 0012 1A80     		strh	r2, [r3]
 2621 0014 3B1D     		adds	r3, r7, #4
 2622 0016 221C     		adds	r2, r4, #0
 2623 0018 1A80     		strh	r2, [r3]
 2624 001a BB1C     		adds	r3, r7, #2
 2625 001c 021C     		adds	r2, r0, #0
 2626 001e 1A80     		strh	r2, [r3]
 2627 0020 3B00     		movs	r3, r7
 2628 0022 0A1C     		adds	r2, r1, #0
 2629 0024 1A80     		strh	r2, [r3]
 813:RA8875.c      ****   curveHelper(xCenter, yCenter, longAxis, shortAxis, curvePart, color, true);
 2630              		.loc 1 813 0
 2631 0026 3B00     		movs	r3, r7
 2632 0028 0024     		movs	r4, #0
 2633 002a 1C5F     		ldrsh	r4, [r3, r4]
 2634 002c BB1C     		adds	r3, r7, #2
 2635 002e 0022     		movs	r2, #0
 2636 0030 9A5E     		ldrsh	r2, [r3, r2]
 2637 0032 3B1D     		adds	r3, r7, #4
 2638 0034 0021     		movs	r1, #0
 2639 0036 595E     		ldrsh	r1, [r3, r1]
 2640 0038 BB1D     		adds	r3, r7, #6
 2641 003a 0020     		movs	r0, #0
 2642 003c 185E     		ldrsh	r0, [r3, r0]
 2643 003e 0123     		movs	r3, #1
 2644 0040 0293     		str	r3, [sp, #8]
 2645 0042 1C23     		movs	r3, #28
 2646 0044 FB18     		adds	r3, r7, r3
 2647 0046 1B88     		ldrh	r3, [r3]
 2648 0048 0193     		str	r3, [sp, #4]
 2649 004a 1823     		movs	r3, #24
 2650 004c FB18     		adds	r3, r7, r3
 2651 004e 1B78     		ldrb	r3, [r3]
 2652 0050 0093     		str	r3, [sp]
 2653 0052 2300     		movs	r3, r4
 2654 0054 FFF7FEFF 		bl	curveHelper
 814:RA8875.c      **** }
 2655              		.loc 1 814 0
 2656 0058 C046     		nop
ARM GAS  C:\Users\megan\AppData\Local\Temp\ccD8G3YI.s 			page 62


 2657 005a BD46     		mov	sp, r7
 2658 005c 02B0     		add	sp, sp, #8
 2659              		@ sp needed
 2660 005e B0BD     		pop	{r4, r5, r7, pc}
 2661              		.cfi_endproc
 2662              	.LFE66:
 2663              		.size	fillCurve, .-fillCurve
 2664              		.section	.text.circleHelper,"ax",%progbits
 2665              		.align	2
 2666              		.global	circleHelper
 2667              		.code	16
 2668              		.thumb_func
 2669              		.type	circleHelper, %function
 2670              	circleHelper:
 2671              	.LFB67:
 815:RA8875.c      **** 
 816:RA8875.c      **** /**************************************************************************/
 817:RA8875.c      **** /*!
 818:RA8875.c      ****       Helper function for higher level circle drawing code
 819:RA8875.c      **** */
 820:RA8875.c      **** /**************************************************************************/
 821:RA8875.c      **** void circleHelper(int16_t x0, int16_t y0, int16_t r, uint16_t color, bool filled)
 822:RA8875.c      **** {
 2672              		.loc 1 822 0
 2673              		.cfi_startproc
 2674              		@ args = 4, pretend = 0, frame = 8
 2675              		@ frame_needed = 1, uses_anonymous_args = 0
 2676 0000 B0B5     		push	{r4, r5, r7, lr}
 2677              		.cfi_def_cfa_offset 16
 2678              		.cfi_offset 4, -16
 2679              		.cfi_offset 5, -12
 2680              		.cfi_offset 7, -8
 2681              		.cfi_offset 14, -4
 2682 0002 82B0     		sub	sp, sp, #8
 2683              		.cfi_def_cfa_offset 24
 2684 0004 00AF     		add	r7, sp, #0
 2685              		.cfi_def_cfa_register 7
 2686 0006 0500     		movs	r5, r0
 2687 0008 0C00     		movs	r4, r1
 2688 000a 1000     		movs	r0, r2
 2689 000c 1900     		movs	r1, r3
 2690 000e BB1D     		adds	r3, r7, #6
 2691 0010 2A1C     		adds	r2, r5, #0
 2692 0012 1A80     		strh	r2, [r3]
 2693 0014 3B1D     		adds	r3, r7, #4
 2694 0016 221C     		adds	r2, r4, #0
 2695 0018 1A80     		strh	r2, [r3]
 2696 001a BB1C     		adds	r3, r7, #2
 2697 001c 021C     		adds	r2, r0, #0
 2698 001e 1A80     		strh	r2, [r3]
 2699 0020 3B00     		movs	r3, r7
 2700 0022 0A1C     		adds	r2, r1, #0
 2701 0024 1A80     		strh	r2, [r3]
 823:RA8875.c      ****   /* Set X */
 824:RA8875.c      ****   writeCommand(0x99);
 2702              		.loc 1 824 0
 2703 0026 9920     		movs	r0, #153
ARM GAS  C:\Users\megan\AppData\Local\Temp\ccD8G3YI.s 			page 63


 2704 0028 FFF7FEFF 		bl	writeCommand
 825:RA8875.c      ****   writeData(x0);
 2705              		.loc 1 825 0
 2706 002c BB1D     		adds	r3, r7, #6
 2707 002e 1B88     		ldrh	r3, [r3]
 2708 0030 DBB2     		uxtb	r3, r3
 2709 0032 1800     		movs	r0, r3
 2710 0034 FFF7FEFF 		bl	writeData
 826:RA8875.c      ****   writeCommand(0x9a);
 2711              		.loc 1 826 0
 2712 0038 9A20     		movs	r0, #154
 2713 003a FFF7FEFF 		bl	writeCommand
 827:RA8875.c      ****   writeData(x0 >> 8);
 2714              		.loc 1 827 0
 2715 003e BB1D     		adds	r3, r7, #6
 2716 0040 0022     		movs	r2, #0
 2717 0042 9B5E     		ldrsh	r3, [r3, r2]
 2718 0044 1B12     		asrs	r3, r3, #8
 2719 0046 1BB2     		sxth	r3, r3
 2720 0048 DBB2     		uxtb	r3, r3
 2721 004a 1800     		movs	r0, r3
 2722 004c FFF7FEFF 		bl	writeData
 828:RA8875.c      ****   
 829:RA8875.c      ****   /* Set Y */
 830:RA8875.c      ****   writeCommand(0x9b);
 2723              		.loc 1 830 0
 2724 0050 9B20     		movs	r0, #155
 2725 0052 FFF7FEFF 		bl	writeCommand
 831:RA8875.c      ****   writeData(y0); 
 2726              		.loc 1 831 0
 2727 0056 3B1D     		adds	r3, r7, #4
 2728 0058 1B88     		ldrh	r3, [r3]
 2729 005a DBB2     		uxtb	r3, r3
 2730 005c 1800     		movs	r0, r3
 2731 005e FFF7FEFF 		bl	writeData
 832:RA8875.c      ****   writeCommand(0x9c);	   
 2732              		.loc 1 832 0
 2733 0062 9C20     		movs	r0, #156
 2734 0064 FFF7FEFF 		bl	writeCommand
 833:RA8875.c      ****   writeData(y0 >> 8);
 2735              		.loc 1 833 0
 2736 0068 3B1D     		adds	r3, r7, #4
 2737 006a 0022     		movs	r2, #0
 2738 006c 9B5E     		ldrsh	r3, [r3, r2]
 2739 006e 1B12     		asrs	r3, r3, #8
 2740 0070 1BB2     		sxth	r3, r3
 2741 0072 DBB2     		uxtb	r3, r3
 2742 0074 1800     		movs	r0, r3
 2743 0076 FFF7FEFF 		bl	writeData
 834:RA8875.c      ****   
 835:RA8875.c      ****   /* Set Radius */
 836:RA8875.c      ****   writeCommand(0x9d);
 2744              		.loc 1 836 0
 2745 007a 9D20     		movs	r0, #157
 2746 007c FFF7FEFF 		bl	writeCommand
 837:RA8875.c      ****   writeData(r);  
 2747              		.loc 1 837 0
ARM GAS  C:\Users\megan\AppData\Local\Temp\ccD8G3YI.s 			page 64


 2748 0080 BB1C     		adds	r3, r7, #2
 2749 0082 1B88     		ldrh	r3, [r3]
 2750 0084 DBB2     		uxtb	r3, r3
 2751 0086 1800     		movs	r0, r3
 2752 0088 FFF7FEFF 		bl	writeData
 838:RA8875.c      ****   
 839:RA8875.c      ****   /* Set Color */
 840:RA8875.c      ****   writeCommand(0x63);
 2753              		.loc 1 840 0
 2754 008c 6320     		movs	r0, #99
 2755 008e FFF7FEFF 		bl	writeCommand
 841:RA8875.c      ****   writeData((color & 0xf800) >> 11);
 2756              		.loc 1 841 0
 2757 0092 3B00     		movs	r3, r7
 2758 0094 1B88     		ldrh	r3, [r3]
 2759 0096 DB0A     		lsrs	r3, r3, #11
 2760 0098 9BB2     		uxth	r3, r3
 2761 009a DBB2     		uxtb	r3, r3
 2762 009c 1800     		movs	r0, r3
 2763 009e FFF7FEFF 		bl	writeData
 842:RA8875.c      ****   writeCommand(0x64);
 2764              		.loc 1 842 0
 2765 00a2 6420     		movs	r0, #100
 2766 00a4 FFF7FEFF 		bl	writeCommand
 843:RA8875.c      ****   writeData((color & 0x07e0) >> 5);
 2767              		.loc 1 843 0
 2768 00a8 3B00     		movs	r3, r7
 2769 00aa 1B88     		ldrh	r3, [r3]
 2770 00ac 5B11     		asrs	r3, r3, #5
 2771 00ae DBB2     		uxtb	r3, r3
 2772 00b0 3F22     		movs	r2, #63
 2773 00b2 1340     		ands	r3, r2
 2774 00b4 DBB2     		uxtb	r3, r3
 2775 00b6 1800     		movs	r0, r3
 2776 00b8 FFF7FEFF 		bl	writeData
 844:RA8875.c      ****   writeCommand(0x65);
 2777              		.loc 1 844 0
 2778 00bc 6520     		movs	r0, #101
 2779 00be FFF7FEFF 		bl	writeCommand
 845:RA8875.c      ****   writeData((color & 0x001f));
 2780              		.loc 1 845 0
 2781 00c2 3B00     		movs	r3, r7
 2782 00c4 1B88     		ldrh	r3, [r3]
 2783 00c6 DBB2     		uxtb	r3, r3
 2784 00c8 1F22     		movs	r2, #31
 2785 00ca 1340     		ands	r3, r2
 2786 00cc DBB2     		uxtb	r3, r3
 2787 00ce 1800     		movs	r0, r3
 2788 00d0 FFF7FEFF 		bl	writeData
 846:RA8875.c      ****   
 847:RA8875.c      ****   /* Draw! */
 848:RA8875.c      ****   writeCommand(RA8875_DCR);
 2789              		.loc 1 848 0
 2790 00d4 9020     		movs	r0, #144
 2791 00d6 FFF7FEFF 		bl	writeCommand
 849:RA8875.c      ****   if (filled)
 2792              		.loc 1 849 0
ARM GAS  C:\Users\megan\AppData\Local\Temp\ccD8G3YI.s 			page 65


 2793 00da 1823     		movs	r3, #24
 2794 00dc FB18     		adds	r3, r7, r3
 2795 00de 1B78     		ldrb	r3, [r3]
 2796 00e0 002B     		cmp	r3, #0
 2797 00e2 03D0     		beq	.L73
 850:RA8875.c      ****   {
 851:RA8875.c      ****     writeData(RA8875_DCR_CIRCLE_START | RA8875_DCR_FILL);
 2798              		.loc 1 851 0
 2799 00e4 6020     		movs	r0, #96
 2800 00e6 FFF7FEFF 		bl	writeData
 2801 00ea 02E0     		b	.L74
 2802              	.L73:
 852:RA8875.c      ****   }
 853:RA8875.c      ****   else
 854:RA8875.c      ****   {
 855:RA8875.c      ****     writeData(RA8875_DCR_CIRCLE_START | RA8875_DCR_NOFILL);
 2803              		.loc 1 855 0
 2804 00ec 4020     		movs	r0, #64
 2805 00ee FFF7FEFF 		bl	writeData
 2806              	.L74:
 856:RA8875.c      ****   }
 857:RA8875.c      ****   
 858:RA8875.c      ****   /* Wait for the command to finish */
 859:RA8875.c      ****   waitPoll(RA8875_DCR, RA8875_DCR_CIRCLE_STATUS);
 2807              		.loc 1 859 0
 2808 00f2 4021     		movs	r1, #64
 2809 00f4 9020     		movs	r0, #144
 2810 00f6 FFF7FEFF 		bl	waitPoll
 860:RA8875.c      **** }
 2811              		.loc 1 860 0
 2812 00fa C046     		nop
 2813 00fc BD46     		mov	sp, r7
 2814 00fe 02B0     		add	sp, sp, #8
 2815              		@ sp needed
 2816 0100 B0BD     		pop	{r4, r5, r7, pc}
 2817              		.cfi_endproc
 2818              	.LFE67:
 2819              		.size	circleHelper, .-circleHelper
 2820 0102 C046     		.section	.text.rectHelper,"ax",%progbits
 2821              		.align	2
 2822              		.global	rectHelper
 2823              		.code	16
 2824              		.thumb_func
 2825              		.type	rectHelper, %function
 2826              	rectHelper:
 2827              	.LFB68:
 861:RA8875.c      **** 
 862:RA8875.c      **** /**************************************************************************/
 863:RA8875.c      **** /*!
 864:RA8875.c      ****       Helper function for higher level rectangle drawing code
 865:RA8875.c      **** */
 866:RA8875.c      **** /**************************************************************************/
 867:RA8875.c      **** void rectHelper(int16_t x, int16_t y, int16_t w, int16_t h, uint16_t color, bool filled)
 868:RA8875.c      **** {
 2828              		.loc 1 868 0
 2829              		.cfi_startproc
 2830              		@ args = 8, pretend = 0, frame = 8
ARM GAS  C:\Users\megan\AppData\Local\Temp\ccD8G3YI.s 			page 66


 2831              		@ frame_needed = 1, uses_anonymous_args = 0
 2832 0000 B0B5     		push	{r4, r5, r7, lr}
 2833              		.cfi_def_cfa_offset 16
 2834              		.cfi_offset 4, -16
 2835              		.cfi_offset 5, -12
 2836              		.cfi_offset 7, -8
 2837              		.cfi_offset 14, -4
 2838 0002 82B0     		sub	sp, sp, #8
 2839              		.cfi_def_cfa_offset 24
 2840 0004 00AF     		add	r7, sp, #0
 2841              		.cfi_def_cfa_register 7
 2842 0006 0500     		movs	r5, r0
 2843 0008 0C00     		movs	r4, r1
 2844 000a 1000     		movs	r0, r2
 2845 000c 1900     		movs	r1, r3
 2846 000e BB1D     		adds	r3, r7, #6
 2847 0010 2A1C     		adds	r2, r5, #0
 2848 0012 1A80     		strh	r2, [r3]
 2849 0014 3B1D     		adds	r3, r7, #4
 2850 0016 221C     		adds	r2, r4, #0
 2851 0018 1A80     		strh	r2, [r3]
 2852 001a BB1C     		adds	r3, r7, #2
 2853 001c 021C     		adds	r2, r0, #0
 2854 001e 1A80     		strh	r2, [r3]
 2855 0020 3B00     		movs	r3, r7
 2856 0022 0A1C     		adds	r2, r1, #0
 2857 0024 1A80     		strh	r2, [r3]
 869:RA8875.c      ****   /* Set X */
 870:RA8875.c      ****   writeCommand(0x91);
 2858              		.loc 1 870 0
 2859 0026 9120     		movs	r0, #145
 2860 0028 FFF7FEFF 		bl	writeCommand
 871:RA8875.c      ****   writeData(x);
 2861              		.loc 1 871 0
 2862 002c BB1D     		adds	r3, r7, #6
 2863 002e 1B88     		ldrh	r3, [r3]
 2864 0030 DBB2     		uxtb	r3, r3
 2865 0032 1800     		movs	r0, r3
 2866 0034 FFF7FEFF 		bl	writeData
 872:RA8875.c      ****   writeCommand(0x92);
 2867              		.loc 1 872 0
 2868 0038 9220     		movs	r0, #146
 2869 003a FFF7FEFF 		bl	writeCommand
 873:RA8875.c      ****   writeData(x >> 8);
 2870              		.loc 1 873 0
 2871 003e BB1D     		adds	r3, r7, #6
 2872 0040 0022     		movs	r2, #0
 2873 0042 9B5E     		ldrsh	r3, [r3, r2]
 2874 0044 1B12     		asrs	r3, r3, #8
 2875 0046 1BB2     		sxth	r3, r3
 2876 0048 DBB2     		uxtb	r3, r3
 2877 004a 1800     		movs	r0, r3
 2878 004c FFF7FEFF 		bl	writeData
 874:RA8875.c      ****   
 875:RA8875.c      ****   /* Set Y */
 876:RA8875.c      ****   writeCommand(0x93);
 2879              		.loc 1 876 0
ARM GAS  C:\Users\megan\AppData\Local\Temp\ccD8G3YI.s 			page 67


 2880 0050 9320     		movs	r0, #147
 2881 0052 FFF7FEFF 		bl	writeCommand
 877:RA8875.c      ****   writeData(y); 
 2882              		.loc 1 877 0
 2883 0056 3B1D     		adds	r3, r7, #4
 2884 0058 1B88     		ldrh	r3, [r3]
 2885 005a DBB2     		uxtb	r3, r3
 2886 005c 1800     		movs	r0, r3
 2887 005e FFF7FEFF 		bl	writeData
 878:RA8875.c      ****   writeCommand(0x94);	   
 2888              		.loc 1 878 0
 2889 0062 9420     		movs	r0, #148
 2890 0064 FFF7FEFF 		bl	writeCommand
 879:RA8875.c      ****   writeData(y >> 8);
 2891              		.loc 1 879 0
 2892 0068 3B1D     		adds	r3, r7, #4
 2893 006a 0022     		movs	r2, #0
 2894 006c 9B5E     		ldrsh	r3, [r3, r2]
 2895 006e 1B12     		asrs	r3, r3, #8
 2896 0070 1BB2     		sxth	r3, r3
 2897 0072 DBB2     		uxtb	r3, r3
 2898 0074 1800     		movs	r0, r3
 2899 0076 FFF7FEFF 		bl	writeData
 880:RA8875.c      ****   
 881:RA8875.c      ****   /* Set X1 */
 882:RA8875.c      ****   writeCommand(0x95);
 2900              		.loc 1 882 0
 2901 007a 9520     		movs	r0, #149
 2902 007c FFF7FEFF 		bl	writeCommand
 883:RA8875.c      ****   writeData(w);
 2903              		.loc 1 883 0
 2904 0080 BB1C     		adds	r3, r7, #2
 2905 0082 1B88     		ldrh	r3, [r3]
 2906 0084 DBB2     		uxtb	r3, r3
 2907 0086 1800     		movs	r0, r3
 2908 0088 FFF7FEFF 		bl	writeData
 884:RA8875.c      ****   writeCommand(0x96);
 2909              		.loc 1 884 0
 2910 008c 9620     		movs	r0, #150
 2911 008e FFF7FEFF 		bl	writeCommand
 885:RA8875.c      ****   writeData((w) >> 8);
 2912              		.loc 1 885 0
 2913 0092 BB1C     		adds	r3, r7, #2
 2914 0094 0022     		movs	r2, #0
 2915 0096 9B5E     		ldrsh	r3, [r3, r2]
 2916 0098 1B12     		asrs	r3, r3, #8
 2917 009a 1BB2     		sxth	r3, r3
 2918 009c DBB2     		uxtb	r3, r3
 2919 009e 1800     		movs	r0, r3
 2920 00a0 FFF7FEFF 		bl	writeData
 886:RA8875.c      ****   
 887:RA8875.c      ****   /* Set Y1 */
 888:RA8875.c      ****   writeCommand(0x97);
 2921              		.loc 1 888 0
 2922 00a4 9720     		movs	r0, #151
 2923 00a6 FFF7FEFF 		bl	writeCommand
 889:RA8875.c      ****   writeData(h); 
ARM GAS  C:\Users\megan\AppData\Local\Temp\ccD8G3YI.s 			page 68


 2924              		.loc 1 889 0
 2925 00aa 3B00     		movs	r3, r7
 2926 00ac 1B88     		ldrh	r3, [r3]
 2927 00ae DBB2     		uxtb	r3, r3
 2928 00b0 1800     		movs	r0, r3
 2929 00b2 FFF7FEFF 		bl	writeData
 890:RA8875.c      ****   writeCommand(0x98);
 2930              		.loc 1 890 0
 2931 00b6 9820     		movs	r0, #152
 2932 00b8 FFF7FEFF 		bl	writeCommand
 891:RA8875.c      ****   writeData((h) >> 8);
 2933              		.loc 1 891 0
 2934 00bc 3B00     		movs	r3, r7
 2935 00be 0022     		movs	r2, #0
 2936 00c0 9B5E     		ldrsh	r3, [r3, r2]
 2937 00c2 1B12     		asrs	r3, r3, #8
 2938 00c4 1BB2     		sxth	r3, r3
 2939 00c6 DBB2     		uxtb	r3, r3
 2940 00c8 1800     		movs	r0, r3
 2941 00ca FFF7FEFF 		bl	writeData
 892:RA8875.c      **** 
 893:RA8875.c      ****   /* Set Color */
 894:RA8875.c      ****   writeCommand(0x63);
 2942              		.loc 1 894 0
 2943 00ce 6320     		movs	r0, #99
 2944 00d0 FFF7FEFF 		bl	writeCommand
 895:RA8875.c      ****   writeData((color & 0xf800) >> 11);
 2945              		.loc 1 895 0
 2946 00d4 1823     		movs	r3, #24
 2947 00d6 FB18     		adds	r3, r7, r3
 2948 00d8 1B88     		ldrh	r3, [r3]
 2949 00da DB0A     		lsrs	r3, r3, #11
 2950 00dc 9BB2     		uxth	r3, r3
 2951 00de DBB2     		uxtb	r3, r3
 2952 00e0 1800     		movs	r0, r3
 2953 00e2 FFF7FEFF 		bl	writeData
 896:RA8875.c      ****   writeCommand(0x64);
 2954              		.loc 1 896 0
 2955 00e6 6420     		movs	r0, #100
 2956 00e8 FFF7FEFF 		bl	writeCommand
 897:RA8875.c      ****   writeData((color & 0x07e0) >> 5);
 2957              		.loc 1 897 0
 2958 00ec 1823     		movs	r3, #24
 2959 00ee FB18     		adds	r3, r7, r3
 2960 00f0 1B88     		ldrh	r3, [r3]
 2961 00f2 5B11     		asrs	r3, r3, #5
 2962 00f4 DBB2     		uxtb	r3, r3
 2963 00f6 3F22     		movs	r2, #63
 2964 00f8 1340     		ands	r3, r2
 2965 00fa DBB2     		uxtb	r3, r3
 2966 00fc 1800     		movs	r0, r3
 2967 00fe FFF7FEFF 		bl	writeData
 898:RA8875.c      ****   writeCommand(0x65);
 2968              		.loc 1 898 0
 2969 0102 6520     		movs	r0, #101
 2970 0104 FFF7FEFF 		bl	writeCommand
 899:RA8875.c      ****   writeData((color & 0x001f));
ARM GAS  C:\Users\megan\AppData\Local\Temp\ccD8G3YI.s 			page 69


 2971              		.loc 1 899 0
 2972 0108 1823     		movs	r3, #24
 2973 010a FB18     		adds	r3, r7, r3
 2974 010c 1B88     		ldrh	r3, [r3]
 2975 010e DBB2     		uxtb	r3, r3
 2976 0110 1F22     		movs	r2, #31
 2977 0112 1340     		ands	r3, r2
 2978 0114 DBB2     		uxtb	r3, r3
 2979 0116 1800     		movs	r0, r3
 2980 0118 FFF7FEFF 		bl	writeData
 900:RA8875.c      **** 
 901:RA8875.c      ****   /* Draw! */
 902:RA8875.c      ****   writeCommand(RA8875_DCR);
 2981              		.loc 1 902 0
 2982 011c 9020     		movs	r0, #144
 2983 011e FFF7FEFF 		bl	writeCommand
 903:RA8875.c      ****   if (filled)
 2984              		.loc 1 903 0
 2985 0122 1C23     		movs	r3, #28
 2986 0124 FB18     		adds	r3, r7, r3
 2987 0126 1B78     		ldrb	r3, [r3]
 2988 0128 002B     		cmp	r3, #0
 2989 012a 03D0     		beq	.L76
 904:RA8875.c      ****   {
 905:RA8875.c      ****     writeData(0xB0);
 2990              		.loc 1 905 0
 2991 012c B020     		movs	r0, #176
 2992 012e FFF7FEFF 		bl	writeData
 2993 0132 02E0     		b	.L77
 2994              	.L76:
 906:RA8875.c      ****   }
 907:RA8875.c      ****   else
 908:RA8875.c      ****   {
 909:RA8875.c      ****     writeData(0x90);
 2995              		.loc 1 909 0
 2996 0134 9020     		movs	r0, #144
 2997 0136 FFF7FEFF 		bl	writeData
 2998              	.L77:
 910:RA8875.c      ****   }
 911:RA8875.c      ****   
 912:RA8875.c      ****   /* Wait for the command to finish */
 913:RA8875.c      ****   waitPoll(RA8875_DCR, RA8875_DCR_LINESQUTRI_STATUS);
 2999              		.loc 1 913 0
 3000 013a 8021     		movs	r1, #128
 3001 013c 9020     		movs	r0, #144
 3002 013e FFF7FEFF 		bl	waitPoll
 914:RA8875.c      **** 
 915:RA8875.c      **** }
 3003              		.loc 1 915 0
 3004 0142 C046     		nop
 3005 0144 BD46     		mov	sp, r7
 3006 0146 02B0     		add	sp, sp, #8
 3007              		@ sp needed
 3008 0148 B0BD     		pop	{r4, r5, r7, pc}
 3009              		.cfi_endproc
 3010              	.LFE68:
 3011              		.size	rectHelper, .-rectHelper
ARM GAS  C:\Users\megan\AppData\Local\Temp\ccD8G3YI.s 			page 70


 3012 014a C046     		.section	.text.triangleHelper,"ax",%progbits
 3013              		.align	2
 3014              		.global	triangleHelper
 3015              		.code	16
 3016              		.thumb_func
 3017              		.type	triangleHelper, %function
 3018              	triangleHelper:
 3019              	.LFB69:
 916:RA8875.c      **** 
 917:RA8875.c      **** /**************************************************************************/
 918:RA8875.c      **** /*!
 919:RA8875.c      ****       Helper function for higher level triangle drawing code
 920:RA8875.c      **** */
 921:RA8875.c      **** /**************************************************************************/
 922:RA8875.c      **** void triangleHelper(int16_t x0, int16_t y0, int16_t x1, int16_t y1, int16_t x2, int16_t y2, uint16_
 923:RA8875.c      **** {
 3020              		.loc 1 923 0
 3021              		.cfi_startproc
 3022              		@ args = 16, pretend = 0, frame = 8
 3023              		@ frame_needed = 1, uses_anonymous_args = 0
 3024 0000 B0B5     		push	{r4, r5, r7, lr}
 3025              		.cfi_def_cfa_offset 16
 3026              		.cfi_offset 4, -16
 3027              		.cfi_offset 5, -12
 3028              		.cfi_offset 7, -8
 3029              		.cfi_offset 14, -4
 3030 0002 82B0     		sub	sp, sp, #8
 3031              		.cfi_def_cfa_offset 24
 3032 0004 00AF     		add	r7, sp, #0
 3033              		.cfi_def_cfa_register 7
 3034 0006 0500     		movs	r5, r0
 3035 0008 0C00     		movs	r4, r1
 3036 000a 1000     		movs	r0, r2
 3037 000c 1900     		movs	r1, r3
 3038 000e BB1D     		adds	r3, r7, #6
 3039 0010 2A1C     		adds	r2, r5, #0
 3040 0012 1A80     		strh	r2, [r3]
 3041 0014 3B1D     		adds	r3, r7, #4
 3042 0016 221C     		adds	r2, r4, #0
 3043 0018 1A80     		strh	r2, [r3]
 3044 001a BB1C     		adds	r3, r7, #2
 3045 001c 021C     		adds	r2, r0, #0
 3046 001e 1A80     		strh	r2, [r3]
 3047 0020 3B00     		movs	r3, r7
 3048 0022 0A1C     		adds	r2, r1, #0
 3049 0024 1A80     		strh	r2, [r3]
 924:RA8875.c      ****   /* Set Point 0 */
 925:RA8875.c      ****   writeCommand(0x91);
 3050              		.loc 1 925 0
 3051 0026 9120     		movs	r0, #145
 3052 0028 FFF7FEFF 		bl	writeCommand
 926:RA8875.c      ****   writeData(x0);
 3053              		.loc 1 926 0
 3054 002c BB1D     		adds	r3, r7, #6
 3055 002e 1B88     		ldrh	r3, [r3]
 3056 0030 DBB2     		uxtb	r3, r3
 3057 0032 1800     		movs	r0, r3
ARM GAS  C:\Users\megan\AppData\Local\Temp\ccD8G3YI.s 			page 71


 3058 0034 FFF7FEFF 		bl	writeData
 927:RA8875.c      ****   writeCommand(0x92);
 3059              		.loc 1 927 0
 3060 0038 9220     		movs	r0, #146
 3061 003a FFF7FEFF 		bl	writeCommand
 928:RA8875.c      ****   writeData(x0 >> 8);
 3062              		.loc 1 928 0
 3063 003e BB1D     		adds	r3, r7, #6
 3064 0040 0022     		movs	r2, #0
 3065 0042 9B5E     		ldrsh	r3, [r3, r2]
 3066 0044 1B12     		asrs	r3, r3, #8
 3067 0046 1BB2     		sxth	r3, r3
 3068 0048 DBB2     		uxtb	r3, r3
 3069 004a 1800     		movs	r0, r3
 3070 004c FFF7FEFF 		bl	writeData
 929:RA8875.c      ****   writeCommand(0x93);
 3071              		.loc 1 929 0
 3072 0050 9320     		movs	r0, #147
 3073 0052 FFF7FEFF 		bl	writeCommand
 930:RA8875.c      ****   writeData(y0); 
 3074              		.loc 1 930 0
 3075 0056 3B1D     		adds	r3, r7, #4
 3076 0058 1B88     		ldrh	r3, [r3]
 3077 005a DBB2     		uxtb	r3, r3
 3078 005c 1800     		movs	r0, r3
 3079 005e FFF7FEFF 		bl	writeData
 931:RA8875.c      ****   writeCommand(0x94);
 3080              		.loc 1 931 0
 3081 0062 9420     		movs	r0, #148
 3082 0064 FFF7FEFF 		bl	writeCommand
 932:RA8875.c      ****   writeData(y0 >> 8);
 3083              		.loc 1 932 0
 3084 0068 3B1D     		adds	r3, r7, #4
 3085 006a 0022     		movs	r2, #0
 3086 006c 9B5E     		ldrsh	r3, [r3, r2]
 3087 006e 1B12     		asrs	r3, r3, #8
 3088 0070 1BB2     		sxth	r3, r3
 3089 0072 DBB2     		uxtb	r3, r3
 3090 0074 1800     		movs	r0, r3
 3091 0076 FFF7FEFF 		bl	writeData
 933:RA8875.c      **** 
 934:RA8875.c      ****   /* Set Point 1 */
 935:RA8875.c      ****   writeCommand(0x95);
 3092              		.loc 1 935 0
 3093 007a 9520     		movs	r0, #149
 3094 007c FFF7FEFF 		bl	writeCommand
 936:RA8875.c      ****   writeData(x1);
 3095              		.loc 1 936 0
 3096 0080 BB1C     		adds	r3, r7, #2
 3097 0082 1B88     		ldrh	r3, [r3]
 3098 0084 DBB2     		uxtb	r3, r3
 3099 0086 1800     		movs	r0, r3
 3100 0088 FFF7FEFF 		bl	writeData
 937:RA8875.c      ****   writeCommand(0x96);
 3101              		.loc 1 937 0
 3102 008c 9620     		movs	r0, #150
 3103 008e FFF7FEFF 		bl	writeCommand
ARM GAS  C:\Users\megan\AppData\Local\Temp\ccD8G3YI.s 			page 72


 938:RA8875.c      ****   writeData(x1 >> 8);
 3104              		.loc 1 938 0
 3105 0092 BB1C     		adds	r3, r7, #2
 3106 0094 0022     		movs	r2, #0
 3107 0096 9B5E     		ldrsh	r3, [r3, r2]
 3108 0098 1B12     		asrs	r3, r3, #8
 3109 009a 1BB2     		sxth	r3, r3
 3110 009c DBB2     		uxtb	r3, r3
 3111 009e 1800     		movs	r0, r3
 3112 00a0 FFF7FEFF 		bl	writeData
 939:RA8875.c      ****   writeCommand(0x97);
 3113              		.loc 1 939 0
 3114 00a4 9720     		movs	r0, #151
 3115 00a6 FFF7FEFF 		bl	writeCommand
 940:RA8875.c      ****   writeData(y1); 
 3116              		.loc 1 940 0
 3117 00aa 3B00     		movs	r3, r7
 3118 00ac 1B88     		ldrh	r3, [r3]
 3119 00ae DBB2     		uxtb	r3, r3
 3120 00b0 1800     		movs	r0, r3
 3121 00b2 FFF7FEFF 		bl	writeData
 941:RA8875.c      ****   writeCommand(0x98);
 3122              		.loc 1 941 0
 3123 00b6 9820     		movs	r0, #152
 3124 00b8 FFF7FEFF 		bl	writeCommand
 942:RA8875.c      ****   writeData(y1 >> 8);
 3125              		.loc 1 942 0
 3126 00bc 3B00     		movs	r3, r7
 3127 00be 0022     		movs	r2, #0
 3128 00c0 9B5E     		ldrsh	r3, [r3, r2]
 3129 00c2 1B12     		asrs	r3, r3, #8
 3130 00c4 1BB2     		sxth	r3, r3
 3131 00c6 DBB2     		uxtb	r3, r3
 3132 00c8 1800     		movs	r0, r3
 3133 00ca FFF7FEFF 		bl	writeData
 943:RA8875.c      **** 
 944:RA8875.c      ****   /* Set Point 2 */
 945:RA8875.c      ****   writeCommand(0xA9);
 3134              		.loc 1 945 0
 3135 00ce A920     		movs	r0, #169
 3136 00d0 FFF7FEFF 		bl	writeCommand
 946:RA8875.c      ****   writeData(x2);
 3137              		.loc 1 946 0
 3138 00d4 1823     		movs	r3, #24
 3139 00d6 FB18     		adds	r3, r7, r3
 3140 00d8 1B88     		ldrh	r3, [r3]
 3141 00da DBB2     		uxtb	r3, r3
 3142 00dc 1800     		movs	r0, r3
 3143 00de FFF7FEFF 		bl	writeData
 947:RA8875.c      ****   writeCommand(0xAA);
 3144              		.loc 1 947 0
 3145 00e2 AA20     		movs	r0, #170
 3146 00e4 FFF7FEFF 		bl	writeCommand
 948:RA8875.c      ****   writeData(x2 >> 8);
 3147              		.loc 1 948 0
 3148 00e8 1823     		movs	r3, #24
 3149 00ea FB18     		adds	r3, r7, r3
ARM GAS  C:\Users\megan\AppData\Local\Temp\ccD8G3YI.s 			page 73


 3150 00ec 0022     		movs	r2, #0
 3151 00ee 9B5E     		ldrsh	r3, [r3, r2]
 3152 00f0 1B12     		asrs	r3, r3, #8
 3153 00f2 1BB2     		sxth	r3, r3
 3154 00f4 DBB2     		uxtb	r3, r3
 3155 00f6 1800     		movs	r0, r3
 3156 00f8 FFF7FEFF 		bl	writeData
 949:RA8875.c      ****   writeCommand(0xAB);
 3157              		.loc 1 949 0
 3158 00fc AB20     		movs	r0, #171
 3159 00fe FFF7FEFF 		bl	writeCommand
 950:RA8875.c      ****   writeData(y2); 
 3160              		.loc 1 950 0
 3161 0102 1C23     		movs	r3, #28
 3162 0104 FB18     		adds	r3, r7, r3
 3163 0106 1B88     		ldrh	r3, [r3]
 3164 0108 DBB2     		uxtb	r3, r3
 3165 010a 1800     		movs	r0, r3
 3166 010c FFF7FEFF 		bl	writeData
 951:RA8875.c      ****   writeCommand(0xAC);
 3167              		.loc 1 951 0
 3168 0110 AC20     		movs	r0, #172
 3169 0112 FFF7FEFF 		bl	writeCommand
 952:RA8875.c      ****   writeData(y2 >> 8);
 3170              		.loc 1 952 0
 3171 0116 1C23     		movs	r3, #28
 3172 0118 FB18     		adds	r3, r7, r3
 3173 011a 0022     		movs	r2, #0
 3174 011c 9B5E     		ldrsh	r3, [r3, r2]
 3175 011e 1B12     		asrs	r3, r3, #8
 3176 0120 1BB2     		sxth	r3, r3
 3177 0122 DBB2     		uxtb	r3, r3
 3178 0124 1800     		movs	r0, r3
 3179 0126 FFF7FEFF 		bl	writeData
 953:RA8875.c      ****   
 954:RA8875.c      ****   /* Set Color */
 955:RA8875.c      ****   writeCommand(0x63);
 3180              		.loc 1 955 0
 3181 012a 6320     		movs	r0, #99
 3182 012c FFF7FEFF 		bl	writeCommand
 956:RA8875.c      ****   writeData((color & 0xf800) >> 11);
 3183              		.loc 1 956 0
 3184 0130 2023     		movs	r3, #32
 3185 0132 FB18     		adds	r3, r7, r3
 3186 0134 1B88     		ldrh	r3, [r3]
 3187 0136 DB0A     		lsrs	r3, r3, #11
 3188 0138 9BB2     		uxth	r3, r3
 3189 013a DBB2     		uxtb	r3, r3
 3190 013c 1800     		movs	r0, r3
 3191 013e FFF7FEFF 		bl	writeData
 957:RA8875.c      ****   writeCommand(0x64);
 3192              		.loc 1 957 0
 3193 0142 6420     		movs	r0, #100
 3194 0144 FFF7FEFF 		bl	writeCommand
 958:RA8875.c      ****   writeData((color & 0x07e0) >> 5);
 3195              		.loc 1 958 0
 3196 0148 2023     		movs	r3, #32
ARM GAS  C:\Users\megan\AppData\Local\Temp\ccD8G3YI.s 			page 74


 3197 014a FB18     		adds	r3, r7, r3
 3198 014c 1B88     		ldrh	r3, [r3]
 3199 014e 5B11     		asrs	r3, r3, #5
 3200 0150 DBB2     		uxtb	r3, r3
 3201 0152 3F22     		movs	r2, #63
 3202 0154 1340     		ands	r3, r2
 3203 0156 DBB2     		uxtb	r3, r3
 3204 0158 1800     		movs	r0, r3
 3205 015a FFF7FEFF 		bl	writeData
 959:RA8875.c      ****   writeCommand(0x65);
 3206              		.loc 1 959 0
 3207 015e 6520     		movs	r0, #101
 3208 0160 FFF7FEFF 		bl	writeCommand
 960:RA8875.c      ****   writeData((color & 0x001f));
 3209              		.loc 1 960 0
 3210 0164 2023     		movs	r3, #32
 3211 0166 FB18     		adds	r3, r7, r3
 3212 0168 1B88     		ldrh	r3, [r3]
 3213 016a DBB2     		uxtb	r3, r3
 3214 016c 1F22     		movs	r2, #31
 3215 016e 1340     		ands	r3, r2
 3216 0170 DBB2     		uxtb	r3, r3
 3217 0172 1800     		movs	r0, r3
 3218 0174 FFF7FEFF 		bl	writeData
 961:RA8875.c      ****   
 962:RA8875.c      ****   /* Draw! */
 963:RA8875.c      ****   writeCommand(RA8875_DCR);
 3219              		.loc 1 963 0
 3220 0178 9020     		movs	r0, #144
 3221 017a FFF7FEFF 		bl	writeCommand
 964:RA8875.c      ****   if (filled)
 3222              		.loc 1 964 0
 3223 017e 2423     		movs	r3, #36
 3224 0180 FB18     		adds	r3, r7, r3
 3225 0182 1B78     		ldrb	r3, [r3]
 3226 0184 002B     		cmp	r3, #0
 3227 0186 03D0     		beq	.L79
 965:RA8875.c      ****   {
 966:RA8875.c      ****     writeData(0xA1);
 3228              		.loc 1 966 0
 3229 0188 A120     		movs	r0, #161
 3230 018a FFF7FEFF 		bl	writeData
 3231 018e 02E0     		b	.L80
 3232              	.L79:
 967:RA8875.c      ****   }
 968:RA8875.c      ****   else
 969:RA8875.c      ****   {
 970:RA8875.c      ****     writeData(0x81);
 3233              		.loc 1 970 0
 3234 0190 8120     		movs	r0, #129
 3235 0192 FFF7FEFF 		bl	writeData
 3236              	.L80:
 971:RA8875.c      ****   }
 972:RA8875.c      ****   
 973:RA8875.c      ****   /* Wait for the command to finish */
 974:RA8875.c      ****   waitPoll(RA8875_DCR, RA8875_DCR_LINESQUTRI_STATUS);
 3237              		.loc 1 974 0
ARM GAS  C:\Users\megan\AppData\Local\Temp\ccD8G3YI.s 			page 75


 3238 0196 8021     		movs	r1, #128
 3239 0198 9020     		movs	r0, #144
 3240 019a FFF7FEFF 		bl	waitPoll
 975:RA8875.c      **** }
 3241              		.loc 1 975 0
 3242 019e C046     		nop
 3243 01a0 BD46     		mov	sp, r7
 3244 01a2 02B0     		add	sp, sp, #8
 3245              		@ sp needed
 3246 01a4 B0BD     		pop	{r4, r5, r7, pc}
 3247              		.cfi_endproc
 3248              	.LFE69:
 3249              		.size	triangleHelper, .-triangleHelper
 3250 01a6 C046     		.section	.text.ellipseHelper,"ax",%progbits
 3251              		.align	2
 3252              		.global	ellipseHelper
 3253              		.code	16
 3254              		.thumb_func
 3255              		.type	ellipseHelper, %function
 3256              	ellipseHelper:
 3257              	.LFB70:
 976:RA8875.c      **** 
 977:RA8875.c      **** /**************************************************************************/
 978:RA8875.c      **** /*!
 979:RA8875.c      ****       Helper function for higher level ellipse drawing code
 980:RA8875.c      **** */
 981:RA8875.c      **** /**************************************************************************/
 982:RA8875.c      **** void ellipseHelper(int16_t xCenter, int16_t yCenter, int16_t longAxis, int16_t shortAxis, uint16_t 
 983:RA8875.c      **** {
 3258              		.loc 1 983 0
 3259              		.cfi_startproc
 3260              		@ args = 8, pretend = 0, frame = 8
 3261              		@ frame_needed = 1, uses_anonymous_args = 0
 3262 0000 B0B5     		push	{r4, r5, r7, lr}
 3263              		.cfi_def_cfa_offset 16
 3264              		.cfi_offset 4, -16
 3265              		.cfi_offset 5, -12
 3266              		.cfi_offset 7, -8
 3267              		.cfi_offset 14, -4
 3268 0002 82B0     		sub	sp, sp, #8
 3269              		.cfi_def_cfa_offset 24
 3270 0004 00AF     		add	r7, sp, #0
 3271              		.cfi_def_cfa_register 7
 3272 0006 0500     		movs	r5, r0
 3273 0008 0C00     		movs	r4, r1
 3274 000a 1000     		movs	r0, r2
 3275 000c 1900     		movs	r1, r3
 3276 000e BB1D     		adds	r3, r7, #6
 3277 0010 2A1C     		adds	r2, r5, #0
 3278 0012 1A80     		strh	r2, [r3]
 3279 0014 3B1D     		adds	r3, r7, #4
 3280 0016 221C     		adds	r2, r4, #0
 3281 0018 1A80     		strh	r2, [r3]
 3282 001a BB1C     		adds	r3, r7, #2
 3283 001c 021C     		adds	r2, r0, #0
 3284 001e 1A80     		strh	r2, [r3]
 3285 0020 3B00     		movs	r3, r7
ARM GAS  C:\Users\megan\AppData\Local\Temp\ccD8G3YI.s 			page 76


 3286 0022 0A1C     		adds	r2, r1, #0
 3287 0024 1A80     		strh	r2, [r3]
 984:RA8875.c      ****   /* Set Center Point */
 985:RA8875.c      ****   writeCommand(0xA5);
 3288              		.loc 1 985 0
 3289 0026 A520     		movs	r0, #165
 3290 0028 FFF7FEFF 		bl	writeCommand
 986:RA8875.c      ****   writeData(xCenter);
 3291              		.loc 1 986 0
 3292 002c BB1D     		adds	r3, r7, #6
 3293 002e 1B88     		ldrh	r3, [r3]
 3294 0030 DBB2     		uxtb	r3, r3
 3295 0032 1800     		movs	r0, r3
 3296 0034 FFF7FEFF 		bl	writeData
 987:RA8875.c      ****   writeCommand(0xA6);
 3297              		.loc 1 987 0
 3298 0038 A620     		movs	r0, #166
 3299 003a FFF7FEFF 		bl	writeCommand
 988:RA8875.c      ****   writeData(xCenter >> 8);
 3300              		.loc 1 988 0
 3301 003e BB1D     		adds	r3, r7, #6
 3302 0040 0022     		movs	r2, #0
 3303 0042 9B5E     		ldrsh	r3, [r3, r2]
 3304 0044 1B12     		asrs	r3, r3, #8
 3305 0046 1BB2     		sxth	r3, r3
 3306 0048 DBB2     		uxtb	r3, r3
 3307 004a 1800     		movs	r0, r3
 3308 004c FFF7FEFF 		bl	writeData
 989:RA8875.c      ****   writeCommand(0xA7);
 3309              		.loc 1 989 0
 3310 0050 A720     		movs	r0, #167
 3311 0052 FFF7FEFF 		bl	writeCommand
 990:RA8875.c      ****   writeData(yCenter); 
 3312              		.loc 1 990 0
 3313 0056 3B1D     		adds	r3, r7, #4
 3314 0058 1B88     		ldrh	r3, [r3]
 3315 005a DBB2     		uxtb	r3, r3
 3316 005c 1800     		movs	r0, r3
 3317 005e FFF7FEFF 		bl	writeData
 991:RA8875.c      ****   writeCommand(0xA8);
 3318              		.loc 1 991 0
 3319 0062 A820     		movs	r0, #168
 3320 0064 FFF7FEFF 		bl	writeCommand
 992:RA8875.c      ****   writeData(yCenter >> 8);
 3321              		.loc 1 992 0
 3322 0068 3B1D     		adds	r3, r7, #4
 3323 006a 0022     		movs	r2, #0
 3324 006c 9B5E     		ldrsh	r3, [r3, r2]
 3325 006e 1B12     		asrs	r3, r3, #8
 3326 0070 1BB2     		sxth	r3, r3
 3327 0072 DBB2     		uxtb	r3, r3
 3328 0074 1800     		movs	r0, r3
 3329 0076 FFF7FEFF 		bl	writeData
 993:RA8875.c      **** 
 994:RA8875.c      ****   /* Set Long and Short Axis */
 995:RA8875.c      ****   writeCommand(0xA1);
 3330              		.loc 1 995 0
ARM GAS  C:\Users\megan\AppData\Local\Temp\ccD8G3YI.s 			page 77


 3331 007a A120     		movs	r0, #161
 3332 007c FFF7FEFF 		bl	writeCommand
 996:RA8875.c      ****   writeData(longAxis);
 3333              		.loc 1 996 0
 3334 0080 BB1C     		adds	r3, r7, #2
 3335 0082 1B88     		ldrh	r3, [r3]
 3336 0084 DBB2     		uxtb	r3, r3
 3337 0086 1800     		movs	r0, r3
 3338 0088 FFF7FEFF 		bl	writeData
 997:RA8875.c      ****   writeCommand(0xA2);
 3339              		.loc 1 997 0
 3340 008c A220     		movs	r0, #162
 3341 008e FFF7FEFF 		bl	writeCommand
 998:RA8875.c      ****   writeData(longAxis >> 8);
 3342              		.loc 1 998 0
 3343 0092 BB1C     		adds	r3, r7, #2
 3344 0094 0022     		movs	r2, #0
 3345 0096 9B5E     		ldrsh	r3, [r3, r2]
 3346 0098 1B12     		asrs	r3, r3, #8
 3347 009a 1BB2     		sxth	r3, r3
 3348 009c DBB2     		uxtb	r3, r3
 3349 009e 1800     		movs	r0, r3
 3350 00a0 FFF7FEFF 		bl	writeData
 999:RA8875.c      ****   writeCommand(0xA3);
 3351              		.loc 1 999 0
 3352 00a4 A320     		movs	r0, #163
 3353 00a6 FFF7FEFF 		bl	writeCommand
1000:RA8875.c      ****   writeData(shortAxis); 
 3354              		.loc 1 1000 0
 3355 00aa 3B00     		movs	r3, r7
 3356 00ac 1B88     		ldrh	r3, [r3]
 3357 00ae DBB2     		uxtb	r3, r3
 3358 00b0 1800     		movs	r0, r3
 3359 00b2 FFF7FEFF 		bl	writeData
1001:RA8875.c      ****   writeCommand(0xA4);
 3360              		.loc 1 1001 0
 3361 00b6 A420     		movs	r0, #164
 3362 00b8 FFF7FEFF 		bl	writeCommand
1002:RA8875.c      ****   writeData(shortAxis >> 8);
 3363              		.loc 1 1002 0
 3364 00bc 3B00     		movs	r3, r7
 3365 00be 0022     		movs	r2, #0
 3366 00c0 9B5E     		ldrsh	r3, [r3, r2]
 3367 00c2 1B12     		asrs	r3, r3, #8
 3368 00c4 1BB2     		sxth	r3, r3
 3369 00c6 DBB2     		uxtb	r3, r3
 3370 00c8 1800     		movs	r0, r3
 3371 00ca FFF7FEFF 		bl	writeData
1003:RA8875.c      ****   
1004:RA8875.c      ****   /* Set Color */
1005:RA8875.c      ****   writeCommand(0x63);
 3372              		.loc 1 1005 0
 3373 00ce 6320     		movs	r0, #99
 3374 00d0 FFF7FEFF 		bl	writeCommand
1006:RA8875.c      ****   writeData((color & 0xf800) >> 11);
 3375              		.loc 1 1006 0
 3376 00d4 1823     		movs	r3, #24
ARM GAS  C:\Users\megan\AppData\Local\Temp\ccD8G3YI.s 			page 78


 3377 00d6 FB18     		adds	r3, r7, r3
 3378 00d8 1B88     		ldrh	r3, [r3]
 3379 00da DB0A     		lsrs	r3, r3, #11
 3380 00dc 9BB2     		uxth	r3, r3
 3381 00de DBB2     		uxtb	r3, r3
 3382 00e0 1800     		movs	r0, r3
 3383 00e2 FFF7FEFF 		bl	writeData
1007:RA8875.c      ****   writeCommand(0x64);
 3384              		.loc 1 1007 0
 3385 00e6 6420     		movs	r0, #100
 3386 00e8 FFF7FEFF 		bl	writeCommand
1008:RA8875.c      ****   writeData((color & 0x07e0) >> 5);
 3387              		.loc 1 1008 0
 3388 00ec 1823     		movs	r3, #24
 3389 00ee FB18     		adds	r3, r7, r3
 3390 00f0 1B88     		ldrh	r3, [r3]
 3391 00f2 5B11     		asrs	r3, r3, #5
 3392 00f4 DBB2     		uxtb	r3, r3
 3393 00f6 3F22     		movs	r2, #63
 3394 00f8 1340     		ands	r3, r2
 3395 00fa DBB2     		uxtb	r3, r3
 3396 00fc 1800     		movs	r0, r3
 3397 00fe FFF7FEFF 		bl	writeData
1009:RA8875.c      ****   writeCommand(0x65);
 3398              		.loc 1 1009 0
 3399 0102 6520     		movs	r0, #101
 3400 0104 FFF7FEFF 		bl	writeCommand
1010:RA8875.c      ****   writeData((color & 0x001f));
 3401              		.loc 1 1010 0
 3402 0108 1823     		movs	r3, #24
 3403 010a FB18     		adds	r3, r7, r3
 3404 010c 1B88     		ldrh	r3, [r3]
 3405 010e DBB2     		uxtb	r3, r3
 3406 0110 1F22     		movs	r2, #31
 3407 0112 1340     		ands	r3, r2
 3408 0114 DBB2     		uxtb	r3, r3
 3409 0116 1800     		movs	r0, r3
 3410 0118 FFF7FEFF 		bl	writeData
1011:RA8875.c      ****   
1012:RA8875.c      ****   /* Draw! */
1013:RA8875.c      ****   writeCommand(0xA0);
 3411              		.loc 1 1013 0
 3412 011c A020     		movs	r0, #160
 3413 011e FFF7FEFF 		bl	writeCommand
1014:RA8875.c      ****   if (filled)
 3414              		.loc 1 1014 0
 3415 0122 1C23     		movs	r3, #28
 3416 0124 FB18     		adds	r3, r7, r3
 3417 0126 1B78     		ldrb	r3, [r3]
 3418 0128 002B     		cmp	r3, #0
 3419 012a 03D0     		beq	.L82
1015:RA8875.c      ****   {
1016:RA8875.c      ****     writeData(0xC0);
 3420              		.loc 1 1016 0
 3421 012c C020     		movs	r0, #192
 3422 012e FFF7FEFF 		bl	writeData
 3423 0132 02E0     		b	.L83
ARM GAS  C:\Users\megan\AppData\Local\Temp\ccD8G3YI.s 			page 79


 3424              	.L82:
1017:RA8875.c      ****   }
1018:RA8875.c      ****   else
1019:RA8875.c      ****   {
1020:RA8875.c      ****     writeData(0x80);
 3425              		.loc 1 1020 0
 3426 0134 8020     		movs	r0, #128
 3427 0136 FFF7FEFF 		bl	writeData
 3428              	.L83:
1021:RA8875.c      ****   }
1022:RA8875.c      ****   
1023:RA8875.c      ****   /* Wait for the command to finish */
1024:RA8875.c      ****   waitPoll(RA8875_ELLIPSE, RA8875_ELLIPSE_STATUS);
 3429              		.loc 1 1024 0
 3430 013a 8021     		movs	r1, #128
 3431 013c A020     		movs	r0, #160
 3432 013e FFF7FEFF 		bl	waitPoll
1025:RA8875.c      **** }
 3433              		.loc 1 1025 0
 3434 0142 C046     		nop
 3435 0144 BD46     		mov	sp, r7
 3436 0146 02B0     		add	sp, sp, #8
 3437              		@ sp needed
 3438 0148 B0BD     		pop	{r4, r5, r7, pc}
 3439              		.cfi_endproc
 3440              	.LFE70:
 3441              		.size	ellipseHelper, .-ellipseHelper
 3442 014a C046     		.section	.text.curveHelper,"ax",%progbits
 3443              		.align	2
 3444              		.global	curveHelper
 3445              		.code	16
 3446              		.thumb_func
 3447              		.type	curveHelper, %function
 3448              	curveHelper:
 3449              	.LFB71:
1026:RA8875.c      **** 
1027:RA8875.c      **** /**************************************************************************/
1028:RA8875.c      **** /*!
1029:RA8875.c      ****       Helper function for higher level curve drawing code
1030:RA8875.c      **** */
1031:RA8875.c      **** /**************************************************************************/
1032:RA8875.c      **** void curveHelper(int16_t xCenter, int16_t yCenter, int16_t longAxis, int16_t shortAxis, uint8_t cur
1033:RA8875.c      **** {
 3450              		.loc 1 1033 0
 3451              		.cfi_startproc
 3452              		@ args = 12, pretend = 0, frame = 8
 3453              		@ frame_needed = 1, uses_anonymous_args = 0
 3454 0000 B0B5     		push	{r4, r5, r7, lr}
 3455              		.cfi_def_cfa_offset 16
 3456              		.cfi_offset 4, -16
 3457              		.cfi_offset 5, -12
 3458              		.cfi_offset 7, -8
 3459              		.cfi_offset 14, -4
 3460 0002 82B0     		sub	sp, sp, #8
 3461              		.cfi_def_cfa_offset 24
 3462 0004 00AF     		add	r7, sp, #0
 3463              		.cfi_def_cfa_register 7
ARM GAS  C:\Users\megan\AppData\Local\Temp\ccD8G3YI.s 			page 80


 3464 0006 0500     		movs	r5, r0
 3465 0008 0C00     		movs	r4, r1
 3466 000a 1000     		movs	r0, r2
 3467 000c 1900     		movs	r1, r3
 3468 000e BB1D     		adds	r3, r7, #6
 3469 0010 2A1C     		adds	r2, r5, #0
 3470 0012 1A80     		strh	r2, [r3]
 3471 0014 3B1D     		adds	r3, r7, #4
 3472 0016 221C     		adds	r2, r4, #0
 3473 0018 1A80     		strh	r2, [r3]
 3474 001a BB1C     		adds	r3, r7, #2
 3475 001c 021C     		adds	r2, r0, #0
 3476 001e 1A80     		strh	r2, [r3]
 3477 0020 3B00     		movs	r3, r7
 3478 0022 0A1C     		adds	r2, r1, #0
 3479 0024 1A80     		strh	r2, [r3]
1034:RA8875.c      ****   /* Set Center Point */
1035:RA8875.c      ****   writeCommand(0xA5);
 3480              		.loc 1 1035 0
 3481 0026 A520     		movs	r0, #165
 3482 0028 FFF7FEFF 		bl	writeCommand
1036:RA8875.c      ****   writeData(xCenter);
 3483              		.loc 1 1036 0
 3484 002c BB1D     		adds	r3, r7, #6
 3485 002e 1B88     		ldrh	r3, [r3]
 3486 0030 DBB2     		uxtb	r3, r3
 3487 0032 1800     		movs	r0, r3
 3488 0034 FFF7FEFF 		bl	writeData
1037:RA8875.c      ****   writeCommand(0xA6);
 3489              		.loc 1 1037 0
 3490 0038 A620     		movs	r0, #166
 3491 003a FFF7FEFF 		bl	writeCommand
1038:RA8875.c      ****   writeData(xCenter >> 8);
 3492              		.loc 1 1038 0
 3493 003e BB1D     		adds	r3, r7, #6
 3494 0040 0022     		movs	r2, #0
 3495 0042 9B5E     		ldrsh	r3, [r3, r2]
 3496 0044 1B12     		asrs	r3, r3, #8
 3497 0046 1BB2     		sxth	r3, r3
 3498 0048 DBB2     		uxtb	r3, r3
 3499 004a 1800     		movs	r0, r3
 3500 004c FFF7FEFF 		bl	writeData
1039:RA8875.c      ****   writeCommand(0xA7);
 3501              		.loc 1 1039 0
 3502 0050 A720     		movs	r0, #167
 3503 0052 FFF7FEFF 		bl	writeCommand
1040:RA8875.c      ****   writeData(yCenter); 
 3504              		.loc 1 1040 0
 3505 0056 3B1D     		adds	r3, r7, #4
 3506 0058 1B88     		ldrh	r3, [r3]
 3507 005a DBB2     		uxtb	r3, r3
 3508 005c 1800     		movs	r0, r3
 3509 005e FFF7FEFF 		bl	writeData
1041:RA8875.c      ****   writeCommand(0xA8);
 3510              		.loc 1 1041 0
 3511 0062 A820     		movs	r0, #168
 3512 0064 FFF7FEFF 		bl	writeCommand
ARM GAS  C:\Users\megan\AppData\Local\Temp\ccD8G3YI.s 			page 81


1042:RA8875.c      ****   writeData(yCenter >> 8);
 3513              		.loc 1 1042 0
 3514 0068 3B1D     		adds	r3, r7, #4
 3515 006a 0022     		movs	r2, #0
 3516 006c 9B5E     		ldrsh	r3, [r3, r2]
 3517 006e 1B12     		asrs	r3, r3, #8
 3518 0070 1BB2     		sxth	r3, r3
 3519 0072 DBB2     		uxtb	r3, r3
 3520 0074 1800     		movs	r0, r3
 3521 0076 FFF7FEFF 		bl	writeData
1043:RA8875.c      **** 
1044:RA8875.c      ****   /* Set Long and Short Axis */
1045:RA8875.c      ****   writeCommand(0xA1);
 3522              		.loc 1 1045 0
 3523 007a A120     		movs	r0, #161
 3524 007c FFF7FEFF 		bl	writeCommand
1046:RA8875.c      ****   writeData(longAxis);
 3525              		.loc 1 1046 0
 3526 0080 BB1C     		adds	r3, r7, #2
 3527 0082 1B88     		ldrh	r3, [r3]
 3528 0084 DBB2     		uxtb	r3, r3
 3529 0086 1800     		movs	r0, r3
 3530 0088 FFF7FEFF 		bl	writeData
1047:RA8875.c      ****   writeCommand(0xA2);
 3531              		.loc 1 1047 0
 3532 008c A220     		movs	r0, #162
 3533 008e FFF7FEFF 		bl	writeCommand
1048:RA8875.c      ****   writeData(longAxis >> 8);
 3534              		.loc 1 1048 0
 3535 0092 BB1C     		adds	r3, r7, #2
 3536 0094 0022     		movs	r2, #0
 3537 0096 9B5E     		ldrsh	r3, [r3, r2]
 3538 0098 1B12     		asrs	r3, r3, #8
 3539 009a 1BB2     		sxth	r3, r3
 3540 009c DBB2     		uxtb	r3, r3
 3541 009e 1800     		movs	r0, r3
 3542 00a0 FFF7FEFF 		bl	writeData
1049:RA8875.c      ****   writeCommand(0xA3);
 3543              		.loc 1 1049 0
 3544 00a4 A320     		movs	r0, #163
 3545 00a6 FFF7FEFF 		bl	writeCommand
1050:RA8875.c      ****   writeData(shortAxis); 
 3546              		.loc 1 1050 0
 3547 00aa 3B00     		movs	r3, r7
 3548 00ac 1B88     		ldrh	r3, [r3]
 3549 00ae DBB2     		uxtb	r3, r3
 3550 00b0 1800     		movs	r0, r3
 3551 00b2 FFF7FEFF 		bl	writeData
1051:RA8875.c      ****   writeCommand(0xA4);
 3552              		.loc 1 1051 0
 3553 00b6 A420     		movs	r0, #164
 3554 00b8 FFF7FEFF 		bl	writeCommand
1052:RA8875.c      ****   writeData(shortAxis >> 8);
 3555              		.loc 1 1052 0
 3556 00bc 3B00     		movs	r3, r7
 3557 00be 0022     		movs	r2, #0
 3558 00c0 9B5E     		ldrsh	r3, [r3, r2]
ARM GAS  C:\Users\megan\AppData\Local\Temp\ccD8G3YI.s 			page 82


 3559 00c2 1B12     		asrs	r3, r3, #8
 3560 00c4 1BB2     		sxth	r3, r3
 3561 00c6 DBB2     		uxtb	r3, r3
 3562 00c8 1800     		movs	r0, r3
 3563 00ca FFF7FEFF 		bl	writeData
1053:RA8875.c      ****   
1054:RA8875.c      ****   /* Set Color */
1055:RA8875.c      ****   writeCommand(0x63);
 3564              		.loc 1 1055 0
 3565 00ce 6320     		movs	r0, #99
 3566 00d0 FFF7FEFF 		bl	writeCommand
1056:RA8875.c      ****   writeData((color & 0xf800) >> 11);
 3567              		.loc 1 1056 0
 3568 00d4 1C23     		movs	r3, #28
 3569 00d6 FB18     		adds	r3, r7, r3
 3570 00d8 1B88     		ldrh	r3, [r3]
 3571 00da DB0A     		lsrs	r3, r3, #11
 3572 00dc 9BB2     		uxth	r3, r3
 3573 00de DBB2     		uxtb	r3, r3
 3574 00e0 1800     		movs	r0, r3
 3575 00e2 FFF7FEFF 		bl	writeData
1057:RA8875.c      ****   writeCommand(0x64);
 3576              		.loc 1 1057 0
 3577 00e6 6420     		movs	r0, #100
 3578 00e8 FFF7FEFF 		bl	writeCommand
1058:RA8875.c      ****   writeData((color & 0x07e0) >> 5);
 3579              		.loc 1 1058 0
 3580 00ec 1C23     		movs	r3, #28
 3581 00ee FB18     		adds	r3, r7, r3
 3582 00f0 1B88     		ldrh	r3, [r3]
 3583 00f2 5B11     		asrs	r3, r3, #5
 3584 00f4 DBB2     		uxtb	r3, r3
 3585 00f6 3F22     		movs	r2, #63
 3586 00f8 1340     		ands	r3, r2
 3587 00fa DBB2     		uxtb	r3, r3
 3588 00fc 1800     		movs	r0, r3
 3589 00fe FFF7FEFF 		bl	writeData
1059:RA8875.c      ****   writeCommand(0x65);
 3590              		.loc 1 1059 0
 3591 0102 6520     		movs	r0, #101
 3592 0104 FFF7FEFF 		bl	writeCommand
1060:RA8875.c      ****   writeData((color & 0x001f));
 3593              		.loc 1 1060 0
 3594 0108 1C23     		movs	r3, #28
 3595 010a FB18     		adds	r3, r7, r3
 3596 010c 1B88     		ldrh	r3, [r3]
 3597 010e DBB2     		uxtb	r3, r3
 3598 0110 1F22     		movs	r2, #31
 3599 0112 1340     		ands	r3, r2
 3600 0114 DBB2     		uxtb	r3, r3
 3601 0116 1800     		movs	r0, r3
 3602 0118 FFF7FEFF 		bl	writeData
1061:RA8875.c      **** 
1062:RA8875.c      ****   /* Draw! */
1063:RA8875.c      ****   writeCommand(0xA0);
 3603              		.loc 1 1063 0
 3604 011c A020     		movs	r0, #160
ARM GAS  C:\Users\megan\AppData\Local\Temp\ccD8G3YI.s 			page 83


 3605 011e FFF7FEFF 		bl	writeCommand
1064:RA8875.c      ****   if (filled)
 3606              		.loc 1 1064 0
 3607 0122 2023     		movs	r3, #32
 3608 0124 FB18     		adds	r3, r7, r3
 3609 0126 1B78     		ldrb	r3, [r3]
 3610 0128 002B     		cmp	r3, #0
 3611 012a 0FD0     		beq	.L85
1065:RA8875.c      ****   {
1066:RA8875.c      ****     writeData(0xD0 | (curvePart & 0x03));
 3612              		.loc 1 1066 0
 3613 012c 1823     		movs	r3, #24
 3614 012e FB18     		adds	r3, r7, r3
 3615 0130 1B78     		ldrb	r3, [r3]
 3616 0132 5BB2     		sxtb	r3, r3
 3617 0134 0322     		movs	r2, #3
 3618 0136 1340     		ands	r3, r2
 3619 0138 5BB2     		sxtb	r3, r3
 3620 013a 3022     		movs	r2, #48
 3621 013c 5242     		rsbs	r2, r2, #0
 3622 013e 1343     		orrs	r3, r2
 3623 0140 5BB2     		sxtb	r3, r3
 3624 0142 DBB2     		uxtb	r3, r3
 3625 0144 1800     		movs	r0, r3
 3626 0146 FFF7FEFF 		bl	writeData
 3627 014a 0EE0     		b	.L86
 3628              	.L85:
1067:RA8875.c      ****   }
1068:RA8875.c      ****   else
1069:RA8875.c      ****   {
1070:RA8875.c      ****     writeData(0x90 | (curvePart & 0x03));
 3629              		.loc 1 1070 0
 3630 014c 1823     		movs	r3, #24
 3631 014e FB18     		adds	r3, r7, r3
 3632 0150 1B78     		ldrb	r3, [r3]
 3633 0152 5BB2     		sxtb	r3, r3
 3634 0154 0322     		movs	r2, #3
 3635 0156 1340     		ands	r3, r2
 3636 0158 5BB2     		sxtb	r3, r3
 3637 015a 7022     		movs	r2, #112
 3638 015c 5242     		rsbs	r2, r2, #0
 3639 015e 1343     		orrs	r3, r2
 3640 0160 5BB2     		sxtb	r3, r3
 3641 0162 DBB2     		uxtb	r3, r3
 3642 0164 1800     		movs	r0, r3
 3643 0166 FFF7FEFF 		bl	writeData
 3644              	.L86:
1071:RA8875.c      ****   }
1072:RA8875.c      ****   
1073:RA8875.c      ****   /* Wait for the command to finish */
1074:RA8875.c      ****   waitPoll(RA8875_ELLIPSE, RA8875_ELLIPSE_STATUS);
 3645              		.loc 1 1074 0
 3646 016a 8021     		movs	r1, #128
 3647 016c A020     		movs	r0, #160
 3648 016e FFF7FEFF 		bl	waitPoll
1075:RA8875.c      **** }
 3649              		.loc 1 1075 0
ARM GAS  C:\Users\megan\AppData\Local\Temp\ccD8G3YI.s 			page 84


 3650 0172 C046     		nop
 3651 0174 BD46     		mov	sp, r7
 3652 0176 02B0     		add	sp, sp, #8
 3653              		@ sp needed
 3654 0178 B0BD     		pop	{r4, r5, r7, pc}
 3655              		.cfi_endproc
 3656              	.LFE71:
 3657              		.size	curveHelper, .-curveHelper
 3658 017a C046     		.section	.text.GPIOX,"ax",%progbits
 3659              		.align	2
 3660              		.global	GPIOX
 3661              		.code	16
 3662              		.thumb_func
 3663              		.type	GPIOX, %function
 3664              	GPIOX:
 3665              	.LFB72:
1076:RA8875.c      **** 
1077:RA8875.c      **** /************************* Mid Level ***********************************/
1078:RA8875.c      **** 
1079:RA8875.c      **** /**************************************************************************/
1080:RA8875.c      **** /*!
1081:RA8875.c      **** 
1082:RA8875.c      **** */
1083:RA8875.c      **** /**************************************************************************/
1084:RA8875.c      **** void GPIOX(boolean on) {
 3666              		.loc 1 1084 0
 3667              		.cfi_startproc
 3668              		@ args = 0, pretend = 0, frame = 8
 3669              		@ frame_needed = 1, uses_anonymous_args = 0
 3670 0000 80B5     		push	{r7, lr}
 3671              		.cfi_def_cfa_offset 8
 3672              		.cfi_offset 7, -8
 3673              		.cfi_offset 14, -4
 3674 0002 82B0     		sub	sp, sp, #8
 3675              		.cfi_def_cfa_offset 16
 3676 0004 00AF     		add	r7, sp, #0
 3677              		.cfi_def_cfa_register 7
 3678 0006 0200     		movs	r2, r0
 3679 0008 FB1D     		adds	r3, r7, #7
 3680 000a 1A70     		strb	r2, [r3]
1085:RA8875.c      **** //  uint8 x;
1086:RA8875.c      ****     
1087:RA8875.c      ****   if (on) {
 3681              		.loc 1 1087 0
 3682 000c FB1D     		adds	r3, r7, #7
 3683 000e 1B78     		ldrb	r3, [r3]
 3684 0010 002B     		cmp	r3, #0
 3685 0012 04D0     		beq	.L88
1088:RA8875.c      **** //    x = readReg(RA8875_GPIOX);
1089:RA8875.c      ****     writeReg(RA8875_GPIOX, 1);
 3686              		.loc 1 1089 0
 3687 0014 0121     		movs	r1, #1
 3688 0016 C720     		movs	r0, #199
 3689 0018 FFF7FEFF 		bl	writeReg
1090:RA8875.c      **** //    CyDelay(5);
1091:RA8875.c      **** //    x = readReg(RA8875_GPIOX);
1092:RA8875.c      ****     }
ARM GAS  C:\Users\megan\AppData\Local\Temp\ccD8G3YI.s 			page 85


1093:RA8875.c      ****   else 
1094:RA8875.c      ****     writeReg(RA8875_GPIOX, 0);
1095:RA8875.c      **** }
 3690              		.loc 1 1095 0
 3691 001c 03E0     		b	.L90
 3692              	.L88:
1094:RA8875.c      **** }
 3693              		.loc 1 1094 0
 3694 001e 0021     		movs	r1, #0
 3695 0020 C720     		movs	r0, #199
 3696 0022 FFF7FEFF 		bl	writeReg
 3697              	.L90:
 3698              		.loc 1 1095 0
 3699 0026 C046     		nop
 3700 0028 BD46     		mov	sp, r7
 3701 002a 02B0     		add	sp, sp, #8
 3702              		@ sp needed
 3703 002c 80BD     		pop	{r7, pc}
 3704              		.cfi_endproc
 3705              	.LFE72:
 3706              		.size	GPIOX, .-GPIOX
 3707 002e C046     		.section	.text.PWM1out,"ax",%progbits
 3708              		.align	2
 3709              		.global	PWM1out
 3710              		.code	16
 3711              		.thumb_func
 3712              		.type	PWM1out, %function
 3713              	PWM1out:
 3714              	.LFB73:
1096:RA8875.c      **** 
1097:RA8875.c      **** /**************************************************************************/
1098:RA8875.c      **** /*!
1099:RA8875.c      **** 
1100:RA8875.c      **** */
1101:RA8875.c      **** /**************************************************************************/
1102:RA8875.c      **** void PWM1out(uint8_t p) {
 3715              		.loc 1 1102 0
 3716              		.cfi_startproc
 3717              		@ args = 0, pretend = 0, frame = 8
 3718              		@ frame_needed = 1, uses_anonymous_args = 0
 3719 0000 80B5     		push	{r7, lr}
 3720              		.cfi_def_cfa_offset 8
 3721              		.cfi_offset 7, -8
 3722              		.cfi_offset 14, -4
 3723 0002 82B0     		sub	sp, sp, #8
 3724              		.cfi_def_cfa_offset 16
 3725 0004 00AF     		add	r7, sp, #0
 3726              		.cfi_def_cfa_register 7
 3727 0006 0200     		movs	r2, r0
 3728 0008 FB1D     		adds	r3, r7, #7
 3729 000a 1A70     		strb	r2, [r3]
1103:RA8875.c      **** //    uint8 x;
1104:RA8875.c      **** //    readReg(RA8875_P1DCR);
1105:RA8875.c      ****   writeReg(RA8875_P1DCR, p);
 3730              		.loc 1 1105 0
 3731 000c FB1D     		adds	r3, r7, #7
 3732 000e 1B78     		ldrb	r3, [r3]
ARM GAS  C:\Users\megan\AppData\Local\Temp\ccD8G3YI.s 			page 86


 3733 0010 1900     		movs	r1, r3
 3734 0012 8B20     		movs	r0, #139
 3735 0014 FFF7FEFF 		bl	writeReg
1106:RA8875.c      **** //    CyDelay(1000);
1107:RA8875.c      **** //    readReg(RA8875_P1DCR);
1108:RA8875.c      **** }
 3736              		.loc 1 1108 0
 3737 0018 C046     		nop
 3738 001a BD46     		mov	sp, r7
 3739 001c 02B0     		add	sp, sp, #8
 3740              		@ sp needed
 3741 001e 80BD     		pop	{r7, pc}
 3742              		.cfi_endproc
 3743              	.LFE73:
 3744              		.size	PWM1out, .-PWM1out
 3745              		.section	.text.PWM2out,"ax",%progbits
 3746              		.align	2
 3747              		.global	PWM2out
 3748              		.code	16
 3749              		.thumb_func
 3750              		.type	PWM2out, %function
 3751              	PWM2out:
 3752              	.LFB74:
1109:RA8875.c      **** 
1110:RA8875.c      **** /**************************************************************************/
1111:RA8875.c      **** /*!
1112:RA8875.c      **** 
1113:RA8875.c      **** */
1114:RA8875.c      **** /**************************************************************************/
1115:RA8875.c      **** void PWM2out(uint8_t p) {
 3753              		.loc 1 1115 0
 3754              		.cfi_startproc
 3755              		@ args = 0, pretend = 0, frame = 8
 3756              		@ frame_needed = 1, uses_anonymous_args = 0
 3757 0000 80B5     		push	{r7, lr}
 3758              		.cfi_def_cfa_offset 8
 3759              		.cfi_offset 7, -8
 3760              		.cfi_offset 14, -4
 3761 0002 82B0     		sub	sp, sp, #8
 3762              		.cfi_def_cfa_offset 16
 3763 0004 00AF     		add	r7, sp, #0
 3764              		.cfi_def_cfa_register 7
 3765 0006 0200     		movs	r2, r0
 3766 0008 FB1D     		adds	r3, r7, #7
 3767 000a 1A70     		strb	r2, [r3]
1116:RA8875.c      ****   writeReg(RA8875_P2DCR, p);
 3768              		.loc 1 1116 0
 3769 000c FB1D     		adds	r3, r7, #7
 3770 000e 1B78     		ldrb	r3, [r3]
 3771 0010 1900     		movs	r1, r3
 3772 0012 8D20     		movs	r0, #141
 3773 0014 FFF7FEFF 		bl	writeReg
1117:RA8875.c      **** }
 3774              		.loc 1 1117 0
 3775 0018 C046     		nop
 3776 001a BD46     		mov	sp, r7
 3777 001c 02B0     		add	sp, sp, #8
ARM GAS  C:\Users\megan\AppData\Local\Temp\ccD8G3YI.s 			page 87


 3778              		@ sp needed
 3779 001e 80BD     		pop	{r7, pc}
 3780              		.cfi_endproc
 3781              	.LFE74:
 3782              		.size	PWM2out, .-PWM2out
 3783              		.section	.text.PWM1config,"ax",%progbits
 3784              		.align	2
 3785              		.global	PWM1config
 3786              		.code	16
 3787              		.thumb_func
 3788              		.type	PWM1config, %function
 3789              	PWM1config:
 3790              	.LFB75:
1118:RA8875.c      **** 
1119:RA8875.c      **** /**************************************************************************/
1120:RA8875.c      **** /*!
1121:RA8875.c      **** 
1122:RA8875.c      **** */
1123:RA8875.c      **** /**************************************************************************/
1124:RA8875.c      **** void PWM1config(boolean on, uint8_t clock) {
 3791              		.loc 1 1124 0
 3792              		.cfi_startproc
 3793              		@ args = 0, pretend = 0, frame = 8
 3794              		@ frame_needed = 1, uses_anonymous_args = 0
 3795 0000 80B5     		push	{r7, lr}
 3796              		.cfi_def_cfa_offset 8
 3797              		.cfi_offset 7, -8
 3798              		.cfi_offset 14, -4
 3799 0002 82B0     		sub	sp, sp, #8
 3800              		.cfi_def_cfa_offset 16
 3801 0004 00AF     		add	r7, sp, #0
 3802              		.cfi_def_cfa_register 7
 3803 0006 0200     		movs	r2, r0
 3804 0008 FB1D     		adds	r3, r7, #7
 3805 000a 1A70     		strb	r2, [r3]
 3806 000c BB1D     		adds	r3, r7, #6
 3807 000e 0A1C     		adds	r2, r1, #0
 3808 0010 1A70     		strb	r2, [r3]
1125:RA8875.c      **** //    uint8 x;
1126:RA8875.c      ****   if (on) {
 3809              		.loc 1 1126 0
 3810 0012 FB1D     		adds	r3, r7, #7
 3811 0014 1B78     		ldrb	r3, [r3]
 3812 0016 002B     		cmp	r3, #0
 3813 0018 0FD0     		beq	.L94
1127:RA8875.c      **** //    x = readReg(RA8875_P1CR);
1128:RA8875.c      ****     writeReg(RA8875_P1CR, RA8875_P1CR_ENABLE | (clock & 0x0F));
 3814              		.loc 1 1128 0
 3815 001a BB1D     		adds	r3, r7, #6
 3816 001c 1B78     		ldrb	r3, [r3]
 3817 001e 5BB2     		sxtb	r3, r3
 3818 0020 0F22     		movs	r2, #15
 3819 0022 1340     		ands	r3, r2
 3820 0024 5BB2     		sxtb	r3, r3
 3821 0026 8022     		movs	r2, #128
 3822 0028 5242     		rsbs	r2, r2, #0
 3823 002a 1343     		orrs	r3, r2
ARM GAS  C:\Users\megan\AppData\Local\Temp\ccD8G3YI.s 			page 88


 3824 002c 5BB2     		sxtb	r3, r3
 3825 002e DBB2     		uxtb	r3, r3
 3826 0030 1900     		movs	r1, r3
 3827 0032 8A20     		movs	r0, #138
 3828 0034 FFF7FEFF 		bl	writeReg
1129:RA8875.c      ****     //writeReg(RA8875_P1CR, 0x40);
1130:RA8875.c      **** //    CyDelay(5);
1131:RA8875.c      **** //    x = readReg(RA8875_P1CR);
1132:RA8875.c      ****   } else {
1133:RA8875.c      ****     writeReg(RA8875_P1CR, RA8875_P1CR_DISABLE | (clock & 0x0F));
1134:RA8875.c      ****   }
1135:RA8875.c      **** }
 3829              		.loc 1 1135 0
 3830 0038 08E0     		b	.L96
 3831              	.L94:
1133:RA8875.c      ****   }
 3832              		.loc 1 1133 0
 3833 003a BB1D     		adds	r3, r7, #6
 3834 003c 1B78     		ldrb	r3, [r3]
 3835 003e 0F22     		movs	r2, #15
 3836 0040 1340     		ands	r3, r2
 3837 0042 DBB2     		uxtb	r3, r3
 3838 0044 1900     		movs	r1, r3
 3839 0046 8A20     		movs	r0, #138
 3840 0048 FFF7FEFF 		bl	writeReg
 3841              	.L96:
 3842              		.loc 1 1135 0
 3843 004c C046     		nop
 3844 004e BD46     		mov	sp, r7
 3845 0050 02B0     		add	sp, sp, #8
 3846              		@ sp needed
 3847 0052 80BD     		pop	{r7, pc}
 3848              		.cfi_endproc
 3849              	.LFE75:
 3850              		.size	PWM1config, .-PWM1config
 3851              		.section	.text.PWM2config,"ax",%progbits
 3852              		.align	2
 3853              		.global	PWM2config
 3854              		.code	16
 3855              		.thumb_func
 3856              		.type	PWM2config, %function
 3857              	PWM2config:
 3858              	.LFB76:
1136:RA8875.c      **** 
1137:RA8875.c      **** /**************************************************************************/
1138:RA8875.c      **** /*!
1139:RA8875.c      **** 
1140:RA8875.c      **** */
1141:RA8875.c      **** /**************************************************************************/
1142:RA8875.c      **** void PWM2config(boolean on, uint8_t clock) {
 3859              		.loc 1 1142 0
 3860              		.cfi_startproc
 3861              		@ args = 0, pretend = 0, frame = 8
 3862              		@ frame_needed = 1, uses_anonymous_args = 0
 3863 0000 80B5     		push	{r7, lr}
 3864              		.cfi_def_cfa_offset 8
 3865              		.cfi_offset 7, -8
ARM GAS  C:\Users\megan\AppData\Local\Temp\ccD8G3YI.s 			page 89


 3866              		.cfi_offset 14, -4
 3867 0002 82B0     		sub	sp, sp, #8
 3868              		.cfi_def_cfa_offset 16
 3869 0004 00AF     		add	r7, sp, #0
 3870              		.cfi_def_cfa_register 7
 3871 0006 0200     		movs	r2, r0
 3872 0008 FB1D     		adds	r3, r7, #7
 3873 000a 1A70     		strb	r2, [r3]
 3874 000c BB1D     		adds	r3, r7, #6
 3875 000e 0A1C     		adds	r2, r1, #0
 3876 0010 1A70     		strb	r2, [r3]
1143:RA8875.c      ****   if (on) {
 3877              		.loc 1 1143 0
 3878 0012 FB1D     		adds	r3, r7, #7
 3879 0014 1B78     		ldrb	r3, [r3]
 3880 0016 002B     		cmp	r3, #0
 3881 0018 0FD0     		beq	.L98
1144:RA8875.c      ****     writeReg(RA8875_P2CR, RA8875_P2CR_ENABLE | (clock & 0xF));
 3882              		.loc 1 1144 0
 3883 001a BB1D     		adds	r3, r7, #6
 3884 001c 1B78     		ldrb	r3, [r3]
 3885 001e 5BB2     		sxtb	r3, r3
 3886 0020 0F22     		movs	r2, #15
 3887 0022 1340     		ands	r3, r2
 3888 0024 5BB2     		sxtb	r3, r3
 3889 0026 8022     		movs	r2, #128
 3890 0028 5242     		rsbs	r2, r2, #0
 3891 002a 1343     		orrs	r3, r2
 3892 002c 5BB2     		sxtb	r3, r3
 3893 002e DBB2     		uxtb	r3, r3
 3894 0030 1900     		movs	r1, r3
 3895 0032 8C20     		movs	r0, #140
 3896 0034 FFF7FEFF 		bl	writeReg
1145:RA8875.c      ****   } else {
1146:RA8875.c      ****     writeReg(RA8875_P2CR, RA8875_P2CR_DISABLE | (clock & 0xF));
1147:RA8875.c      ****   }
1148:RA8875.c      **** }
 3897              		.loc 1 1148 0
 3898 0038 08E0     		b	.L100
 3899              	.L98:
1146:RA8875.c      ****   }
 3900              		.loc 1 1146 0
 3901 003a BB1D     		adds	r3, r7, #6
 3902 003c 1B78     		ldrb	r3, [r3]
 3903 003e 0F22     		movs	r2, #15
 3904 0040 1340     		ands	r3, r2
 3905 0042 DBB2     		uxtb	r3, r3
 3906 0044 1900     		movs	r1, r3
 3907 0046 8C20     		movs	r0, #140
 3908 0048 FFF7FEFF 		bl	writeReg
 3909              	.L100:
 3910              		.loc 1 1148 0
 3911 004c C046     		nop
 3912 004e BD46     		mov	sp, r7
 3913 0050 02B0     		add	sp, sp, #8
 3914              		@ sp needed
 3915 0052 80BD     		pop	{r7, pc}
ARM GAS  C:\Users\megan\AppData\Local\Temp\ccD8G3YI.s 			page 90


 3916              		.cfi_endproc
 3917              	.LFE76:
 3918              		.size	PWM2config, .-PWM2config
 3919              		.section	.text.touchEnable,"ax",%progbits
 3920              		.align	2
 3921              		.global	touchEnable
 3922              		.code	16
 3923              		.thumb_func
 3924              		.type	touchEnable, %function
 3925              	touchEnable:
 3926              	.LFB77:
1149:RA8875.c      **** 
1150:RA8875.c      **** /**************************************************************************/
1151:RA8875.c      **** /*!
1152:RA8875.c      ****       Enables or disables the on-chip touch screen controller
1153:RA8875.c      **** */
1154:RA8875.c      **** /**************************************************************************/
1155:RA8875.c      **** void touchEnable(boolean on) 
1156:RA8875.c      **** {
 3927              		.loc 1 1156 0
 3928              		.cfi_startproc
 3929              		@ args = 0, pretend = 0, frame = 16
 3930              		@ frame_needed = 1, uses_anonymous_args = 0
 3931 0000 80B5     		push	{r7, lr}
 3932              		.cfi_def_cfa_offset 8
 3933              		.cfi_offset 7, -8
 3934              		.cfi_offset 14, -4
 3935 0002 84B0     		sub	sp, sp, #16
 3936              		.cfi_def_cfa_offset 24
 3937 0004 00AF     		add	r7, sp, #0
 3938              		.cfi_def_cfa_register 7
 3939 0006 0200     		movs	r2, r0
 3940 0008 FB1D     		adds	r3, r7, #7
 3941 000a 1A70     		strb	r2, [r3]
1157:RA8875.c      ****   uint8_t   adcClk = (uint8_t) RA8875_TPCR0_ADCCLK_DIV4;
 3942              		.loc 1 1157 0
 3943 000c 0F23     		movs	r3, #15
 3944 000e FB18     		adds	r3, r7, r3
 3945 0010 0222     		movs	r2, #2
 3946 0012 1A70     		strb	r2, [r3]
1158:RA8875.c      **** 
1159:RA8875.c      ****   if ( _size == RA8875_800x480 ) //match up touch size with LCD size
 3947              		.loc 1 1159 0
 3948 0014 1E4B     		ldr	r3, .L106
 3949 0016 1B78     		ldrb	r3, [r3]
 3950 0018 012B     		cmp	r3, #1
 3951 001a 03D1     		bne	.L102
1160:RA8875.c      ****     adcClk = (uint8_t) RA8875_TPCR0_ADCCLK_DIV16;
 3952              		.loc 1 1160 0
 3953 001c 0F23     		movs	r3, #15
 3954 001e FB18     		adds	r3, r7, r3
 3955 0020 0422     		movs	r2, #4
 3956 0022 1A70     		strb	r2, [r3]
 3957              	.L102:
1161:RA8875.c      **** 
1162:RA8875.c      ****   if (on)
 3958              		.loc 1 1162 0
ARM GAS  C:\Users\megan\AppData\Local\Temp\ccD8G3YI.s 			page 91


 3959 0024 FB1D     		adds	r3, r7, #7
 3960 0026 1B78     		ldrb	r3, [r3]
 3961 0028 002B     		cmp	r3, #0
 3962 002a 1BD0     		beq	.L103
1163:RA8875.c      ****   {
1164:RA8875.c      ****     /* Enable Touch Panel (Reg 0x70) */
1165:RA8875.c      ****     writeReg(RA8875_TPCR0, RA8875_TPCR0_ENABLE        |
 3963              		.loc 1 1165 0
 3964 002c 0F23     		movs	r3, #15
 3965 002e FB18     		adds	r3, r7, r3
 3966 0030 1B78     		ldrb	r3, [r3]
 3967 0032 4822     		movs	r2, #72
 3968 0034 5242     		rsbs	r2, r2, #0
 3969 0036 1343     		orrs	r3, r2
 3970 0038 DBB2     		uxtb	r3, r3
 3971 003a 1900     		movs	r1, r3
 3972 003c 7020     		movs	r0, #112
 3973 003e FFF7FEFF 		bl	writeReg
1166:RA8875.c      ****                            RA8875_TPCR0_WAIT_4096CLK  |
1167:RA8875.c      ****                            RA8875_TPCR0_WAKEENABLE   |
1168:RA8875.c      ****                            adcClk); // 10mhz max!
1169:RA8875.c      ****     /* Set Auto Mode      (Reg 0x71) */
1170:RA8875.c      ****     writeReg(RA8875_TPCR1, RA8875_TPCR1_AUTO    |
 3974              		.loc 1 1170 0
 3975 0042 0421     		movs	r1, #4
 3976 0044 7120     		movs	r0, #113
 3977 0046 FFF7FEFF 		bl	writeReg
1171:RA8875.c      ****                            // RA8875_TPCR1_VREFEXT |
1172:RA8875.c      ****                            RA8875_TPCR1_DEBOUNCE);
1173:RA8875.c      ****     /* Enable TP INT */
1174:RA8875.c      ****     writeReg(RA8875_INTC1, readReg(RA8875_INTC1) | RA8875_INTC1_TP);
 3978              		.loc 1 1174 0
 3979 004a F020     		movs	r0, #240
 3980 004c FFF7FEFF 		bl	readReg
 3981 0050 0300     		movs	r3, r0
 3982 0052 1A00     		movs	r2, r3
 3983 0054 0423     		movs	r3, #4
 3984 0056 1343     		orrs	r3, r2
 3985 0058 DBB2     		uxtb	r3, r3
 3986 005a 1900     		movs	r1, r3
 3987 005c F020     		movs	r0, #240
 3988 005e FFF7FEFF 		bl	writeReg
1175:RA8875.c      ****   }
1176:RA8875.c      ****   else
1177:RA8875.c      ****   {
1178:RA8875.c      ****     /* Disable TP INT */
1179:RA8875.c      ****     writeReg(RA8875_INTC1, readReg(RA8875_INTC1) & ~RA8875_INTC1_TP);
1180:RA8875.c      ****     /* Disable Touch Panel (Reg 0x70) */
1181:RA8875.c      ****     writeReg(RA8875_TPCR0, RA8875_TPCR0_DISABLE);
1182:RA8875.c      ****   }
1183:RA8875.c      **** }
 3989              		.loc 1 1183 0
 3990 0062 10E0     		b	.L105
 3991              	.L103:
1179:RA8875.c      ****     /* Disable Touch Panel (Reg 0x70) */
 3992              		.loc 1 1179 0
 3993 0064 F020     		movs	r0, #240
ARM GAS  C:\Users\megan\AppData\Local\Temp\ccD8G3YI.s 			page 92


 3994 0066 FFF7FEFF 		bl	readReg
 3995 006a 0300     		movs	r3, r0
 3996 006c 1A00     		movs	r2, r3
 3997 006e 0423     		movs	r3, #4
 3998 0070 9A43     		bics	r2, r3
 3999 0072 1300     		movs	r3, r2
 4000 0074 DBB2     		uxtb	r3, r3
 4001 0076 1900     		movs	r1, r3
 4002 0078 F020     		movs	r0, #240
 4003 007a FFF7FEFF 		bl	writeReg
1181:RA8875.c      ****   }
 4004              		.loc 1 1181 0
 4005 007e 0021     		movs	r1, #0
 4006 0080 7020     		movs	r0, #112
 4007 0082 FFF7FEFF 		bl	writeReg
 4008              	.L105:
 4009              		.loc 1 1183 0
 4010 0086 C046     		nop
 4011 0088 BD46     		mov	sp, r7
 4012 008a 04B0     		add	sp, sp, #16
 4013              		@ sp needed
 4014 008c 80BD     		pop	{r7, pc}
 4015              	.L107:
 4016 008e C046     		.align	2
 4017              	.L106:
 4018 0090 00000000 		.word	_size
 4019              		.cfi_endproc
 4020              	.LFE77:
 4021              		.size	touchEnable, .-touchEnable
 4022              		.section	.text.touched,"ax",%progbits
 4023              		.align	2
 4024              		.global	touched
 4025              		.code	16
 4026              		.thumb_func
 4027              		.type	touched, %function
 4028              	touched:
 4029              	.LFB78:
1184:RA8875.c      **** 
1185:RA8875.c      **** /**************************************************************************/
1186:RA8875.c      **** /*!
1187:RA8875.c      ****       Checks if a touch event has occured
1188:RA8875.c      ****       
1189:RA8875.c      ****       @returns  True is a touch event has occured (reading it via
1190:RA8875.c      ****                 touchRead() will clear the interrupt in memory)
1191:RA8875.c      **** */
1192:RA8875.c      **** /**************************************************************************/
1193:RA8875.c      **** boolean touched(void) 
1194:RA8875.c      **** {
 4030              		.loc 1 1194 0
 4031              		.cfi_startproc
 4032              		@ args = 0, pretend = 0, frame = 0
 4033              		@ frame_needed = 1, uses_anonymous_args = 0
 4034 0000 80B5     		push	{r7, lr}
 4035              		.cfi_def_cfa_offset 8
 4036              		.cfi_offset 7, -8
 4037              		.cfi_offset 14, -4
 4038 0002 00AF     		add	r7, sp, #0
ARM GAS  C:\Users\megan\AppData\Local\Temp\ccD8G3YI.s 			page 93


 4039              		.cfi_def_cfa_register 7
1195:RA8875.c      ****   if (readReg(RA8875_INTC2) & RA8875_INTC2_TP) return true;
 4040              		.loc 1 1195 0
 4041 0004 F120     		movs	r0, #241
 4042 0006 FFF7FEFF 		bl	readReg
 4043 000a 0300     		movs	r3, r0
 4044 000c 1A00     		movs	r2, r3
 4045 000e 0423     		movs	r3, #4
 4046 0010 1340     		ands	r3, r2
 4047 0012 01D0     		beq	.L109
 4048              		.loc 1 1195 0 is_stmt 0 discriminator 1
 4049 0014 0123     		movs	r3, #1
 4050 0016 00E0     		b	.L110
 4051              	.L109:
1196:RA8875.c      ****   return false;
 4052              		.loc 1 1196 0 is_stmt 1
 4053 0018 0023     		movs	r3, #0
 4054              	.L110:
1197:RA8875.c      **** }
 4055              		.loc 1 1197 0
 4056 001a 1800     		movs	r0, r3
 4057 001c BD46     		mov	sp, r7
 4058              		@ sp needed
 4059 001e 80BD     		pop	{r7, pc}
 4060              		.cfi_endproc
 4061              	.LFE78:
 4062              		.size	touched, .-touched
 4063              		.section	.text.touchRead,"ax",%progbits
 4064              		.align	2
 4065              		.global	touchRead
 4066              		.code	16
 4067              		.thumb_func
 4068              		.type	touchRead, %function
 4069              	touchRead:
 4070              	.LFB79:
1198:RA8875.c      **** 
1199:RA8875.c      **** /**************************************************************************/
1200:RA8875.c      **** /*!
1201:RA8875.c      ****       Reads the last touch event
1202:RA8875.c      ****       
1203:RA8875.c      ****       @args x[out]  Pointer to the uint16_t field to assign the raw X value
1204:RA8875.c      ****       @args y[out]  Pointer to the uint16_t field to assign the raw Y value
1205:RA8875.c      ****       
1206:RA8875.c      ****       @note Calling this function will clear the touch panel interrupt on
1207:RA8875.c      ****             the RA8875, resetting the flag used by the 'touched' function
1208:RA8875.c      **** */
1209:RA8875.c      **** /**************************************************************************/
1210:RA8875.c      **** boolean touchRead(uint16_t *x, uint16_t *y) 
1211:RA8875.c      **** {
 4071              		.loc 1 1211 0
 4072              		.cfi_startproc
 4073              		@ args = 0, pretend = 0, frame = 16
 4074              		@ frame_needed = 1, uses_anonymous_args = 0
 4075 0000 90B5     		push	{r4, r7, lr}
 4076              		.cfi_def_cfa_offset 12
 4077              		.cfi_offset 4, -12
 4078              		.cfi_offset 7, -8
ARM GAS  C:\Users\megan\AppData\Local\Temp\ccD8G3YI.s 			page 94


 4079              		.cfi_offset 14, -4
 4080 0002 85B0     		sub	sp, sp, #20
 4081              		.cfi_def_cfa_offset 32
 4082 0004 00AF     		add	r7, sp, #0
 4083              		.cfi_def_cfa_register 7
 4084 0006 7860     		str	r0, [r7, #4]
 4085 0008 3960     		str	r1, [r7]
1212:RA8875.c      ****   uint16_t tx, ty;
1213:RA8875.c      ****   uint8_t temp;
1214:RA8875.c      ****   
1215:RA8875.c      ****   tx = readReg(RA8875_TPXH);
 4086              		.loc 1 1215 0
 4087 000a 7220     		movs	r0, #114
 4088 000c FFF7FEFF 		bl	readReg
 4089 0010 0300     		movs	r3, r0
 4090 0012 1A00     		movs	r2, r3
 4091 0014 0E23     		movs	r3, #14
 4092 0016 FB18     		adds	r3, r7, r3
 4093 0018 1A80     		strh	r2, [r3]
1216:RA8875.c      ****   ty = readReg(RA8875_TPYH);
 4094              		.loc 1 1216 0
 4095 001a 7320     		movs	r0, #115
 4096 001c FFF7FEFF 		bl	readReg
 4097 0020 0300     		movs	r3, r0
 4098 0022 1A00     		movs	r2, r3
 4099 0024 0C23     		movs	r3, #12
 4100 0026 FB18     		adds	r3, r7, r3
 4101 0028 1A80     		strh	r2, [r3]
1217:RA8875.c      ****   temp = readReg(RA8875_TPXYL);
 4102              		.loc 1 1217 0
 4103 002a 0B23     		movs	r3, #11
 4104 002c FC18     		adds	r4, r7, r3
 4105 002e 7420     		movs	r0, #116
 4106 0030 FFF7FEFF 		bl	readReg
 4107 0034 0300     		movs	r3, r0
 4108 0036 2370     		strb	r3, [r4]
1218:RA8875.c      ****   tx <<= 2;
 4109              		.loc 1 1218 0
 4110 0038 0E23     		movs	r3, #14
 4111 003a FB18     		adds	r3, r7, r3
 4112 003c 0E22     		movs	r2, #14
 4113 003e BA18     		adds	r2, r7, r2
 4114 0040 1288     		ldrh	r2, [r2]
 4115 0042 9200     		lsls	r2, r2, #2
 4116 0044 1A80     		strh	r2, [r3]
1219:RA8875.c      ****   ty <<= 2;
 4117              		.loc 1 1219 0
 4118 0046 0C23     		movs	r3, #12
 4119 0048 FB18     		adds	r3, r7, r3
 4120 004a 0C22     		movs	r2, #12
 4121 004c BA18     		adds	r2, r7, r2
 4122 004e 1288     		ldrh	r2, [r2]
 4123 0050 9200     		lsls	r2, r2, #2
 4124 0052 1A80     		strh	r2, [r3]
1220:RA8875.c      ****   tx |= temp & 0x03;        // get the bottom x bits
 4125              		.loc 1 1220 0
 4126 0054 0B23     		movs	r3, #11
ARM GAS  C:\Users\megan\AppData\Local\Temp\ccD8G3YI.s 			page 95


 4127 0056 FB18     		adds	r3, r7, r3
 4128 0058 1B78     		ldrb	r3, [r3]
 4129 005a 1BB2     		sxth	r3, r3
 4130 005c 0322     		movs	r2, #3
 4131 005e 1340     		ands	r3, r2
 4132 0060 1AB2     		sxth	r2, r3
 4133 0062 0E23     		movs	r3, #14
 4134 0064 FB18     		adds	r3, r7, r3
 4135 0066 0021     		movs	r1, #0
 4136 0068 5B5E     		ldrsh	r3, [r3, r1]
 4137 006a 1343     		orrs	r3, r2
 4138 006c 1AB2     		sxth	r2, r3
 4139 006e 0E23     		movs	r3, #14
 4140 0070 FB18     		adds	r3, r7, r3
 4141 0072 1A80     		strh	r2, [r3]
1221:RA8875.c      ****   ty |= (temp >> 2) & 0x03; // get the bottom y bits
 4142              		.loc 1 1221 0
 4143 0074 0B23     		movs	r3, #11
 4144 0076 FB18     		adds	r3, r7, r3
 4145 0078 1B78     		ldrb	r3, [r3]
 4146 007a 9B08     		lsrs	r3, r3, #2
 4147 007c DBB2     		uxtb	r3, r3
 4148 007e 1BB2     		sxth	r3, r3
 4149 0080 0322     		movs	r2, #3
 4150 0082 1340     		ands	r3, r2
 4151 0084 1AB2     		sxth	r2, r3
 4152 0086 0C23     		movs	r3, #12
 4153 0088 FB18     		adds	r3, r7, r3
 4154 008a 0021     		movs	r1, #0
 4155 008c 5B5E     		ldrsh	r3, [r3, r1]
 4156 008e 1343     		orrs	r3, r2
 4157 0090 1AB2     		sxth	r2, r3
 4158 0092 0C23     		movs	r3, #12
 4159 0094 FB18     		adds	r3, r7, r3
 4160 0096 1A80     		strh	r2, [r3]
1222:RA8875.c      **** 
1223:RA8875.c      ****   *x = tx;
 4161              		.loc 1 1223 0
 4162 0098 7B68     		ldr	r3, [r7, #4]
 4163 009a 0E22     		movs	r2, #14
 4164 009c BA18     		adds	r2, r7, r2
 4165 009e 1288     		ldrh	r2, [r2]
 4166 00a0 1A80     		strh	r2, [r3]
1224:RA8875.c      ****   *y = ty;
 4167              		.loc 1 1224 0
 4168 00a2 3B68     		ldr	r3, [r7]
 4169 00a4 0C22     		movs	r2, #12
 4170 00a6 BA18     		adds	r2, r7, r2
 4171 00a8 1288     		ldrh	r2, [r2]
 4172 00aa 1A80     		strh	r2, [r3]
1225:RA8875.c      **** 
1226:RA8875.c      ****   /* Clear TP INT Status */
1227:RA8875.c      ****   writeReg(RA8875_INTC2, RA8875_INTC2_TP);
 4173              		.loc 1 1227 0
 4174 00ac 0421     		movs	r1, #4
 4175 00ae F120     		movs	r0, #241
 4176 00b0 FFF7FEFF 		bl	writeReg
ARM GAS  C:\Users\megan\AppData\Local\Temp\ccD8G3YI.s 			page 96


1228:RA8875.c      **** 
1229:RA8875.c      ****   return true;
 4177              		.loc 1 1229 0
 4178 00b4 0123     		movs	r3, #1
1230:RA8875.c      **** }
 4179              		.loc 1 1230 0
 4180 00b6 1800     		movs	r0, r3
 4181 00b8 BD46     		mov	sp, r7
 4182 00ba 05B0     		add	sp, sp, #20
 4183              		@ sp needed
 4184 00bc 90BD     		pop	{r4, r7, pc}
 4185              		.cfi_endproc
 4186              	.LFE79:
 4187              		.size	touchRead, .-touchRead
 4188 00be C046     		.section	.text.displayOn,"ax",%progbits
 4189              		.align	2
 4190              		.global	displayOn
 4191              		.code	16
 4192              		.thumb_func
 4193              		.type	displayOn, %function
 4194              	displayOn:
 4195              	.LFB80:
1231:RA8875.c      **** 
1232:RA8875.c      **** /**************************************************************************/
1233:RA8875.c      **** /*!
1234:RA8875.c      ****       Turns the display on or off
1235:RA8875.c      **** */
1236:RA8875.c      **** /**************************************************************************/
1237:RA8875.c      **** void displayOn(boolean on) 
1238:RA8875.c      **** {
 4196              		.loc 1 1238 0
 4197              		.cfi_startproc
 4198              		@ args = 0, pretend = 0, frame = 8
 4199              		@ frame_needed = 1, uses_anonymous_args = 0
 4200 0000 80B5     		push	{r7, lr}
 4201              		.cfi_def_cfa_offset 8
 4202              		.cfi_offset 7, -8
 4203              		.cfi_offset 14, -4
 4204 0002 82B0     		sub	sp, sp, #8
 4205              		.cfi_def_cfa_offset 16
 4206 0004 00AF     		add	r7, sp, #0
 4207              		.cfi_def_cfa_register 7
 4208 0006 0200     		movs	r2, r0
 4209 0008 FB1D     		adds	r3, r7, #7
 4210 000a 1A70     		strb	r2, [r3]
1239:RA8875.c      ****  if (on) { 
 4211              		.loc 1 1239 0
 4212 000c FB1D     		adds	r3, r7, #7
 4213 000e 1B78     		ldrb	r3, [r3]
 4214 0010 002B     		cmp	r3, #0
 4215 0012 04D0     		beq	.L114
1240:RA8875.c      ****    writeReg(RA8875_PWRR, RA8875_PWRR_NORMAL | RA8875_PWRR_DISPON);
 4216              		.loc 1 1240 0
 4217 0014 8021     		movs	r1, #128
 4218 0016 0120     		movs	r0, #1
 4219 0018 FFF7FEFF 		bl	writeReg
1241:RA8875.c      **** }
ARM GAS  C:\Users\megan\AppData\Local\Temp\ccD8G3YI.s 			page 97


1242:RA8875.c      ****  else
1243:RA8875.c      ****    writeReg(RA8875_PWRR, RA8875_PWRR_NORMAL | RA8875_PWRR_DISPOFF);
1244:RA8875.c      **** }
 4220              		.loc 1 1244 0
 4221 001c 03E0     		b	.L116
 4222              	.L114:
1243:RA8875.c      **** }
 4223              		.loc 1 1243 0
 4224 001e 0021     		movs	r1, #0
 4225 0020 0120     		movs	r0, #1
 4226 0022 FFF7FEFF 		bl	writeReg
 4227              	.L116:
 4228              		.loc 1 1244 0
 4229 0026 C046     		nop
 4230 0028 BD46     		mov	sp, r7
 4231 002a 02B0     		add	sp, sp, #8
 4232              		@ sp needed
 4233 002c 80BD     		pop	{r7, pc}
 4234              		.cfi_endproc
 4235              	.LFE80:
 4236              		.size	displayOn, .-displayOn
 4237 002e C046     		.section	.text.sleep,"ax",%progbits
 4238              		.align	2
 4239              		.global	sleep
 4240              		.code	16
 4241              		.thumb_func
 4242              		.type	sleep, %function
 4243              	sleep:
 4244              	.LFB81:
1245:RA8875.c      **** 
1246:RA8875.c      **** /**************************************************************************/
1247:RA8875.c      **** /*!
1248:RA8875.c      ****     Puts the display in sleep mode, or disables sleep mode if enabled
1249:RA8875.c      **** */
1250:RA8875.c      **** /**************************************************************************/
1251:RA8875.c      **** void sleep(boolean sleep) 
1252:RA8875.c      **** {
 4245              		.loc 1 1252 0
 4246              		.cfi_startproc
 4247              		@ args = 0, pretend = 0, frame = 8
 4248              		@ frame_needed = 1, uses_anonymous_args = 0
 4249 0000 80B5     		push	{r7, lr}
 4250              		.cfi_def_cfa_offset 8
 4251              		.cfi_offset 7, -8
 4252              		.cfi_offset 14, -4
 4253 0002 82B0     		sub	sp, sp, #8
 4254              		.cfi_def_cfa_offset 16
 4255 0004 00AF     		add	r7, sp, #0
 4256              		.cfi_def_cfa_register 7
 4257 0006 0200     		movs	r2, r0
 4258 0008 FB1D     		adds	r3, r7, #7
 4259 000a 1A70     		strb	r2, [r3]
1253:RA8875.c      ****  if (sleep) 
 4260              		.loc 1 1253 0
 4261 000c FB1D     		adds	r3, r7, #7
 4262 000e 1B78     		ldrb	r3, [r3]
 4263 0010 002B     		cmp	r3, #0
ARM GAS  C:\Users\megan\AppData\Local\Temp\ccD8G3YI.s 			page 98


 4264 0012 04D0     		beq	.L118
1254:RA8875.c      ****    writeReg(RA8875_PWRR, RA8875_PWRR_DISPOFF | RA8875_PWRR_SLEEP);
 4265              		.loc 1 1254 0
 4266 0014 0221     		movs	r1, #2
 4267 0016 0120     		movs	r0, #1
 4268 0018 FFF7FEFF 		bl	writeReg
1255:RA8875.c      ****  else
1256:RA8875.c      ****    writeReg(RA8875_PWRR, RA8875_PWRR_DISPOFF);
1257:RA8875.c      **** }
 4269              		.loc 1 1257 0
 4270 001c 03E0     		b	.L120
 4271              	.L118:
1256:RA8875.c      **** }
 4272              		.loc 1 1256 0
 4273 001e 0021     		movs	r1, #0
 4274 0020 0120     		movs	r0, #1
 4275 0022 FFF7FEFF 		bl	writeReg
 4276              	.L120:
 4277              		.loc 1 1257 0
 4278 0026 C046     		nop
 4279 0028 BD46     		mov	sp, r7
 4280 002a 02B0     		add	sp, sp, #8
 4281              		@ sp needed
 4282 002c 80BD     		pop	{r7, pc}
 4283              		.cfi_endproc
 4284              	.LFE81:
 4285              		.size	sleep, .-sleep
 4286 002e C046     		.section	.text.writeReg,"ax",%progbits
 4287              		.align	2
 4288              		.global	writeReg
 4289              		.code	16
 4290              		.thumb_func
 4291              		.type	writeReg, %function
 4292              	writeReg:
 4293              	.LFB82:
1258:RA8875.c      **** 
1259:RA8875.c      **** /************************* Low Level ***********************************/
1260:RA8875.c      **** 
1261:RA8875.c      **** /**************************************************************************/
1262:RA8875.c      **** /*!
1263:RA8875.c      **** 
1264:RA8875.c      **** */
1265:RA8875.c      **** /**************************************************************************/
1266:RA8875.c      **** void  writeReg(uint8_t reg, uint8_t val) 
1267:RA8875.c      **** {
 4294              		.loc 1 1267 0
 4295              		.cfi_startproc
 4296              		@ args = 0, pretend = 0, frame = 8
 4297              		@ frame_needed = 1, uses_anonymous_args = 0
 4298 0000 80B5     		push	{r7, lr}
 4299              		.cfi_def_cfa_offset 8
 4300              		.cfi_offset 7, -8
 4301              		.cfi_offset 14, -4
 4302 0002 82B0     		sub	sp, sp, #8
 4303              		.cfi_def_cfa_offset 16
 4304 0004 00AF     		add	r7, sp, #0
 4305              		.cfi_def_cfa_register 7
ARM GAS  C:\Users\megan\AppData\Local\Temp\ccD8G3YI.s 			page 99


 4306 0006 0200     		movs	r2, r0
 4307 0008 FB1D     		adds	r3, r7, #7
 4308 000a 1A70     		strb	r2, [r3]
 4309 000c BB1D     		adds	r3, r7, #6
 4310 000e 0A1C     		adds	r2, r1, #0
 4311 0010 1A70     		strb	r2, [r3]
1268:RA8875.c      ****   writeCommand(reg);
 4312              		.loc 1 1268 0
 4313 0012 FB1D     		adds	r3, r7, #7
 4314 0014 1B78     		ldrb	r3, [r3]
 4315 0016 1800     		movs	r0, r3
 4316 0018 FFF7FEFF 		bl	writeCommand
1269:RA8875.c      ****   writeData(val);
 4317              		.loc 1 1269 0
 4318 001c BB1D     		adds	r3, r7, #6
 4319 001e 1B78     		ldrb	r3, [r3]
 4320 0020 1800     		movs	r0, r3
 4321 0022 FFF7FEFF 		bl	writeData
1270:RA8875.c      **** }
 4322              		.loc 1 1270 0
 4323 0026 C046     		nop
 4324 0028 BD46     		mov	sp, r7
 4325 002a 02B0     		add	sp, sp, #8
 4326              		@ sp needed
 4327 002c 80BD     		pop	{r7, pc}
 4328              		.cfi_endproc
 4329              	.LFE82:
 4330              		.size	writeReg, .-writeReg
 4331 002e C046     		.section	.text.readReg,"ax",%progbits
 4332              		.align	2
 4333              		.global	readReg
 4334              		.code	16
 4335              		.thumb_func
 4336              		.type	readReg, %function
 4337              	readReg:
 4338              	.LFB83:
1271:RA8875.c      **** 
1272:RA8875.c      **** /**************************************************************************/
1273:RA8875.c      **** /*!
1274:RA8875.c      **** 
1275:RA8875.c      **** */
1276:RA8875.c      **** /**************************************************************************/
1277:RA8875.c      **** uint8_t  readReg(uint8_t reg) 
1278:RA8875.c      **** {
 4339              		.loc 1 1278 0
 4340              		.cfi_startproc
 4341              		@ args = 0, pretend = 0, frame = 8
 4342              		@ frame_needed = 1, uses_anonymous_args = 0
 4343 0000 80B5     		push	{r7, lr}
 4344              		.cfi_def_cfa_offset 8
 4345              		.cfi_offset 7, -8
 4346              		.cfi_offset 14, -4
 4347 0002 82B0     		sub	sp, sp, #8
 4348              		.cfi_def_cfa_offset 16
 4349 0004 00AF     		add	r7, sp, #0
 4350              		.cfi_def_cfa_register 7
 4351 0006 0200     		movs	r2, r0
ARM GAS  C:\Users\megan\AppData\Local\Temp\ccD8G3YI.s 			page 100


 4352 0008 FB1D     		adds	r3, r7, #7
 4353 000a 1A70     		strb	r2, [r3]
1279:RA8875.c      ****   writeCommand(reg);
 4354              		.loc 1 1279 0
 4355 000c FB1D     		adds	r3, r7, #7
 4356 000e 1B78     		ldrb	r3, [r3]
 4357 0010 1800     		movs	r0, r3
 4358 0012 FFF7FEFF 		bl	writeCommand
1280:RA8875.c      ****   return readData();
 4359              		.loc 1 1280 0
 4360 0016 FFF7FEFF 		bl	readData
 4361 001a 0300     		movs	r3, r0
1281:RA8875.c      **** }
 4362              		.loc 1 1281 0
 4363 001c 1800     		movs	r0, r3
 4364 001e BD46     		mov	sp, r7
 4365 0020 02B0     		add	sp, sp, #8
 4366              		@ sp needed
 4367 0022 80BD     		pop	{r7, pc}
 4368              		.cfi_endproc
 4369              	.LFE83:
 4370              		.size	readReg, .-readReg
 4371              		.section	.text.writeData,"ax",%progbits
 4372              		.align	2
 4373              		.global	writeData
 4374              		.code	16
 4375              		.thumb_func
 4376              		.type	writeData, %function
 4377              	writeData:
 4378              	.LFB84:
1282:RA8875.c      **** 
1283:RA8875.c      **** /**************************************************************************/
1284:RA8875.c      **** /*!
1285:RA8875.c      **** 
1286:RA8875.c      **** */
1287:RA8875.c      **** /**************************************************************************/
1288:RA8875.c      **** void  writeData(uint8_t d) 
1289:RA8875.c      **** {
 4379              		.loc 1 1289 0
 4380              		.cfi_startproc
 4381              		@ args = 0, pretend = 0, frame = 8
 4382              		@ frame_needed = 1, uses_anonymous_args = 0
 4383 0000 80B5     		push	{r7, lr}
 4384              		.cfi_def_cfa_offset 8
 4385              		.cfi_offset 7, -8
 4386              		.cfi_offset 14, -4
 4387 0002 82B0     		sub	sp, sp, #8
 4388              		.cfi_def_cfa_offset 16
 4389 0004 00AF     		add	r7, sp, #0
 4390              		.cfi_def_cfa_register 7
 4391 0006 0200     		movs	r2, r0
 4392 0008 FB1D     		adds	r3, r7, #7
 4393 000a 1A70     		strb	r2, [r3]
1290:RA8875.c      ****     CyDelay(1);
 4394              		.loc 1 1290 0
 4395 000c 0120     		movs	r0, #1
 4396 000e FFF7FEFF 		bl	CyDelay
ARM GAS  C:\Users\megan\AppData\Local\Temp\ccD8G3YI.s 			page 101


1291:RA8875.c      ****     LCDSPI_SpiUartWriteTxData(RA8875_DATAWRITE);
 4397              		.loc 1 1291 0
 4398 0012 0020     		movs	r0, #0
 4399 0014 FFF7FEFF 		bl	LCDSPI_SpiUartWriteTxData
1292:RA8875.c      ****     LCDSPI_SpiUartWriteTxData(d);
 4400              		.loc 1 1292 0
 4401 0018 FB1D     		adds	r3, r7, #7
 4402 001a 1B78     		ldrb	r3, [r3]
 4403 001c 1800     		movs	r0, r3
 4404 001e FFF7FEFF 		bl	LCDSPI_SpiUartWriteTxData
1293:RA8875.c      ****     CyDelay(1);
 4405              		.loc 1 1293 0
 4406 0022 0120     		movs	r0, #1
 4407 0024 FFF7FEFF 		bl	CyDelay
1294:RA8875.c      **** }
 4408              		.loc 1 1294 0
 4409 0028 C046     		nop
 4410 002a BD46     		mov	sp, r7
 4411 002c 02B0     		add	sp, sp, #8
 4412              		@ sp needed
 4413 002e 80BD     		pop	{r7, pc}
 4414              		.cfi_endproc
 4415              	.LFE84:
 4416              		.size	writeData, .-writeData
 4417              		.section	.text.readData,"ax",%progbits
 4418              		.align	2
 4419              		.global	readData
 4420              		.code	16
 4421              		.thumb_func
 4422              		.type	readData, %function
 4423              	readData:
 4424              	.LFB85:
1295:RA8875.c      **** 
1296:RA8875.c      **** /**************************************************************************/
1297:RA8875.c      **** /*!
1298:RA8875.c      **** 
1299:RA8875.c      **** */
1300:RA8875.c      **** /**************************************************************************/
1301:RA8875.c      **** uint8_t  readData(void) 
1302:RA8875.c      **** {
 4425              		.loc 1 1302 0
 4426              		.cfi_startproc
 4427              		@ args = 0, pretend = 0, frame = 8
 4428              		@ frame_needed = 1, uses_anonymous_args = 0
 4429 0000 80B5     		push	{r7, lr}
 4430              		.cfi_def_cfa_offset 8
 4431              		.cfi_offset 7, -8
 4432              		.cfi_offset 14, -4
 4433 0002 82B0     		sub	sp, sp, #8
 4434              		.cfi_def_cfa_offset 16
 4435 0004 00AF     		add	r7, sp, #0
 4436              		.cfi_def_cfa_register 7
1303:RA8875.c      ****     uint8_t x = 0u;
 4437              		.loc 1 1303 0
 4438 0006 FB1D     		adds	r3, r7, #7
 4439 0008 0022     		movs	r2, #0
 4440 000a 1A70     		strb	r2, [r3]
ARM GAS  C:\Users\megan\AppData\Local\Temp\ccD8G3YI.s 			page 102


1304:RA8875.c      ****     
1305:RA8875.c      ****     // prepare for request
1306:RA8875.c      ****     CyDelay(1);
 4441              		.loc 1 1306 0
 4442 000c 0120     		movs	r0, #1
 4443 000e FFF7FEFF 		bl	CyDelay
1307:RA8875.c      ****     LCDSPI_ClearMasterInterruptSource(LCDSPI_INTR_MASTER_SPI_DONE); // testing
 4444              		.loc 1 1307 0
 4445 0012 184B     		ldr	r3, .L132
 4446 0014 8022     		movs	r2, #128
 4447 0016 9200     		lsls	r2, r2, #2
 4448 0018 1A60     		str	r2, [r3]
1308:RA8875.c      ****     
1309:RA8875.c      ****     // testing
1310:RA8875.c      ****     LCDSPI_SpiUartClearRxBuffer();
 4449              		.loc 1 1310 0
 4450 001a FFF7FEFF 		bl	LCDSPI_SpiUartClearRxBuffer
1311:RA8875.c      ****     
1312:RA8875.c      ****     // request data
1313:RA8875.c      ****     LCDSPI_SpiUartWriteTxData(RA8875_DATAREAD);
 4451              		.loc 1 1313 0
 4452 001e 4020     		movs	r0, #64
 4453 0020 FFF7FEFF 		bl	LCDSPI_SpiUartWriteTxData
1314:RA8875.c      ****     LCDSPI_SpiUartWriteTxData(0);
 4454              		.loc 1 1314 0
 4455 0024 0020     		movs	r0, #0
 4456 0026 FFF7FEFF 		bl	LCDSPI_SpiUartWriteTxData
1315:RA8875.c      **** 
1316:RA8875.c      ****     // wait for transmission to finish
1317:RA8875.c      ****     while(0u == (LCDSPI_GetMasterInterruptSource() & LCDSPI_INTR_MASTER_SPI_DONE)) //testing
 4457              		.loc 1 1317 0
 4458 002a C046     		nop
 4459              	.L126:
 4460              		.loc 1 1317 0 is_stmt 0 discriminator 1
 4461 002c 114B     		ldr	r3, .L132
 4462 002e 1A68     		ldr	r2, [r3]
 4463 0030 8023     		movs	r3, #128
 4464 0032 9B00     		lsls	r3, r3, #2
 4465 0034 1340     		ands	r3, r2
 4466 0036 F9D0     		beq	.L126
1318:RA8875.c      ****     {
1319:RA8875.c      ****         /* Wait while Master completes transaction */
1320:RA8875.c      ****     }
1321:RA8875.c      ****     while (LCDSPI_SpiUartGetRxBufferSize() == 0)
 4467              		.loc 1 1321 0 is_stmt 1
 4468 0038 02E0     		b	.L127
 4469              	.L128:
1322:RA8875.c      ****     CyDelay(1);
 4470              		.loc 1 1322 0
 4471 003a 0120     		movs	r0, #1
 4472 003c FFF7FEFF 		bl	CyDelay
 4473              	.L127:
1321:RA8875.c      ****     CyDelay(1);
 4474              		.loc 1 1321 0
 4475 0040 FFF7FEFF 		bl	LCDSPI_SpiUartGetRxBufferSize
 4476 0044 031E     		subs	r3, r0, #0
 4477 0046 F8D0     		beq	.L128
ARM GAS  C:\Users\megan\AppData\Local\Temp\ccD8G3YI.s 			page 103


1323:RA8875.c      ****     
1324:RA8875.c      ****     // discard blank data captured during transmission
1325:RA8875.c      ****     while (LCDSPI_SpiUartGetRxBufferSize() > 1) {
 4478              		.loc 1 1325 0
 4479 0048 01E0     		b	.L129
 4480              	.L130:
1326:RA8875.c      ****     //while (LCDSPI_SpiUartReadRxData() == 0xFF ) {
1327:RA8875.c      ****         LCDSPI_SpiUartReadRxData();
 4481              		.loc 1 1327 0
 4482 004a FFF7FEFF 		bl	LCDSPI_SpiUartReadRxData
 4483              	.L129:
1325:RA8875.c      ****     //while (LCDSPI_SpiUartReadRxData() == 0xFF ) {
 4484              		.loc 1 1325 0
 4485 004e FFF7FEFF 		bl	LCDSPI_SpiUartGetRxBufferSize
 4486 0052 0300     		movs	r3, r0
 4487 0054 012B     		cmp	r3, #1
 4488 0056 F8D8     		bhi	.L130
1328:RA8875.c      ****     }
1329:RA8875.c      ****     x = LCDSPI_SpiUartReadRxData();
 4489              		.loc 1 1329 0
 4490 0058 FFF7FEFF 		bl	LCDSPI_SpiUartReadRxData
 4491 005c 0200     		movs	r2, r0
 4492 005e FB1D     		adds	r3, r7, #7
 4493 0060 1A70     		strb	r2, [r3]
1330:RA8875.c      ****     
1331:RA8875.c      ****     CyDelay(1);  
 4494              		.loc 1 1331 0
 4495 0062 0120     		movs	r0, #1
 4496 0064 FFF7FEFF 		bl	CyDelay
1332:RA8875.c      ****     
1333:RA8875.c      ****     return x;
 4497              		.loc 1 1333 0
 4498 0068 FB1D     		adds	r3, r7, #7
 4499 006a 1B78     		ldrb	r3, [r3]
1334:RA8875.c      **** }
 4500              		.loc 1 1334 0
 4501 006c 1800     		movs	r0, r3
 4502 006e BD46     		mov	sp, r7
 4503 0070 02B0     		add	sp, sp, #8
 4504              		@ sp needed
 4505 0072 80BD     		pop	{r7, pc}
 4506              	.L133:
 4507              		.align	2
 4508              	.L132:
 4509 0074 000F2440 		.word	1076104960
 4510              		.cfi_endproc
 4511              	.LFE85:
 4512              		.size	readData, .-readData
 4513              		.section	.text.writeCommand,"ax",%progbits
 4514              		.align	2
 4515              		.global	writeCommand
 4516              		.code	16
 4517              		.thumb_func
 4518              		.type	writeCommand, %function
 4519              	writeCommand:
 4520              	.LFB86:
1335:RA8875.c      **** 
ARM GAS  C:\Users\megan\AppData\Local\Temp\ccD8G3YI.s 			page 104


1336:RA8875.c      **** /**************************************************************************/
1337:RA8875.c      **** /*!
1338:RA8875.c      **** 
1339:RA8875.c      **** */
1340:RA8875.c      **** /**************************************************************************/
1341:RA8875.c      **** void  writeCommand(uint8_t d) 
1342:RA8875.c      **** {
 4521              		.loc 1 1342 0
 4522              		.cfi_startproc
 4523              		@ args = 0, pretend = 0, frame = 8
 4524              		@ frame_needed = 1, uses_anonymous_args = 0
 4525 0000 80B5     		push	{r7, lr}
 4526              		.cfi_def_cfa_offset 8
 4527              		.cfi_offset 7, -8
 4528              		.cfi_offset 14, -4
 4529 0002 82B0     		sub	sp, sp, #8
 4530              		.cfi_def_cfa_offset 16
 4531 0004 00AF     		add	r7, sp, #0
 4532              		.cfi_def_cfa_register 7
 4533 0006 0200     		movs	r2, r0
 4534 0008 FB1D     		adds	r3, r7, #7
 4535 000a 1A70     		strb	r2, [r3]
1343:RA8875.c      ****     CyDelay(1);
 4536              		.loc 1 1343 0
 4537 000c 0120     		movs	r0, #1
 4538 000e FFF7FEFF 		bl	CyDelay
1344:RA8875.c      ****     LCDSPI_SpiUartWriteTxData(RA8875_CMDWRITE);
 4539              		.loc 1 1344 0
 4540 0012 8020     		movs	r0, #128
 4541 0014 FFF7FEFF 		bl	LCDSPI_SpiUartWriteTxData
1345:RA8875.c      ****     LCDSPI_SpiUartWriteTxData(d);
 4542              		.loc 1 1345 0
 4543 0018 FB1D     		adds	r3, r7, #7
 4544 001a 1B78     		ldrb	r3, [r3]
 4545 001c 1800     		movs	r0, r3
 4546 001e FFF7FEFF 		bl	LCDSPI_SpiUartWriteTxData
1346:RA8875.c      ****     CyDelay(1);
 4547              		.loc 1 1346 0
 4548 0022 0120     		movs	r0, #1
 4549 0024 FFF7FEFF 		bl	CyDelay
1347:RA8875.c      **** }
 4550              		.loc 1 1347 0
 4551 0028 C046     		nop
 4552 002a BD46     		mov	sp, r7
 4553 002c 02B0     		add	sp, sp, #8
 4554              		@ sp needed
 4555 002e 80BD     		pop	{r7, pc}
 4556              		.cfi_endproc
 4557              	.LFE86:
 4558              		.size	writeCommand, .-writeCommand
 4559              		.section	.text.readStatus,"ax",%progbits
 4560              		.align	2
 4561              		.global	readStatus
 4562              		.code	16
 4563              		.thumb_func
 4564              		.type	readStatus, %function
 4565              	readStatus:
ARM GAS  C:\Users\megan\AppData\Local\Temp\ccD8G3YI.s 			page 105


 4566              	.LFB87:
1348:RA8875.c      **** 
1349:RA8875.c      **** /**************************************************************************/
1350:RA8875.c      **** /*!
1351:RA8875.c      **** 
1352:RA8875.c      **** */
1353:RA8875.c      **** /**************************************************************************/
1354:RA8875.c      **** uint8_t  readStatus(void) 
1355:RA8875.c      **** {
 4567              		.loc 1 1355 0
 4568              		.cfi_startproc
 4569              		@ args = 0, pretend = 0, frame = 8
 4570              		@ frame_needed = 1, uses_anonymous_args = 0
 4571 0000 80B5     		push	{r7, lr}
 4572              		.cfi_def_cfa_offset 8
 4573              		.cfi_offset 7, -8
 4574              		.cfi_offset 14, -4
 4575 0002 82B0     		sub	sp, sp, #8
 4576              		.cfi_def_cfa_offset 16
 4577 0004 00AF     		add	r7, sp, #0
 4578              		.cfi_def_cfa_register 7
1356:RA8875.c      ****     uint8_t x;
1357:RA8875.c      ****     
1358:RA8875.c      ****     // prepare for request
1359:RA8875.c      ****     CyDelay(1);
 4579              		.loc 1 1359 0
 4580 0006 0120     		movs	r0, #1
 4581 0008 FFF7FEFF 		bl	CyDelay
1360:RA8875.c      ****     LCDSPI_ClearMasterInterruptSource(LCDSPI_INTR_MASTER_SPI_DONE);
 4582              		.loc 1 1360 0
 4583 000c 144B     		ldr	r3, .L140
 4584 000e 8022     		movs	r2, #128
 4585 0010 9200     		lsls	r2, r2, #2
 4586 0012 1A60     		str	r2, [r3]
1361:RA8875.c      ****     
1362:RA8875.c      ****     // request status
1363:RA8875.c      ****     LCDSPI_SpiUartWriteTxData(RA8875_CMDREAD);
 4587              		.loc 1 1363 0
 4588 0014 C020     		movs	r0, #192
 4589 0016 FFF7FEFF 		bl	LCDSPI_SpiUartWriteTxData
1364:RA8875.c      ****     LCDSPI_SpiUartWriteTxData(0);                   // keep SPI line open for RX
 4590              		.loc 1 1364 0
 4591 001a 0020     		movs	r0, #0
 4592 001c FFF7FEFF 		bl	LCDSPI_SpiUartWriteTxData
1365:RA8875.c      ****     
1366:RA8875.c      ****     // wait for transmission to finish
1367:RA8875.c      ****     while(0u == (LCDSPI_GetMasterInterruptSource() & LCDSPI_INTR_MASTER_SPI_DONE))
 4593              		.loc 1 1367 0
 4594 0020 C046     		nop
 4595              	.L136:
 4596              		.loc 1 1367 0 is_stmt 0 discriminator 1
 4597 0022 0F4B     		ldr	r3, .L140
 4598 0024 1A68     		ldr	r2, [r3]
 4599 0026 8023     		movs	r3, #128
 4600 0028 9B00     		lsls	r3, r3, #2
 4601 002a 1340     		ands	r3, r2
 4602 002c F9D0     		beq	.L136
ARM GAS  C:\Users\megan\AppData\Local\Temp\ccD8G3YI.s 			page 106


1368:RA8875.c      ****     {
1369:RA8875.c      ****         /* Wait while Master completes transaction */
1370:RA8875.c      ****     }
1371:RA8875.c      ****     
1372:RA8875.c      ****     // discard blank data captured during transmission
1373:RA8875.c      ****     while (LCDSPI_SpiUartGetRxBufferSize() > 1) {
 4603              		.loc 1 1373 0 is_stmt 1
 4604 002e 04E0     		b	.L137
 4605              	.L138:
1374:RA8875.c      ****         x = LCDSPI_SpiUartReadRxData();
 4606              		.loc 1 1374 0
 4607 0030 FFF7FEFF 		bl	LCDSPI_SpiUartReadRxData
 4608 0034 0200     		movs	r2, r0
 4609 0036 FB1D     		adds	r3, r7, #7
 4610 0038 1A70     		strb	r2, [r3]
 4611              	.L137:
1373:RA8875.c      ****         x = LCDSPI_SpiUartReadRxData();
 4612              		.loc 1 1373 0
 4613 003a FFF7FEFF 		bl	LCDSPI_SpiUartGetRxBufferSize
 4614 003e 0300     		movs	r3, r0
 4615 0040 012B     		cmp	r3, #1
 4616 0042 F5D8     		bhi	.L138
1375:RA8875.c      ****     }
1376:RA8875.c      ****     x = LCDSPI_SpiUartReadRxData();
 4617              		.loc 1 1376 0
 4618 0044 FFF7FEFF 		bl	LCDSPI_SpiUartReadRxData
 4619 0048 0200     		movs	r2, r0
 4620 004a FB1D     		adds	r3, r7, #7
 4621 004c 1A70     		strb	r2, [r3]
1377:RA8875.c      **** 
1378:RA8875.c      ****     CyDelay(1);
 4622              		.loc 1 1378 0
 4623 004e 0120     		movs	r0, #1
 4624 0050 FFF7FEFF 		bl	CyDelay
1379:RA8875.c      ****     
1380:RA8875.c      ****     return x;
 4625              		.loc 1 1380 0
 4626 0054 FB1D     		adds	r3, r7, #7
 4627 0056 1B78     		ldrb	r3, [r3]
1381:RA8875.c      **** }
 4628              		.loc 1 1381 0
 4629 0058 1800     		movs	r0, r3
 4630 005a BD46     		mov	sp, r7
 4631 005c 02B0     		add	sp, sp, #8
 4632              		@ sp needed
 4633 005e 80BD     		pop	{r7, pc}
 4634              	.L141:
 4635              		.align	2
 4636              	.L140:
 4637 0060 000F2440 		.word	1076104960
 4638              		.cfi_endproc
 4639              	.LFE87:
 4640              		.size	readStatus, .-readStatus
 4641              		.text
 4642              	.Letext0:
 4643              		.file 2 "c:\\program files (x86)\\cypress\\psoc creator\\4.1\\psoc creator\\import\\gnu\\arm\\5.4.
 4644              		.file 3 "c:\\program files (x86)\\cypress\\psoc creator\\4.1\\psoc creator\\import\\gnu\\arm\\5.4.
ARM GAS  C:\Users\megan\AppData\Local\Temp\ccD8G3YI.s 			page 107


 4645              		.file 4 "Generated_Source\\PSoC4/cytypes.h"
 4646              		.file 5 "Generated_Source\\PSoC4/BLE_1_Stack.h"
 4647              		.file 6 "Generated_Source\\PSoC4/BLE_1_eventHandler.h"
 4648              		.file 7 "RA8875.h"
 4649              		.section	.debug_info,"",%progbits
 4650              	.Ldebug_info0:
 4651 0000 4F110000 		.4byte	0x114f
 4652 0004 0400     		.2byte	0x4
 4653 0006 00000000 		.4byte	.Ldebug_abbrev0
 4654 000a 04       		.byte	0x4
 4655 000b 01       		.uleb128 0x1
 4656 000c 20070000 		.4byte	.LASF190
 4657 0010 0C       		.byte	0xc
 4658 0011 1B0B0000 		.4byte	.LASF191
 4659 0015 18020000 		.4byte	.LASF192
 4660 0019 00000000 		.4byte	.Ldebug_ranges0+0
 4661 001d 00000000 		.4byte	0
 4662 0021 00000000 		.4byte	.Ldebug_line0
 4663 0025 02       		.uleb128 0x2
 4664 0026 01       		.byte	0x1
 4665 0027 06       		.byte	0x6
 4666 0028 F9010000 		.4byte	.LASF0
 4667 002c 03       		.uleb128 0x3
 4668 002d 9E000000 		.4byte	.LASF2
 4669 0031 02       		.byte	0x2
 4670 0032 1D       		.byte	0x1d
 4671 0033 37000000 		.4byte	0x37
 4672 0037 02       		.uleb128 0x2
 4673 0038 01       		.byte	0x1
 4674 0039 08       		.byte	0x8
 4675 003a 180A0000 		.4byte	.LASF1
 4676 003e 03       		.uleb128 0x3
 4677 003f D1030000 		.4byte	.LASF3
 4678 0043 02       		.byte	0x2
 4679 0044 29       		.byte	0x29
 4680 0045 49000000 		.4byte	0x49
 4681 0049 02       		.uleb128 0x2
 4682 004a 02       		.byte	0x2
 4683 004b 05       		.byte	0x5
 4684 004c 8E0A0000 		.4byte	.LASF4
 4685 0050 03       		.uleb128 0x3
 4686 0051 100C0000 		.4byte	.LASF5
 4687 0055 02       		.byte	0x2
 4688 0056 2B       		.byte	0x2b
 4689 0057 5B000000 		.4byte	0x5b
 4690 005b 02       		.uleb128 0x2
 4691 005c 02       		.byte	0x2
 4692 005d 07       		.byte	0x7
 4693 005e 92050000 		.4byte	.LASF6
 4694 0062 02       		.uleb128 0x2
 4695 0063 04       		.byte	0x4
 4696 0064 05       		.byte	0x5
 4697 0065 CB000000 		.4byte	.LASF7
 4698 0069 03       		.uleb128 0x3
 4699 006a BA030000 		.4byte	.LASF8
 4700 006e 02       		.byte	0x2
 4701 006f 41       		.byte	0x41
ARM GAS  C:\Users\megan\AppData\Local\Temp\ccD8G3YI.s 			page 108


 4702 0070 74000000 		.4byte	0x74
 4703 0074 02       		.uleb128 0x2
 4704 0075 04       		.byte	0x4
 4705 0076 07       		.byte	0x7
 4706 0077 DE040000 		.4byte	.LASF9
 4707 007b 02       		.uleb128 0x2
 4708 007c 08       		.byte	0x8
 4709 007d 05       		.byte	0x5
 4710 007e EB010000 		.4byte	.LASF10
 4711 0082 02       		.uleb128 0x2
 4712 0083 08       		.byte	0x8
 4713 0084 07       		.byte	0x7
 4714 0085 D4000000 		.4byte	.LASF11
 4715 0089 04       		.uleb128 0x4
 4716 008a 04       		.byte	0x4
 4717 008b 05       		.byte	0x5
 4718 008c 696E7400 		.ascii	"int\000"
 4719 0090 02       		.uleb128 0x2
 4720 0091 04       		.byte	0x4
 4721 0092 07       		.byte	0x7
 4722 0093 74040000 		.4byte	.LASF12
 4723 0097 03       		.uleb128 0x3
 4724 0098 8A0D0000 		.4byte	.LASF13
 4725 009c 03       		.byte	0x3
 4726 009d 18       		.byte	0x18
 4727 009e 2C000000 		.4byte	0x2c
 4728 00a2 03       		.uleb128 0x3
 4729 00a3 DA010000 		.4byte	.LASF14
 4730 00a7 03       		.byte	0x3
 4731 00a8 20       		.byte	0x20
 4732 00a9 3E000000 		.4byte	0x3e
 4733 00ad 03       		.uleb128 0x3
 4734 00ae 48030000 		.4byte	.LASF15
 4735 00b2 03       		.byte	0x3
 4736 00b3 24       		.byte	0x24
 4737 00b4 50000000 		.4byte	0x50
 4738 00b8 03       		.uleb128 0x3
 4739 00b9 810E0000 		.4byte	.LASF16
 4740 00bd 03       		.byte	0x3
 4741 00be 30       		.byte	0x30
 4742 00bf 69000000 		.4byte	0x69
 4743 00c3 05       		.uleb128 0x5
 4744 00c4 9A030000 		.4byte	.LASF17
 4745 00c8 04       		.byte	0x4
 4746 00c9 D401     		.2byte	0x1d4
 4747 00cb 74000000 		.4byte	0x74
 4748 00cf 02       		.uleb128 0x2
 4749 00d0 04       		.byte	0x4
 4750 00d1 04       		.byte	0x4
 4751 00d2 D6090000 		.4byte	.LASF18
 4752 00d6 02       		.uleb128 0x2
 4753 00d7 08       		.byte	0x8
 4754 00d8 04       		.byte	0x4
 4755 00d9 58030000 		.4byte	.LASF19
 4756 00dd 02       		.uleb128 0x2
 4757 00de 01       		.byte	0x1
 4758 00df 08       		.byte	0x8
ARM GAS  C:\Users\megan\AppData\Local\Temp\ccD8G3YI.s 			page 109


 4759 00e0 D00B0000 		.4byte	.LASF20
 4760 00e4 05       		.uleb128 0x5
 4761 00e5 F40B0000 		.4byte	.LASF21
 4762 00e9 04       		.byte	0x4
 4763 00ea 7E02     		.2byte	0x27e
 4764 00ec F0000000 		.4byte	0xf0
 4765 00f0 06       		.uleb128 0x6
 4766 00f1 C3000000 		.4byte	0xc3
 4767 00f5 02       		.uleb128 0x2
 4768 00f6 08       		.byte	0x8
 4769 00f7 04       		.byte	0x4
 4770 00f8 C40B0000 		.4byte	.LASF22
 4771 00fc 02       		.uleb128 0x2
 4772 00fd 04       		.byte	0x4
 4773 00fe 07       		.byte	0x7
 4774 00ff BD0D0000 		.4byte	.LASF23
 4775 0103 07       		.uleb128 0x7
 4776 0104 04       		.byte	0x4
 4777 0105 09010000 		.4byte	0x109
 4778 0109 08       		.uleb128 0x8
 4779 010a DD000000 		.4byte	0xdd
 4780 010e 09       		.uleb128 0x9
 4781 010f 01       		.byte	0x1
 4782 0110 37000000 		.4byte	0x37
 4783 0114 05       		.byte	0x5
 4784 0115 4D01     		.2byte	0x14d
 4785 0117 CC020000 		.4byte	0x2cc
 4786 011b 0A       		.uleb128 0xa
 4787 011c A5050000 		.4byte	.LASF24
 4788 0120 00       		.byte	0
 4789 0121 0A       		.uleb128 0xa
 4790 0122 05020000 		.4byte	.LASF25
 4791 0126 01       		.byte	0x1
 4792 0127 0A       		.uleb128 0xa
 4793 0128 B9000000 		.4byte	.LASF26
 4794 012c 02       		.byte	0x2
 4795 012d 0A       		.uleb128 0xa
 4796 012e A80C0000 		.4byte	.LASF27
 4797 0132 03       		.byte	0x3
 4798 0133 0A       		.uleb128 0xa
 4799 0134 F7000000 		.4byte	.LASF28
 4800 0138 04       		.byte	0x4
 4801 0139 0A       		.uleb128 0xa
 4802 013a 74000000 		.4byte	.LASF29
 4803 013e 05       		.byte	0x5
 4804 013f 0A       		.uleb128 0xa
 4805 0140 DA050000 		.4byte	.LASF30
 4806 0144 06       		.byte	0x6
 4807 0145 0A       		.uleb128 0xa
 4808 0146 F5070000 		.4byte	.LASF31
 4809 014a 20       		.byte	0x20
 4810 014b 0A       		.uleb128 0xa
 4811 014c B9020000 		.4byte	.LASF32
 4812 0150 21       		.byte	0x21
 4813 0151 0A       		.uleb128 0xa
 4814 0152 12060000 		.4byte	.LASF33
 4815 0156 22       		.byte	0x22
ARM GAS  C:\Users\megan\AppData\Local\Temp\ccD8G3YI.s 			page 110


 4816 0157 0A       		.uleb128 0xa
 4817 0158 2D090000 		.4byte	.LASF34
 4818 015c 23       		.byte	0x23
 4819 015d 0A       		.uleb128 0xa
 4820 015e 11090000 		.4byte	.LASF35
 4821 0162 24       		.byte	0x24
 4822 0163 0A       		.uleb128 0xa
 4823 0164 86080000 		.4byte	.LASF36
 4824 0168 25       		.byte	0x25
 4825 0169 0A       		.uleb128 0xa
 4826 016a 10030000 		.4byte	.LASF37
 4827 016e 26       		.byte	0x26
 4828 016f 0A       		.uleb128 0xa
 4829 0170 36060000 		.4byte	.LASF38
 4830 0174 27       		.byte	0x27
 4831 0175 0A       		.uleb128 0xa
 4832 0176 64010000 		.4byte	.LASF39
 4833 017a 28       		.byte	0x28
 4834 017b 0A       		.uleb128 0xa
 4835 017c FE0A0000 		.4byte	.LASF40
 4836 0180 29       		.byte	0x29
 4837 0181 0A       		.uleb128 0xa
 4838 0182 2A000000 		.4byte	.LASF41
 4839 0186 2A       		.byte	0x2a
 4840 0187 0A       		.uleb128 0xa
 4841 0188 8F020000 		.4byte	.LASF42
 4842 018c 2B       		.byte	0x2b
 4843 018d 0A       		.uleb128 0xa
 4844 018e 4A0A0000 		.4byte	.LASF43
 4845 0192 2C       		.byte	0x2c
 4846 0193 0A       		.uleb128 0xa
 4847 0194 8E010000 		.4byte	.LASF44
 4848 0198 2D       		.byte	0x2d
 4849 0199 0A       		.uleb128 0xa
 4850 019a 260A0000 		.4byte	.LASF45
 4851 019e 2E       		.byte	0x2e
 4852 019f 0A       		.uleb128 0xa
 4853 01a0 C10C0000 		.4byte	.LASF46
 4854 01a4 2F       		.byte	0x2f
 4855 01a5 0A       		.uleb128 0xa
 4856 01a6 DB080000 		.4byte	.LASF47
 4857 01aa 30       		.byte	0x30
 4858 01ab 0A       		.uleb128 0xa
 4859 01ac 3F0E0000 		.4byte	.LASF48
 4860 01b0 31       		.byte	0x31
 4861 01b1 0A       		.uleb128 0xa
 4862 01b2 BA080000 		.4byte	.LASF49
 4863 01b6 32       		.byte	0x32
 4864 01b7 0A       		.uleb128 0xa
 4865 01b8 720B0000 		.4byte	.LASF50
 4866 01bc 33       		.byte	0x33
 4867 01bd 0A       		.uleb128 0xa
 4868 01be F0040000 		.4byte	.LASF51
 4869 01c2 34       		.byte	0x34
 4870 01c3 0A       		.uleb128 0xa
 4871 01c4 FF030000 		.4byte	.LASF52
 4872 01c8 35       		.byte	0x35
ARM GAS  C:\Users\megan\AppData\Local\Temp\ccD8G3YI.s 			page 111


 4873 01c9 0A       		.uleb128 0xa
 4874 01ca 9D060000 		.4byte	.LASF53
 4875 01ce 36       		.byte	0x36
 4876 01cf 0A       		.uleb128 0xa
 4877 01d0 C3060000 		.4byte	.LASF54
 4878 01d4 37       		.byte	0x37
 4879 01d5 0A       		.uleb128 0xa
 4880 01d6 580B0000 		.4byte	.LASF55
 4881 01da 40       		.byte	0x40
 4882 01db 0A       		.uleb128 0xa
 4883 01dc 23080000 		.4byte	.LASF56
 4884 01e0 41       		.byte	0x41
 4885 01e1 0A       		.uleb128 0xa
 4886 01e2 630E0000 		.4byte	.LASF57
 4887 01e6 42       		.byte	0x42
 4888 01e7 0A       		.uleb128 0xa
 4889 01e8 340D0000 		.4byte	.LASF58
 4890 01ec 43       		.byte	0x43
 4891 01ed 0A       		.uleb128 0xa
 4892 01ee 16050000 		.4byte	.LASF59
 4893 01f2 44       		.byte	0x44
 4894 01f3 0A       		.uleb128 0xa
 4895 01f4 AF090000 		.4byte	.LASF60
 4896 01f8 45       		.byte	0x45
 4897 01f9 0A       		.uleb128 0xa
 4898 01fa A0040000 		.4byte	.LASF61
 4899 01fe 46       		.byte	0x46
 4900 01ff 0A       		.uleb128 0xa
 4901 0200 BC050000 		.4byte	.LASF62
 4902 0204 47       		.byte	0x47
 4903 0205 0A       		.uleb128 0xa
 4904 0206 F80C0000 		.4byte	.LASF63
 4905 020a 48       		.byte	0x48
 4906 020b 0A       		.uleb128 0xa
 4907 020c D0020000 		.4byte	.LASF64
 4908 0210 49       		.byte	0x49
 4909 0211 0A       		.uleb128 0xa
 4910 0212 00000000 		.4byte	.LASF65
 4911 0216 4A       		.byte	0x4a
 4912 0217 0A       		.uleb128 0xa
 4913 0218 D50B0000 		.4byte	.LASF66
 4914 021c 4B       		.byte	0x4b
 4915 021d 0A       		.uleb128 0xa
 4916 021e 83060000 		.4byte	.LASF67
 4917 0222 4C       		.byte	0x4c
 4918 0223 0A       		.uleb128 0xa
 4919 0224 A0080000 		.4byte	.LASF68
 4920 0228 4D       		.byte	0x4d
 4921 0229 0A       		.uleb128 0xa
 4922 022a F8060000 		.4byte	.LASF69
 4923 022e 4E       		.byte	0x4e
 4924 022f 0A       		.uleb128 0xa
 4925 0230 DF0A0000 		.4byte	.LASF70
 4926 0234 4F       		.byte	0x4f
 4927 0235 0A       		.uleb128 0xa
 4928 0236 F3050000 		.4byte	.LASF71
 4929 023a 50       		.byte	0x50
ARM GAS  C:\Users\megan\AppData\Local\Temp\ccD8G3YI.s 			page 112


 4930 023b 0A       		.uleb128 0xa
 4931 023c 9E0D0000 		.4byte	.LASF72
 4932 0240 51       		.byte	0x51
 4933 0241 0A       		.uleb128 0xa
 4934 0242 53090000 		.4byte	.LASF73
 4935 0246 52       		.byte	0x52
 4936 0247 0A       		.uleb128 0xa
 4937 0248 62060000 		.4byte	.LASF74
 4938 024c 53       		.byte	0x53
 4939 024d 0A       		.uleb128 0xa
 4940 024e 370B0000 		.4byte	.LASF75
 4941 0252 54       		.byte	0x54
 4942 0253 0A       		.uleb128 0xa
 4943 0254 34050000 		.4byte	.LASF76
 4944 0258 55       		.byte	0x55
 4945 0259 0A       		.uleb128 0xa
 4946 025a 52040000 		.4byte	.LASF77
 4947 025e 56       		.byte	0x56
 4948 025f 0A       		.uleb128 0xa
 4949 0260 1B0C0000 		.4byte	.LASF78
 4950 0264 57       		.byte	0x57
 4951 0265 0A       		.uleb128 0xa
 4952 0266 2F040000 		.4byte	.LASF79
 4953 026a 58       		.byte	0x58
 4954 026b 0A       		.uleb128 0xa
 4955 026c 3E010000 		.4byte	.LASF80
 4956 0270 70       		.byte	0x70
 4957 0271 0A       		.uleb128 0xa
 4958 0272 190E0000 		.4byte	.LASF81
 4959 0276 71       		.byte	0x71
 4960 0277 0A       		.uleb128 0xa
 4961 0278 C0070000 		.4byte	.LASF82
 4962 027c 72       		.byte	0x72
 4963 027d 0A       		.uleb128 0xa
 4964 027e 3E080000 		.4byte	.LASF83
 4965 0282 73       		.byte	0x73
 4966 0283 0A       		.uleb128 0xa
 4967 0284 91090000 		.4byte	.LASF84
 4968 0288 74       		.byte	0x74
 4969 0289 0A       		.uleb128 0xa
 4970 028a EB0D0000 		.4byte	.LASF85
 4971 028e 75       		.byte	0x75
 4972 028f 0A       		.uleb128 0xa
 4973 0290 53000000 		.4byte	.LASF86
 4974 0294 76       		.byte	0x76
 4975 0295 0A       		.uleb128 0xa
 4976 0296 780C0000 		.4byte	.LASF87
 4977 029a 77       		.byte	0x77
 4978 029b 0A       		.uleb128 0xa
 4979 029c 4C0C0000 		.4byte	.LASF88
 4980 02a0 78       		.byte	0x78
 4981 02a1 0A       		.uleb128 0xa
 4982 02a2 B7010000 		.4byte	.LASF89
 4983 02a6 79       		.byte	0x79
 4984 02a7 0A       		.uleb128 0xa
 4985 02a8 DB030000 		.4byte	.LASF90
 4986 02ac 7A       		.byte	0x7a
ARM GAS  C:\Users\megan\AppData\Local\Temp\ccD8G3YI.s 			page 113


 4987 02ad 0A       		.uleb128 0xa
 4988 02ae 20010000 		.4byte	.LASF91
 4989 02b2 FA       		.byte	0xfa
 4990 02b3 0A       		.uleb128 0xa
 4991 02b4 81040000 		.4byte	.LASF92
 4992 02b8 FB       		.byte	0xfb
 4993 02b9 0A       		.uleb128 0xa
 4994 02ba A80A0000 		.4byte	.LASF93
 4995 02be FC       		.byte	0xfc
 4996 02bf 0A       		.uleb128 0xa
 4997 02c0 8A0E0000 		.4byte	.LASF94
 4998 02c4 FD       		.byte	0xfd
 4999 02c5 0A       		.uleb128 0xa
 5000 02c6 AC030000 		.4byte	.LASF95
 5001 02ca FF       		.byte	0xff
 5002 02cb 00       		.byte	0
 5003 02cc 09       		.uleb128 0x9
 5004 02cd 01       		.byte	0x1
 5005 02ce 37000000 		.4byte	0x37
 5006 02d2 06       		.byte	0x6
 5007 02d3 9308     		.2byte	0x893
 5008 02d5 F8020000 		.4byte	0x2f8
 5009 02d9 0A       		.uleb128 0xa
 5010 02da B50B0000 		.4byte	.LASF96
 5011 02de 00       		.byte	0
 5012 02df 0A       		.uleb128 0xa
 5013 02e0 F9090000 		.4byte	.LASF97
 5014 02e4 01       		.byte	0x1
 5015 02e5 0A       		.uleb128 0xa
 5016 02e6 74090000 		.4byte	.LASF98
 5017 02ea 02       		.byte	0x2
 5018 02eb 0A       		.uleb128 0xa
 5019 02ec 5F030000 		.4byte	.LASF99
 5020 02f0 02       		.byte	0x2
 5021 02f1 0A       		.uleb128 0xa
 5022 02f2 990B0000 		.4byte	.LASF100
 5023 02f6 03       		.byte	0x3
 5024 02f7 00       		.byte	0
 5025 02f8 0B       		.uleb128 0xb
 5026 02f9 1F0D0000 		.4byte	.LASF193
 5027 02fd 01       		.byte	0x1
 5028 02fe 37000000 		.4byte	0x37
 5029 0302 07       		.byte	0x7
 5030 0303 30       		.byte	0x30
 5031 0304 15030000 		.4byte	0x315
 5032 0308 0A       		.uleb128 0xa
 5033 0309 7B050000 		.4byte	.LASF101
 5034 030d 00       		.byte	0
 5035 030e 0A       		.uleb128 0xa
 5036 030f DC070000 		.4byte	.LASF102
 5037 0313 01       		.byte	0x1
 5038 0314 00       		.byte	0
 5039 0315 0C       		.uleb128 0xc
 5040 0316 01       		.byte	0x1
 5041 0317 37000000 		.4byte	0x37
 5042 031b 07       		.byte	0x7
 5043 031c 44       		.byte	0x44
ARM GAS  C:\Users\megan\AppData\Local\Temp\ccD8G3YI.s 			page 114


 5044 031d 2E030000 		.4byte	0x32e
 5045 0321 0A       		.uleb128 0xa
 5046 0322 A20A0000 		.4byte	.LASF103
 5047 0326 00       		.byte	0
 5048 0327 0A       		.uleb128 0xa
 5049 0328 AB0E0000 		.4byte	.LASF104
 5050 032c 01       		.byte	0x1
 5051 032d 00       		.byte	0
 5052 032e 03       		.uleb128 0x3
 5053 032f 440C0000 		.4byte	.LASF105
 5054 0333 07       		.byte	0x7
 5055 0334 47       		.byte	0x47
 5056 0335 15030000 		.4byte	0x315
 5057 0339 03       		.uleb128 0x3
 5058 033a BE060000 		.4byte	.LASF106
 5059 033e 07       		.byte	0x7
 5060 033f 47       		.byte	0x47
 5061 0340 15030000 		.4byte	0x315
 5062 0344 0D       		.uleb128 0xd
 5063 0345 C1040000 		.4byte	.LASF132
 5064 0349 01       		.byte	0x1
 5065 034a 4E       		.byte	0x4e
 5066 034b 2E030000 		.4byte	0x32e
 5067 034f 00000000 		.4byte	.LFB35
 5068 0353 A0000000 		.4byte	.LFE35-.LFB35
 5069 0357 01       		.uleb128 0x1
 5070 0358 9C       		.byte	0x9c
 5071 0359 76030000 		.4byte	0x376
 5072 035d 0E       		.uleb128 0xe
 5073 035e 7300     		.ascii	"s\000"
 5074 0360 01       		.byte	0x1
 5075 0361 4E       		.byte	0x4e
 5076 0362 F8020000 		.4byte	0x2f8
 5077 0366 02       		.uleb128 0x2
 5078 0367 91       		.byte	0x91
 5079 0368 67       		.sleb128 -25
 5080 0369 0F       		.uleb128 0xf
 5081 036a 7800     		.ascii	"x\000"
 5082 036c 01       		.byte	0x1
 5083 036d 4F       		.byte	0x4f
 5084 036e 97000000 		.4byte	0x97
 5085 0372 02       		.uleb128 0x2
 5086 0373 91       		.byte	0x91
 5087 0374 6F       		.sleb128 -17
 5088 0375 00       		.byte	0
 5089 0376 10       		.uleb128 0x10
 5090 0377 06030000 		.4byte	.LASF107
 5091 037b 01       		.byte	0x1
 5092 037c A3       		.byte	0xa3
 5093 037d 00000000 		.4byte	.LFB36
 5094 0381 22000000 		.4byte	.LFE36-.LFB36
 5095 0385 01       		.uleb128 0x1
 5096 0386 9C       		.byte	0x9c
 5097 0387 10       		.uleb128 0x10
 5098 0388 8A050000 		.4byte	.LASF108
 5099 038c 01       		.byte	0x1
 5100 038d AF       		.byte	0xaf
ARM GAS  C:\Users\megan\AppData\Local\Temp\ccD8G3YI.s 			page 115


 5101 038e 00000000 		.4byte	.LFB37
 5102 0392 50000000 		.4byte	.LFE37-.LFB37
 5103 0396 01       		.uleb128 0x1
 5104 0397 9C       		.byte	0x9c
 5105 0398 11       		.uleb128 0x11
 5106 0399 D40A0000 		.4byte	.LASF119
 5107 039d 01       		.byte	0x1
 5108 039e C4       		.byte	0xc4
 5109 039f 00000000 		.4byte	.LFB38
 5110 03a3 3C020000 		.4byte	.LFE38-.LFB38
 5111 03a7 01       		.uleb128 0x1
 5112 03a8 9C       		.byte	0x9c
 5113 03a9 1E040000 		.4byte	0x41e
 5114 03ad 12       		.uleb128 0x12
 5115 03ae 090A0000 		.4byte	.LASF109
 5116 03b2 01       		.byte	0x1
 5117 03b3 C9       		.byte	0xc9
 5118 03b4 97000000 		.4byte	0x97
 5119 03b8 02       		.uleb128 0x2
 5120 03b9 91       		.byte	0x91
 5121 03ba 77       		.sleb128 -9
 5122 03bb 12       		.uleb128 0x12
 5123 03bc E7090000 		.4byte	.LASF110
 5124 03c0 01       		.byte	0x1
 5125 03c1 CA       		.byte	0xca
 5126 03c2 97000000 		.4byte	0x97
 5127 03c6 02       		.uleb128 0x2
 5128 03c7 91       		.byte	0x91
 5129 03c8 76       		.sleb128 -10
 5130 03c9 12       		.uleb128 0x12
 5131 03ca 970C0000 		.4byte	.LASF111
 5132 03ce 01       		.byte	0x1
 5133 03cf CB       		.byte	0xcb
 5134 03d0 97000000 		.4byte	0x97
 5135 03d4 02       		.uleb128 0x2
 5136 03d5 91       		.byte	0x91
 5137 03d6 75       		.sleb128 -11
 5138 03d7 12       		.uleb128 0x12
 5139 03d8 D30D0000 		.4byte	.LASF112
 5140 03dc 01       		.byte	0x1
 5141 03dd CC       		.byte	0xcc
 5142 03de 97000000 		.4byte	0x97
 5143 03e2 02       		.uleb128 0x2
 5144 03e3 91       		.byte	0x91
 5145 03e4 74       		.sleb128 -12
 5146 03e5 12       		.uleb128 0x12
 5147 03e6 EA0C0000 		.4byte	.LASF113
 5148 03ea 01       		.byte	0x1
 5149 03eb CD       		.byte	0xcd
 5150 03ec 97000000 		.4byte	0x97
 5151 03f0 02       		.uleb128 0x2
 5152 03f1 91       		.byte	0x91
 5153 03f2 73       		.sleb128 -13
 5154 03f3 12       		.uleb128 0x12
 5155 03f4 E9020000 		.4byte	.LASF114
 5156 03f8 01       		.byte	0x1
 5157 03f9 CE       		.byte	0xce
ARM GAS  C:\Users\megan\AppData\Local\Temp\ccD8G3YI.s 			page 116


 5158 03fa 97000000 		.4byte	0x97
 5159 03fe 02       		.uleb128 0x2
 5160 03ff 91       		.byte	0x91
 5161 0400 72       		.sleb128 -14
 5162 0401 12       		.uleb128 0x12
 5163 0402 760A0000 		.4byte	.LASF115
 5164 0406 01       		.byte	0x1
 5165 0407 CF       		.byte	0xcf
 5166 0408 AD000000 		.4byte	0xad
 5167 040c 02       		.uleb128 0x2
 5168 040d 91       		.byte	0x91
 5169 040e 70       		.sleb128 -16
 5170 040f 12       		.uleb128 0x12
 5171 0410 EB000000 		.4byte	.LASF116
 5172 0414 01       		.byte	0x1
 5173 0415 D0       		.byte	0xd0
 5174 0416 AD000000 		.4byte	0xad
 5175 041a 02       		.uleb128 0x2
 5176 041b 91       		.byte	0x91
 5177 041c 6E       		.sleb128 -18
 5178 041d 00       		.byte	0
 5179 041e 13       		.uleb128 0x13
 5180 041f 75050000 		.4byte	.LASF117
 5181 0423 01       		.byte	0x1
 5182 0424 1801     		.2byte	0x118
 5183 0426 AD000000 		.4byte	0xad
 5184 042a 00000000 		.4byte	.LFB39
 5185 042e 14000000 		.4byte	.LFE39-.LFB39
 5186 0432 01       		.uleb128 0x1
 5187 0433 9C       		.byte	0x9c
 5188 0434 13       		.uleb128 0x13
 5189 0435 120E0000 		.4byte	.LASF118
 5190 0439 01       		.byte	0x1
 5191 043a 2101     		.2byte	0x121
 5192 043c AD000000 		.4byte	0xad
 5193 0440 00000000 		.4byte	.LFB40
 5194 0444 14000000 		.4byte	.LFE40-.LFB40
 5195 0448 01       		.uleb128 0x1
 5196 0449 9C       		.byte	0x9c
 5197 044a 14       		.uleb128 0x14
 5198 044b 08090000 		.4byte	.LASF120
 5199 044f 01       		.byte	0x1
 5200 0450 2A01     		.2byte	0x12a
 5201 0452 00000000 		.4byte	.LFB41
 5202 0456 54000000 		.4byte	.LFE41-.LFB41
 5203 045a 01       		.uleb128 0x1
 5204 045b 9C       		.byte	0x9c
 5205 045c 70040000 		.4byte	0x470
 5206 0460 15       		.uleb128 0x15
 5207 0461 1C040000 		.4byte	.LASF121
 5208 0465 01       		.byte	0x1
 5209 0466 2E01     		.2byte	0x12e
 5210 0468 97000000 		.4byte	0x97
 5211 046c 02       		.uleb128 0x2
 5212 046d 91       		.byte	0x91
 5213 046e 6F       		.sleb128 -17
 5214 046f 00       		.byte	0
ARM GAS  C:\Users\megan\AppData\Local\Temp\ccD8G3YI.s 			page 117


 5215 0470 14       		.uleb128 0x14
 5216 0471 90000000 		.4byte	.LASF122
 5217 0475 01       		.byte	0x1
 5218 0476 4301     		.2byte	0x143
 5219 0478 00000000 		.4byte	.LFB42
 5220 047c 6A000000 		.4byte	.LFE42-.LFB42
 5221 0480 01       		.uleb128 0x1
 5222 0481 9C       		.byte	0x9c
 5223 0482 A1040000 		.4byte	0x4a1
 5224 0486 16       		.uleb128 0x16
 5225 0487 7800     		.ascii	"x\000"
 5226 0489 01       		.byte	0x1
 5227 048a 4301     		.2byte	0x143
 5228 048c AD000000 		.4byte	0xad
 5229 0490 02       		.uleb128 0x2
 5230 0491 91       		.byte	0x91
 5231 0492 76       		.sleb128 -10
 5232 0493 16       		.uleb128 0x16
 5233 0494 7900     		.ascii	"y\000"
 5234 0496 01       		.byte	0x1
 5235 0497 4301     		.2byte	0x143
 5236 0499 AD000000 		.4byte	0xad
 5237 049d 02       		.uleb128 0x2
 5238 049e 91       		.byte	0x91
 5239 049f 74       		.sleb128 -12
 5240 04a0 00       		.byte	0
 5241 04a1 14       		.uleb128 0x14
 5242 04a2 87090000 		.4byte	.LASF123
 5243 04a6 01       		.byte	0x1
 5244 04a7 5801     		.2byte	0x158
 5245 04a9 00000000 		.4byte	.LFB43
 5246 04ad D8000000 		.4byte	.LFE43-.LFB43
 5247 04b1 01       		.uleb128 0x1
 5248 04b2 9C       		.byte	0x9c
 5249 04b3 E5040000 		.4byte	0x4e5
 5250 04b7 17       		.uleb128 0x17
 5251 04b8 16070000 		.4byte	.LASF124
 5252 04bc 01       		.byte	0x1
 5253 04bd 5801     		.2byte	0x158
 5254 04bf AD000000 		.4byte	0xad
 5255 04c3 02       		.uleb128 0x2
 5256 04c4 91       		.byte	0x91
 5257 04c5 66       		.sleb128 -26
 5258 04c6 17       		.uleb128 0x17
 5259 04c7 5C080000 		.4byte	.LASF125
 5260 04cb 01       		.byte	0x1
 5261 04cc 5801     		.2byte	0x158
 5262 04ce AD000000 		.4byte	0xad
 5263 04d2 02       		.uleb128 0x2
 5264 04d3 91       		.byte	0x91
 5265 04d4 64       		.sleb128 -28
 5266 04d5 15       		.uleb128 0x15
 5267 04d6 1C040000 		.4byte	.LASF121
 5268 04da 01       		.byte	0x1
 5269 04db 6C01     		.2byte	0x16c
 5270 04dd 97000000 		.4byte	0x97
 5271 04e1 02       		.uleb128 0x2
ARM GAS  C:\Users\megan\AppData\Local\Temp\ccD8G3YI.s 			page 118


 5272 04e2 91       		.byte	0x91
 5273 04e3 6F       		.sleb128 -17
 5274 04e4 00       		.byte	0
 5275 04e5 14       		.uleb128 0x14
 5276 04e6 670D0000 		.4byte	.LASF126
 5277 04ea 01       		.byte	0x1
 5278 04eb 7801     		.2byte	0x178
 5279 04ed 00000000 		.4byte	.LFB44
 5280 04f1 8A000000 		.4byte	.LFE44-.LFB44
 5281 04f5 01       		.uleb128 0x1
 5282 04f6 9C       		.byte	0x9c
 5283 04f7 1A050000 		.4byte	0x51a
 5284 04fb 17       		.uleb128 0x17
 5285 04fc 16070000 		.4byte	.LASF124
 5286 0500 01       		.byte	0x1
 5287 0501 7801     		.2byte	0x178
 5288 0503 AD000000 		.4byte	0xad
 5289 0507 02       		.uleb128 0x2
 5290 0508 91       		.byte	0x91
 5291 0509 66       		.sleb128 -26
 5292 050a 15       		.uleb128 0x15
 5293 050b 1C040000 		.4byte	.LASF121
 5294 050f 01       		.byte	0x1
 5295 0510 8701     		.2byte	0x187
 5296 0512 97000000 		.4byte	0x97
 5297 0516 02       		.uleb128 0x2
 5298 0517 91       		.byte	0x91
 5299 0518 6F       		.sleb128 -17
 5300 0519 00       		.byte	0
 5301 051a 14       		.uleb128 0x14
 5302 051b 920D0000 		.4byte	.LASF127
 5303 051f 01       		.byte	0x1
 5304 0520 9E01     		.2byte	0x19e
 5305 0522 00000000 		.4byte	.LFB45
 5306 0526 88000000 		.4byte	.LFE45-.LFB45
 5307 052a 01       		.uleb128 0x1
 5308 052b 9C       		.byte	0x9c
 5309 052c 4F050000 		.4byte	0x54f
 5310 0530 17       		.uleb128 0x17
 5311 0531 1E000000 		.4byte	.LASF128
 5312 0535 01       		.byte	0x1
 5313 0536 9E01     		.2byte	0x19e
 5314 0538 97000000 		.4byte	0x97
 5315 053c 02       		.uleb128 0x2
 5316 053d 91       		.byte	0x91
 5317 053e 67       		.sleb128 -25
 5318 053f 15       		.uleb128 0x15
 5319 0540 1C040000 		.4byte	.LASF121
 5320 0544 01       		.byte	0x1
 5321 0545 A401     		.2byte	0x1a4
 5322 0547 97000000 		.4byte	0x97
 5323 054b 02       		.uleb128 0x2
 5324 054c 91       		.byte	0x91
 5325 054d 6F       		.sleb128 -17
 5326 054e 00       		.byte	0
 5327 054f 14       		.uleb128 0x14
 5328 0550 16010000 		.4byte	.LASF129
ARM GAS  C:\Users\megan\AppData\Local\Temp\ccD8G3YI.s 			page 119


 5329 0554 01       		.byte	0x1
 5330 0555 B501     		.2byte	0x1b5
 5331 0557 00000000 		.4byte	.LFB46
 5332 055b 7C000000 		.4byte	.LFE46-.LFB46
 5333 055f 01       		.uleb128 0x1
 5334 0560 9C       		.byte	0x9c
 5335 0561 9B050000 		.4byte	0x59b
 5336 0565 17       		.uleb128 0x17
 5337 0566 76030000 		.4byte	.LASF130
 5338 056a 01       		.byte	0x1
 5339 056b B501     		.2byte	0x1b5
 5340 056d 03010000 		.4byte	0x103
 5341 0571 02       		.uleb128 0x2
 5342 0572 91       		.byte	0x91
 5343 0573 6C       		.sleb128 -20
 5344 0574 16       		.uleb128 0x16
 5345 0575 6C656E00 		.ascii	"len\000"
 5346 0579 01       		.byte	0x1
 5347 057a B501     		.2byte	0x1b5
 5348 057c AD000000 		.4byte	0xad
 5349 0580 02       		.uleb128 0x2
 5350 0581 91       		.byte	0x91
 5351 0582 6A       		.sleb128 -22
 5352 0583 18       		.uleb128 0x18
 5353 0584 2A000000 		.4byte	.LBB2
 5354 0588 46000000 		.4byte	.LBE2-.LBB2
 5355 058c 19       		.uleb128 0x19
 5356 058d 6900     		.ascii	"i\000"
 5357 058f 01       		.byte	0x1
 5358 0590 B901     		.2byte	0x1b9
 5359 0592 AD000000 		.4byte	0xad
 5360 0596 02       		.uleb128 0x2
 5361 0597 91       		.byte	0x91
 5362 0598 76       		.sleb128 -10
 5363 0599 00       		.byte	0
 5364 059a 00       		.byte	0
 5365 059b 14       		.uleb128 0x14
 5366 059c 55060000 		.4byte	.LASF131
 5367 05a0 01       		.byte	0x1
 5368 05a1 CD01     		.2byte	0x1cd
 5369 05a3 00000000 		.4byte	.LFB47
 5370 05a7 34000000 		.4byte	.LFE47-.LFB47
 5371 05ab 01       		.uleb128 0x1
 5372 05ac 9C       		.byte	0x9c
 5373 05ad C1050000 		.4byte	0x5c1
 5374 05b1 15       		.uleb128 0x15
 5375 05b2 1C040000 		.4byte	.LASF121
 5376 05b6 01       		.byte	0x1
 5377 05b7 CF01     		.2byte	0x1cf
 5378 05b9 97000000 		.4byte	0x97
 5379 05bd 02       		.uleb128 0x2
 5380 05be 91       		.byte	0x91
 5381 05bf 6F       		.sleb128 -17
 5382 05c0 00       		.byte	0
 5383 05c1 1A       		.uleb128 0x1a
 5384 05c2 E2010000 		.4byte	.LASF133
 5385 05c6 01       		.byte	0x1
ARM GAS  C:\Users\megan\AppData\Local\Temp\ccD8G3YI.s 			page 120


 5386 05c7 D901     		.2byte	0x1d9
 5387 05c9 2E030000 		.4byte	0x32e
 5388 05cd 00000000 		.4byte	.LFB48
 5389 05d1 40000000 		.4byte	.LFE48-.LFB48
 5390 05d5 01       		.uleb128 0x1
 5391 05d6 9C       		.byte	0x9c
 5392 05d7 13060000 		.4byte	0x613
 5393 05db 17       		.uleb128 0x17
 5394 05dc 40030000 		.4byte	.LASF134
 5395 05e0 01       		.byte	0x1
 5396 05e1 D901     		.2byte	0x1d9
 5397 05e3 97000000 		.4byte	0x97
 5398 05e7 02       		.uleb128 0x2
 5399 05e8 91       		.byte	0x91
 5400 05e9 67       		.sleb128 -25
 5401 05ea 17       		.uleb128 0x17
 5402 05eb E20D0000 		.4byte	.LASF135
 5403 05ef 01       		.byte	0x1
 5404 05f0 D901     		.2byte	0x1d9
 5405 05f2 97000000 		.4byte	0x97
 5406 05f6 02       		.uleb128 0x2
 5407 05f7 91       		.byte	0x91
 5408 05f8 66       		.sleb128 -26
 5409 05f9 18       		.uleb128 0x18
 5410 05fa 12000000 		.4byte	.LBB3
 5411 05fe 26000000 		.4byte	.LBE3-.LBB3
 5412 0602 15       		.uleb128 0x15
 5413 0603 1C040000 		.4byte	.LASF121
 5414 0607 01       		.byte	0x1
 5415 0608 DD01     		.2byte	0x1dd
 5416 060a 97000000 		.4byte	0x97
 5417 060e 02       		.uleb128 0x2
 5418 060f 91       		.byte	0x91
 5419 0610 6F       		.sleb128 -17
 5420 0611 00       		.byte	0
 5421 0612 00       		.byte	0
 5422 0613 14       		.uleb128 0x14
 5423 0614 24000000 		.4byte	.LASF136
 5424 0618 01       		.byte	0x1
 5425 0619 ED01     		.2byte	0x1ed
 5426 061b 00000000 		.4byte	.LFB49
 5427 061f 5A000000 		.4byte	.LFE49-.LFB49
 5428 0623 01       		.uleb128 0x1
 5429 0624 9C       		.byte	0x9c
 5430 0625 44060000 		.4byte	0x644
 5431 0629 16       		.uleb128 0x16
 5432 062a 7800     		.ascii	"x\000"
 5433 062c 01       		.byte	0x1
 5434 062d ED01     		.2byte	0x1ed
 5435 062f AD000000 		.4byte	0xad
 5436 0633 02       		.uleb128 0x2
 5437 0634 91       		.byte	0x91
 5438 0635 76       		.sleb128 -10
 5439 0636 16       		.uleb128 0x16
 5440 0637 7900     		.ascii	"y\000"
 5441 0639 01       		.byte	0x1
 5442 063a ED01     		.2byte	0x1ed
ARM GAS  C:\Users\megan\AppData\Local\Temp\ccD8G3YI.s 			page 121


 5443 063c AD000000 		.4byte	0xad
 5444 0640 02       		.uleb128 0x2
 5445 0641 91       		.byte	0x91
 5446 0642 74       		.sleb128 -12
 5447 0643 00       		.byte	0
 5448 0644 14       		.uleb128 0x14
 5449 0645 2C0B0000 		.4byte	.LASF137
 5450 0649 01       		.byte	0x1
 5451 064a FC01     		.2byte	0x1fc
 5452 064c 00000000 		.4byte	.LFB50
 5453 0650 40000000 		.4byte	.LFE50-.LFB50
 5454 0654 01       		.uleb128 0x1
 5455 0655 9C       		.byte	0x9c
 5456 0656 77060000 		.4byte	0x677
 5457 065a 16       		.uleb128 0x16
 5458 065b 6E756D00 		.ascii	"num\000"
 5459 065f 01       		.byte	0x1
 5460 0660 FC01     		.2byte	0x1fc
 5461 0662 B8000000 		.4byte	0xb8
 5462 0666 02       		.uleb128 0x2
 5463 0667 91       		.byte	0x91
 5464 0668 74       		.sleb128 -12
 5465 0669 16       		.uleb128 0x16
 5466 066a 7000     		.ascii	"p\000"
 5467 066c 01       		.byte	0x1
 5468 066d FC01     		.2byte	0x1fc
 5469 066f AD000000 		.4byte	0xad
 5470 0673 02       		.uleb128 0x2
 5471 0674 91       		.byte	0x91
 5472 0675 72       		.sleb128 -14
 5473 0676 00       		.byte	0
 5474 0677 1B       		.uleb128 0x1b
 5475 0678 7C080000 		.4byte	.LASF138
 5476 067c 01       		.byte	0x1
 5477 067d 0E02     		.2byte	0x20e
 5478 067f 00000000 		.4byte	.LFB51
 5479 0683 1C000000 		.4byte	.LFE51-.LFB51
 5480 0687 01       		.uleb128 0x1
 5481 0688 9C       		.byte	0x9c
 5482 0689 14       		.uleb128 0x14
 5483 068a 770D0000 		.4byte	.LASF139
 5484 068e 01       		.byte	0x1
 5485 068f 1D02     		.2byte	0x21d
 5486 0691 00000000 		.4byte	.LFB52
 5487 0695 8E000000 		.4byte	.LFE52-.LFB52
 5488 0699 01       		.uleb128 0x1
 5489 069a 9C       		.byte	0x9c
 5490 069b C9060000 		.4byte	0x6c9
 5491 069f 16       		.uleb128 0x16
 5492 06a0 7800     		.ascii	"x\000"
 5493 06a2 01       		.byte	0x1
 5494 06a3 1D02     		.2byte	0x21d
 5495 06a5 A2000000 		.4byte	0xa2
 5496 06a9 02       		.uleb128 0x2
 5497 06aa 91       		.byte	0x91
 5498 06ab 6E       		.sleb128 -18
 5499 06ac 16       		.uleb128 0x16
ARM GAS  C:\Users\megan\AppData\Local\Temp\ccD8G3YI.s 			page 122


 5500 06ad 7900     		.ascii	"y\000"
 5501 06af 01       		.byte	0x1
 5502 06b0 1D02     		.2byte	0x21d
 5503 06b2 A2000000 		.4byte	0xa2
 5504 06b6 02       		.uleb128 0x2
 5505 06b7 91       		.byte	0x91
 5506 06b8 6C       		.sleb128 -20
 5507 06b9 17       		.uleb128 0x17
 5508 06ba BA070000 		.4byte	.LASF140
 5509 06be 01       		.byte	0x1
 5510 06bf 1D02     		.2byte	0x21d
 5511 06c1 AD000000 		.4byte	0xad
 5512 06c5 02       		.uleb128 0x2
 5513 06c6 91       		.byte	0x91
 5514 06c7 6A       		.sleb128 -22
 5515 06c8 00       		.byte	0
 5516 06c9 14       		.uleb128 0x14
 5517 06ca 84030000 		.4byte	.LASF141
 5518 06ce 01       		.byte	0x1
 5519 06cf 3A02     		.2byte	0x23a
 5520 06d1 00000000 		.4byte	.LFB53
 5521 06d5 38010000 		.4byte	.LFE53-.LFB53
 5522 06d9 01       		.uleb128 0x1
 5523 06da 9C       		.byte	0x9c
 5524 06db 27070000 		.4byte	0x727
 5525 06df 16       		.uleb128 0x16
 5526 06e0 783000   		.ascii	"x0\000"
 5527 06e3 01       		.byte	0x1
 5528 06e4 3A02     		.2byte	0x23a
 5529 06e6 A2000000 		.4byte	0xa2
 5530 06ea 02       		.uleb128 0x2
 5531 06eb 91       		.byte	0x91
 5532 06ec 6E       		.sleb128 -18
 5533 06ed 16       		.uleb128 0x16
 5534 06ee 793000   		.ascii	"y0\000"
 5535 06f1 01       		.byte	0x1
 5536 06f2 3A02     		.2byte	0x23a
 5537 06f4 A2000000 		.4byte	0xa2
 5538 06f8 02       		.uleb128 0x2
 5539 06f9 91       		.byte	0x91
 5540 06fa 6C       		.sleb128 -20
 5541 06fb 16       		.uleb128 0x16
 5542 06fc 783100   		.ascii	"x1\000"
 5543 06ff 01       		.byte	0x1
 5544 0700 3A02     		.2byte	0x23a
 5545 0702 A2000000 		.4byte	0xa2
 5546 0706 02       		.uleb128 0x2
 5547 0707 91       		.byte	0x91
 5548 0708 6A       		.sleb128 -22
 5549 0709 16       		.uleb128 0x16
 5550 070a 793100   		.ascii	"y1\000"
 5551 070d 01       		.byte	0x1
 5552 070e 3A02     		.2byte	0x23a
 5553 0710 A2000000 		.4byte	0xa2
 5554 0714 02       		.uleb128 0x2
 5555 0715 91       		.byte	0x91
 5556 0716 68       		.sleb128 -24
ARM GAS  C:\Users\megan\AppData\Local\Temp\ccD8G3YI.s 			page 123


 5557 0717 17       		.uleb128 0x17
 5558 0718 BA070000 		.4byte	.LASF140
 5559 071c 01       		.byte	0x1
 5560 071d 3A02     		.2byte	0x23a
 5561 071f AD000000 		.4byte	0xad
 5562 0723 02       		.uleb128 0x2
 5563 0724 91       		.byte	0x91
 5564 0725 00       		.sleb128 0
 5565 0726 00       		.byte	0
 5566 0727 14       		.uleb128 0x14
 5567 0728 21040000 		.4byte	.LASF142
 5568 072c 01       		.byte	0x1
 5569 072d 6902     		.2byte	0x269
 5570 072f 00000000 		.4byte	.LFB54
 5571 0733 5A000000 		.4byte	.LFE54-.LFB54
 5572 0737 01       		.uleb128 0x1
 5573 0738 9C       		.byte	0x9c
 5574 0739 74070000 		.4byte	0x774
 5575 073d 16       		.uleb128 0x16
 5576 073e 7800     		.ascii	"x\000"
 5577 0740 01       		.byte	0x1
 5578 0741 6902     		.2byte	0x269
 5579 0743 A2000000 		.4byte	0xa2
 5580 0747 02       		.uleb128 0x2
 5581 0748 91       		.byte	0x91
 5582 0749 6E       		.sleb128 -18
 5583 074a 16       		.uleb128 0x16
 5584 074b 7900     		.ascii	"y\000"
 5585 074d 01       		.byte	0x1
 5586 074e 6902     		.2byte	0x269
 5587 0750 A2000000 		.4byte	0xa2
 5588 0754 02       		.uleb128 0x2
 5589 0755 91       		.byte	0x91
 5590 0756 6C       		.sleb128 -20
 5591 0757 16       		.uleb128 0x16
 5592 0758 6800     		.ascii	"h\000"
 5593 075a 01       		.byte	0x1
 5594 075b 6902     		.2byte	0x269
 5595 075d A2000000 		.4byte	0xa2
 5596 0761 02       		.uleb128 0x2
 5597 0762 91       		.byte	0x91
 5598 0763 6A       		.sleb128 -22
 5599 0764 17       		.uleb128 0x17
 5600 0765 BA070000 		.4byte	.LASF140
 5601 0769 01       		.byte	0x1
 5602 076a 6902     		.2byte	0x269
 5603 076c AD000000 		.4byte	0xad
 5604 0770 02       		.uleb128 0x2
 5605 0771 91       		.byte	0x91
 5606 0772 68       		.sleb128 -24
 5607 0773 00       		.byte	0
 5608 0774 14       		.uleb128 0x14
 5609 0775 6E080000 		.4byte	.LASF143
 5610 0779 01       		.byte	0x1
 5611 077a 7302     		.2byte	0x273
 5612 077c 00000000 		.4byte	.LFB55
 5613 0780 5A000000 		.4byte	.LFE55-.LFB55
ARM GAS  C:\Users\megan\AppData\Local\Temp\ccD8G3YI.s 			page 124


 5614 0784 01       		.uleb128 0x1
 5615 0785 9C       		.byte	0x9c
 5616 0786 C1070000 		.4byte	0x7c1
 5617 078a 16       		.uleb128 0x16
 5618 078b 7800     		.ascii	"x\000"
 5619 078d 01       		.byte	0x1
 5620 078e 7302     		.2byte	0x273
 5621 0790 A2000000 		.4byte	0xa2
 5622 0794 02       		.uleb128 0x2
 5623 0795 91       		.byte	0x91
 5624 0796 6E       		.sleb128 -18
 5625 0797 16       		.uleb128 0x16
 5626 0798 7900     		.ascii	"y\000"
 5627 079a 01       		.byte	0x1
 5628 079b 7302     		.2byte	0x273
 5629 079d A2000000 		.4byte	0xa2
 5630 07a1 02       		.uleb128 0x2
 5631 07a2 91       		.byte	0x91
 5632 07a3 6C       		.sleb128 -20
 5633 07a4 16       		.uleb128 0x16
 5634 07a5 7700     		.ascii	"w\000"
 5635 07a7 01       		.byte	0x1
 5636 07a8 7302     		.2byte	0x273
 5637 07aa A2000000 		.4byte	0xa2
 5638 07ae 02       		.uleb128 0x2
 5639 07af 91       		.byte	0x91
 5640 07b0 6A       		.sleb128 -22
 5641 07b1 17       		.uleb128 0x17
 5642 07b2 BA070000 		.4byte	.LASF140
 5643 07b6 01       		.byte	0x1
 5644 07b7 7302     		.2byte	0x273
 5645 07b9 AD000000 		.4byte	0xad
 5646 07bd 02       		.uleb128 0x2
 5647 07be 91       		.byte	0x91
 5648 07bf 68       		.sleb128 -24
 5649 07c0 00       		.byte	0
 5650 07c1 14       		.uleb128 0x14
 5651 07c2 810D0000 		.4byte	.LASF144
 5652 07c6 01       		.byte	0x1
 5653 07c7 8302     		.2byte	0x283
 5654 07c9 00000000 		.4byte	.LFB56
 5655 07cd 6A000000 		.4byte	.LFE56-.LFB56
 5656 07d1 01       		.uleb128 0x1
 5657 07d2 9C       		.byte	0x9c
 5658 07d3 1B080000 		.4byte	0x81b
 5659 07d7 16       		.uleb128 0x16
 5660 07d8 7800     		.ascii	"x\000"
 5661 07da 01       		.byte	0x1
 5662 07db 8302     		.2byte	0x283
 5663 07dd A2000000 		.4byte	0xa2
 5664 07e1 02       		.uleb128 0x2
 5665 07e2 91       		.byte	0x91
 5666 07e3 6E       		.sleb128 -18
 5667 07e4 16       		.uleb128 0x16
 5668 07e5 7900     		.ascii	"y\000"
 5669 07e7 01       		.byte	0x1
 5670 07e8 8302     		.2byte	0x283
ARM GAS  C:\Users\megan\AppData\Local\Temp\ccD8G3YI.s 			page 125


 5671 07ea A2000000 		.4byte	0xa2
 5672 07ee 02       		.uleb128 0x2
 5673 07ef 91       		.byte	0x91
 5674 07f0 6C       		.sleb128 -20
 5675 07f1 16       		.uleb128 0x16
 5676 07f2 7700     		.ascii	"w\000"
 5677 07f4 01       		.byte	0x1
 5678 07f5 8302     		.2byte	0x283
 5679 07f7 A2000000 		.4byte	0xa2
 5680 07fb 02       		.uleb128 0x2
 5681 07fc 91       		.byte	0x91
 5682 07fd 6A       		.sleb128 -22
 5683 07fe 16       		.uleb128 0x16
 5684 07ff 6800     		.ascii	"h\000"
 5685 0801 01       		.byte	0x1
 5686 0802 8302     		.2byte	0x283
 5687 0804 A2000000 		.4byte	0xa2
 5688 0808 02       		.uleb128 0x2
 5689 0809 91       		.byte	0x91
 5690 080a 68       		.sleb128 -24
 5691 080b 17       		.uleb128 0x17
 5692 080c BA070000 		.4byte	.LASF140
 5693 0810 01       		.byte	0x1
 5694 0811 8302     		.2byte	0x283
 5695 0813 AD000000 		.4byte	0xad
 5696 0817 02       		.uleb128 0x2
 5697 0818 91       		.byte	0x91
 5698 0819 00       		.sleb128 0
 5699 081a 00       		.byte	0
 5700 081b 14       		.uleb128 0x14
 5701 081c A20E0000 		.4byte	.LASF145
 5702 0820 01       		.byte	0x1
 5703 0821 9302     		.2byte	0x293
 5704 0823 00000000 		.4byte	.LFB57
 5705 0827 6A000000 		.4byte	.LFE57-.LFB57
 5706 082b 01       		.uleb128 0x1
 5707 082c 9C       		.byte	0x9c
 5708 082d 75080000 		.4byte	0x875
 5709 0831 16       		.uleb128 0x16
 5710 0832 7800     		.ascii	"x\000"
 5711 0834 01       		.byte	0x1
 5712 0835 9302     		.2byte	0x293
 5713 0837 A2000000 		.4byte	0xa2
 5714 083b 02       		.uleb128 0x2
 5715 083c 91       		.byte	0x91
 5716 083d 6E       		.sleb128 -18
 5717 083e 16       		.uleb128 0x16
 5718 083f 7900     		.ascii	"y\000"
 5719 0841 01       		.byte	0x1
 5720 0842 9302     		.2byte	0x293
 5721 0844 A2000000 		.4byte	0xa2
 5722 0848 02       		.uleb128 0x2
 5723 0849 91       		.byte	0x91
 5724 084a 6C       		.sleb128 -20
 5725 084b 16       		.uleb128 0x16
 5726 084c 7700     		.ascii	"w\000"
 5727 084e 01       		.byte	0x1
ARM GAS  C:\Users\megan\AppData\Local\Temp\ccD8G3YI.s 			page 126


 5728 084f 9302     		.2byte	0x293
 5729 0851 A2000000 		.4byte	0xa2
 5730 0855 02       		.uleb128 0x2
 5731 0856 91       		.byte	0x91
 5732 0857 6A       		.sleb128 -22
 5733 0858 16       		.uleb128 0x16
 5734 0859 6800     		.ascii	"h\000"
 5735 085b 01       		.byte	0x1
 5736 085c 9302     		.2byte	0x293
 5737 085e A2000000 		.4byte	0xa2
 5738 0862 02       		.uleb128 0x2
 5739 0863 91       		.byte	0x91
 5740 0864 68       		.sleb128 -24
 5741 0865 17       		.uleb128 0x17
 5742 0866 BA070000 		.4byte	.LASF140
 5743 086a 01       		.byte	0x1
 5744 086b 9302     		.2byte	0x293
 5745 086d AD000000 		.4byte	0xad
 5746 0871 02       		.uleb128 0x2
 5747 0872 91       		.byte	0x91
 5748 0873 00       		.sleb128 0
 5749 0874 00       		.byte	0
 5750 0875 14       		.uleb128 0x14
 5751 0876 BA0A0000 		.4byte	.LASF146
 5752 087a 01       		.byte	0x1
 5753 087b 9F02     		.2byte	0x29f
 5754 087d 00000000 		.4byte	.LFB58
 5755 0881 44000000 		.4byte	.LFE58-.LFB58
 5756 0885 01       		.uleb128 0x1
 5757 0886 9C       		.byte	0x9c
 5758 0887 9B080000 		.4byte	0x89b
 5759 088b 17       		.uleb128 0x17
 5760 088c BA070000 		.4byte	.LASF140
 5761 0890 01       		.byte	0x1
 5762 0891 9F02     		.2byte	0x29f
 5763 0893 AD000000 		.4byte	0xad
 5764 0897 02       		.uleb128 0x2
 5765 0898 91       		.byte	0x91
 5766 0899 76       		.sleb128 -10
 5767 089a 00       		.byte	0
 5768 089b 14       		.uleb128 0x14
 5769 089c DC090000 		.4byte	.LASF147
 5770 08a0 01       		.byte	0x1
 5771 08a1 AE02     		.2byte	0x2ae
 5772 08a3 00000000 		.4byte	.LFB59
 5773 08a7 4E000000 		.4byte	.LFE59-.LFB59
 5774 08ab 01       		.uleb128 0x1
 5775 08ac 9C       		.byte	0x9c
 5776 08ad EA080000 		.4byte	0x8ea
 5777 08b1 16       		.uleb128 0x16
 5778 08b2 783000   		.ascii	"x0\000"
 5779 08b5 01       		.byte	0x1
 5780 08b6 AE02     		.2byte	0x2ae
 5781 08b8 A2000000 		.4byte	0xa2
 5782 08bc 02       		.uleb128 0x2
 5783 08bd 91       		.byte	0x91
 5784 08be 6E       		.sleb128 -18
ARM GAS  C:\Users\megan\AppData\Local\Temp\ccD8G3YI.s 			page 127


 5785 08bf 16       		.uleb128 0x16
 5786 08c0 793000   		.ascii	"y0\000"
 5787 08c3 01       		.byte	0x1
 5788 08c4 AE02     		.2byte	0x2ae
 5789 08c6 A2000000 		.4byte	0xa2
 5790 08ca 02       		.uleb128 0x2
 5791 08cb 91       		.byte	0x91
 5792 08cc 6C       		.sleb128 -20
 5793 08cd 16       		.uleb128 0x16
 5794 08ce 7200     		.ascii	"r\000"
 5795 08d0 01       		.byte	0x1
 5796 08d1 AE02     		.2byte	0x2ae
 5797 08d3 A2000000 		.4byte	0xa2
 5798 08d7 02       		.uleb128 0x2
 5799 08d8 91       		.byte	0x91
 5800 08d9 6A       		.sleb128 -22
 5801 08da 17       		.uleb128 0x17
 5802 08db BA070000 		.4byte	.LASF140
 5803 08df 01       		.byte	0x1
 5804 08e0 AE02     		.2byte	0x2ae
 5805 08e2 AD000000 		.4byte	0xad
 5806 08e6 02       		.uleb128 0x2
 5807 08e7 91       		.byte	0x91
 5808 08e8 68       		.sleb128 -24
 5809 08e9 00       		.byte	0
 5810 08ea 14       		.uleb128 0x14
 5811 08eb A1030000 		.4byte	.LASF148
 5812 08ef 01       		.byte	0x1
 5813 08f0 BD02     		.2byte	0x2bd
 5814 08f2 00000000 		.4byte	.LFB60
 5815 08f6 4E000000 		.4byte	.LFE60-.LFB60
 5816 08fa 01       		.uleb128 0x1
 5817 08fb 9C       		.byte	0x9c
 5818 08fc 39090000 		.4byte	0x939
 5819 0900 16       		.uleb128 0x16
 5820 0901 783000   		.ascii	"x0\000"
 5821 0904 01       		.byte	0x1
 5822 0905 BD02     		.2byte	0x2bd
 5823 0907 A2000000 		.4byte	0xa2
 5824 090b 02       		.uleb128 0x2
 5825 090c 91       		.byte	0x91
 5826 090d 6E       		.sleb128 -18
 5827 090e 16       		.uleb128 0x16
 5828 090f 793000   		.ascii	"y0\000"
 5829 0912 01       		.byte	0x1
 5830 0913 BD02     		.2byte	0x2bd
 5831 0915 A2000000 		.4byte	0xa2
 5832 0919 02       		.uleb128 0x2
 5833 091a 91       		.byte	0x91
 5834 091b 6C       		.sleb128 -20
 5835 091c 16       		.uleb128 0x16
 5836 091d 7200     		.ascii	"r\000"
 5837 091f 01       		.byte	0x1
 5838 0920 BD02     		.2byte	0x2bd
 5839 0922 A2000000 		.4byte	0xa2
 5840 0926 02       		.uleb128 0x2
 5841 0927 91       		.byte	0x91
ARM GAS  C:\Users\megan\AppData\Local\Temp\ccD8G3YI.s 			page 128


 5842 0928 6A       		.sleb128 -22
 5843 0929 17       		.uleb128 0x17
 5844 092a BA070000 		.4byte	.LASF140
 5845 092e 01       		.byte	0x1
 5846 092f BD02     		.2byte	0x2bd
 5847 0931 AD000000 		.4byte	0xad
 5848 0935 02       		.uleb128 0x2
 5849 0936 91       		.byte	0x91
 5850 0937 68       		.sleb128 -24
 5851 0938 00       		.byte	0
 5852 0939 14       		.uleb128 0x14
 5853 093a 5A0D0000 		.4byte	.LASF149
 5854 093e 01       		.byte	0x1
 5855 093f CF02     		.2byte	0x2cf
 5856 0941 00000000 		.4byte	.LFB61
 5857 0945 6C000000 		.4byte	.LFE61-.LFB61
 5858 0949 01       		.uleb128 0x1
 5859 094a 9C       		.byte	0x9c
 5860 094b B3090000 		.4byte	0x9b3
 5861 094f 16       		.uleb128 0x16
 5862 0950 783000   		.ascii	"x0\000"
 5863 0953 01       		.byte	0x1
 5864 0954 CF02     		.2byte	0x2cf
 5865 0956 A2000000 		.4byte	0xa2
 5866 095a 02       		.uleb128 0x2
 5867 095b 91       		.byte	0x91
 5868 095c 6E       		.sleb128 -18
 5869 095d 16       		.uleb128 0x16
 5870 095e 793000   		.ascii	"y0\000"
 5871 0961 01       		.byte	0x1
 5872 0962 CF02     		.2byte	0x2cf
 5873 0964 A2000000 		.4byte	0xa2
 5874 0968 02       		.uleb128 0x2
 5875 0969 91       		.byte	0x91
 5876 096a 6C       		.sleb128 -20
 5877 096b 16       		.uleb128 0x16
 5878 096c 783100   		.ascii	"x1\000"
 5879 096f 01       		.byte	0x1
 5880 0970 CF02     		.2byte	0x2cf
 5881 0972 A2000000 		.4byte	0xa2
 5882 0976 02       		.uleb128 0x2
 5883 0977 91       		.byte	0x91
 5884 0978 6A       		.sleb128 -22
 5885 0979 16       		.uleb128 0x16
 5886 097a 793100   		.ascii	"y1\000"
 5887 097d 01       		.byte	0x1
 5888 097e CF02     		.2byte	0x2cf
 5889 0980 A2000000 		.4byte	0xa2
 5890 0984 02       		.uleb128 0x2
 5891 0985 91       		.byte	0x91
 5892 0986 68       		.sleb128 -24
 5893 0987 16       		.uleb128 0x16
 5894 0988 783200   		.ascii	"x2\000"
 5895 098b 01       		.byte	0x1
 5896 098c CF02     		.2byte	0x2cf
 5897 098e A2000000 		.4byte	0xa2
 5898 0992 02       		.uleb128 0x2
ARM GAS  C:\Users\megan\AppData\Local\Temp\ccD8G3YI.s 			page 129


 5899 0993 91       		.byte	0x91
 5900 0994 00       		.sleb128 0
 5901 0995 16       		.uleb128 0x16
 5902 0996 793200   		.ascii	"y2\000"
 5903 0999 01       		.byte	0x1
 5904 099a CF02     		.2byte	0x2cf
 5905 099c A2000000 		.4byte	0xa2
 5906 09a0 02       		.uleb128 0x2
 5907 09a1 91       		.byte	0x91
 5908 09a2 04       		.sleb128 4
 5909 09a3 17       		.uleb128 0x17
 5910 09a4 BA070000 		.4byte	.LASF140
 5911 09a8 01       		.byte	0x1
 5912 09a9 CF02     		.2byte	0x2cf
 5913 09ab AD000000 		.4byte	0xad
 5914 09af 02       		.uleb128 0x2
 5915 09b0 91       		.byte	0x91
 5916 09b1 08       		.sleb128 8
 5917 09b2 00       		.byte	0
 5918 09b3 14       		.uleb128 0x14
 5919 09b4 8D030000 		.4byte	.LASF150
 5920 09b8 01       		.byte	0x1
 5921 09b9 E102     		.2byte	0x2e1
 5922 09bb 00000000 		.4byte	.LFB62
 5923 09bf 6C000000 		.4byte	.LFE62-.LFB62
 5924 09c3 01       		.uleb128 0x1
 5925 09c4 9C       		.byte	0x9c
 5926 09c5 2D0A0000 		.4byte	0xa2d
 5927 09c9 16       		.uleb128 0x16
 5928 09ca 783000   		.ascii	"x0\000"
 5929 09cd 01       		.byte	0x1
 5930 09ce E102     		.2byte	0x2e1
 5931 09d0 A2000000 		.4byte	0xa2
 5932 09d4 02       		.uleb128 0x2
 5933 09d5 91       		.byte	0x91
 5934 09d6 6E       		.sleb128 -18
 5935 09d7 16       		.uleb128 0x16
 5936 09d8 793000   		.ascii	"y0\000"
 5937 09db 01       		.byte	0x1
 5938 09dc E102     		.2byte	0x2e1
 5939 09de A2000000 		.4byte	0xa2
 5940 09e2 02       		.uleb128 0x2
 5941 09e3 91       		.byte	0x91
 5942 09e4 6C       		.sleb128 -20
 5943 09e5 16       		.uleb128 0x16
 5944 09e6 783100   		.ascii	"x1\000"
 5945 09e9 01       		.byte	0x1
 5946 09ea E102     		.2byte	0x2e1
 5947 09ec A2000000 		.4byte	0xa2
 5948 09f0 02       		.uleb128 0x2
 5949 09f1 91       		.byte	0x91
 5950 09f2 6A       		.sleb128 -22
 5951 09f3 16       		.uleb128 0x16
 5952 09f4 793100   		.ascii	"y1\000"
 5953 09f7 01       		.byte	0x1
 5954 09f8 E102     		.2byte	0x2e1
 5955 09fa A2000000 		.4byte	0xa2
ARM GAS  C:\Users\megan\AppData\Local\Temp\ccD8G3YI.s 			page 130


 5956 09fe 02       		.uleb128 0x2
 5957 09ff 91       		.byte	0x91
 5958 0a00 68       		.sleb128 -24
 5959 0a01 16       		.uleb128 0x16
 5960 0a02 783200   		.ascii	"x2\000"
 5961 0a05 01       		.byte	0x1
 5962 0a06 E102     		.2byte	0x2e1
 5963 0a08 A2000000 		.4byte	0xa2
 5964 0a0c 02       		.uleb128 0x2
 5965 0a0d 91       		.byte	0x91
 5966 0a0e 00       		.sleb128 0
 5967 0a0f 16       		.uleb128 0x16
 5968 0a10 793200   		.ascii	"y2\000"
 5969 0a13 01       		.byte	0x1
 5970 0a14 E102     		.2byte	0x2e1
 5971 0a16 A2000000 		.4byte	0xa2
 5972 0a1a 02       		.uleb128 0x2
 5973 0a1b 91       		.byte	0x91
 5974 0a1c 04       		.sleb128 4
 5975 0a1d 17       		.uleb128 0x17
 5976 0a1e BA070000 		.4byte	.LASF140
 5977 0a22 01       		.byte	0x1
 5978 0a23 E102     		.2byte	0x2e1
 5979 0a25 AD000000 		.4byte	0xad
 5980 0a29 02       		.uleb128 0x2
 5981 0a2a 91       		.byte	0x91
 5982 0a2b 08       		.sleb128 8
 5983 0a2c 00       		.byte	0
 5984 0a2d 14       		.uleb128 0x14
 5985 0a2e AE070000 		.4byte	.LASF151
 5986 0a32 01       		.byte	0x1
 5987 0a33 F102     		.2byte	0x2f1
 5988 0a35 00000000 		.4byte	.LFB63
 5989 0a39 58000000 		.4byte	.LFE63-.LFB63
 5990 0a3d 01       		.uleb128 0x1
 5991 0a3e 9C       		.byte	0x9c
 5992 0a3f 8F0A0000 		.4byte	0xa8f
 5993 0a43 17       		.uleb128 0x17
 5994 0a44 86010000 		.4byte	.LASF152
 5995 0a48 01       		.byte	0x1
 5996 0a49 F102     		.2byte	0x2f1
 5997 0a4b A2000000 		.4byte	0xa2
 5998 0a4f 02       		.uleb128 0x2
 5999 0a50 91       		.byte	0x91
 6000 0a51 6E       		.sleb128 -18
 6001 0a52 17       		.uleb128 0x17
 6002 0a53 100A0000 		.4byte	.LASF153
 6003 0a57 01       		.byte	0x1
 6004 0a58 F102     		.2byte	0x2f1
 6005 0a5a A2000000 		.4byte	0xa2
 6006 0a5e 02       		.uleb128 0x2
 6007 0a5f 91       		.byte	0x91
 6008 0a60 6C       		.sleb128 -20
 6009 0a61 17       		.uleb128 0x17
 6010 0a62 F2020000 		.4byte	.LASF154
 6011 0a66 01       		.byte	0x1
 6012 0a67 F102     		.2byte	0x2f1
ARM GAS  C:\Users\megan\AppData\Local\Temp\ccD8G3YI.s 			page 131


 6013 0a69 A2000000 		.4byte	0xa2
 6014 0a6d 02       		.uleb128 0x2
 6015 0a6e 91       		.byte	0x91
 6016 0a6f 6A       		.sleb128 -22
 6017 0a70 17       		.uleb128 0x17
 6018 0a71 840A0000 		.4byte	.LASF155
 6019 0a75 01       		.byte	0x1
 6020 0a76 F102     		.2byte	0x2f1
 6021 0a78 A2000000 		.4byte	0xa2
 6022 0a7c 02       		.uleb128 0x2
 6023 0a7d 91       		.byte	0x91
 6024 0a7e 68       		.sleb128 -24
 6025 0a7f 17       		.uleb128 0x17
 6026 0a80 BA070000 		.4byte	.LASF140
 6027 0a84 01       		.byte	0x1
 6028 0a85 F102     		.2byte	0x2f1
 6029 0a87 AD000000 		.4byte	0xad
 6030 0a8b 02       		.uleb128 0x2
 6031 0a8c 91       		.byte	0x91
 6032 0a8d 00       		.sleb128 0
 6033 0a8e 00       		.byte	0
 6034 0a8f 14       		.uleb128 0x14
 6035 0a90 C5030000 		.4byte	.LASF156
 6036 0a94 01       		.byte	0x1
 6037 0a95 0103     		.2byte	0x301
 6038 0a97 00000000 		.4byte	.LFB64
 6039 0a9b 58000000 		.4byte	.LFE64-.LFB64
 6040 0a9f 01       		.uleb128 0x1
 6041 0aa0 9C       		.byte	0x9c
 6042 0aa1 F10A0000 		.4byte	0xaf1
 6043 0aa5 17       		.uleb128 0x17
 6044 0aa6 86010000 		.4byte	.LASF152
 6045 0aaa 01       		.byte	0x1
 6046 0aab 0103     		.2byte	0x301
 6047 0aad A2000000 		.4byte	0xa2
 6048 0ab1 02       		.uleb128 0x2
 6049 0ab2 91       		.byte	0x91
 6050 0ab3 6E       		.sleb128 -18
 6051 0ab4 17       		.uleb128 0x17
 6052 0ab5 100A0000 		.4byte	.LASF153
 6053 0ab9 01       		.byte	0x1
 6054 0aba 0103     		.2byte	0x301
 6055 0abc A2000000 		.4byte	0xa2
 6056 0ac0 02       		.uleb128 0x2
 6057 0ac1 91       		.byte	0x91
 6058 0ac2 6C       		.sleb128 -20
 6059 0ac3 17       		.uleb128 0x17
 6060 0ac4 F2020000 		.4byte	.LASF154
 6061 0ac8 01       		.byte	0x1
 6062 0ac9 0103     		.2byte	0x301
 6063 0acb A2000000 		.4byte	0xa2
 6064 0acf 02       		.uleb128 0x2
 6065 0ad0 91       		.byte	0x91
 6066 0ad1 6A       		.sleb128 -22
 6067 0ad2 17       		.uleb128 0x17
 6068 0ad3 840A0000 		.4byte	.LASF155
 6069 0ad7 01       		.byte	0x1
ARM GAS  C:\Users\megan\AppData\Local\Temp\ccD8G3YI.s 			page 132


 6070 0ad8 0103     		.2byte	0x301
 6071 0ada A2000000 		.4byte	0xa2
 6072 0ade 02       		.uleb128 0x2
 6073 0adf 91       		.byte	0x91
 6074 0ae0 68       		.sleb128 -24
 6075 0ae1 17       		.uleb128 0x17
 6076 0ae2 BA070000 		.4byte	.LASF140
 6077 0ae6 01       		.byte	0x1
 6078 0ae7 0103     		.2byte	0x301
 6079 0ae9 AD000000 		.4byte	0xad
 6080 0aed 02       		.uleb128 0x2
 6081 0aee 91       		.byte	0x91
 6082 0aef 00       		.sleb128 0
 6083 0af0 00       		.byte	0
 6084 0af1 14       		.uleb128 0x14
 6085 0af2 C7040000 		.4byte	.LASF157
 6086 0af6 01       		.byte	0x1
 6087 0af7 1603     		.2byte	0x316
 6088 0af9 00000000 		.4byte	.LFB65
 6089 0afd 60000000 		.4byte	.LFE65-.LFB65
 6090 0b01 01       		.uleb128 0x1
 6091 0b02 9C       		.byte	0x9c
 6092 0b03 620B0000 		.4byte	0xb62
 6093 0b07 17       		.uleb128 0x17
 6094 0b08 86010000 		.4byte	.LASF152
 6095 0b0c 01       		.byte	0x1
 6096 0b0d 1603     		.2byte	0x316
 6097 0b0f A2000000 		.4byte	0xa2
 6098 0b13 02       		.uleb128 0x2
 6099 0b14 91       		.byte	0x91
 6100 0b15 6E       		.sleb128 -18
 6101 0b16 17       		.uleb128 0x17
 6102 0b17 100A0000 		.4byte	.LASF153
 6103 0b1b 01       		.byte	0x1
 6104 0b1c 1603     		.2byte	0x316
 6105 0b1e A2000000 		.4byte	0xa2
 6106 0b22 02       		.uleb128 0x2
 6107 0b23 91       		.byte	0x91
 6108 0b24 6C       		.sleb128 -20
 6109 0b25 17       		.uleb128 0x17
 6110 0b26 F2020000 		.4byte	.LASF154
 6111 0b2a 01       		.byte	0x1
 6112 0b2b 1603     		.2byte	0x316
 6113 0b2d A2000000 		.4byte	0xa2
 6114 0b31 02       		.uleb128 0x2
 6115 0b32 91       		.byte	0x91
 6116 0b33 6A       		.sleb128 -22
 6117 0b34 17       		.uleb128 0x17
 6118 0b35 840A0000 		.4byte	.LASF155
 6119 0b39 01       		.byte	0x1
 6120 0b3a 1603     		.2byte	0x316
 6121 0b3c A2000000 		.4byte	0xa2
 6122 0b40 02       		.uleb128 0x2
 6123 0b41 91       		.byte	0x91
 6124 0b42 68       		.sleb128 -24
 6125 0b43 17       		.uleb128 0x17
 6126 0b44 58050000 		.4byte	.LASF158
ARM GAS  C:\Users\megan\AppData\Local\Temp\ccD8G3YI.s 			page 133


 6127 0b48 01       		.byte	0x1
 6128 0b49 1603     		.2byte	0x316
 6129 0b4b 97000000 		.4byte	0x97
 6130 0b4f 02       		.uleb128 0x2
 6131 0b50 91       		.byte	0x91
 6132 0b51 00       		.sleb128 0
 6133 0b52 17       		.uleb128 0x17
 6134 0b53 BA070000 		.4byte	.LASF140
 6135 0b57 01       		.byte	0x1
 6136 0b58 1603     		.2byte	0x316
 6137 0b5a AD000000 		.4byte	0xad
 6138 0b5e 02       		.uleb128 0x2
 6139 0b5f 91       		.byte	0x91
 6140 0b60 04       		.sleb128 4
 6141 0b61 00       		.byte	0
 6142 0b62 14       		.uleb128 0x14
 6143 0b63 19080000 		.4byte	.LASF159
 6144 0b67 01       		.byte	0x1
 6145 0b68 2B03     		.2byte	0x32b
 6146 0b6a 00000000 		.4byte	.LFB66
 6147 0b6e 60000000 		.4byte	.LFE66-.LFB66
 6148 0b72 01       		.uleb128 0x1
 6149 0b73 9C       		.byte	0x9c
 6150 0b74 D30B0000 		.4byte	0xbd3
 6151 0b78 17       		.uleb128 0x17
 6152 0b79 86010000 		.4byte	.LASF152
 6153 0b7d 01       		.byte	0x1
 6154 0b7e 2B03     		.2byte	0x32b
 6155 0b80 A2000000 		.4byte	0xa2
 6156 0b84 02       		.uleb128 0x2
 6157 0b85 91       		.byte	0x91
 6158 0b86 6E       		.sleb128 -18
 6159 0b87 17       		.uleb128 0x17
 6160 0b88 100A0000 		.4byte	.LASF153
 6161 0b8c 01       		.byte	0x1
 6162 0b8d 2B03     		.2byte	0x32b
 6163 0b8f A2000000 		.4byte	0xa2
 6164 0b93 02       		.uleb128 0x2
 6165 0b94 91       		.byte	0x91
 6166 0b95 6C       		.sleb128 -20
 6167 0b96 17       		.uleb128 0x17
 6168 0b97 F2020000 		.4byte	.LASF154
 6169 0b9b 01       		.byte	0x1
 6170 0b9c 2B03     		.2byte	0x32b
 6171 0b9e A2000000 		.4byte	0xa2
 6172 0ba2 02       		.uleb128 0x2
 6173 0ba3 91       		.byte	0x91
 6174 0ba4 6A       		.sleb128 -22
 6175 0ba5 17       		.uleb128 0x17
 6176 0ba6 840A0000 		.4byte	.LASF155
 6177 0baa 01       		.byte	0x1
 6178 0bab 2B03     		.2byte	0x32b
 6179 0bad A2000000 		.4byte	0xa2
 6180 0bb1 02       		.uleb128 0x2
 6181 0bb2 91       		.byte	0x91
 6182 0bb3 68       		.sleb128 -24
 6183 0bb4 17       		.uleb128 0x17
ARM GAS  C:\Users\megan\AppData\Local\Temp\ccD8G3YI.s 			page 134


 6184 0bb5 58050000 		.4byte	.LASF158
 6185 0bb9 01       		.byte	0x1
 6186 0bba 2B03     		.2byte	0x32b
 6187 0bbc 97000000 		.4byte	0x97
 6188 0bc0 02       		.uleb128 0x2
 6189 0bc1 91       		.byte	0x91
 6190 0bc2 00       		.sleb128 0
 6191 0bc3 17       		.uleb128 0x17
 6192 0bc4 BA070000 		.4byte	.LASF140
 6193 0bc8 01       		.byte	0x1
 6194 0bc9 2B03     		.2byte	0x32b
 6195 0bcb AD000000 		.4byte	0xad
 6196 0bcf 02       		.uleb128 0x2
 6197 0bd0 91       		.byte	0x91
 6198 0bd1 04       		.sleb128 4
 6199 0bd2 00       		.byte	0
 6200 0bd3 14       		.uleb128 0x14
 6201 0bd4 C60D0000 		.4byte	.LASF160
 6202 0bd8 01       		.byte	0x1
 6203 0bd9 3503     		.2byte	0x335
 6204 0bdb 00000000 		.4byte	.LFB67
 6205 0bdf 02010000 		.4byte	.LFE67-.LFB67
 6206 0be3 01       		.uleb128 0x1
 6207 0be4 9C       		.byte	0x9c
 6208 0be5 310C0000 		.4byte	0xc31
 6209 0be9 16       		.uleb128 0x16
 6210 0bea 783000   		.ascii	"x0\000"
 6211 0bed 01       		.byte	0x1
 6212 0bee 3503     		.2byte	0x335
 6213 0bf0 A2000000 		.4byte	0xa2
 6214 0bf4 02       		.uleb128 0x2
 6215 0bf5 91       		.byte	0x91
 6216 0bf6 6E       		.sleb128 -18
 6217 0bf7 16       		.uleb128 0x16
 6218 0bf8 793000   		.ascii	"y0\000"
 6219 0bfb 01       		.byte	0x1
 6220 0bfc 3503     		.2byte	0x335
 6221 0bfe A2000000 		.4byte	0xa2
 6222 0c02 02       		.uleb128 0x2
 6223 0c03 91       		.byte	0x91
 6224 0c04 6C       		.sleb128 -20
 6225 0c05 16       		.uleb128 0x16
 6226 0c06 7200     		.ascii	"r\000"
 6227 0c08 01       		.byte	0x1
 6228 0c09 3503     		.2byte	0x335
 6229 0c0b A2000000 		.4byte	0xa2
 6230 0c0f 02       		.uleb128 0x2
 6231 0c10 91       		.byte	0x91
 6232 0c11 6A       		.sleb128 -22
 6233 0c12 17       		.uleb128 0x17
 6234 0c13 BA070000 		.4byte	.LASF140
 6235 0c17 01       		.byte	0x1
 6236 0c18 3503     		.2byte	0x335
 6237 0c1a AD000000 		.4byte	0xad
 6238 0c1e 02       		.uleb128 0x2
 6239 0c1f 91       		.byte	0x91
 6240 0c20 68       		.sleb128 -24
ARM GAS  C:\Users\megan\AppData\Local\Temp\ccD8G3YI.s 			page 135


 6241 0c21 17       		.uleb128 0x17
 6242 0c22 51030000 		.4byte	.LASF161
 6243 0c26 01       		.byte	0x1
 6244 0c27 3503     		.2byte	0x335
 6245 0c29 39030000 		.4byte	0x339
 6246 0c2d 02       		.uleb128 0x2
 6247 0c2e 91       		.byte	0x91
 6248 0c2f 00       		.sleb128 0
 6249 0c30 00       		.byte	0
 6250 0c31 14       		.uleb128 0x14
 6251 0c32 AE000000 		.4byte	.LASF162
 6252 0c36 01       		.byte	0x1
 6253 0c37 6303     		.2byte	0x363
 6254 0c39 00000000 		.4byte	.LFB68
 6255 0c3d 4A010000 		.4byte	.LFE68-.LFB68
 6256 0c41 01       		.uleb128 0x1
 6257 0c42 9C       		.byte	0x9c
 6258 0c43 9A0C0000 		.4byte	0xc9a
 6259 0c47 16       		.uleb128 0x16
 6260 0c48 7800     		.ascii	"x\000"
 6261 0c4a 01       		.byte	0x1
 6262 0c4b 6303     		.2byte	0x363
 6263 0c4d A2000000 		.4byte	0xa2
 6264 0c51 02       		.uleb128 0x2
 6265 0c52 91       		.byte	0x91
 6266 0c53 6E       		.sleb128 -18
 6267 0c54 16       		.uleb128 0x16
 6268 0c55 7900     		.ascii	"y\000"
 6269 0c57 01       		.byte	0x1
 6270 0c58 6303     		.2byte	0x363
 6271 0c5a A2000000 		.4byte	0xa2
 6272 0c5e 02       		.uleb128 0x2
 6273 0c5f 91       		.byte	0x91
 6274 0c60 6C       		.sleb128 -20
 6275 0c61 16       		.uleb128 0x16
 6276 0c62 7700     		.ascii	"w\000"
 6277 0c64 01       		.byte	0x1
 6278 0c65 6303     		.2byte	0x363
 6279 0c67 A2000000 		.4byte	0xa2
 6280 0c6b 02       		.uleb128 0x2
 6281 0c6c 91       		.byte	0x91
 6282 0c6d 6A       		.sleb128 -22
 6283 0c6e 16       		.uleb128 0x16
 6284 0c6f 6800     		.ascii	"h\000"
 6285 0c71 01       		.byte	0x1
 6286 0c72 6303     		.2byte	0x363
 6287 0c74 A2000000 		.4byte	0xa2
 6288 0c78 02       		.uleb128 0x2
 6289 0c79 91       		.byte	0x91
 6290 0c7a 68       		.sleb128 -24
 6291 0c7b 17       		.uleb128 0x17
 6292 0c7c BA070000 		.4byte	.LASF140
 6293 0c80 01       		.byte	0x1
 6294 0c81 6303     		.2byte	0x363
 6295 0c83 AD000000 		.4byte	0xad
 6296 0c87 02       		.uleb128 0x2
 6297 0c88 91       		.byte	0x91
ARM GAS  C:\Users\megan\AppData\Local\Temp\ccD8G3YI.s 			page 136


 6298 0c89 00       		.sleb128 0
 6299 0c8a 17       		.uleb128 0x17
 6300 0c8b 51030000 		.4byte	.LASF161
 6301 0c8f 01       		.byte	0x1
 6302 0c90 6303     		.2byte	0x363
 6303 0c92 39030000 		.4byte	0x339
 6304 0c96 02       		.uleb128 0x2
 6305 0c97 91       		.byte	0x91
 6306 0c98 04       		.sleb128 4
 6307 0c99 00       		.byte	0
 6308 0c9a 14       		.uleb128 0x14
 6309 0c9b C50A0000 		.4byte	.LASF163
 6310 0c9f 01       		.byte	0x1
 6311 0ca0 9A03     		.2byte	0x39a
 6312 0ca2 00000000 		.4byte	.LFB69
 6313 0ca6 A6010000 		.4byte	.LFE69-.LFB69
 6314 0caa 01       		.uleb128 0x1
 6315 0cab 9C       		.byte	0x9c
 6316 0cac 230D0000 		.4byte	0xd23
 6317 0cb0 16       		.uleb128 0x16
 6318 0cb1 783000   		.ascii	"x0\000"
 6319 0cb4 01       		.byte	0x1
 6320 0cb5 9A03     		.2byte	0x39a
 6321 0cb7 A2000000 		.4byte	0xa2
 6322 0cbb 02       		.uleb128 0x2
 6323 0cbc 91       		.byte	0x91
 6324 0cbd 6E       		.sleb128 -18
 6325 0cbe 16       		.uleb128 0x16
 6326 0cbf 793000   		.ascii	"y0\000"
 6327 0cc2 01       		.byte	0x1
 6328 0cc3 9A03     		.2byte	0x39a
 6329 0cc5 A2000000 		.4byte	0xa2
 6330 0cc9 02       		.uleb128 0x2
 6331 0cca 91       		.byte	0x91
 6332 0ccb 6C       		.sleb128 -20
 6333 0ccc 16       		.uleb128 0x16
 6334 0ccd 783100   		.ascii	"x1\000"
 6335 0cd0 01       		.byte	0x1
 6336 0cd1 9A03     		.2byte	0x39a
 6337 0cd3 A2000000 		.4byte	0xa2
 6338 0cd7 02       		.uleb128 0x2
 6339 0cd8 91       		.byte	0x91
 6340 0cd9 6A       		.sleb128 -22
 6341 0cda 16       		.uleb128 0x16
 6342 0cdb 793100   		.ascii	"y1\000"
 6343 0cde 01       		.byte	0x1
 6344 0cdf 9A03     		.2byte	0x39a
 6345 0ce1 A2000000 		.4byte	0xa2
 6346 0ce5 02       		.uleb128 0x2
 6347 0ce6 91       		.byte	0x91
 6348 0ce7 68       		.sleb128 -24
 6349 0ce8 16       		.uleb128 0x16
 6350 0ce9 783200   		.ascii	"x2\000"
 6351 0cec 01       		.byte	0x1
 6352 0ced 9A03     		.2byte	0x39a
 6353 0cef A2000000 		.4byte	0xa2
 6354 0cf3 02       		.uleb128 0x2
ARM GAS  C:\Users\megan\AppData\Local\Temp\ccD8G3YI.s 			page 137


 6355 0cf4 91       		.byte	0x91
 6356 0cf5 00       		.sleb128 0
 6357 0cf6 16       		.uleb128 0x16
 6358 0cf7 793200   		.ascii	"y2\000"
 6359 0cfa 01       		.byte	0x1
 6360 0cfb 9A03     		.2byte	0x39a
 6361 0cfd A2000000 		.4byte	0xa2
 6362 0d01 02       		.uleb128 0x2
 6363 0d02 91       		.byte	0x91
 6364 0d03 04       		.sleb128 4
 6365 0d04 17       		.uleb128 0x17
 6366 0d05 BA070000 		.4byte	.LASF140
 6367 0d09 01       		.byte	0x1
 6368 0d0a 9A03     		.2byte	0x39a
 6369 0d0c AD000000 		.4byte	0xad
 6370 0d10 02       		.uleb128 0x2
 6371 0d11 91       		.byte	0x91
 6372 0d12 08       		.sleb128 8
 6373 0d13 17       		.uleb128 0x17
 6374 0d14 51030000 		.4byte	.LASF161
 6375 0d18 01       		.byte	0x1
 6376 0d19 9A03     		.2byte	0x39a
 6377 0d1b 39030000 		.4byte	0x339
 6378 0d1f 02       		.uleb128 0x2
 6379 0d20 91       		.byte	0x91
 6380 0d21 0C       		.sleb128 12
 6381 0d22 00       		.byte	0
 6382 0d23 14       		.uleb128 0x14
 6383 0d24 08050000 		.4byte	.LASF164
 6384 0d28 01       		.byte	0x1
 6385 0d29 D603     		.2byte	0x3d6
 6386 0d2b 00000000 		.4byte	.LFB70
 6387 0d2f 4A010000 		.4byte	.LFE70-.LFB70
 6388 0d33 01       		.uleb128 0x1
 6389 0d34 9C       		.byte	0x9c
 6390 0d35 940D0000 		.4byte	0xd94
 6391 0d39 17       		.uleb128 0x17
 6392 0d3a 86010000 		.4byte	.LASF152
 6393 0d3e 01       		.byte	0x1
 6394 0d3f D603     		.2byte	0x3d6
 6395 0d41 A2000000 		.4byte	0xa2
 6396 0d45 02       		.uleb128 0x2
 6397 0d46 91       		.byte	0x91
 6398 0d47 6E       		.sleb128 -18
 6399 0d48 17       		.uleb128 0x17
 6400 0d49 100A0000 		.4byte	.LASF153
 6401 0d4d 01       		.byte	0x1
 6402 0d4e D603     		.2byte	0x3d6
 6403 0d50 A2000000 		.4byte	0xa2
 6404 0d54 02       		.uleb128 0x2
 6405 0d55 91       		.byte	0x91
 6406 0d56 6C       		.sleb128 -20
 6407 0d57 17       		.uleb128 0x17
 6408 0d58 F2020000 		.4byte	.LASF154
 6409 0d5c 01       		.byte	0x1
 6410 0d5d D603     		.2byte	0x3d6
 6411 0d5f A2000000 		.4byte	0xa2
ARM GAS  C:\Users\megan\AppData\Local\Temp\ccD8G3YI.s 			page 138


 6412 0d63 02       		.uleb128 0x2
 6413 0d64 91       		.byte	0x91
 6414 0d65 6A       		.sleb128 -22
 6415 0d66 17       		.uleb128 0x17
 6416 0d67 840A0000 		.4byte	.LASF155
 6417 0d6b 01       		.byte	0x1
 6418 0d6c D603     		.2byte	0x3d6
 6419 0d6e A2000000 		.4byte	0xa2
 6420 0d72 02       		.uleb128 0x2
 6421 0d73 91       		.byte	0x91
 6422 0d74 68       		.sleb128 -24
 6423 0d75 17       		.uleb128 0x17
 6424 0d76 BA070000 		.4byte	.LASF140
 6425 0d7a 01       		.byte	0x1
 6426 0d7b D603     		.2byte	0x3d6
 6427 0d7d AD000000 		.4byte	0xad
 6428 0d81 02       		.uleb128 0x2
 6429 0d82 91       		.byte	0x91
 6430 0d83 00       		.sleb128 0
 6431 0d84 17       		.uleb128 0x17
 6432 0d85 51030000 		.4byte	.LASF161
 6433 0d89 01       		.byte	0x1
 6434 0d8a D603     		.2byte	0x3d6
 6435 0d8c 39030000 		.4byte	0x339
 6436 0d90 02       		.uleb128 0x2
 6437 0d91 91       		.byte	0x91
 6438 0d92 04       		.sleb128 4
 6439 0d93 00       		.byte	0
 6440 0d94 14       		.uleb128 0x14
 6441 0d95 69050000 		.4byte	.LASF165
 6442 0d99 01       		.byte	0x1
 6443 0d9a 0804     		.2byte	0x408
 6444 0d9c 00000000 		.4byte	.LFB71
 6445 0da0 7A010000 		.4byte	.LFE71-.LFB71
 6446 0da4 01       		.uleb128 0x1
 6447 0da5 9C       		.byte	0x9c
 6448 0da6 140E0000 		.4byte	0xe14
 6449 0daa 17       		.uleb128 0x17
 6450 0dab 86010000 		.4byte	.LASF152
 6451 0daf 01       		.byte	0x1
 6452 0db0 0804     		.2byte	0x408
 6453 0db2 A2000000 		.4byte	0xa2
 6454 0db6 02       		.uleb128 0x2
 6455 0db7 91       		.byte	0x91
 6456 0db8 6E       		.sleb128 -18
 6457 0db9 17       		.uleb128 0x17
 6458 0dba 100A0000 		.4byte	.LASF153
 6459 0dbe 01       		.byte	0x1
 6460 0dbf 0804     		.2byte	0x408
 6461 0dc1 A2000000 		.4byte	0xa2
 6462 0dc5 02       		.uleb128 0x2
 6463 0dc6 91       		.byte	0x91
 6464 0dc7 6C       		.sleb128 -20
 6465 0dc8 17       		.uleb128 0x17
 6466 0dc9 F2020000 		.4byte	.LASF154
 6467 0dcd 01       		.byte	0x1
 6468 0dce 0804     		.2byte	0x408
ARM GAS  C:\Users\megan\AppData\Local\Temp\ccD8G3YI.s 			page 139


 6469 0dd0 A2000000 		.4byte	0xa2
 6470 0dd4 02       		.uleb128 0x2
 6471 0dd5 91       		.byte	0x91
 6472 0dd6 6A       		.sleb128 -22
 6473 0dd7 17       		.uleb128 0x17
 6474 0dd8 840A0000 		.4byte	.LASF155
 6475 0ddc 01       		.byte	0x1
 6476 0ddd 0804     		.2byte	0x408
 6477 0ddf A2000000 		.4byte	0xa2
 6478 0de3 02       		.uleb128 0x2
 6479 0de4 91       		.byte	0x91
 6480 0de5 68       		.sleb128 -24
 6481 0de6 17       		.uleb128 0x17
 6482 0de7 58050000 		.4byte	.LASF158
 6483 0deb 01       		.byte	0x1
 6484 0dec 0804     		.2byte	0x408
 6485 0dee 97000000 		.4byte	0x97
 6486 0df2 02       		.uleb128 0x2
 6487 0df3 91       		.byte	0x91
 6488 0df4 00       		.sleb128 0
 6489 0df5 17       		.uleb128 0x17
 6490 0df6 BA070000 		.4byte	.LASF140
 6491 0dfa 01       		.byte	0x1
 6492 0dfb 0804     		.2byte	0x408
 6493 0dfd AD000000 		.4byte	0xad
 6494 0e01 02       		.uleb128 0x2
 6495 0e02 91       		.byte	0x91
 6496 0e03 04       		.sleb128 4
 6497 0e04 17       		.uleb128 0x17
 6498 0e05 51030000 		.4byte	.LASF161
 6499 0e09 01       		.byte	0x1
 6500 0e0a 0804     		.2byte	0x408
 6501 0e0c 39030000 		.4byte	0x339
 6502 0e10 02       		.uleb128 0x2
 6503 0e11 91       		.byte	0x91
 6504 0e12 08       		.sleb128 8
 6505 0e13 00       		.byte	0
 6506 0e14 14       		.uleb128 0x14
 6507 0e15 F3090000 		.4byte	.LASF166
 6508 0e19 01       		.byte	0x1
 6509 0e1a 3C04     		.2byte	0x43c
 6510 0e1c 00000000 		.4byte	.LFB72
 6511 0e20 2E000000 		.4byte	.LFE72-.LFB72
 6512 0e24 01       		.uleb128 0x1
 6513 0e25 9C       		.byte	0x9c
 6514 0e26 390E0000 		.4byte	0xe39
 6515 0e2a 16       		.uleb128 0x16
 6516 0e2b 6F6E00   		.ascii	"on\000"
 6517 0e2e 01       		.byte	0x1
 6518 0e2f 3C04     		.2byte	0x43c
 6519 0e31 2E030000 		.4byte	0x32e
 6520 0e35 02       		.uleb128 0x2
 6521 0e36 91       		.byte	0x91
 6522 0e37 77       		.sleb128 -9
 6523 0e38 00       		.byte	0
 6524 0e39 14       		.uleb128 0x14
 6525 0e3a A00C0000 		.4byte	.LASF167
ARM GAS  C:\Users\megan\AppData\Local\Temp\ccD8G3YI.s 			page 140


 6526 0e3e 01       		.byte	0x1
 6527 0e3f 4E04     		.2byte	0x44e
 6528 0e41 00000000 		.4byte	.LFB73
 6529 0e45 20000000 		.4byte	.LFE73-.LFB73
 6530 0e49 01       		.uleb128 0x1
 6531 0e4a 9C       		.byte	0x9c
 6532 0e4b 5D0E0000 		.4byte	0xe5d
 6533 0e4f 16       		.uleb128 0x16
 6534 0e50 7000     		.ascii	"p\000"
 6535 0e52 01       		.byte	0x1
 6536 0e53 4E04     		.2byte	0x44e
 6537 0e55 97000000 		.4byte	0x97
 6538 0e59 02       		.uleb128 0x2
 6539 0e5a 91       		.byte	0x91
 6540 0e5b 77       		.sleb128 -9
 6541 0e5c 00       		.byte	0
 6542 0e5d 14       		.uleb128 0x14
 6543 0e5e 240B0000 		.4byte	.LASF168
 6544 0e62 01       		.byte	0x1
 6545 0e63 5B04     		.2byte	0x45b
 6546 0e65 00000000 		.4byte	.LFB74
 6547 0e69 20000000 		.4byte	.LFE74-.LFB74
 6548 0e6d 01       		.uleb128 0x1
 6549 0e6e 9C       		.byte	0x9c
 6550 0e6f 810E0000 		.4byte	0xe81
 6551 0e73 16       		.uleb128 0x16
 6552 0e74 7000     		.ascii	"p\000"
 6553 0e76 01       		.byte	0x1
 6554 0e77 5B04     		.2byte	0x45b
 6555 0e79 97000000 		.4byte	0x97
 6556 0e7d 02       		.uleb128 0x2
 6557 0e7e 91       		.byte	0x91
 6558 0e7f 77       		.sleb128 -9
 6559 0e80 00       		.byte	0
 6560 0e81 14       		.uleb128 0x14
 6561 0e82 FB020000 		.4byte	.LASF169
 6562 0e86 01       		.byte	0x1
 6563 0e87 6404     		.2byte	0x464
 6564 0e89 00000000 		.4byte	.LFB75
 6565 0e8d 54000000 		.4byte	.LFE75-.LFB75
 6566 0e91 01       		.uleb128 0x1
 6567 0e92 9C       		.byte	0x9c
 6568 0e93 B50E0000 		.4byte	0xeb5
 6569 0e97 16       		.uleb128 0x16
 6570 0e98 6F6E00   		.ascii	"on\000"
 6571 0e9b 01       		.byte	0x1
 6572 0e9c 6404     		.2byte	0x464
 6573 0e9e 2E030000 		.4byte	0x32e
 6574 0ea2 02       		.uleb128 0x2
 6575 0ea3 91       		.byte	0x91
 6576 0ea4 77       		.sleb128 -9
 6577 0ea5 17       		.uleb128 0x17
 6578 0ea6 0C0E0000 		.4byte	.LASF170
 6579 0eaa 01       		.byte	0x1
 6580 0eab 6404     		.2byte	0x464
 6581 0ead 97000000 		.4byte	0x97
 6582 0eb1 02       		.uleb128 0x2
ARM GAS  C:\Users\megan\AppData\Local\Temp\ccD8G3YI.s 			page 141


 6583 0eb2 91       		.byte	0x91
 6584 0eb3 76       		.sleb128 -10
 6585 0eb4 00       		.byte	0
 6586 0eb5 14       		.uleb128 0x14
 6587 0eb6 AA0B0000 		.4byte	.LASF171
 6588 0eba 01       		.byte	0x1
 6589 0ebb 7604     		.2byte	0x476
 6590 0ebd 00000000 		.4byte	.LFB76
 6591 0ec1 54000000 		.4byte	.LFE76-.LFB76
 6592 0ec5 01       		.uleb128 0x1
 6593 0ec6 9C       		.byte	0x9c
 6594 0ec7 E90E0000 		.4byte	0xee9
 6595 0ecb 16       		.uleb128 0x16
 6596 0ecc 6F6E00   		.ascii	"on\000"
 6597 0ecf 01       		.byte	0x1
 6598 0ed0 7604     		.2byte	0x476
 6599 0ed2 2E030000 		.4byte	0x32e
 6600 0ed6 02       		.uleb128 0x2
 6601 0ed7 91       		.byte	0x91
 6602 0ed8 77       		.sleb128 -9
 6603 0ed9 17       		.uleb128 0x17
 6604 0eda 0C0E0000 		.4byte	.LASF170
 6605 0ede 01       		.byte	0x1
 6606 0edf 7604     		.2byte	0x476
 6607 0ee1 97000000 		.4byte	0x97
 6608 0ee5 02       		.uleb128 0x2
 6609 0ee6 91       		.byte	0x91
 6610 0ee7 76       		.sleb128 -10
 6611 0ee8 00       		.byte	0
 6612 0ee9 14       		.uleb128 0x14
 6613 0eea FC080000 		.4byte	.LASF172
 6614 0eee 01       		.byte	0x1
 6615 0eef 8304     		.2byte	0x483
 6616 0ef1 00000000 		.4byte	.LFB77
 6617 0ef5 94000000 		.4byte	.LFE77-.LFB77
 6618 0ef9 01       		.uleb128 0x1
 6619 0efa 9C       		.byte	0x9c
 6620 0efb 1D0F0000 		.4byte	0xf1d
 6621 0eff 16       		.uleb128 0x16
 6622 0f00 6F6E00   		.ascii	"on\000"
 6623 0f03 01       		.byte	0x1
 6624 0f04 8304     		.2byte	0x483
 6625 0f06 2E030000 		.4byte	0x32e
 6626 0f0a 02       		.uleb128 0x2
 6627 0f0b 91       		.byte	0x91
 6628 0f0c 6F       		.sleb128 -17
 6629 0f0d 15       		.uleb128 0x15
 6630 0f0e 7D030000 		.4byte	.LASF173
 6631 0f12 01       		.byte	0x1
 6632 0f13 8504     		.2byte	0x485
 6633 0f15 97000000 		.4byte	0x97
 6634 0f19 02       		.uleb128 0x2
 6635 0f1a 91       		.byte	0x91
 6636 0f1b 77       		.sleb128 -9
 6637 0f1c 00       		.byte	0
 6638 0f1d 1C       		.uleb128 0x1c
 6639 0f1e 6E0A0000 		.4byte	.LASF174
ARM GAS  C:\Users\megan\AppData\Local\Temp\ccD8G3YI.s 			page 142


 6640 0f22 01       		.byte	0x1
 6641 0f23 A904     		.2byte	0x4a9
 6642 0f25 2E030000 		.4byte	0x32e
 6643 0f29 00000000 		.4byte	.LFB78
 6644 0f2d 20000000 		.4byte	.LFE78-.LFB78
 6645 0f31 01       		.uleb128 0x1
 6646 0f32 9C       		.byte	0x9c
 6647 0f33 1A       		.uleb128 0x1a
 6648 0f34 980A0000 		.4byte	.LASF175
 6649 0f38 01       		.byte	0x1
 6650 0f39 BA04     		.2byte	0x4ba
 6651 0f3b 2E030000 		.4byte	0x32e
 6652 0f3f 00000000 		.4byte	.LFB79
 6653 0f43 BE000000 		.4byte	.LFE79-.LFB79
 6654 0f47 01       		.uleb128 0x1
 6655 0f48 9C       		.byte	0x9c
 6656 0f49 930F0000 		.4byte	0xf93
 6657 0f4d 16       		.uleb128 0x16
 6658 0f4e 7800     		.ascii	"x\000"
 6659 0f50 01       		.byte	0x1
 6660 0f51 BA04     		.2byte	0x4ba
 6661 0f53 930F0000 		.4byte	0xf93
 6662 0f57 02       		.uleb128 0x2
 6663 0f58 91       		.byte	0x91
 6664 0f59 64       		.sleb128 -28
 6665 0f5a 16       		.uleb128 0x16
 6666 0f5b 7900     		.ascii	"y\000"
 6667 0f5d 01       		.byte	0x1
 6668 0f5e BA04     		.2byte	0x4ba
 6669 0f60 930F0000 		.4byte	0xf93
 6670 0f64 02       		.uleb128 0x2
 6671 0f65 91       		.byte	0x91
 6672 0f66 60       		.sleb128 -32
 6673 0f67 19       		.uleb128 0x19
 6674 0f68 747800   		.ascii	"tx\000"
 6675 0f6b 01       		.byte	0x1
 6676 0f6c BC04     		.2byte	0x4bc
 6677 0f6e AD000000 		.4byte	0xad
 6678 0f72 02       		.uleb128 0x2
 6679 0f73 91       		.byte	0x91
 6680 0f74 6E       		.sleb128 -18
 6681 0f75 19       		.uleb128 0x19
 6682 0f76 747900   		.ascii	"ty\000"
 6683 0f79 01       		.byte	0x1
 6684 0f7a BC04     		.2byte	0x4bc
 6685 0f7c AD000000 		.4byte	0xad
 6686 0f80 02       		.uleb128 0x2
 6687 0f81 91       		.byte	0x91
 6688 0f82 6C       		.sleb128 -20
 6689 0f83 15       		.uleb128 0x15
 6690 0f84 1C040000 		.4byte	.LASF121
 6691 0f88 01       		.byte	0x1
 6692 0f89 BD04     		.2byte	0x4bd
 6693 0f8b 97000000 		.4byte	0x97
 6694 0f8f 02       		.uleb128 0x2
 6695 0f90 91       		.byte	0x91
 6696 0f91 6B       		.sleb128 -21
ARM GAS  C:\Users\megan\AppData\Local\Temp\ccD8G3YI.s 			page 143


 6697 0f92 00       		.byte	0
 6698 0f93 07       		.uleb128 0x7
 6699 0f94 04       		.byte	0x4
 6700 0f95 AD000000 		.4byte	0xad
 6701 0f99 14       		.uleb128 0x14
 6702 0f9a EB070000 		.4byte	.LASF176
 6703 0f9e 01       		.byte	0x1
 6704 0f9f D504     		.2byte	0x4d5
 6705 0fa1 00000000 		.4byte	.LFB80
 6706 0fa5 2E000000 		.4byte	.LFE80-.LFB80
 6707 0fa9 01       		.uleb128 0x1
 6708 0faa 9C       		.byte	0x9c
 6709 0fab BE0F0000 		.4byte	0xfbe
 6710 0faf 16       		.uleb128 0x16
 6711 0fb0 6F6E00   		.ascii	"on\000"
 6712 0fb3 01       		.byte	0x1
 6713 0fb4 D504     		.2byte	0x4d5
 6714 0fb6 2E030000 		.4byte	0x32e
 6715 0fba 02       		.uleb128 0x2
 6716 0fbb 91       		.byte	0x91
 6717 0fbc 77       		.sleb128 -9
 6718 0fbd 00       		.byte	0
 6719 0fbe 14       		.uleb128 0x14
 6720 0fbf A8000000 		.4byte	.LASF177
 6721 0fc3 01       		.byte	0x1
 6722 0fc4 E304     		.2byte	0x4e3
 6723 0fc6 00000000 		.4byte	.LFB81
 6724 0fca 2E000000 		.4byte	.LFE81-.LFB81
 6725 0fce 01       		.uleb128 0x1
 6726 0fcf 9C       		.byte	0x9c
 6727 0fd0 E40F0000 		.4byte	0xfe4
 6728 0fd4 17       		.uleb128 0x17
 6729 0fd5 A8000000 		.4byte	.LASF177
 6730 0fd9 01       		.byte	0x1
 6731 0fda E304     		.2byte	0x4e3
 6732 0fdc 2E030000 		.4byte	0x32e
 6733 0fe0 02       		.uleb128 0x2
 6734 0fe1 91       		.byte	0x91
 6735 0fe2 77       		.sleb128 -9
 6736 0fe3 00       		.byte	0
 6737 0fe4 14       		.uleb128 0x14
 6738 0fe5 2B0D0000 		.4byte	.LASF178
 6739 0fe9 01       		.byte	0x1
 6740 0fea F204     		.2byte	0x4f2
 6741 0fec 00000000 		.4byte	.LFB82
 6742 0ff0 2E000000 		.4byte	.LFE82-.LFB82
 6743 0ff4 01       		.uleb128 0x1
 6744 0ff5 9C       		.byte	0x9c
 6745 0ff6 19100000 		.4byte	0x1019
 6746 0ffa 16       		.uleb128 0x16
 6747 0ffb 72656700 		.ascii	"reg\000"
 6748 0fff 01       		.byte	0x1
 6749 1000 F204     		.2byte	0x4f2
 6750 1002 97000000 		.4byte	0x97
 6751 1006 02       		.uleb128 0x2
 6752 1007 91       		.byte	0x91
 6753 1008 77       		.sleb128 -9
ARM GAS  C:\Users\megan\AppData\Local\Temp\ccD8G3YI.s 			page 144


 6754 1009 16       		.uleb128 0x16
 6755 100a 76616C00 		.ascii	"val\000"
 6756 100e 01       		.byte	0x1
 6757 100f F204     		.2byte	0x4f2
 6758 1011 97000000 		.4byte	0x97
 6759 1015 02       		.uleb128 0x2
 6760 1016 91       		.byte	0x91
 6761 1017 76       		.sleb128 -10
 6762 1018 00       		.byte	0
 6763 1019 1A       		.uleb128 0x1a
 6764 101a 38030000 		.4byte	.LASF179
 6765 101e 01       		.byte	0x1
 6766 101f FD04     		.2byte	0x4fd
 6767 1021 97000000 		.4byte	0x97
 6768 1025 00000000 		.4byte	.LFB83
 6769 1029 24000000 		.4byte	.LFE83-.LFB83
 6770 102d 01       		.uleb128 0x1
 6771 102e 9C       		.byte	0x9c
 6772 102f 43100000 		.4byte	0x1043
 6773 1033 16       		.uleb128 0x16
 6774 1034 72656700 		.ascii	"reg\000"
 6775 1038 01       		.byte	0x1
 6776 1039 FD04     		.2byte	0x4fd
 6777 103b 97000000 		.4byte	0x97
 6778 103f 02       		.uleb128 0x2
 6779 1040 91       		.byte	0x91
 6780 1041 77       		.sleb128 -9
 6781 1042 00       		.byte	0
 6782 1043 14       		.uleb128 0x14
 6783 1044 64080000 		.4byte	.LASF180
 6784 1048 01       		.byte	0x1
 6785 1049 0805     		.2byte	0x508
 6786 104b 00000000 		.4byte	.LFB84
 6787 104f 30000000 		.4byte	.LFE84-.LFB84
 6788 1053 01       		.uleb128 0x1
 6789 1054 9C       		.byte	0x9c
 6790 1055 67100000 		.4byte	0x1067
 6791 1059 16       		.uleb128 0x16
 6792 105a 6400     		.ascii	"d\000"
 6793 105c 01       		.byte	0x1
 6794 105d 0805     		.2byte	0x508
 6795 105f 97000000 		.4byte	0x97
 6796 1063 02       		.uleb128 0x2
 6797 1064 91       		.byte	0x91
 6798 1065 77       		.sleb128 -9
 6799 1066 00       		.byte	0
 6800 1067 1A       		.uleb128 0x1a
 6801 1068 6F0C0000 		.4byte	.LASF181
 6802 106c 01       		.byte	0x1
 6803 106d 1505     		.2byte	0x515
 6804 106f 97000000 		.4byte	0x97
 6805 1073 00000000 		.4byte	.LFB85
 6806 1077 78000000 		.4byte	.LFE85-.LFB85
 6807 107b 01       		.uleb128 0x1
 6808 107c 9C       		.byte	0x9c
 6809 107d 8F100000 		.4byte	0x108f
 6810 1081 19       		.uleb128 0x19
ARM GAS  C:\Users\megan\AppData\Local\Temp\ccD8G3YI.s 			page 145


 6811 1082 7800     		.ascii	"x\000"
 6812 1084 01       		.byte	0x1
 6813 1085 1705     		.2byte	0x517
 6814 1087 97000000 		.4byte	0x97
 6815 108b 02       		.uleb128 0x2
 6816 108c 91       		.byte	0x91
 6817 108d 77       		.sleb128 -9
 6818 108e 00       		.byte	0
 6819 108f 14       		.uleb128 0x14
 6820 1090 D1040000 		.4byte	.LASF182
 6821 1094 01       		.byte	0x1
 6822 1095 3D05     		.2byte	0x53d
 6823 1097 00000000 		.4byte	.LFB86
 6824 109b 30000000 		.4byte	.LFE86-.LFB86
 6825 109f 01       		.uleb128 0x1
 6826 10a0 9C       		.byte	0x9c
 6827 10a1 B3100000 		.4byte	0x10b3
 6828 10a5 16       		.uleb128 0x16
 6829 10a6 6400     		.ascii	"d\000"
 6830 10a8 01       		.byte	0x1
 6831 10a9 3D05     		.2byte	0x53d
 6832 10ab 97000000 		.4byte	0x97
 6833 10af 02       		.uleb128 0x2
 6834 10b0 91       		.byte	0x91
 6835 10b1 77       		.sleb128 -9
 6836 10b2 00       		.byte	0
 6837 10b3 1A       		.uleb128 0x1a
 6838 10b4 050C0000 		.4byte	.LASF183
 6839 10b8 01       		.byte	0x1
 6840 10b9 4A05     		.2byte	0x54a
 6841 10bb 97000000 		.4byte	0x97
 6842 10bf 00000000 		.4byte	.LFB87
 6843 10c3 64000000 		.4byte	.LFE87-.LFB87
 6844 10c7 01       		.uleb128 0x1
 6845 10c8 9C       		.byte	0x9c
 6846 10c9 DB100000 		.4byte	0x10db
 6847 10cd 19       		.uleb128 0x19
 6848 10ce 7800     		.ascii	"x\000"
 6849 10d0 01       		.byte	0x1
 6850 10d1 4C05     		.2byte	0x54c
 6851 10d3 97000000 		.4byte	0x97
 6852 10d7 02       		.uleb128 0x2
 6853 10d8 91       		.byte	0x91
 6854 10d9 77       		.sleb128 -9
 6855 10da 00       		.byte	0
 6856 10db 1D       		.uleb128 0x1d
 6857 10dc 5F637300 		.ascii	"_cs\000"
 6858 10e0 07       		.byte	0x7
 6859 10e1 9F       		.byte	0x9f
 6860 10e2 97000000 		.4byte	0x97
 6861 10e6 05       		.uleb128 0x5
 6862 10e7 03       		.byte	0x3
 6863 10e8 00000000 		.4byte	_cs
 6864 10ec 1E       		.uleb128 0x1e
 6865 10ed FA0B0000 		.4byte	.LASF184
 6866 10f1 07       		.byte	0x7
 6867 10f2 9F       		.byte	0x9f
ARM GAS  C:\Users\megan\AppData\Local\Temp\ccD8G3YI.s 			page 146


 6868 10f3 97000000 		.4byte	0x97
 6869 10f7 05       		.uleb128 0x5
 6870 10f8 03       		.byte	0x3
 6871 10f9 00000000 		.4byte	_rst
 6872 10fd 1E       		.uleb128 0x1e
 6873 10fe 62050000 		.4byte	.LASF185
 6874 1102 07       		.byte	0x7
 6875 1103 A0       		.byte	0xa0
 6876 1104 AD000000 		.4byte	0xad
 6877 1108 05       		.uleb128 0x5
 6878 1109 03       		.byte	0x3
 6879 110a 00000000 		.4byte	_width
 6880 110e 1E       		.uleb128 0x1e
 6881 110f 520D0000 		.4byte	.LASF186
 6882 1113 07       		.byte	0x7
 6883 1114 A0       		.byte	0xa0
 6884 1115 AD000000 		.4byte	0xad
 6885 1119 05       		.uleb128 0x5
 6886 111a 03       		.byte	0x3
 6887 111b 00000000 		.4byte	_height
 6888 111f 1E       		.uleb128 0x1e
 6889 1120 AE020000 		.4byte	.LASF187
 6890 1124 07       		.byte	0x7
 6891 1125 A1       		.byte	0xa1
 6892 1126 97000000 		.4byte	0x97
 6893 112a 05       		.uleb128 0x5
 6894 112b 03       		.byte	0x3
 6895 112c 00000000 		.4byte	_textScale
 6896 1130 1E       		.uleb128 0x1e
 6897 1131 FF0B0000 		.4byte	.LASF188
 6898 1135 07       		.byte	0x7
 6899 1136 A2       		.byte	0xa2
 6900 1137 F8020000 		.4byte	0x2f8
 6901 113b 05       		.uleb128 0x5
 6902 113c 03       		.byte	0x3
 6903 113d 00000000 		.4byte	_size
 6904 1141 1E       		.uleb128 0x1e
 6905 1142 0C010000 		.4byte	.LASF189
 6906 1146 01       		.byte	0x1
 6907 1147 22       		.byte	0x22
 6908 1148 B8000000 		.4byte	0xb8
 6909 114c 05       		.uleb128 0x5
 6910 114d 03       		.byte	0x3
 6911 114e 00000000 		.4byte	spi_speed
 6912 1152 00       		.byte	0
 6913              		.section	.debug_abbrev,"",%progbits
 6914              	.Ldebug_abbrev0:
 6915 0000 01       		.uleb128 0x1
 6916 0001 11       		.uleb128 0x11
 6917 0002 01       		.byte	0x1
 6918 0003 25       		.uleb128 0x25
 6919 0004 0E       		.uleb128 0xe
 6920 0005 13       		.uleb128 0x13
 6921 0006 0B       		.uleb128 0xb
 6922 0007 03       		.uleb128 0x3
 6923 0008 0E       		.uleb128 0xe
 6924 0009 1B       		.uleb128 0x1b
ARM GAS  C:\Users\megan\AppData\Local\Temp\ccD8G3YI.s 			page 147


 6925 000a 0E       		.uleb128 0xe
 6926 000b 55       		.uleb128 0x55
 6927 000c 17       		.uleb128 0x17
 6928 000d 11       		.uleb128 0x11
 6929 000e 01       		.uleb128 0x1
 6930 000f 10       		.uleb128 0x10
 6931 0010 17       		.uleb128 0x17
 6932 0011 00       		.byte	0
 6933 0012 00       		.byte	0
 6934 0013 02       		.uleb128 0x2
 6935 0014 24       		.uleb128 0x24
 6936 0015 00       		.byte	0
 6937 0016 0B       		.uleb128 0xb
 6938 0017 0B       		.uleb128 0xb
 6939 0018 3E       		.uleb128 0x3e
 6940 0019 0B       		.uleb128 0xb
 6941 001a 03       		.uleb128 0x3
 6942 001b 0E       		.uleb128 0xe
 6943 001c 00       		.byte	0
 6944 001d 00       		.byte	0
 6945 001e 03       		.uleb128 0x3
 6946 001f 16       		.uleb128 0x16
 6947 0020 00       		.byte	0
 6948 0021 03       		.uleb128 0x3
 6949 0022 0E       		.uleb128 0xe
 6950 0023 3A       		.uleb128 0x3a
 6951 0024 0B       		.uleb128 0xb
 6952 0025 3B       		.uleb128 0x3b
 6953 0026 0B       		.uleb128 0xb
 6954 0027 49       		.uleb128 0x49
 6955 0028 13       		.uleb128 0x13
 6956 0029 00       		.byte	0
 6957 002a 00       		.byte	0
 6958 002b 04       		.uleb128 0x4
 6959 002c 24       		.uleb128 0x24
 6960 002d 00       		.byte	0
 6961 002e 0B       		.uleb128 0xb
 6962 002f 0B       		.uleb128 0xb
 6963 0030 3E       		.uleb128 0x3e
 6964 0031 0B       		.uleb128 0xb
 6965 0032 03       		.uleb128 0x3
 6966 0033 08       		.uleb128 0x8
 6967 0034 00       		.byte	0
 6968 0035 00       		.byte	0
 6969 0036 05       		.uleb128 0x5
 6970 0037 16       		.uleb128 0x16
 6971 0038 00       		.byte	0
 6972 0039 03       		.uleb128 0x3
 6973 003a 0E       		.uleb128 0xe
 6974 003b 3A       		.uleb128 0x3a
 6975 003c 0B       		.uleb128 0xb
 6976 003d 3B       		.uleb128 0x3b
 6977 003e 05       		.uleb128 0x5
 6978 003f 49       		.uleb128 0x49
 6979 0040 13       		.uleb128 0x13
 6980 0041 00       		.byte	0
 6981 0042 00       		.byte	0
ARM GAS  C:\Users\megan\AppData\Local\Temp\ccD8G3YI.s 			page 148


 6982 0043 06       		.uleb128 0x6
 6983 0044 35       		.uleb128 0x35
 6984 0045 00       		.byte	0
 6985 0046 49       		.uleb128 0x49
 6986 0047 13       		.uleb128 0x13
 6987 0048 00       		.byte	0
 6988 0049 00       		.byte	0
 6989 004a 07       		.uleb128 0x7
 6990 004b 0F       		.uleb128 0xf
 6991 004c 00       		.byte	0
 6992 004d 0B       		.uleb128 0xb
 6993 004e 0B       		.uleb128 0xb
 6994 004f 49       		.uleb128 0x49
 6995 0050 13       		.uleb128 0x13
 6996 0051 00       		.byte	0
 6997 0052 00       		.byte	0
 6998 0053 08       		.uleb128 0x8
 6999 0054 26       		.uleb128 0x26
 7000 0055 00       		.byte	0
 7001 0056 49       		.uleb128 0x49
 7002 0057 13       		.uleb128 0x13
 7003 0058 00       		.byte	0
 7004 0059 00       		.byte	0
 7005 005a 09       		.uleb128 0x9
 7006 005b 04       		.uleb128 0x4
 7007 005c 01       		.byte	0x1
 7008 005d 0B       		.uleb128 0xb
 7009 005e 0B       		.uleb128 0xb
 7010 005f 49       		.uleb128 0x49
 7011 0060 13       		.uleb128 0x13
 7012 0061 3A       		.uleb128 0x3a
 7013 0062 0B       		.uleb128 0xb
 7014 0063 3B       		.uleb128 0x3b
 7015 0064 05       		.uleb128 0x5
 7016 0065 01       		.uleb128 0x1
 7017 0066 13       		.uleb128 0x13
 7018 0067 00       		.byte	0
 7019 0068 00       		.byte	0
 7020 0069 0A       		.uleb128 0xa
 7021 006a 28       		.uleb128 0x28
 7022 006b 00       		.byte	0
 7023 006c 03       		.uleb128 0x3
 7024 006d 0E       		.uleb128 0xe
 7025 006e 1C       		.uleb128 0x1c
 7026 006f 0B       		.uleb128 0xb
 7027 0070 00       		.byte	0
 7028 0071 00       		.byte	0
 7029 0072 0B       		.uleb128 0xb
 7030 0073 04       		.uleb128 0x4
 7031 0074 01       		.byte	0x1
 7032 0075 03       		.uleb128 0x3
 7033 0076 0E       		.uleb128 0xe
 7034 0077 0B       		.uleb128 0xb
 7035 0078 0B       		.uleb128 0xb
 7036 0079 49       		.uleb128 0x49
 7037 007a 13       		.uleb128 0x13
 7038 007b 3A       		.uleb128 0x3a
ARM GAS  C:\Users\megan\AppData\Local\Temp\ccD8G3YI.s 			page 149


 7039 007c 0B       		.uleb128 0xb
 7040 007d 3B       		.uleb128 0x3b
 7041 007e 0B       		.uleb128 0xb
 7042 007f 01       		.uleb128 0x1
 7043 0080 13       		.uleb128 0x13
 7044 0081 00       		.byte	0
 7045 0082 00       		.byte	0
 7046 0083 0C       		.uleb128 0xc
 7047 0084 04       		.uleb128 0x4
 7048 0085 01       		.byte	0x1
 7049 0086 0B       		.uleb128 0xb
 7050 0087 0B       		.uleb128 0xb
 7051 0088 49       		.uleb128 0x49
 7052 0089 13       		.uleb128 0x13
 7053 008a 3A       		.uleb128 0x3a
 7054 008b 0B       		.uleb128 0xb
 7055 008c 3B       		.uleb128 0x3b
 7056 008d 0B       		.uleb128 0xb
 7057 008e 01       		.uleb128 0x1
 7058 008f 13       		.uleb128 0x13
 7059 0090 00       		.byte	0
 7060 0091 00       		.byte	0
 7061 0092 0D       		.uleb128 0xd
 7062 0093 2E       		.uleb128 0x2e
 7063 0094 01       		.byte	0x1
 7064 0095 3F       		.uleb128 0x3f
 7065 0096 19       		.uleb128 0x19
 7066 0097 03       		.uleb128 0x3
 7067 0098 0E       		.uleb128 0xe
 7068 0099 3A       		.uleb128 0x3a
 7069 009a 0B       		.uleb128 0xb
 7070 009b 3B       		.uleb128 0x3b
 7071 009c 0B       		.uleb128 0xb
 7072 009d 27       		.uleb128 0x27
 7073 009e 19       		.uleb128 0x19
 7074 009f 49       		.uleb128 0x49
 7075 00a0 13       		.uleb128 0x13
 7076 00a1 11       		.uleb128 0x11
 7077 00a2 01       		.uleb128 0x1
 7078 00a3 12       		.uleb128 0x12
 7079 00a4 06       		.uleb128 0x6
 7080 00a5 40       		.uleb128 0x40
 7081 00a6 18       		.uleb128 0x18
 7082 00a7 9642     		.uleb128 0x2116
 7083 00a9 19       		.uleb128 0x19
 7084 00aa 01       		.uleb128 0x1
 7085 00ab 13       		.uleb128 0x13
 7086 00ac 00       		.byte	0
 7087 00ad 00       		.byte	0
 7088 00ae 0E       		.uleb128 0xe
 7089 00af 05       		.uleb128 0x5
 7090 00b0 00       		.byte	0
 7091 00b1 03       		.uleb128 0x3
 7092 00b2 08       		.uleb128 0x8
 7093 00b3 3A       		.uleb128 0x3a
 7094 00b4 0B       		.uleb128 0xb
 7095 00b5 3B       		.uleb128 0x3b
ARM GAS  C:\Users\megan\AppData\Local\Temp\ccD8G3YI.s 			page 150


 7096 00b6 0B       		.uleb128 0xb
 7097 00b7 49       		.uleb128 0x49
 7098 00b8 13       		.uleb128 0x13
 7099 00b9 02       		.uleb128 0x2
 7100 00ba 18       		.uleb128 0x18
 7101 00bb 00       		.byte	0
 7102 00bc 00       		.byte	0
 7103 00bd 0F       		.uleb128 0xf
 7104 00be 34       		.uleb128 0x34
 7105 00bf 00       		.byte	0
 7106 00c0 03       		.uleb128 0x3
 7107 00c1 08       		.uleb128 0x8
 7108 00c2 3A       		.uleb128 0x3a
 7109 00c3 0B       		.uleb128 0xb
 7110 00c4 3B       		.uleb128 0x3b
 7111 00c5 0B       		.uleb128 0xb
 7112 00c6 49       		.uleb128 0x49
 7113 00c7 13       		.uleb128 0x13
 7114 00c8 02       		.uleb128 0x2
 7115 00c9 18       		.uleb128 0x18
 7116 00ca 00       		.byte	0
 7117 00cb 00       		.byte	0
 7118 00cc 10       		.uleb128 0x10
 7119 00cd 2E       		.uleb128 0x2e
 7120 00ce 00       		.byte	0
 7121 00cf 3F       		.uleb128 0x3f
 7122 00d0 19       		.uleb128 0x19
 7123 00d1 03       		.uleb128 0x3
 7124 00d2 0E       		.uleb128 0xe
 7125 00d3 3A       		.uleb128 0x3a
 7126 00d4 0B       		.uleb128 0xb
 7127 00d5 3B       		.uleb128 0x3b
 7128 00d6 0B       		.uleb128 0xb
 7129 00d7 27       		.uleb128 0x27
 7130 00d8 19       		.uleb128 0x19
 7131 00d9 11       		.uleb128 0x11
 7132 00da 01       		.uleb128 0x1
 7133 00db 12       		.uleb128 0x12
 7134 00dc 06       		.uleb128 0x6
 7135 00dd 40       		.uleb128 0x40
 7136 00de 18       		.uleb128 0x18
 7137 00df 9642     		.uleb128 0x2116
 7138 00e1 19       		.uleb128 0x19
 7139 00e2 00       		.byte	0
 7140 00e3 00       		.byte	0
 7141 00e4 11       		.uleb128 0x11
 7142 00e5 2E       		.uleb128 0x2e
 7143 00e6 01       		.byte	0x1
 7144 00e7 3F       		.uleb128 0x3f
 7145 00e8 19       		.uleb128 0x19
 7146 00e9 03       		.uleb128 0x3
 7147 00ea 0E       		.uleb128 0xe
 7148 00eb 3A       		.uleb128 0x3a
 7149 00ec 0B       		.uleb128 0xb
 7150 00ed 3B       		.uleb128 0x3b
 7151 00ee 0B       		.uleb128 0xb
 7152 00ef 27       		.uleb128 0x27
ARM GAS  C:\Users\megan\AppData\Local\Temp\ccD8G3YI.s 			page 151


 7153 00f0 19       		.uleb128 0x19
 7154 00f1 11       		.uleb128 0x11
 7155 00f2 01       		.uleb128 0x1
 7156 00f3 12       		.uleb128 0x12
 7157 00f4 06       		.uleb128 0x6
 7158 00f5 40       		.uleb128 0x40
 7159 00f6 18       		.uleb128 0x18
 7160 00f7 9642     		.uleb128 0x2116
 7161 00f9 19       		.uleb128 0x19
 7162 00fa 01       		.uleb128 0x1
 7163 00fb 13       		.uleb128 0x13
 7164 00fc 00       		.byte	0
 7165 00fd 00       		.byte	0
 7166 00fe 12       		.uleb128 0x12
 7167 00ff 34       		.uleb128 0x34
 7168 0100 00       		.byte	0
 7169 0101 03       		.uleb128 0x3
 7170 0102 0E       		.uleb128 0xe
 7171 0103 3A       		.uleb128 0x3a
 7172 0104 0B       		.uleb128 0xb
 7173 0105 3B       		.uleb128 0x3b
 7174 0106 0B       		.uleb128 0xb
 7175 0107 49       		.uleb128 0x49
 7176 0108 13       		.uleb128 0x13
 7177 0109 02       		.uleb128 0x2
 7178 010a 18       		.uleb128 0x18
 7179 010b 00       		.byte	0
 7180 010c 00       		.byte	0
 7181 010d 13       		.uleb128 0x13
 7182 010e 2E       		.uleb128 0x2e
 7183 010f 00       		.byte	0
 7184 0110 3F       		.uleb128 0x3f
 7185 0111 19       		.uleb128 0x19
 7186 0112 03       		.uleb128 0x3
 7187 0113 0E       		.uleb128 0xe
 7188 0114 3A       		.uleb128 0x3a
 7189 0115 0B       		.uleb128 0xb
 7190 0116 3B       		.uleb128 0x3b
 7191 0117 05       		.uleb128 0x5
 7192 0118 27       		.uleb128 0x27
 7193 0119 19       		.uleb128 0x19
 7194 011a 49       		.uleb128 0x49
 7195 011b 13       		.uleb128 0x13
 7196 011c 11       		.uleb128 0x11
 7197 011d 01       		.uleb128 0x1
 7198 011e 12       		.uleb128 0x12
 7199 011f 06       		.uleb128 0x6
 7200 0120 40       		.uleb128 0x40
 7201 0121 18       		.uleb128 0x18
 7202 0122 9742     		.uleb128 0x2117
 7203 0124 19       		.uleb128 0x19
 7204 0125 00       		.byte	0
 7205 0126 00       		.byte	0
 7206 0127 14       		.uleb128 0x14
 7207 0128 2E       		.uleb128 0x2e
 7208 0129 01       		.byte	0x1
 7209 012a 3F       		.uleb128 0x3f
ARM GAS  C:\Users\megan\AppData\Local\Temp\ccD8G3YI.s 			page 152


 7210 012b 19       		.uleb128 0x19
 7211 012c 03       		.uleb128 0x3
 7212 012d 0E       		.uleb128 0xe
 7213 012e 3A       		.uleb128 0x3a
 7214 012f 0B       		.uleb128 0xb
 7215 0130 3B       		.uleb128 0x3b
 7216 0131 05       		.uleb128 0x5
 7217 0132 27       		.uleb128 0x27
 7218 0133 19       		.uleb128 0x19
 7219 0134 11       		.uleb128 0x11
 7220 0135 01       		.uleb128 0x1
 7221 0136 12       		.uleb128 0x12
 7222 0137 06       		.uleb128 0x6
 7223 0138 40       		.uleb128 0x40
 7224 0139 18       		.uleb128 0x18
 7225 013a 9642     		.uleb128 0x2116
 7226 013c 19       		.uleb128 0x19
 7227 013d 01       		.uleb128 0x1
 7228 013e 13       		.uleb128 0x13
 7229 013f 00       		.byte	0
 7230 0140 00       		.byte	0
 7231 0141 15       		.uleb128 0x15
 7232 0142 34       		.uleb128 0x34
 7233 0143 00       		.byte	0
 7234 0144 03       		.uleb128 0x3
 7235 0145 0E       		.uleb128 0xe
 7236 0146 3A       		.uleb128 0x3a
 7237 0147 0B       		.uleb128 0xb
 7238 0148 3B       		.uleb128 0x3b
 7239 0149 05       		.uleb128 0x5
 7240 014a 49       		.uleb128 0x49
 7241 014b 13       		.uleb128 0x13
 7242 014c 02       		.uleb128 0x2
 7243 014d 18       		.uleb128 0x18
 7244 014e 00       		.byte	0
 7245 014f 00       		.byte	0
 7246 0150 16       		.uleb128 0x16
 7247 0151 05       		.uleb128 0x5
 7248 0152 00       		.byte	0
 7249 0153 03       		.uleb128 0x3
 7250 0154 08       		.uleb128 0x8
 7251 0155 3A       		.uleb128 0x3a
 7252 0156 0B       		.uleb128 0xb
 7253 0157 3B       		.uleb128 0x3b
 7254 0158 05       		.uleb128 0x5
 7255 0159 49       		.uleb128 0x49
 7256 015a 13       		.uleb128 0x13
 7257 015b 02       		.uleb128 0x2
 7258 015c 18       		.uleb128 0x18
 7259 015d 00       		.byte	0
 7260 015e 00       		.byte	0
 7261 015f 17       		.uleb128 0x17
 7262 0160 05       		.uleb128 0x5
 7263 0161 00       		.byte	0
 7264 0162 03       		.uleb128 0x3
 7265 0163 0E       		.uleb128 0xe
 7266 0164 3A       		.uleb128 0x3a
ARM GAS  C:\Users\megan\AppData\Local\Temp\ccD8G3YI.s 			page 153


 7267 0165 0B       		.uleb128 0xb
 7268 0166 3B       		.uleb128 0x3b
 7269 0167 05       		.uleb128 0x5
 7270 0168 49       		.uleb128 0x49
 7271 0169 13       		.uleb128 0x13
 7272 016a 02       		.uleb128 0x2
 7273 016b 18       		.uleb128 0x18
 7274 016c 00       		.byte	0
 7275 016d 00       		.byte	0
 7276 016e 18       		.uleb128 0x18
 7277 016f 0B       		.uleb128 0xb
 7278 0170 01       		.byte	0x1
 7279 0171 11       		.uleb128 0x11
 7280 0172 01       		.uleb128 0x1
 7281 0173 12       		.uleb128 0x12
 7282 0174 06       		.uleb128 0x6
 7283 0175 00       		.byte	0
 7284 0176 00       		.byte	0
 7285 0177 19       		.uleb128 0x19
 7286 0178 34       		.uleb128 0x34
 7287 0179 00       		.byte	0
 7288 017a 03       		.uleb128 0x3
 7289 017b 08       		.uleb128 0x8
 7290 017c 3A       		.uleb128 0x3a
 7291 017d 0B       		.uleb128 0xb
 7292 017e 3B       		.uleb128 0x3b
 7293 017f 05       		.uleb128 0x5
 7294 0180 49       		.uleb128 0x49
 7295 0181 13       		.uleb128 0x13
 7296 0182 02       		.uleb128 0x2
 7297 0183 18       		.uleb128 0x18
 7298 0184 00       		.byte	0
 7299 0185 00       		.byte	0
 7300 0186 1A       		.uleb128 0x1a
 7301 0187 2E       		.uleb128 0x2e
 7302 0188 01       		.byte	0x1
 7303 0189 3F       		.uleb128 0x3f
 7304 018a 19       		.uleb128 0x19
 7305 018b 03       		.uleb128 0x3
 7306 018c 0E       		.uleb128 0xe
 7307 018d 3A       		.uleb128 0x3a
 7308 018e 0B       		.uleb128 0xb
 7309 018f 3B       		.uleb128 0x3b
 7310 0190 05       		.uleb128 0x5
 7311 0191 27       		.uleb128 0x27
 7312 0192 19       		.uleb128 0x19
 7313 0193 49       		.uleb128 0x49
 7314 0194 13       		.uleb128 0x13
 7315 0195 11       		.uleb128 0x11
 7316 0196 01       		.uleb128 0x1
 7317 0197 12       		.uleb128 0x12
 7318 0198 06       		.uleb128 0x6
 7319 0199 40       		.uleb128 0x40
 7320 019a 18       		.uleb128 0x18
 7321 019b 9642     		.uleb128 0x2116
 7322 019d 19       		.uleb128 0x19
 7323 019e 01       		.uleb128 0x1
ARM GAS  C:\Users\megan\AppData\Local\Temp\ccD8G3YI.s 			page 154


 7324 019f 13       		.uleb128 0x13
 7325 01a0 00       		.byte	0
 7326 01a1 00       		.byte	0
 7327 01a2 1B       		.uleb128 0x1b
 7328 01a3 2E       		.uleb128 0x2e
 7329 01a4 00       		.byte	0
 7330 01a5 3F       		.uleb128 0x3f
 7331 01a6 19       		.uleb128 0x19
 7332 01a7 03       		.uleb128 0x3
 7333 01a8 0E       		.uleb128 0xe
 7334 01a9 3A       		.uleb128 0x3a
 7335 01aa 0B       		.uleb128 0xb
 7336 01ab 3B       		.uleb128 0x3b
 7337 01ac 05       		.uleb128 0x5
 7338 01ad 27       		.uleb128 0x27
 7339 01ae 19       		.uleb128 0x19
 7340 01af 11       		.uleb128 0x11
 7341 01b0 01       		.uleb128 0x1
 7342 01b1 12       		.uleb128 0x12
 7343 01b2 06       		.uleb128 0x6
 7344 01b3 40       		.uleb128 0x40
 7345 01b4 18       		.uleb128 0x18
 7346 01b5 9642     		.uleb128 0x2116
 7347 01b7 19       		.uleb128 0x19
 7348 01b8 00       		.byte	0
 7349 01b9 00       		.byte	0
 7350 01ba 1C       		.uleb128 0x1c
 7351 01bb 2E       		.uleb128 0x2e
 7352 01bc 00       		.byte	0
 7353 01bd 3F       		.uleb128 0x3f
 7354 01be 19       		.uleb128 0x19
 7355 01bf 03       		.uleb128 0x3
 7356 01c0 0E       		.uleb128 0xe
 7357 01c1 3A       		.uleb128 0x3a
 7358 01c2 0B       		.uleb128 0xb
 7359 01c3 3B       		.uleb128 0x3b
 7360 01c4 05       		.uleb128 0x5
 7361 01c5 27       		.uleb128 0x27
 7362 01c6 19       		.uleb128 0x19
 7363 01c7 49       		.uleb128 0x49
 7364 01c8 13       		.uleb128 0x13
 7365 01c9 11       		.uleb128 0x11
 7366 01ca 01       		.uleb128 0x1
 7367 01cb 12       		.uleb128 0x12
 7368 01cc 06       		.uleb128 0x6
 7369 01cd 40       		.uleb128 0x40
 7370 01ce 18       		.uleb128 0x18
 7371 01cf 9642     		.uleb128 0x2116
 7372 01d1 19       		.uleb128 0x19
 7373 01d2 00       		.byte	0
 7374 01d3 00       		.byte	0
 7375 01d4 1D       		.uleb128 0x1d
 7376 01d5 34       		.uleb128 0x34
 7377 01d6 00       		.byte	0
 7378 01d7 03       		.uleb128 0x3
 7379 01d8 08       		.uleb128 0x8
 7380 01d9 3A       		.uleb128 0x3a
ARM GAS  C:\Users\megan\AppData\Local\Temp\ccD8G3YI.s 			page 155


 7381 01da 0B       		.uleb128 0xb
 7382 01db 3B       		.uleb128 0x3b
 7383 01dc 0B       		.uleb128 0xb
 7384 01dd 49       		.uleb128 0x49
 7385 01de 13       		.uleb128 0x13
 7386 01df 3F       		.uleb128 0x3f
 7387 01e0 19       		.uleb128 0x19
 7388 01e1 02       		.uleb128 0x2
 7389 01e2 18       		.uleb128 0x18
 7390 01e3 00       		.byte	0
 7391 01e4 00       		.byte	0
 7392 01e5 1E       		.uleb128 0x1e
 7393 01e6 34       		.uleb128 0x34
 7394 01e7 00       		.byte	0
 7395 01e8 03       		.uleb128 0x3
 7396 01e9 0E       		.uleb128 0xe
 7397 01ea 3A       		.uleb128 0x3a
 7398 01eb 0B       		.uleb128 0xb
 7399 01ec 3B       		.uleb128 0x3b
 7400 01ed 0B       		.uleb128 0xb
 7401 01ee 49       		.uleb128 0x49
 7402 01ef 13       		.uleb128 0x13
 7403 01f0 3F       		.uleb128 0x3f
 7404 01f1 19       		.uleb128 0x19
 7405 01f2 02       		.uleb128 0x2
 7406 01f3 18       		.uleb128 0x18
 7407 01f4 00       		.byte	0
 7408 01f5 00       		.byte	0
 7409 01f6 00       		.byte	0
 7410              		.section	.debug_aranges,"",%progbits
 7411 0000 BC010000 		.4byte	0x1bc
 7412 0004 0200     		.2byte	0x2
 7413 0006 00000000 		.4byte	.Ldebug_info0
 7414 000a 04       		.byte	0x4
 7415 000b 00       		.byte	0
 7416 000c 0000     		.2byte	0
 7417 000e 0000     		.2byte	0
 7418 0010 00000000 		.4byte	.LFB35
 7419 0014 A0000000 		.4byte	.LFE35-.LFB35
 7420 0018 00000000 		.4byte	.LFB36
 7421 001c 22000000 		.4byte	.LFE36-.LFB36
 7422 0020 00000000 		.4byte	.LFB37
 7423 0024 50000000 		.4byte	.LFE37-.LFB37
 7424 0028 00000000 		.4byte	.LFB38
 7425 002c 3C020000 		.4byte	.LFE38-.LFB38
 7426 0030 00000000 		.4byte	.LFB39
 7427 0034 14000000 		.4byte	.LFE39-.LFB39
 7428 0038 00000000 		.4byte	.LFB40
 7429 003c 14000000 		.4byte	.LFE40-.LFB40
 7430 0040 00000000 		.4byte	.LFB41
 7431 0044 54000000 		.4byte	.LFE41-.LFB41
 7432 0048 00000000 		.4byte	.LFB42
 7433 004c 6A000000 		.4byte	.LFE42-.LFB42
 7434 0050 00000000 		.4byte	.LFB43
 7435 0054 D8000000 		.4byte	.LFE43-.LFB43
 7436 0058 00000000 		.4byte	.LFB44
 7437 005c 8A000000 		.4byte	.LFE44-.LFB44
ARM GAS  C:\Users\megan\AppData\Local\Temp\ccD8G3YI.s 			page 156


 7438 0060 00000000 		.4byte	.LFB45
 7439 0064 88000000 		.4byte	.LFE45-.LFB45
 7440 0068 00000000 		.4byte	.LFB46
 7441 006c 7C000000 		.4byte	.LFE46-.LFB46
 7442 0070 00000000 		.4byte	.LFB47
 7443 0074 34000000 		.4byte	.LFE47-.LFB47
 7444 0078 00000000 		.4byte	.LFB48
 7445 007c 40000000 		.4byte	.LFE48-.LFB48
 7446 0080 00000000 		.4byte	.LFB49
 7447 0084 5A000000 		.4byte	.LFE49-.LFB49
 7448 0088 00000000 		.4byte	.LFB50
 7449 008c 40000000 		.4byte	.LFE50-.LFB50
 7450 0090 00000000 		.4byte	.LFB51
 7451 0094 1C000000 		.4byte	.LFE51-.LFB51
 7452 0098 00000000 		.4byte	.LFB52
 7453 009c 8E000000 		.4byte	.LFE52-.LFB52
 7454 00a0 00000000 		.4byte	.LFB53
 7455 00a4 38010000 		.4byte	.LFE53-.LFB53
 7456 00a8 00000000 		.4byte	.LFB54
 7457 00ac 5A000000 		.4byte	.LFE54-.LFB54
 7458 00b0 00000000 		.4byte	.LFB55
 7459 00b4 5A000000 		.4byte	.LFE55-.LFB55
 7460 00b8 00000000 		.4byte	.LFB56
 7461 00bc 6A000000 		.4byte	.LFE56-.LFB56
 7462 00c0 00000000 		.4byte	.LFB57
 7463 00c4 6A000000 		.4byte	.LFE57-.LFB57
 7464 00c8 00000000 		.4byte	.LFB58
 7465 00cc 44000000 		.4byte	.LFE58-.LFB58
 7466 00d0 00000000 		.4byte	.LFB59
 7467 00d4 4E000000 		.4byte	.LFE59-.LFB59
 7468 00d8 00000000 		.4byte	.LFB60
 7469 00dc 4E000000 		.4byte	.LFE60-.LFB60
 7470 00e0 00000000 		.4byte	.LFB61
 7471 00e4 6C000000 		.4byte	.LFE61-.LFB61
 7472 00e8 00000000 		.4byte	.LFB62
 7473 00ec 6C000000 		.4byte	.LFE62-.LFB62
 7474 00f0 00000000 		.4byte	.LFB63
 7475 00f4 58000000 		.4byte	.LFE63-.LFB63
 7476 00f8 00000000 		.4byte	.LFB64
 7477 00fc 58000000 		.4byte	.LFE64-.LFB64
 7478 0100 00000000 		.4byte	.LFB65
 7479 0104 60000000 		.4byte	.LFE65-.LFB65
 7480 0108 00000000 		.4byte	.LFB66
 7481 010c 60000000 		.4byte	.LFE66-.LFB66
 7482 0110 00000000 		.4byte	.LFB67
 7483 0114 02010000 		.4byte	.LFE67-.LFB67
 7484 0118 00000000 		.4byte	.LFB68
 7485 011c 4A010000 		.4byte	.LFE68-.LFB68
 7486 0120 00000000 		.4byte	.LFB69
 7487 0124 A6010000 		.4byte	.LFE69-.LFB69
 7488 0128 00000000 		.4byte	.LFB70
 7489 012c 4A010000 		.4byte	.LFE70-.LFB70
 7490 0130 00000000 		.4byte	.LFB71
 7491 0134 7A010000 		.4byte	.LFE71-.LFB71
 7492 0138 00000000 		.4byte	.LFB72
 7493 013c 2E000000 		.4byte	.LFE72-.LFB72
 7494 0140 00000000 		.4byte	.LFB73
ARM GAS  C:\Users\megan\AppData\Local\Temp\ccD8G3YI.s 			page 157


 7495 0144 20000000 		.4byte	.LFE73-.LFB73
 7496 0148 00000000 		.4byte	.LFB74
 7497 014c 20000000 		.4byte	.LFE74-.LFB74
 7498 0150 00000000 		.4byte	.LFB75
 7499 0154 54000000 		.4byte	.LFE75-.LFB75
 7500 0158 00000000 		.4byte	.LFB76
 7501 015c 54000000 		.4byte	.LFE76-.LFB76
 7502 0160 00000000 		.4byte	.LFB77
 7503 0164 94000000 		.4byte	.LFE77-.LFB77
 7504 0168 00000000 		.4byte	.LFB78
 7505 016c 20000000 		.4byte	.LFE78-.LFB78
 7506 0170 00000000 		.4byte	.LFB79
 7507 0174 BE000000 		.4byte	.LFE79-.LFB79
 7508 0178 00000000 		.4byte	.LFB80
 7509 017c 2E000000 		.4byte	.LFE80-.LFB80
 7510 0180 00000000 		.4byte	.LFB81
 7511 0184 2E000000 		.4byte	.LFE81-.LFB81
 7512 0188 00000000 		.4byte	.LFB82
 7513 018c 2E000000 		.4byte	.LFE82-.LFB82
 7514 0190 00000000 		.4byte	.LFB83
 7515 0194 24000000 		.4byte	.LFE83-.LFB83
 7516 0198 00000000 		.4byte	.LFB84
 7517 019c 30000000 		.4byte	.LFE84-.LFB84
 7518 01a0 00000000 		.4byte	.LFB85
 7519 01a4 78000000 		.4byte	.LFE85-.LFB85
 7520 01a8 00000000 		.4byte	.LFB86
 7521 01ac 30000000 		.4byte	.LFE86-.LFB86
 7522 01b0 00000000 		.4byte	.LFB87
 7523 01b4 64000000 		.4byte	.LFE87-.LFB87
 7524 01b8 00000000 		.4byte	0
 7525 01bc 00000000 		.4byte	0
 7526              		.section	.debug_ranges,"",%progbits
 7527              	.Ldebug_ranges0:
 7528 0000 00000000 		.4byte	.LFB35
 7529 0004 A0000000 		.4byte	.LFE35
 7530 0008 00000000 		.4byte	.LFB36
 7531 000c 22000000 		.4byte	.LFE36
 7532 0010 00000000 		.4byte	.LFB37
 7533 0014 50000000 		.4byte	.LFE37
 7534 0018 00000000 		.4byte	.LFB38
 7535 001c 3C020000 		.4byte	.LFE38
 7536 0020 00000000 		.4byte	.LFB39
 7537 0024 14000000 		.4byte	.LFE39
 7538 0028 00000000 		.4byte	.LFB40
 7539 002c 14000000 		.4byte	.LFE40
 7540 0030 00000000 		.4byte	.LFB41
 7541 0034 54000000 		.4byte	.LFE41
 7542 0038 00000000 		.4byte	.LFB42
 7543 003c 6A000000 		.4byte	.LFE42
 7544 0040 00000000 		.4byte	.LFB43
 7545 0044 D8000000 		.4byte	.LFE43
 7546 0048 00000000 		.4byte	.LFB44
 7547 004c 8A000000 		.4byte	.LFE44
 7548 0050 00000000 		.4byte	.LFB45
 7549 0054 88000000 		.4byte	.LFE45
 7550 0058 00000000 		.4byte	.LFB46
 7551 005c 7C000000 		.4byte	.LFE46
ARM GAS  C:\Users\megan\AppData\Local\Temp\ccD8G3YI.s 			page 158


 7552 0060 00000000 		.4byte	.LFB47
 7553 0064 34000000 		.4byte	.LFE47
 7554 0068 00000000 		.4byte	.LFB48
 7555 006c 40000000 		.4byte	.LFE48
 7556 0070 00000000 		.4byte	.LFB49
 7557 0074 5A000000 		.4byte	.LFE49
 7558 0078 00000000 		.4byte	.LFB50
 7559 007c 40000000 		.4byte	.LFE50
 7560 0080 00000000 		.4byte	.LFB51
 7561 0084 1C000000 		.4byte	.LFE51
 7562 0088 00000000 		.4byte	.LFB52
 7563 008c 8E000000 		.4byte	.LFE52
 7564 0090 00000000 		.4byte	.LFB53
 7565 0094 38010000 		.4byte	.LFE53
 7566 0098 00000000 		.4byte	.LFB54
 7567 009c 5A000000 		.4byte	.LFE54
 7568 00a0 00000000 		.4byte	.LFB55
 7569 00a4 5A000000 		.4byte	.LFE55
 7570 00a8 00000000 		.4byte	.LFB56
 7571 00ac 6A000000 		.4byte	.LFE56
 7572 00b0 00000000 		.4byte	.LFB57
 7573 00b4 6A000000 		.4byte	.LFE57
 7574 00b8 00000000 		.4byte	.LFB58
 7575 00bc 44000000 		.4byte	.LFE58
 7576 00c0 00000000 		.4byte	.LFB59
 7577 00c4 4E000000 		.4byte	.LFE59
 7578 00c8 00000000 		.4byte	.LFB60
 7579 00cc 4E000000 		.4byte	.LFE60
 7580 00d0 00000000 		.4byte	.LFB61
 7581 00d4 6C000000 		.4byte	.LFE61
 7582 00d8 00000000 		.4byte	.LFB62
 7583 00dc 6C000000 		.4byte	.LFE62
 7584 00e0 00000000 		.4byte	.LFB63
 7585 00e4 58000000 		.4byte	.LFE63
 7586 00e8 00000000 		.4byte	.LFB64
 7587 00ec 58000000 		.4byte	.LFE64
 7588 00f0 00000000 		.4byte	.LFB65
 7589 00f4 60000000 		.4byte	.LFE65
 7590 00f8 00000000 		.4byte	.LFB66
 7591 00fc 60000000 		.4byte	.LFE66
 7592 0100 00000000 		.4byte	.LFB67
 7593 0104 02010000 		.4byte	.LFE67
 7594 0108 00000000 		.4byte	.LFB68
 7595 010c 4A010000 		.4byte	.LFE68
 7596 0110 00000000 		.4byte	.LFB69
 7597 0114 A6010000 		.4byte	.LFE69
 7598 0118 00000000 		.4byte	.LFB70
 7599 011c 4A010000 		.4byte	.LFE70
 7600 0120 00000000 		.4byte	.LFB71
 7601 0124 7A010000 		.4byte	.LFE71
 7602 0128 00000000 		.4byte	.LFB72
 7603 012c 2E000000 		.4byte	.LFE72
 7604 0130 00000000 		.4byte	.LFB73
 7605 0134 20000000 		.4byte	.LFE73
 7606 0138 00000000 		.4byte	.LFB74
 7607 013c 20000000 		.4byte	.LFE74
 7608 0140 00000000 		.4byte	.LFB75
ARM GAS  C:\Users\megan\AppData\Local\Temp\ccD8G3YI.s 			page 159


 7609 0144 54000000 		.4byte	.LFE75
 7610 0148 00000000 		.4byte	.LFB76
 7611 014c 54000000 		.4byte	.LFE76
 7612 0150 00000000 		.4byte	.LFB77
 7613 0154 94000000 		.4byte	.LFE77
 7614 0158 00000000 		.4byte	.LFB78
 7615 015c 20000000 		.4byte	.LFE78
 7616 0160 00000000 		.4byte	.LFB79
 7617 0164 BE000000 		.4byte	.LFE79
 7618 0168 00000000 		.4byte	.LFB80
 7619 016c 2E000000 		.4byte	.LFE80
 7620 0170 00000000 		.4byte	.LFB81
 7621 0174 2E000000 		.4byte	.LFE81
 7622 0178 00000000 		.4byte	.LFB82
 7623 017c 2E000000 		.4byte	.LFE82
 7624 0180 00000000 		.4byte	.LFB83
 7625 0184 24000000 		.4byte	.LFE83
 7626 0188 00000000 		.4byte	.LFB84
 7627 018c 30000000 		.4byte	.LFE84
 7628 0190 00000000 		.4byte	.LFB85
 7629 0194 78000000 		.4byte	.LFE85
 7630 0198 00000000 		.4byte	.LFB86
 7631 019c 30000000 		.4byte	.LFE86
 7632 01a0 00000000 		.4byte	.LFB87
 7633 01a4 64000000 		.4byte	.LFE87
 7634 01a8 00000000 		.4byte	0
 7635 01ac 00000000 		.4byte	0
 7636              		.section	.debug_line,"",%progbits
 7637              	.Ldebug_line0:
 7638 0000 08070000 		.section	.debug_str,"MS",%progbits,1
 7638      02007501 
 7638      00000201 
 7638      FB0E0D00 
 7638      01010101 
 7639              	.LASF65:
 7640 0000 4359424C 		.ascii	"CYBLE_EVT_GATTC_READ_BLOB_RSP\000"
 7640      455F4556 
 7640      545F4741 
 7640      5454435F 
 7640      52454144 
 7641              	.LASF128:
 7642 001e 7363616C 		.ascii	"scale\000"
 7642      6500
 7643              	.LASF136:
 7644 0024 73657458 		.ascii	"setXY\000"
 7644      5900
 7645              	.LASF41:
 7646 002a 4359424C 		.ascii	"CYBLE_EVT_GAP_CONNECTION_UPDATE_COMPLETE\000"
 7646      455F4556 
 7646      545F4741 
 7646      505F434F 
 7646      4E4E4543 
 7647              	.LASF86:
 7648 0053 4359424C 		.ascii	"CYBLE_EVT_L2CAP_CBFC_DISCONN_CNF\000"
 7648      455F4556 
 7648      545F4C32 
 7648      4341505F 
ARM GAS  C:\Users\megan\AppData\Local\Temp\ccD8G3YI.s 			page 160


 7648      43424643 
 7649              	.LASF29:
 7650 0074 4359424C 		.ascii	"CYBLE_EVT_STACK_BUSY_STATUS\000"
 7650      455F4556 
 7650      545F5354 
 7650      41434B5F 
 7650      42555359 
 7651              	.LASF122:
 7652 0090 74657874 		.ascii	"textSetCursor\000"
 7652      53657443 
 7652      7572736F 
 7652      7200
 7653              	.LASF2:
 7654 009e 5F5F7569 		.ascii	"__uint8_t\000"
 7654      6E74385F 
 7654      7400
 7655              	.LASF177:
 7656 00a8 736C6565 		.ascii	"sleep\000"
 7656      7000
 7657              	.LASF162:
 7658 00ae 72656374 		.ascii	"rectHelper\000"
 7658      48656C70 
 7658      657200
 7659              	.LASF26:
 7660 00b9 4359424C 		.ascii	"CYBLE_EVT_TIMEOUT\000"
 7660      455F4556 
 7660      545F5449 
 7660      4D454F55 
 7660      5400
 7661              	.LASF7:
 7662 00cb 6C6F6E67 		.ascii	"long int\000"
 7662      20696E74 
 7662      00
 7663              	.LASF11:
 7664 00d4 6C6F6E67 		.ascii	"long long unsigned int\000"
 7664      206C6F6E 
 7664      6720756E 
 7664      7369676E 
 7664      65642069 
 7665              	.LASF116:
 7666 00eb 7673796E 		.ascii	"vsync_start\000"
 7666      635F7374 
 7666      61727400 
 7667              	.LASF28:
 7668 00f7 4359424C 		.ascii	"CYBLE_EVT_HCI_STATUS\000"
 7668      455F4556 
 7668      545F4843 
 7668      495F5354 
 7668      41545553 
 7669              	.LASF189:
 7670 010c 7370695F 		.ascii	"spi_speed\000"
 7670      73706565 
 7670      6400
 7671              	.LASF129:
 7672 0116 74657874 		.ascii	"textWrite\000"
 7672      57726974 
 7672      6500
ARM GAS  C:\Users\megan\AppData\Local\Temp\ccD8G3YI.s 			page 161


 7673              	.LASF91:
 7674 0120 4359424C 		.ascii	"CYBLE_EVT_PENDING_FLASH_WRITE\000"
 7674      455F4556 
 7674      545F5045 
 7674      4E44494E 
 7674      475F464C 
 7675              	.LASF80:
 7676 013e 4359424C 		.ascii	"CYBLE_EVT_L2CAP_CONN_PARAM_UPDATE_REQ\000"
 7676      455F4556 
 7676      545F4C32 
 7676      4341505F 
 7676      434F4E4E 
 7677              	.LASF39:
 7678 0164 4359424C 		.ascii	"CYBLE_EVT_GAP_DEVICE_DISCONNECTED\000"
 7678      455F4556 
 7678      545F4741 
 7678      505F4445 
 7678      56494345 
 7679              	.LASF152:
 7680 0186 7843656E 		.ascii	"xCenter\000"
 7680      74657200 
 7681              	.LASF44:
 7682 018e 4359424C 		.ascii	"CYBLE_EVT_GAP_NUMERIC_COMPARISON_REQUEST\000"
 7682      455F4556 
 7682      545F4741 
 7682      505F4E55 
 7682      4D455249 
 7683              	.LASF89:
 7684 01b7 4359424C 		.ascii	"CYBLE_EVT_L2CAP_CBFC_TX_CREDIT_IND\000"
 7684      455F4556 
 7684      545F4C32 
 7684      4341505F 
 7684      43424643 
 7685              	.LASF14:
 7686 01da 696E7431 		.ascii	"int16_t\000"
 7686      365F7400 
 7687              	.LASF133:
 7688 01e2 77616974 		.ascii	"waitPoll\000"
 7688      506F6C6C 
 7688      00
 7689              	.LASF10:
 7690 01eb 6C6F6E67 		.ascii	"long long int\000"
 7690      206C6F6E 
 7690      6720696E 
 7690      7400
 7691              	.LASF0:
 7692 01f9 7369676E 		.ascii	"signed char\000"
 7692      65642063 
 7692      68617200 
 7693              	.LASF25:
 7694 0205 4359424C 		.ascii	"CYBLE_EVT_STACK_ON\000"
 7694      455F4556 
 7694      545F5354 
 7694      41434B5F 
 7694      4F4E00
 7695              	.LASF192:
 7696 0218 433A5C55 		.ascii	"C:\\Users\\megan\\Google Drive\\College\\S11 - Spri"
ARM GAS  C:\Users\megan\AppData\Local\Temp\ccD8G3YI.s 			page 162


 7696      73657273 
 7696      5C6D6567 
 7696      616E5C47 
 7696      6F6F676C 
 7697 0246 6E672032 		.ascii	"ng 2018\\ECEN 4990\\Github\\ECEN4990-CapstoneII\\Ca"
 7697      3031385C 
 7697      4543454E 
 7697      20343939 
 7697      305C4769 
 7698 0275 7073746F 		.ascii	"pstoneII\\CentralBLE.cydsn\000"
 7698      6E654949 
 7698      5C43656E 
 7698      7472616C 
 7698      424C452E 
 7699              	.LASF42:
 7700 028f 4359424C 		.ascii	"CYBLE_EVT_GAPC_SCAN_START_STOP\000"
 7700      455F4556 
 7700      545F4741 
 7700      50435F53 
 7700      43414E5F 
 7701              	.LASF187:
 7702 02ae 5F746578 		.ascii	"_textScale\000"
 7702      74536361 
 7702      6C6500
 7703              	.LASF32:
 7704 02b9 4359424C 		.ascii	"CYBLE_EVT_GAP_AUTH_REQ\000"
 7704      455F4556 
 7704      545F4741 
 7704      505F4155 
 7704      54485F52 
 7705              	.LASF64:
 7706 02d0 4359424C 		.ascii	"CYBLE_EVT_GATTC_READ_RSP\000"
 7706      455F4556 
 7706      545F4741 
 7706      5454435F 
 7706      52454144 
 7707              	.LASF114:
 7708 02e9 7673796E 		.ascii	"vsync_pw\000"
 7708      635F7077 
 7708      00
 7709              	.LASF154:
 7710 02f2 6C6F6E67 		.ascii	"longAxis\000"
 7710      41786973 
 7710      00
 7711              	.LASF169:
 7712 02fb 50574D31 		.ascii	"PWM1config\000"
 7712      636F6E66 
 7712      696700
 7713              	.LASF107:
 7714 0306 736F6674 		.ascii	"softReset\000"
 7714      52657365 
 7714      7400
 7715              	.LASF37:
 7716 0310 4359424C 		.ascii	"CYBLE_EVT_GAPP_ADVERTISEMENT_START_STOP\000"
 7716      455F4556 
 7716      545F4741 
 7716      50505F41 
ARM GAS  C:\Users\megan\AppData\Local\Temp\ccD8G3YI.s 			page 163


 7716      44564552 
 7717              	.LASF179:
 7718 0338 72656164 		.ascii	"readReg\000"
 7718      52656700 
 7719              	.LASF134:
 7720 0340 7265676E 		.ascii	"regname\000"
 7720      616D6500 
 7721              	.LASF15:
 7722 0348 75696E74 		.ascii	"uint16_t\000"
 7722      31365F74 
 7722      00
 7723              	.LASF161:
 7724 0351 66696C6C 		.ascii	"filled\000"
 7724      656400
 7725              	.LASF19:
 7726 0358 646F7562 		.ascii	"double\000"
 7726      6C6500
 7727              	.LASF99:
 7728 035f 4359424C 		.ascii	"CYBLE_SRVI_CUSTOMS_END\000"
 7728      455F5352 
 7728      56495F43 
 7728      5553544F 
 7728      4D535F45 
 7729              	.LASF130:
 7730 0376 62756666 		.ascii	"buffer\000"
 7730      657200
 7731              	.LASF173:
 7732 037d 61646343 		.ascii	"adcClk\000"
 7732      6C6B00
 7733              	.LASF141:
 7734 0384 64726177 		.ascii	"drawLine\000"
 7734      4C696E65 
 7734      00
 7735              	.LASF150:
 7736 038d 66696C6C 		.ascii	"fillTriangle\000"
 7736      54726961 
 7736      6E676C65 
 7736      00
 7737              	.LASF17:
 7738 039a 75696E74 		.ascii	"uint32\000"
 7738      333200
 7739              	.LASF148:
 7740 03a1 66696C6C 		.ascii	"fillCircle\000"
 7740      43697263 
 7740      6C6500
 7741              	.LASF95:
 7742 03ac 4359424C 		.ascii	"CYBLE_EVT_MAX\000"
 7742      455F4556 
 7742      545F4D41 
 7742      5800
 7743              	.LASF8:
 7744 03ba 5F5F7569 		.ascii	"__uint32_t\000"
 7744      6E743332 
 7744      5F7400
 7745              	.LASF156:
 7746 03c5 66696C6C 		.ascii	"fillEllipse\000"
 7746      456C6C69 
ARM GAS  C:\Users\megan\AppData\Local\Temp\ccD8G3YI.s 			page 164


 7746      70736500 
 7747              	.LASF3:
 7748 03d1 5F5F696E 		.ascii	"__int16_t\000"
 7748      7431365F 
 7748      7400
 7749              	.LASF90:
 7750 03db 4359424C 		.ascii	"CYBLE_EVT_L2CAP_CBFC_DATA_WRITE_IND\000"
 7750      455F4556 
 7750      545F4C32 
 7750      4341505F 
 7750      43424643 
 7751              	.LASF52:
 7752 03ff 4359424C 		.ascii	"CYBLE_EVT_GAP_SCAN_REQ_RECVD\000"
 7752      455F4556 
 7752      545F4741 
 7752      505F5343 
 7752      414E5F52 
 7753              	.LASF121:
 7754 041c 74656D70 		.ascii	"temp\000"
 7754      00
 7755              	.LASF142:
 7756 0421 64726177 		.ascii	"drawFastVLine\000"
 7756      46617374 
 7756      564C696E 
 7756      6500
 7757              	.LASF79:
 7758 042f 4359424C 		.ascii	"CYBLE_EVT_GATTC_LONG_PROCEDURE_END\000"
 7758      455F4556 
 7758      545F4741 
 7758      5454435F 
 7758      4C4F4E47 
 7759              	.LASF77:
 7760 0452 4359424C 		.ascii	"CYBLE_EVT_GATTC_STOP_CMD_COMPLETE\000"
 7760      455F4556 
 7760      545F4741 
 7760      5454435F 
 7760      53544F50 
 7761              	.LASF12:
 7762 0474 756E7369 		.ascii	"unsigned int\000"
 7762      676E6564 
 7762      20696E74 
 7762      00
 7763              	.LASF92:
 7764 0481 4359424C 		.ascii	"CYBLE_EVT_LE_PING_AUTH_TIMEOUT\000"
 7764      455F4556 
 7764      545F4C45 
 7764      5F50494E 
 7764      475F4155 
 7765              	.LASF61:
 7766 04a0 4359424C 		.ascii	"CYBLE_EVT_GATTC_READ_BY_TYPE_RSP\000"
 7766      455F4556 
 7766      545F4741 
 7766      5454435F 
 7766      52454144 
 7767              	.LASF132:
 7768 04c1 62656769 		.ascii	"begin\000"
 7768      6E00
ARM GAS  C:\Users\megan\AppData\Local\Temp\ccD8G3YI.s 			page 165


 7769              	.LASF157:
 7770 04c7 64726177 		.ascii	"drawCurve\000"
 7770      43757276 
 7770      6500
 7771              	.LASF182:
 7772 04d1 77726974 		.ascii	"writeCommand\000"
 7772      65436F6D 
 7772      6D616E64 
 7772      00
 7773              	.LASF9:
 7774 04de 6C6F6E67 		.ascii	"long unsigned int\000"
 7774      20756E73 
 7774      69676E65 
 7774      6420696E 
 7774      7400
 7775              	.LASF51:
 7776 04f0 4359424C 		.ascii	"CYBLE_EVT_GAP_CONN_ESTB\000"
 7776      455F4556 
 7776      545F4741 
 7776      505F434F 
 7776      4E4E5F45 
 7777              	.LASF164:
 7778 0508 656C6C69 		.ascii	"ellipseHelper\000"
 7778      70736548 
 7778      656C7065 
 7778      7200
 7779              	.LASF59:
 7780 0516 4359424C 		.ascii	"CYBLE_EVT_GATTC_XCHNG_MTU_RSP\000"
 7780      455F4556 
 7780      545F4741 
 7780      5454435F 
 7780      5843484E 
 7781              	.LASF76:
 7782 0534 4359424C 		.ascii	"CYBLE_EVT_GATTS_DATA_SIGNED_CMD_REQ\000"
 7782      455F4556 
 7782      545F4741 
 7782      5454535F 
 7782      44415441 
 7783              	.LASF158:
 7784 0558 63757276 		.ascii	"curvePart\000"
 7784      65506172 
 7784      7400
 7785              	.LASF185:
 7786 0562 5F776964 		.ascii	"_width\000"
 7786      746800
 7787              	.LASF165:
 7788 0569 63757276 		.ascii	"curveHelper\000"
 7788      6548656C 
 7788      70657200 
 7789              	.LASF117:
 7790 0575 77696474 		.ascii	"width\000"
 7790      6800
 7791              	.LASF101:
 7792 057b 52413838 		.ascii	"RA8875_480x272\000"
 7792      37355F34 
 7792      38307832 
 7792      373200
ARM GAS  C:\Users\megan\AppData\Local\Temp\ccD8G3YI.s 			page 166


 7793              	.LASF108:
 7794 058a 504C4C69 		.ascii	"PLLinit\000"
 7794      6E697400 
 7795              	.LASF6:
 7796 0592 73686F72 		.ascii	"short unsigned int\000"
 7796      7420756E 
 7796      7369676E 
 7796      65642069 
 7796      6E7400
 7797              	.LASF24:
 7798 05a5 4359424C 		.ascii	"CYBLE_EVT_HOST_INVALID\000"
 7798      455F4556 
 7798      545F484F 
 7798      53545F49 
 7798      4E56414C 
 7799              	.LASF62:
 7800 05bc 4359424C 		.ascii	"CYBLE_EVT_GATTC_FIND_INFO_RSP\000"
 7800      455F4556 
 7800      545F4741 
 7800      5454435F 
 7800      46494E44 
 7801              	.LASF30:
 7802 05da 4359424C 		.ascii	"CYBLE_EVT_MEMORY_REQUEST\000"
 7802      455F4556 
 7802      545F4D45 
 7802      4D4F5259 
 7802      5F524551 
 7803              	.LASF71:
 7804 05f3 4359424C 		.ascii	"CYBLE_EVT_GATTS_EXEC_WRITE_REQ\000"
 7804      455F4556 
 7804      545F4741 
 7804      5454535F 
 7804      45584543 
 7805              	.LASF33:
 7806 0612 4359424C 		.ascii	"CYBLE_EVT_GAP_PASSKEY_ENTRY_REQUEST\000"
 7806      455F4556 
 7806      545F4741 
 7806      505F5041 
 7806      53534B45 
 7807              	.LASF38:
 7808 0636 4359424C 		.ascii	"CYBLE_EVT_GAP_DEVICE_CONNECTED\000"
 7808      455F4556 
 7808      545F4741 
 7808      505F4445 
 7808      56494345 
 7809              	.LASF131:
 7810 0655 67726170 		.ascii	"graphicsMode\000"
 7810      68696373 
 7810      4D6F6465 
 7810      00
 7811              	.LASF74:
 7812 0662 4359424C 		.ascii	"CYBLE_EVT_GATTC_HANDLE_VALUE_IND\000"
 7812      455F4556 
 7812      545F4741 
 7812      5454435F 
 7812      48414E44 
 7813              	.LASF67:
ARM GAS  C:\Users\megan\AppData\Local\Temp\ccD8G3YI.s 			page 167


 7814 0683 4359424C 		.ascii	"CYBLE_EVT_GATTS_WRITE_REQ\000"
 7814      455F4556 
 7814      545F4741 
 7814      5454535F 
 7814      57524954 
 7815              	.LASF53:
 7816 069d 4359424C 		.ascii	"CYBLE_EVT_GAP_AUTH_REQ_REPLY_ERR\000"
 7816      455F4556 
 7816      545F4741 
 7816      505F4155 
 7816      54485F52 
 7817              	.LASF106:
 7818 06be 626F6F6C 		.ascii	"bool\000"
 7818      00
 7819              	.LASF54:
 7820 06c3 4359424C 		.ascii	"CYBLE_EVT_GAP_SMP_LOC_P256_KEYS_GEN_AND_SET_COMPLET"
 7820      455F4556 
 7820      545F4741 
 7820      505F534D 
 7820      505F4C4F 
 7821 06f6 4500     		.ascii	"E\000"
 7822              	.LASF69:
 7823 06f8 4359424C 		.ascii	"CYBLE_EVT_GATTS_WRITE_CMD_REQ\000"
 7823      455F4556 
 7823      545F4741 
 7823      5454535F 
 7823      57524954 
 7824              	.LASF124:
 7825 0716 666F7265 		.ascii	"foreColor\000"
 7825      436F6C6F 
 7825      7200
 7826              	.LASF190:
 7827 0720 474E5520 		.ascii	"GNU C11 5.4.1 20160609 (release) [ARM/embedded-5-br"
 7827      43313120 
 7827      352E342E 
 7827      31203230 
 7827      31363036 
 7828 0753 616E6368 		.ascii	"anch revision 237715] -mcpu=cortex-m0 -mthumb -g -O"
 7828      20726576 
 7828      6973696F 
 7828      6E203233 
 7828      37373135 
 7829 0786 30202D66 		.ascii	"0 -ffunction-sections -ffat-lto-objects\000"
 7829      66756E63 
 7829      74696F6E 
 7829      2D736563 
 7829      74696F6E 
 7830              	.LASF151:
 7831 07ae 64726177 		.ascii	"drawEllipse\000"
 7831      456C6C69 
 7831      70736500 
 7832              	.LASF140:
 7833 07ba 636F6C6F 		.ascii	"color\000"
 7833      7200
 7834              	.LASF82:
 7835 07c0 4359424C 		.ascii	"CYBLE_EVT_L2CAP_COMMAND_REJ\000"
 7835      455F4556 
ARM GAS  C:\Users\megan\AppData\Local\Temp\ccD8G3YI.s 			page 168


 7835      545F4C32 
 7835      4341505F 
 7835      434F4D4D 
 7836              	.LASF102:
 7837 07dc 52413838 		.ascii	"RA8875_800x480\000"
 7837      37355F38 
 7837      30307834 
 7837      383000
 7838              	.LASF176:
 7839 07eb 64697370 		.ascii	"displayOn\000"
 7839      6C61794F 
 7839      6E00
 7840              	.LASF31:
 7841 07f5 4359424C 		.ascii	"CYBLE_EVT_GAPC_SCAN_PROGRESS_RESULT\000"
 7841      455F4556 
 7841      545F4741 
 7841      50435F53 
 7841      43414E5F 
 7842              	.LASF159:
 7843 0819 66696C6C 		.ascii	"fillCurve\000"
 7843      43757276 
 7843      6500
 7844              	.LASF56:
 7845 0823 4359424C 		.ascii	"CYBLE_EVT_GATT_CONNECT_IND\000"
 7845      455F4556 
 7845      545F4741 
 7845      54545F43 
 7845      4F4E4E45 
 7846              	.LASF83:
 7847 083e 4359424C 		.ascii	"CYBLE_EVT_L2CAP_CBFC_CONN_IND\000"
 7847      455F4556 
 7847      545F4C32 
 7847      4341505F 
 7847      43424643 
 7848              	.LASF125:
 7849 085c 6267436F 		.ascii	"bgColor\000"
 7849      6C6F7200 
 7850              	.LASF180:
 7851 0864 77726974 		.ascii	"writeData\000"
 7851      65446174 
 7851      6100
 7852              	.LASF143:
 7853 086e 64726177 		.ascii	"drawFastHLine\000"
 7853      46617374 
 7853      484C696E 
 7853      6500
 7854              	.LASF138:
 7855 087c 66696C6C 		.ascii	"fillRect1\000"
 7855      52656374 
 7855      3100
 7856              	.LASF36:
 7857 0886 4359424C 		.ascii	"CYBLE_EVT_GAP_AUTH_FAILED\000"
 7857      455F4556 
 7857      545F4741 
 7857      505F4155 
 7857      54485F46 
 7858              	.LASF68:
ARM GAS  C:\Users\megan\AppData\Local\Temp\ccD8G3YI.s 			page 169


 7859 08a0 4359424C 		.ascii	"CYBLE_EVT_GATTC_WRITE_RSP\000"
 7859      455F4556 
 7859      545F4741 
 7859      5454435F 
 7859      57524954 
 7860              	.LASF49:
 7861 08ba 4359424C 		.ascii	"CYBLE_EVT_GAPC_DIRECT_ADV_REPORT\000"
 7861      455F4556 
 7861      545F4741 
 7861      50435F44 
 7861      49524543 
 7862              	.LASF47:
 7863 08db 4359424C 		.ascii	"CYBLE_EVT_GAP_DATA_LENGTH_CHANGE\000"
 7863      455F4556 
 7863      545F4741 
 7863      505F4441 
 7863      54415F4C 
 7864              	.LASF172:
 7865 08fc 746F7563 		.ascii	"touchEnable\000"
 7865      68456E61 
 7865      626C6500 
 7866              	.LASF120:
 7867 0908 74657874 		.ascii	"textMode\000"
 7867      4D6F6465 
 7867      00
 7868              	.LASF35:
 7869 0911 4359424C 		.ascii	"CYBLE_EVT_GAP_AUTH_COMPLETE\000"
 7869      455F4556 
 7869      545F4741 
 7869      505F4155 
 7869      54485F43 
 7870              	.LASF34:
 7871 092d 4359424C 		.ascii	"CYBLE_EVT_GAP_PASSKEY_DISPLAY_REQUEST\000"
 7871      455F4556 
 7871      545F4741 
 7871      505F5041 
 7871      53534B45 
 7872              	.LASF73:
 7873 0953 4359424C 		.ascii	"CYBLE_EVT_GATTC_HANDLE_VALUE_NTF\000"
 7873      455F4556 
 7873      545F4741 
 7873      5454435F 
 7873      48414E44 
 7874              	.LASF98:
 7875 0974 4359424C 		.ascii	"CYBLE_SRVI_CUSTOMS\000"
 7875      455F5352 
 7875      56495F43 
 7875      5553544F 
 7875      4D5300
 7876              	.LASF123:
 7877 0987 74657874 		.ascii	"textColor\000"
 7877      436F6C6F 
 7877      7200
 7878              	.LASF84:
 7879 0991 4359424C 		.ascii	"CYBLE_EVT_L2CAP_CBFC_CONN_CNF\000"
 7879      455F4556 
 7879      545F4C32 
ARM GAS  C:\Users\megan\AppData\Local\Temp\ccD8G3YI.s 			page 170


 7879      4341505F 
 7879      43424643 
 7880              	.LASF60:
 7881 09af 4359424C 		.ascii	"CYBLE_EVT_GATTC_READ_BY_GROUP_TYPE_RSP\000"
 7881      455F4556 
 7881      545F4741 
 7881      5454435F 
 7881      52454144 
 7882              	.LASF18:
 7883 09d6 666C6F61 		.ascii	"float\000"
 7883      7400
 7884              	.LASF147:
 7885 09dc 64726177 		.ascii	"drawCircle\000"
 7885      43697263 
 7885      6C6500
 7886              	.LASF110:
 7887 09e7 6873796E 		.ascii	"hsync_start\000"
 7887      635F7374 
 7887      61727400 
 7888              	.LASF166:
 7889 09f3 4750494F 		.ascii	"GPIOX\000"
 7889      5800
 7890              	.LASF97:
 7891 09f9 4359424C 		.ascii	"CYBLE_SRVI_GATT\000"
 7891      455F5352 
 7891      56495F47 
 7891      41545400 
 7892              	.LASF109:
 7893 0a09 70697863 		.ascii	"pixclk\000"
 7893      6C6B00
 7894              	.LASF153:
 7895 0a10 7943656E 		.ascii	"yCenter\000"
 7895      74657200 
 7896              	.LASF1:
 7897 0a18 756E7369 		.ascii	"unsigned char\000"
 7897      676E6564 
 7897      20636861 
 7897      7200
 7898              	.LASF45:
 7899 0a26 4359424C 		.ascii	"CYBLE_EVT_GAP_KEYPRESS_NOTIFICATION\000"
 7899      455F4556 
 7899      545F4741 
 7899      505F4B45 
 7899      59505245 
 7900              	.LASF43:
 7901 0a4a 4359424C 		.ascii	"CYBLE_EVT_GAP_KEYINFO_EXCHNGE_CMPLT\000"
 7901      455F4556 
 7901      545F4741 
 7901      505F4B45 
 7901      59494E46 
 7902              	.LASF174:
 7903 0a6e 746F7563 		.ascii	"touched\000"
 7903      68656400 
 7904              	.LASF115:
 7905 0a76 7673796E 		.ascii	"vsync_nondisp\000"
 7905      635F6E6F 
 7905      6E646973 
ARM GAS  C:\Users\megan\AppData\Local\Temp\ccD8G3YI.s 			page 171


 7905      7000
 7906              	.LASF155:
 7907 0a84 73686F72 		.ascii	"shortAxis\000"
 7907      74417869 
 7907      7300
 7908              	.LASF4:
 7909 0a8e 73686F72 		.ascii	"short int\000"
 7909      7420696E 
 7909      7400
 7910              	.LASF175:
 7911 0a98 746F7563 		.ascii	"touchRead\000"
 7911      68526561 
 7911      6400
 7912              	.LASF103:
 7913 0aa2 66616C73 		.ascii	"false\000"
 7913      6500
 7914              	.LASF93:
 7915 0aa8 4359424C 		.ascii	"CYBLE_EVT_HCI_PKT\000"
 7915      455F4556 
 7915      545F4843 
 7915      495F504B 
 7915      5400
 7916              	.LASF146:
 7917 0aba 66696C6C 		.ascii	"fillScreen\000"
 7917      53637265 
 7917      656E00
 7918              	.LASF163:
 7919 0ac5 74726961 		.ascii	"triangleHelper\000"
 7919      6E676C65 
 7919      48656C70 
 7919      657200
 7920              	.LASF119:
 7921 0ad4 696E6974 		.ascii	"initialize\000"
 7921      69616C69 
 7921      7A6500
 7922              	.LASF70:
 7923 0adf 4359424C 		.ascii	"CYBLE_EVT_GATTS_PREP_WRITE_REQ\000"
 7923      455F4556 
 7923      545F4741 
 7923      5454535F 
 7923      50524550 
 7924              	.LASF40:
 7925 0afe 4359424C 		.ascii	"CYBLE_EVT_GAP_ENCRYPT_CHANGE\000"
 7925      455F4556 
 7925      545F4741 
 7925      505F454E 
 7925      43525950 
 7926              	.LASF191:
 7927 0b1b 52413838 		.ascii	"RA8875.c\000"
 7927      37352E63 
 7927      00
 7928              	.LASF168:
 7929 0b24 50574D32 		.ascii	"PWM2out\000"
 7929      6F757400 
 7930              	.LASF137:
 7931 0b2c 70757368 		.ascii	"pushPixels\000"
 7931      50697865 
ARM GAS  C:\Users\megan\AppData\Local\Temp\ccD8G3YI.s 			page 172


 7931      6C7300
 7932              	.LASF75:
 7933 0b37 4359424C 		.ascii	"CYBLE_EVT_GATTS_HANDLE_VALUE_CNF\000"
 7933      455F4556 
 7933      545F4741 
 7933      5454535F 
 7933      48414E44 
 7934              	.LASF55:
 7935 0b58 4359424C 		.ascii	"CYBLE_EVT_GATTC_ERROR_RSP\000"
 7935      455F4556 
 7935      545F4741 
 7935      5454435F 
 7935      4552524F 
 7936              	.LASF50:
 7937 0b72 4359424C 		.ascii	"CYBLE_EVT_GAP_SMP_NEGOTIATED_AUTH_INFO\000"
 7937      455F4556 
 7937      545F4741 
 7937      505F534D 
 7937      505F4E45 
 7938              	.LASF100:
 7939 0b99 4359424C 		.ascii	"CYBLE_SRVI_COUNT\000"
 7939      455F5352 
 7939      56495F43 
 7939      4F554E54 
 7939      00
 7940              	.LASF171:
 7941 0baa 50574D32 		.ascii	"PWM2config\000"
 7941      636F6E66 
 7941      696700
 7942              	.LASF96:
 7943 0bb5 4359424C 		.ascii	"CYBLE_SRVI_GAP\000"
 7943      455F5352 
 7943      56495F47 
 7943      415000
 7944              	.LASF22:
 7945 0bc4 6C6F6E67 		.ascii	"long double\000"
 7945      20646F75 
 7945      626C6500 
 7946              	.LASF20:
 7947 0bd0 63686172 		.ascii	"char\000"
 7947      00
 7948              	.LASF66:
 7949 0bd5 4359424C 		.ascii	"CYBLE_EVT_GATTC_READ_MULTI_RSP\000"
 7949      455F4556 
 7949      545F4741 
 7949      5454435F 
 7949      52454144 
 7950              	.LASF21:
 7951 0bf4 72656733 		.ascii	"reg32\000"
 7951      3200
 7952              	.LASF184:
 7953 0bfa 5F727374 		.ascii	"_rst\000"
 7953      00
 7954              	.LASF188:
 7955 0bff 5F73697A 		.ascii	"_size\000"
 7955      6500
 7956              	.LASF183:
ARM GAS  C:\Users\megan\AppData\Local\Temp\ccD8G3YI.s 			page 173


 7957 0c05 72656164 		.ascii	"readStatus\000"
 7957      53746174 
 7957      757300
 7958              	.LASF5:
 7959 0c10 5F5F7569 		.ascii	"__uint16_t\000"
 7959      6E743136 
 7959      5F7400
 7960              	.LASF78:
 7961 0c1b 4359424C 		.ascii	"CYBLE_EVT_GATTS_READ_CHAR_VAL_ACCESS_REQ\000"
 7961      455F4556 
 7961      545F4741 
 7961      5454535F 
 7961      52454144 
 7962              	.LASF105:
 7963 0c44 626F6F6C 		.ascii	"boolean\000"
 7963      65616E00 
 7964              	.LASF88:
 7965 0c4c 4359424C 		.ascii	"CYBLE_EVT_L2CAP_CBFC_RX_CREDIT_IND\000"
 7965      455F4556 
 7965      545F4C32 
 7965      4341505F 
 7965      43424643 
 7966              	.LASF181:
 7967 0c6f 72656164 		.ascii	"readData\000"
 7967      44617461 
 7967      00
 7968              	.LASF87:
 7969 0c78 4359424C 		.ascii	"CYBLE_EVT_L2CAP_CBFC_DATA_READ\000"
 7969      455F4556 
 7969      545F4C32 
 7969      4341505F 
 7969      43424643 
 7970              	.LASF111:
 7971 0c97 6873796E 		.ascii	"hsync_pw\000"
 7971      635F7077 
 7971      00
 7972              	.LASF167:
 7973 0ca0 50574D31 		.ascii	"PWM1out\000"
 7973      6F757400 
 7974              	.LASF27:
 7975 0ca8 4359424C 		.ascii	"CYBLE_EVT_HARDWARE_ERROR\000"
 7975      455F4556 
 7975      545F4841 
 7975      52445741 
 7975      52455F45 
 7976              	.LASF46:
 7977 0cc1 4359424C 		.ascii	"CYBLE_EVT_GAP_OOB_GENERATED_NOTIFICATION\000"
 7977      455F4556 
 7977      545F4741 
 7977      505F4F4F 
 7977      425F4745 
 7978              	.LASF113:
 7979 0cea 6873796E 		.ascii	"hsync_nondisp\000"
 7979      635F6E6F 
 7979      6E646973 
 7979      7000
 7980              	.LASF63:
ARM GAS  C:\Users\megan\AppData\Local\Temp\ccD8G3YI.s 			page 174


 7981 0cf8 4359424C 		.ascii	"CYBLE_EVT_GATTC_FIND_BY_TYPE_VALUE_RSP\000"
 7981      455F4556 
 7981      545F4741 
 7981      5454435F 
 7981      46494E44 
 7982              	.LASF193:
 7983 0d1f 52413838 		.ascii	"RA8875sizes\000"
 7983      37357369 
 7983      7A657300 
 7984              	.LASF178:
 7985 0d2b 77726974 		.ascii	"writeReg\000"
 7985      65526567 
 7985      00
 7986              	.LASF58:
 7987 0d34 4359424C 		.ascii	"CYBLE_EVT_GATTS_XCNHG_MTU_REQ\000"
 7987      455F4556 
 7987      545F4741 
 7987      5454535F 
 7987      58434E48 
 7988              	.LASF186:
 7989 0d52 5F686569 		.ascii	"_height\000"
 7989      67687400 
 7990              	.LASF149:
 7991 0d5a 64726177 		.ascii	"drawTriangle\000"
 7991      54726961 
 7991      6E676C65 
 7991      00
 7992              	.LASF126:
 7993 0d67 74657874 		.ascii	"textTransparent\000"
 7993      5472616E 
 7993      73706172 
 7993      656E7400 
 7994              	.LASF139:
 7995 0d77 64726177 		.ascii	"drawPixel\000"
 7995      50697865 
 7995      6C00
 7996              	.LASF144:
 7997 0d81 64726177 		.ascii	"drawRect\000"
 7997      52656374 
 7997      00
 7998              	.LASF13:
 7999 0d8a 75696E74 		.ascii	"uint8_t\000"
 7999      385F7400 
 8000              	.LASF127:
 8001 0d92 74657874 		.ascii	"textEnlarge\000"
 8001      456E6C61 
 8001      72676500 
 8002              	.LASF72:
 8003 0d9e 4359424C 		.ascii	"CYBLE_EVT_GATTC_EXEC_WRITE_RSP\000"
 8003      455F4556 
 8003      545F4741 
 8003      5454435F 
 8003      45584543 
 8004              	.LASF23:
 8005 0dbd 73697A65 		.ascii	"sizetype\000"
 8005      74797065 
 8005      00
ARM GAS  C:\Users\megan\AppData\Local\Temp\ccD8G3YI.s 			page 175


 8006              	.LASF160:
 8007 0dc6 63697263 		.ascii	"circleHelper\000"
 8007      6C654865 
 8007      6C706572 
 8007      00
 8008              	.LASF112:
 8009 0dd3 6873796E 		.ascii	"hsync_finetune\000"
 8009      635F6669 
 8009      6E657475 
 8009      6E6500
 8010              	.LASF135:
 8011 0de2 77616974 		.ascii	"waitflag\000"
 8011      666C6167 
 8011      00
 8012              	.LASF85:
 8013 0deb 4359424C 		.ascii	"CYBLE_EVT_L2CAP_CBFC_DISCONN_IND\000"
 8013      455F4556 
 8013      545F4C32 
 8013      4341505F 
 8013      43424643 
 8014              	.LASF170:
 8015 0e0c 636C6F63 		.ascii	"clock\000"
 8015      6B00
 8016              	.LASF118:
 8017 0e12 68656967 		.ascii	"height\000"
 8017      687400
 8018              	.LASF81:
 8019 0e19 4359424C 		.ascii	"CYBLE_EVT_L2CAP_CONN_PARAM_UPDATE_RSP\000"
 8019      455F4556 
 8019      545F4C32 
 8019      4341505F 
 8019      434F4E4E 
 8020              	.LASF48:
 8021 0e3f 4359424C 		.ascii	"CYBLE_EVT_GAP_ENHANCE_CONN_COMPLETE\000"
 8021      455F4556 
 8021      545F4741 
 8021      505F454E 
 8021      48414E43 
 8022              	.LASF57:
 8023 0e63 4359424C 		.ascii	"CYBLE_EVT_GATT_DISCONNECT_IND\000"
 8023      455F4556 
 8023      545F4741 
 8023      54545F44 
 8023      4953434F 
 8024              	.LASF16:
 8025 0e81 75696E74 		.ascii	"uint32_t\000"
 8025      33325F74 
 8025      00
 8026              	.LASF94:
 8027 0e8a 4359424C 		.ascii	"CYBLE_EVT_FLASH_CORRUPT\000"
 8027      455F4556 
 8027      545F464C 
 8027      4153485F 
 8027      434F5252 
 8028              	.LASF145:
 8029 0ea2 66696C6C 		.ascii	"fillRect\000"
 8029      52656374 
ARM GAS  C:\Users\megan\AppData\Local\Temp\ccD8G3YI.s 			page 176


 8029      00
 8030              	.LASF104:
 8031 0eab 74727565 		.ascii	"true\000"
 8031      00
 8032              		.ident	"GCC: (GNU Tools for ARM Embedded Processors) 5.4.1 20160609 (release) [ARM/embedded-5-bran
