ARM GAS  C:\Users\megan\AppData\Local\Temp\cc1Y1tYj.s 			page 1


   1              		.syntax unified
   2              		.cpu cortex-m0
   3              		.fpu softvfp
   4              		.eabi_attribute 20, 1
   5              		.eabi_attribute 21, 1
   6              		.eabi_attribute 23, 3
   7              		.eabi_attribute 24, 1
   8              		.eabi_attribute 25, 1
   9              		.eabi_attribute 26, 1
  10              		.eabi_attribute 30, 6
  11              		.eabi_attribute 34, 0
  12              		.eabi_attribute 18, 4
  13              		.thumb
  14              		.syntax unified
  15              		.file	"BLE_1.c"
  16              		.text
  17              	.Ltext0:
  18              		.cfi_sections	.debug_frame
  19              		.global	cyBle_initVar
  20              		.bss
  21              		.type	cyBle_initVar, %object
  22              		.size	cyBle_initVar, 1
  23              	cyBle_initVar:
  24 0000 00       		.space	1
  25              		.global	cyBle_stackMemoryRam
  26              		.section	.noinit,"aw",%progbits
  27              		.align	3
  28              		.type	cyBle_stackMemoryRam, %object
  29              		.size	cyBle_stackMemoryRam, 2784
  30              	cyBle_stackMemoryRam:
  31 0000 00000000 		.space	2784
  31      00000000 
  31      00000000 
  31      00000000 
  31      00000000 
  32              		.global	cyBle_discoveryParam
  33              		.data
  34              		.align	2
  35              		.type	cyBle_discoveryParam, %object
  36              		.size	cyBle_discoveryParam, 16
  37              	cyBle_discoveryParam:
  38 0000 2000     		.short	32
  39 0002 3000     		.short	48
  40 0004 00       		.byte	0
  41 0005 00       		.byte	0
  42 0006 00       		.byte	0
  43 0007 01       		.byte	1
  44 0008 00       		.byte	0
  45 0009 00       		.byte	0
  46 000a 50       		.byte	80
  47 000b A0       		.byte	-96
  48 000c 00       		.byte	0
  49 000d 07       		.byte	7
  50 000e 00       		.byte	0
  51 000f 00       		.space	1
  52              		.global	cyBle_discoveryData
  53              		.align	2
ARM GAS  C:\Users\megan\AppData\Local\Temp\cc1Y1tYj.s 			page 2


  54              		.type	cyBle_discoveryData, %object
  55              		.size	cyBle_discoveryData, 32
  56              	cyBle_discoveryData:
  57 0010 02       		.byte	2
  58 0011 01       		.byte	1
  59 0012 06       		.byte	6
  60 0013 0E       		.byte	14
  61 0014 09       		.byte	9
  62 0015 50       		.byte	80
  63 0016 65       		.byte	101
  64 0017 72       		.byte	114
  65 0018 69       		.byte	105
  66 0019 70       		.byte	112
  67 001a 68       		.byte	104
  68 001b 65       		.byte	101
  69 001c 72       		.byte	114
  70 001d 61       		.byte	97
  71 001e 6C       		.byte	108
  72 001f 42       		.byte	66
  73 0020 4C       		.byte	76
  74 0021 45       		.byte	69
  75 0022 08       		.byte	8
  76 0023 1B       		.byte	27
  77 0024 00       		.byte	0
  78 0025 01       		.byte	1
  79 0026 00       		.byte	0
  80 0027 00       		.byte	0
  81 0028 50       		.byte	80
  82 0029 A0       		.byte	-96
  83 002a 00       		.byte	0
  84 002b 00       		.byte	0
  85 002c 00       		.byte	0
  86 002d 00       		.byte	0
  87 002e 00       		.byte	0
  88 002f 1B       		.byte	27
  89              		.global	cyBle_scanRspData
  90              		.align	2
  91              		.type	cyBle_scanRspData, %object
  92              		.size	cyBle_scanRspData, 32
  93              	cyBle_scanRspData:
  94 0030 03       		.byte	3
  95 0031 16       		.byte	22
  96 0032 1A       		.byte	26
  97 0033 18       		.byte	24
  98 0034 00       		.byte	0
  99 0035 00       		.byte	0
 100 0036 00       		.byte	0
 101 0037 00       		.byte	0
 102 0038 00       		.byte	0
 103 0039 00       		.byte	0
 104 003a 00       		.byte	0
 105 003b 00       		.byte	0
 106 003c 00       		.byte	0
 107 003d 00       		.byte	0
 108 003e 00       		.byte	0
 109 003f 00       		.byte	0
 110 0040 00       		.byte	0
ARM GAS  C:\Users\megan\AppData\Local\Temp\cc1Y1tYj.s 			page 3


 111 0041 00       		.byte	0
 112 0042 00       		.byte	0
 113 0043 00       		.byte	0
 114 0044 00       		.byte	0
 115 0045 00       		.byte	0
 116 0046 00       		.byte	0
 117 0047 00       		.byte	0
 118 0048 00       		.byte	0
 119 0049 00       		.byte	0
 120 004a 00       		.byte	0
 121 004b 00       		.byte	0
 122 004c 00       		.byte	0
 123 004d 00       		.byte	0
 124 004e 00       		.byte	0
 125 004f 04       		.byte	4
 126              		.global	cyBle_discoveryModeInfo
 127              		.align	2
 128              		.type	cyBle_discoveryModeInfo, %object
 129              		.size	cyBle_discoveryModeInfo, 20
 130              	cyBle_discoveryModeInfo:
 131 0050 02       		.byte	2
 132 0051 000000   		.space	3
 133 0054 00000000 		.word	cyBle_discoveryParam
 134 0058 00000000 		.word	cyBle_discoveryData
 135 005c 00000000 		.word	cyBle_scanRspData
 136 0060 1E00     		.short	30
 137 0062 0000     		.space	2
 138              		.comm	cyBle_peerBonding,1,1
 139              		.comm	cyBle_pendingFlashWrite,1,1
 140              		.bss
 141              	cyBle_pendingFlashClearCccdHandle:
 142 0001 00       		.space	1
 143              		.comm	CyBle_ApplCallback,4,4
 144              		.global	cyBle_deviceAddress
 145              		.data
 146              		.align	2
 147              		.type	cyBle_deviceAddress, %object
 148              		.size	cyBle_deviceAddress, 7
 149              	cyBle_deviceAddress:
 150 0064 01       		.byte	1
 151 0065 00       		.byte	0
 152 0066 00       		.byte	0
 153 0067 50       		.byte	80
 154 0068 A0       		.byte	-96
 155 0069 00       		.byte	0
 156 006a 00       		.byte	0
 157              		.global	cyBle_sflashDeviceAddress
 158 006b 00       		.align	2
 159              		.type	cyBle_sflashDeviceAddress, %object
 160              		.size	cyBle_sflashDeviceAddress, 4
 161              	cyBle_sflashDeviceAddress:
 162 006c 00F4FF0F 		.word	268432384
 163              		.section	.text.CyBle_Init,"ax",%progbits
 164              		.align	2
 165              		.global	CyBle_Init
 166              		.code	16
 167              		.thumb_func
ARM GAS  C:\Users\megan\AppData\Local\Temp\cc1Y1tYj.s 			page 4


 168              		.type	CyBle_Init, %function
 169              	CyBle_Init:
 170              	.LFB2:
 171              		.file 1 "Generated_Source\\PSoC4\\BLE_1.c"
   1:Generated_Source\PSoC4/BLE_1.c **** /***************************************************************************//**
   2:Generated_Source\PSoC4/BLE_1.c **** * \file CYBLE.c
   3:Generated_Source\PSoC4/BLE_1.c **** * \version 3.30
   4:Generated_Source\PSoC4/BLE_1.c **** * 
   5:Generated_Source\PSoC4/BLE_1.c **** * \brief
   6:Generated_Source\PSoC4/BLE_1.c **** *  This file contains the source code for the Common APIs of the BLE Component.
   7:Generated_Source\PSoC4/BLE_1.c **** * 
   8:Generated_Source\PSoC4/BLE_1.c **** ********************************************************************************
   9:Generated_Source\PSoC4/BLE_1.c **** * \copyright
  10:Generated_Source\PSoC4/BLE_1.c **** * Copyright 2014-2016, Cypress Semiconductor Corporation.  All rights reserved.
  11:Generated_Source\PSoC4/BLE_1.c **** * You may use this file only in accordance with the license, terms, conditions,
  12:Generated_Source\PSoC4/BLE_1.c **** * disclaimers, and limitations in the end user license agreement accompanying
  13:Generated_Source\PSoC4/BLE_1.c **** * the software package with which this file was provided.
  14:Generated_Source\PSoC4/BLE_1.c **** *******************************************************************************/
  15:Generated_Source\PSoC4/BLE_1.c **** 
  16:Generated_Source\PSoC4/BLE_1.c **** #include "BLE_1_eventHandler.h"
  17:Generated_Source\PSoC4/BLE_1.c **** #include "BLE_1_HAL_PVT.h"
  18:Generated_Source\PSoC4/BLE_1.c **** #include <stdlib.h>
  19:Generated_Source\PSoC4/BLE_1.c **** 
  20:Generated_Source\PSoC4/BLE_1.c **** 
  21:Generated_Source\PSoC4/BLE_1.c **** /***************************************
  22:Generated_Source\PSoC4/BLE_1.c **** * Function Prototypes
  23:Generated_Source\PSoC4/BLE_1.c **** ***************************************/
  24:Generated_Source\PSoC4/BLE_1.c **** 
  25:Generated_Source\PSoC4/BLE_1.c **** #if(CYBLE_GATT_ROLE_SERVER)
  26:Generated_Source\PSoC4/BLE_1.c ****     #if(CYBLE_GAP_ROLE_PERIPHERAL)
  27:Generated_Source\PSoC4/BLE_1.c ****         static void CyBle_ChangeAdLocalName(const char8 name[], uint8 dest);
  28:Generated_Source\PSoC4/BLE_1.c ****     #endif /* (CYBLE_GAP_ROLE_PERIPHERAL) */
  29:Generated_Source\PSoC4/BLE_1.c **** #endif /* (CYBLE_GATT_ROLE_SERVER) */
  30:Generated_Source\PSoC4/BLE_1.c ****     
  31:Generated_Source\PSoC4/BLE_1.c **** 
  32:Generated_Source\PSoC4/BLE_1.c **** /***************************************
  33:Generated_Source\PSoC4/BLE_1.c **** * Global Variables
  34:Generated_Source\PSoC4/BLE_1.c **** ***************************************/
  35:Generated_Source\PSoC4/BLE_1.c **** 
  36:Generated_Source\PSoC4/BLE_1.c **** /* Indicates whether the BLE has been initialized. The variable is initialized to
  37:Generated_Source\PSoC4/BLE_1.c ****    0 and set to 1 the first time CyBle_Start() is called. This allows the component
  38:Generated_Source\PSoC4/BLE_1.c ****    to restart without reinitialization after the first call to the CyBle_Start() 
  39:Generated_Source\PSoC4/BLE_1.c ****    routine. If reinitialization of the component is required, the variable should 
  40:Generated_Source\PSoC4/BLE_1.c ****    be set to 0 before the CyBle_Start() routine is called. Alternatively, the BLE
  41:Generated_Source\PSoC4/BLE_1.c ****    can be reinitialized by calling the CyBle_Init() function.
  42:Generated_Source\PSoC4/BLE_1.c **** */
  43:Generated_Source\PSoC4/BLE_1.c **** uint8  cyBle_initVar = 0u;
  44:Generated_Source\PSoC4/BLE_1.c **** 
  45:Generated_Source\PSoC4/BLE_1.c **** /* Allocate RAM memory for stack. This buffer could be reused by application when 
  46:Generated_Source\PSoC4/BLE_1.c ****    BLE component is stopped. For export mode buffer is allocated in heap.
  47:Generated_Source\PSoC4/BLE_1.c **** */
  48:Generated_Source\PSoC4/BLE_1.c **** #if(CYBLE_SHARING_MODE_EXPORT)
  49:Generated_Source\PSoC4/BLE_1.c ****     
  50:Generated_Source\PSoC4/BLE_1.c **** uint8 *cyBle_stackMemoryRam = NULL;
  51:Generated_Source\PSoC4/BLE_1.c **** 
  52:Generated_Source\PSoC4/BLE_1.c **** #else
  53:Generated_Source\PSoC4/BLE_1.c **** 
ARM GAS  C:\Users\megan\AppData\Local\Temp\cc1Y1tYj.s 			page 5


  54:Generated_Source\PSoC4/BLE_1.c **** CYBLE_CYALIGNED_BEGIN CY_NOINIT uint8 cyBle_stackMemoryRam[CYBLE_STACK_RAM_SIZE] CYBLE_CYALIGNED_EN
  55:Generated_Source\PSoC4/BLE_1.c **** 
  56:Generated_Source\PSoC4/BLE_1.c **** #endif  /* CYBLE_SHARING_MODE_EXPORT */
  57:Generated_Source\PSoC4/BLE_1.c **** 
  58:Generated_Source\PSoC4/BLE_1.c **** #if(CYBLE_GAP_ROLE_PERIPHERAL || CYBLE_GAP_ROLE_BROADCASTER)
  59:Generated_Source\PSoC4/BLE_1.c **** 
  60:Generated_Source\PSoC4/BLE_1.c **** CYBLE_GAPP_DISC_PARAM_T cyBle_discoveryParam =
  61:Generated_Source\PSoC4/BLE_1.c **** {
  62:Generated_Source\PSoC4/BLE_1.c ****     0x0020u,    /* uint16 advertising_interval_min */
  63:Generated_Source\PSoC4/BLE_1.c ****     0x0030u,    /* uint16 advertising_interval_max */
  64:Generated_Source\PSoC4/BLE_1.c ****     CYBLE_GAPP_CONNECTABLE_UNDIRECTED_ADV, /* uint8 advertising_type */
  65:Generated_Source\PSoC4/BLE_1.c ****     0x00u,      /* uint8 own_addr_type */
  66:Generated_Source\PSoC4/BLE_1.c ****     0x00u,      /* uint8 direct_addr_type */
  67:Generated_Source\PSoC4/BLE_1.c ****     {0x01u, 0x00u, 0x00u, 0x50u, 0xA0u, 0x00u}, /* uint8* direct_addr */
  68:Generated_Source\PSoC4/BLE_1.c ****     0x07u,      /* uint8 advertising_channel_map */
  69:Generated_Source\PSoC4/BLE_1.c ****     0x00u,      /* uint8 advertising_filter_policy */
  70:Generated_Source\PSoC4/BLE_1.c **** };
  71:Generated_Source\PSoC4/BLE_1.c **** 
  72:Generated_Source\PSoC4/BLE_1.c **** CYBLE_GAPP_DISC_DATA_T cyBle_discoveryData =
  73:Generated_Source\PSoC4/BLE_1.c **** {
  74:Generated_Source\PSoC4/BLE_1.c ****     { 0x02u, 0x01u, 0x06u, 0x0Eu, 0x09u, 0x50u, 0x65u,
  75:Generated_Source\PSoC4/BLE_1.c ****     0x72u, 0x69u, 0x70u, 0x68u, 0x65u, 0x72u, 0x61u, 0x6Cu,
  76:Generated_Source\PSoC4/BLE_1.c ****     0x42u, 0x4Cu, 0x45u, 0x08u, 0x1Bu, 0x00u, 0x01u, 0x00u,
  77:Generated_Source\PSoC4/BLE_1.c ****     0x00u, 0x50u, 0xA0u, 0x00u, 0x00u, 0x00u, 0x00u, 0x00u }, /* uint8 advertising_data[CYBLE_MAX_A
  78:Generated_Source\PSoC4/BLE_1.c ****     0x1Bu,      /* uint8 adv_data_length */
  79:Generated_Source\PSoC4/BLE_1.c **** };
  80:Generated_Source\PSoC4/BLE_1.c **** 
  81:Generated_Source\PSoC4/BLE_1.c **** CYBLE_GAPP_SCAN_RSP_DATA_T cyBle_scanRspData =
  82:Generated_Source\PSoC4/BLE_1.c **** {
  83:Generated_Source\PSoC4/BLE_1.c ****     { 0x03u, 0x16u, 0x1Au, 0x18u, 0x00u, 0x00u, 0x00u,
  84:Generated_Source\PSoC4/BLE_1.c ****     0x00u, 0x00u, 0x00u, 0x00u, 0x00u, 0x00u, 0x00u, 0x00u,
  85:Generated_Source\PSoC4/BLE_1.c ****     0x00u, 0x00u, 0x00u, 0x00u, 0x00u, 0x00u, 0x00u, 0x00u,
  86:Generated_Source\PSoC4/BLE_1.c ****     0x00u, 0x00u, 0x00u, 0x00u, 0x00u, 0x00u, 0x00u, 0x00u }, /* uint8 scan_rsp_data[CYBLE_MAX_SCAN
  87:Generated_Source\PSoC4/BLE_1.c ****     0x04u,      /* uint8 scan_rsp_data_length */
  88:Generated_Source\PSoC4/BLE_1.c **** };
  89:Generated_Source\PSoC4/BLE_1.c **** 
  90:Generated_Source\PSoC4/BLE_1.c **** /* This variable of type CYBLE_GAPP_DISC_MODE_INFO_T is present only when 
  91:Generated_Source\PSoC4/BLE_1.c ****    the BLE component is configured for Peripheral GAP role or Central and 
  92:Generated_Source\PSoC4/BLE_1.c ****    Peripheral GAP role. It contains the Advertisement settings and also the 
  93:Generated_Source\PSoC4/BLE_1.c ****    Advertisement and Scan response data parameters entered in the customizer.
  94:Generated_Source\PSoC4/BLE_1.c ****    This variable can be used by advanced users to change Advertisement settings,
  95:Generated_Source\PSoC4/BLE_1.c ****    Advertisement or Scan response data in runtime. 
  96:Generated_Source\PSoC4/BLE_1.c **** */
  97:Generated_Source\PSoC4/BLE_1.c **** CYBLE_GAPP_DISC_MODE_INFO_T cyBle_discoveryModeInfo =
  98:Generated_Source\PSoC4/BLE_1.c **** {
  99:Generated_Source\PSoC4/BLE_1.c ****     0x02u,      /* uint8 discMode */
 100:Generated_Source\PSoC4/BLE_1.c ****     &cyBle_discoveryParam,
 101:Generated_Source\PSoC4/BLE_1.c ****     &cyBle_discoveryData,
 102:Generated_Source\PSoC4/BLE_1.c ****     &cyBle_scanRspData,
 103:Generated_Source\PSoC4/BLE_1.c ****     0x001Eu,    /* uint16 advTo */
 104:Generated_Source\PSoC4/BLE_1.c **** };
 105:Generated_Source\PSoC4/BLE_1.c **** 
 106:Generated_Source\PSoC4/BLE_1.c **** 
 107:Generated_Source\PSoC4/BLE_1.c **** #endif /* CYBLE_GAP_ROLE_PERIPHERAL || CYBLE_GAP_ROLE_BROADCASTER */
 108:Generated_Source\PSoC4/BLE_1.c **** 
 109:Generated_Source\PSoC4/BLE_1.c **** #if(CYBLE_GAP_ROLE_CENTRAL)
 110:Generated_Source\PSoC4/BLE_1.c ****     
ARM GAS  C:\Users\megan\AppData\Local\Temp\cc1Y1tYj.s 			page 6


 111:Generated_Source\PSoC4/BLE_1.c **** CYBLE_GAPC_CONN_PARAM_T cyBle_connectionParameters;
 112:Generated_Source\PSoC4/BLE_1.c **** 
 113:Generated_Source\PSoC4/BLE_1.c **** /* Connecting timeout is set to 30 seconds in CyBle_Init function. 
 114:Generated_Source\PSoC4/BLE_1.c ****    Not zero value starts timer in CyBle_GapcConnectDevice API.
 115:Generated_Source\PSoC4/BLE_1.c **** */
 116:Generated_Source\PSoC4/BLE_1.c **** uint16 cyBle_connectingTimeout;
 117:Generated_Source\PSoC4/BLE_1.c ****     
 118:Generated_Source\PSoC4/BLE_1.c **** #endif /* CYBLE_GAP_ROLE_CENTRAL */
 119:Generated_Source\PSoC4/BLE_1.c **** 
 120:Generated_Source\PSoC4/BLE_1.c **** #if(CYBLE_GAP_ROLE_CENTRAL || CYBLE_GAP_ROLE_OBSERVER)
 121:Generated_Source\PSoC4/BLE_1.c ****     
 122:Generated_Source\PSoC4/BLE_1.c **** 
 123:Generated_Source\PSoC4/BLE_1.c ****     
 124:Generated_Source\PSoC4/BLE_1.c **** #endif /* CYBLE_GAP_ROLE_CENTRAL || CYBLE_GAP_ROLE_OBSERVER */
 125:Generated_Source\PSoC4/BLE_1.c **** 
 126:Generated_Source\PSoC4/BLE_1.c **** #if((CYBLE_GAP_ROLE_PERIPHERAL || CYBLE_GAP_ROLE_CENTRAL) && (CYBLE_BONDING_REQUIREMENT == CYBLE_BO
 127:Generated_Source\PSoC4/BLE_1.c **** 
 128:Generated_Source\PSoC4/BLE_1.c **** uint8 cyBle_peerBonding;
 129:Generated_Source\PSoC4/BLE_1.c **** uint8 cyBle_pendingFlashWrite;
 130:Generated_Source\PSoC4/BLE_1.c ****     
 131:Generated_Source\PSoC4/BLE_1.c **** #if(CYBLE_GATT_DB_CCCD_COUNT != 0u)
 132:Generated_Source\PSoC4/BLE_1.c ****     static uint8 cyBle_pendingFlashClearCccdHandle;
 133:Generated_Source\PSoC4/BLE_1.c **** #endif /* CYBLE_GATT_DB_CCCD_COUNT != 0u */
 134:Generated_Source\PSoC4/BLE_1.c ****     
 135:Generated_Source\PSoC4/BLE_1.c **** #endif  /* (CYBLE_BONDING_REQUIREMENT == CYBLE_BONDING_YES) */
 136:Generated_Source\PSoC4/BLE_1.c **** 
 137:Generated_Source\PSoC4/BLE_1.c **** CYBLE_CALLBACK_T CyBle_ApplCallback;
 138:Generated_Source\PSoC4/BLE_1.c **** CYBLE_GAP_BD_ADDR_T cyBle_deviceAddress = {{0x01u, 0x00u, 0x00u, 0x50u, 0xA0u, 0x00u}, 0x00u };
 139:Generated_Source\PSoC4/BLE_1.c **** CYBLE_GAP_BD_ADDR_T * cyBle_sflashDeviceAddress = CYBLE_SFLASH_DEVICE_ADDRESS_PTR;
 140:Generated_Source\PSoC4/BLE_1.c **** 
 141:Generated_Source\PSoC4/BLE_1.c **** 
 142:Generated_Source\PSoC4/BLE_1.c **** /******************************************************************************
 143:Generated_Source\PSoC4/BLE_1.c **** * Function Name: CyBle_Init
 144:Generated_Source\PSoC4/BLE_1.c **** ***************************************************************************//**
 145:Generated_Source\PSoC4/BLE_1.c **** *
 146:Generated_Source\PSoC4/BLE_1.c **** *   Initializes the component with the parameters set in the customizer.
 147:Generated_Source\PSoC4/BLE_1.c **** * 
 148:Generated_Source\PSoC4/BLE_1.c **** *  \return
 149:Generated_Source\PSoC4/BLE_1.c **** *   None
 150:Generated_Source\PSoC4/BLE_1.c **** * 
 151:Generated_Source\PSoC4/BLE_1.c **** ******************************************************************************/
 152:Generated_Source\PSoC4/BLE_1.c **** void CyBle_Init(void)
 153:Generated_Source\PSoC4/BLE_1.c **** {
 172              		.loc 1 153 0
 173              		.cfi_startproc
 174              		@ args = 0, pretend = 0, frame = 0
 175              		@ frame_needed = 1, uses_anonymous_args = 0
 176 0000 80B5     		push	{r7, lr}
 177              		.cfi_def_cfa_offset 8
 178              		.cfi_offset 7, -8
 179              		.cfi_offset 14, -4
 180 0002 00AF     		add	r7, sp, #0
 181              		.cfi_def_cfa_register 7
 154:Generated_Source\PSoC4/BLE_1.c ****     cyBle_eventHandlerFlag = 0u;
 182              		.loc 1 154 0
 183 0004 094B     		ldr	r3, .L2
 184 0006 0022     		movs	r2, #0
ARM GAS  C:\Users\megan\AppData\Local\Temp\cc1Y1tYj.s 			page 7


 185 0008 1A70     		strb	r2, [r3]
 155:Generated_Source\PSoC4/BLE_1.c ****     cyBle_busyStatus = CYBLE_STACK_STATE_FREE;
 186              		.loc 1 155 0
 187 000a 094B     		ldr	r3, .L2+4
 188 000c 0022     		movs	r2, #0
 189 000e 1A70     		strb	r2, [r3]
 156:Generated_Source\PSoC4/BLE_1.c **** 
 157:Generated_Source\PSoC4/BLE_1.c ****     #if(CYBLE_GAP_ROLE_PERIPHERAL || CYBLE_GAP_ROLE_BROADCASTER) 
 158:Generated_Source\PSoC4/BLE_1.c ****         cyBle_advertisingIntervalType = CYBLE_ADVERTISING_FAST; 
 190              		.loc 1 158 0
 191 0010 084B     		ldr	r3, .L2+8
 192 0012 0022     		movs	r2, #0
 193 0014 1A70     		strb	r2, [r3]
 159:Generated_Source\PSoC4/BLE_1.c ****     #endif /* (CYBLE_GAP_ROLE_PERIPHERAL || CYBLE_GAP_ROLE_BROADCASTER)  */
 160:Generated_Source\PSoC4/BLE_1.c ****     #if(CYBLE_GAP_ROLE_CENTRAL || CYBLE_GAP_ROLE_OBSERVER)
 161:Generated_Source\PSoC4/BLE_1.c ****         cyBle_scanningIntervalType = CYBLE_SCANNING_FAST; 
 162:Generated_Source\PSoC4/BLE_1.c ****     #endif /* (CYBLE_GAP_ROLE_CENTRAL || CYBLE_GAP_ROLE_OBSERVER) */
 163:Generated_Source\PSoC4/BLE_1.c ****         
 164:Generated_Source\PSoC4/BLE_1.c ****     /* Init default connection parameters. 
 165:Generated_Source\PSoC4/BLE_1.c ****        Application may change it before initiating a connection */
 166:Generated_Source\PSoC4/BLE_1.c ****     #if(CYBLE_GAP_ROLE_CENTRAL)
 167:Generated_Source\PSoC4/BLE_1.c ****         cyBle_connectionParameters.scanIntv = cyBle_discoveryInfo.scanIntv;
 168:Generated_Source\PSoC4/BLE_1.c ****         cyBle_connectionParameters.scanWindow = cyBle_discoveryInfo.scanWindow;
 169:Generated_Source\PSoC4/BLE_1.c ****         cyBle_connectionParameters.ownAddrType = cyBle_discoveryInfo.ownAddrType;
 170:Generated_Source\PSoC4/BLE_1.c ****         cyBle_connectionParameters.initiatorFilterPolicy = cyBle_discoveryInfo.scanFilterPolicy;
 171:Generated_Source\PSoC4/BLE_1.c ****         cyBle_connectionParameters.connIntvMin = CYBLE_GAPC_CONNECTION_INTERVAL_MIN;
 172:Generated_Source\PSoC4/BLE_1.c ****         cyBle_connectionParameters.connIntvMax = CYBLE_GAPC_CONNECTION_INTERVAL_MAX;
 173:Generated_Source\PSoC4/BLE_1.c ****         cyBle_connectionParameters.connLatency = CYBLE_GAPC_CONNECTION_SLAVE_LATENCY;
 174:Generated_Source\PSoC4/BLE_1.c ****         cyBle_connectionParameters.supervisionTO = CYBLE_GAPC_CONNECTION_TIME_OUT;
 175:Generated_Source\PSoC4/BLE_1.c ****         cyBle_connectionParameters.minCeLength = 0x0000u;
 176:Generated_Source\PSoC4/BLE_1.c ****         cyBle_connectionParameters.maxCeLength = 0xFFFFu;
 177:Generated_Source\PSoC4/BLE_1.c ****         
 178:Generated_Source\PSoC4/BLE_1.c ****         cyBle_connectingTimeout = CYBLE_GAPC_CONNECTING_TIMEOUT;
 179:Generated_Source\PSoC4/BLE_1.c ****     #endif /* CYBLE_GAP_ROLE_CENTRAL */
 180:Generated_Source\PSoC4/BLE_1.c **** 
 181:Generated_Source\PSoC4/BLE_1.c ****     CyBle_ServiceInit();
 194              		.loc 1 181 0
 195 0016 FFF7FEFF 		bl	CyBle_ServiceInit
 182:Generated_Source\PSoC4/BLE_1.c **** 
 183:Generated_Source\PSoC4/BLE_1.c ****     #if((CYBLE_GAP_ROLE_PERIPHERAL || CYBLE_GAP_ROLE_CENTRAL) && (CYBLE_BONDING_REQUIREMENT == CYBL
 184:Generated_Source\PSoC4/BLE_1.c ****         cyBle_pendingFlashWrite = 0u;
 196              		.loc 1 184 0
 197 001a 074B     		ldr	r3, .L2+12
 198 001c 0022     		movs	r2, #0
 199 001e 1A70     		strb	r2, [r3]
 185:Generated_Source\PSoC4/BLE_1.c ****         cyBle_peerBonding = CYBLE_GAP_BONDING_NONE;
 200              		.loc 1 185 0
 201 0020 064B     		ldr	r3, .L2+16
 202 0022 0022     		movs	r2, #0
 203 0024 1A70     		strb	r2, [r3]
 186:Generated_Source\PSoC4/BLE_1.c ****     #endif  /* (CYBLE_BONDING_REQUIREMENT == CYBLE_BONDING_YES) */
 187:Generated_Source\PSoC4/BLE_1.c **** 
 188:Generated_Source\PSoC4/BLE_1.c **** }
 204              		.loc 1 188 0
 205 0026 C046     		nop
 206 0028 BD46     		mov	sp, r7
 207              		@ sp needed
ARM GAS  C:\Users\megan\AppData\Local\Temp\cc1Y1tYj.s 			page 8


 208 002a 80BD     		pop	{r7, pc}
 209              	.L3:
 210              		.align	2
 211              	.L2:
 212 002c 00000000 		.word	cyBle_eventHandlerFlag
 213 0030 00000000 		.word	cyBle_busyStatus
 214 0034 00000000 		.word	cyBle_advertisingIntervalType
 215 0038 00000000 		.word	cyBle_pendingFlashWrite
 216 003c 00000000 		.word	cyBle_peerBonding
 217              		.cfi_endproc
 218              	.LFE2:
 219              		.size	CyBle_Init, .-CyBle_Init
 220              		.section	.text.CyBle_ServiceInit,"ax",%progbits
 221              		.align	2
 222              		.global	CyBle_ServiceInit
 223              		.code	16
 224              		.thumb_func
 225              		.type	CyBle_ServiceInit, %function
 226              	CyBle_ServiceInit:
 227              	.LFB3:
 189:Generated_Source\PSoC4/BLE_1.c **** 
 190:Generated_Source\PSoC4/BLE_1.c **** 
 191:Generated_Source\PSoC4/BLE_1.c **** /******************************************************************************
 192:Generated_Source\PSoC4/BLE_1.c **** * Function Name: CyBle_ServiceInit
 193:Generated_Source\PSoC4/BLE_1.c **** ***************************************************************************//**
 194:Generated_Source\PSoC4/BLE_1.c **** * 
 195:Generated_Source\PSoC4/BLE_1.c **** *  Initializes all included services.
 196:Generated_Source\PSoC4/BLE_1.c **** * 
 197:Generated_Source\PSoC4/BLE_1.c **** * \return
 198:Generated_Source\PSoC4/BLE_1.c **** *  None
 199:Generated_Source\PSoC4/BLE_1.c **** * 
 200:Generated_Source\PSoC4/BLE_1.c **** ******************************************************************************/
 201:Generated_Source\PSoC4/BLE_1.c **** void CyBle_ServiceInit(void)
 202:Generated_Source\PSoC4/BLE_1.c **** {
 228              		.loc 1 202 0
 229              		.cfi_startproc
 230              		@ args = 0, pretend = 0, frame = 0
 231              		@ frame_needed = 1, uses_anonymous_args = 0
 232 0000 80B5     		push	{r7, lr}
 233              		.cfi_def_cfa_offset 8
 234              		.cfi_offset 7, -8
 235              		.cfi_offset 14, -4
 236 0002 00AF     		add	r7, sp, #0
 237              		.cfi_def_cfa_register 7
 203:Generated_Source\PSoC4/BLE_1.c ****     #if(CYBLE_GATT_ROLE_CLIENT)
 204:Generated_Source\PSoC4/BLE_1.c ****         /* Check service range before clearing to support partial discovery */
 205:Generated_Source\PSoC4/BLE_1.c ****         if(cyBle_serverInfo[CYBLE_SRVI_GAP].range.startHandle == CYBLE_GATT_INVALID_ATTR_HANDLE_VAL
 206:Generated_Source\PSoC4/BLE_1.c ****         {
 207:Generated_Source\PSoC4/BLE_1.c ****             (void)memset(&cyBle_gapc, 0, sizeof(cyBle_gapc));
 208:Generated_Source\PSoC4/BLE_1.c ****         }
 209:Generated_Source\PSoC4/BLE_1.c ****         if(cyBle_serverInfo[CYBLE_SRVI_GATT].range.startHandle == CYBLE_GATT_INVALID_ATTR_HANDLE_VA
 210:Generated_Source\PSoC4/BLE_1.c ****         {
 211:Generated_Source\PSoC4/BLE_1.c ****             (void)memset(&cyBle_gattc, 0, sizeof(cyBle_gattc));
 212:Generated_Source\PSoC4/BLE_1.c ****         }
 213:Generated_Source\PSoC4/BLE_1.c ****     #endif /* CYBLE_GATT_ROLE_CLIENT */
 214:Generated_Source\PSoC4/BLE_1.c **** 
 215:Generated_Source\PSoC4/BLE_1.c ****    	#ifdef CYBLE_AIOS
ARM GAS  C:\Users\megan\AppData\Local\Temp\cc1Y1tYj.s 			page 9


 216:Generated_Source\PSoC4/BLE_1.c ****         CyBle_AiosInit();
 217:Generated_Source\PSoC4/BLE_1.c ****     #endif /* CYBLE_AIOS */
 218:Generated_Source\PSoC4/BLE_1.c **** 
 219:Generated_Source\PSoC4/BLE_1.c **** 	#ifdef CYBLE_ANCS
 220:Generated_Source\PSoC4/BLE_1.c ****         CyBle_AncsInit();
 221:Generated_Source\PSoC4/BLE_1.c ****     #endif /* CYBLE_ANCS */
 222:Generated_Source\PSoC4/BLE_1.c **** 	
 223:Generated_Source\PSoC4/BLE_1.c ****     #ifdef CYBLE_ANS
 224:Generated_Source\PSoC4/BLE_1.c ****         CyBle_AnsInit();
 225:Generated_Source\PSoC4/BLE_1.c ****     #endif /* CYBLE_ANS */
 226:Generated_Source\PSoC4/BLE_1.c ****     
 227:Generated_Source\PSoC4/BLE_1.c ****     #ifdef CYBLE_BAS
 228:Generated_Source\PSoC4/BLE_1.c ****         CyBle_BasInit();
 229:Generated_Source\PSoC4/BLE_1.c ****     #endif /* CYBLE_BAS */
 230:Generated_Source\PSoC4/BLE_1.c ****     
 231:Generated_Source\PSoC4/BLE_1.c ****     #ifdef CYBLE_BCS
 232:Generated_Source\PSoC4/BLE_1.c ****         CyBle_BcsInit();
 233:Generated_Source\PSoC4/BLE_1.c ****     #endif /* CYBLE_BCS */
 234:Generated_Source\PSoC4/BLE_1.c **** 
 235:Generated_Source\PSoC4/BLE_1.c ****     #ifdef CYBLE_BLS
 236:Generated_Source\PSoC4/BLE_1.c ****         CyBle_BlsInit();
 237:Generated_Source\PSoC4/BLE_1.c ****     #endif /* CYBLE_BLS */
 238:Generated_Source\PSoC4/BLE_1.c ****     
 239:Generated_Source\PSoC4/BLE_1.c ****     #ifdef CYBLE_BMS
 240:Generated_Source\PSoC4/BLE_1.c ****         CyBle_BmsInit();
 241:Generated_Source\PSoC4/BLE_1.c ****     #endif /* CYBLE_BMS */
 242:Generated_Source\PSoC4/BLE_1.c ****     
 243:Generated_Source\PSoC4/BLE_1.c ****     #ifdef CYBLE_CGMS
 244:Generated_Source\PSoC4/BLE_1.c ****         CyBle_CgmsInit();
 245:Generated_Source\PSoC4/BLE_1.c ****     #endif /* CYBLE_CGMS */
 246:Generated_Source\PSoC4/BLE_1.c **** 
 247:Generated_Source\PSoC4/BLE_1.c ****     #ifdef CYBLE_CPS
 248:Generated_Source\PSoC4/BLE_1.c ****         CyBle_CpsInit();
 249:Generated_Source\PSoC4/BLE_1.c ****     #endif /* CYBLE_CPS */
 250:Generated_Source\PSoC4/BLE_1.c **** 
 251:Generated_Source\PSoC4/BLE_1.c ****     #ifdef CYBLE_CSCS
 252:Generated_Source\PSoC4/BLE_1.c ****         CyBle_CscsInit();
 253:Generated_Source\PSoC4/BLE_1.c ****     #endif /* CYBLE_CSCS */
 254:Generated_Source\PSoC4/BLE_1.c ****     
 255:Generated_Source\PSoC4/BLE_1.c ****     #ifdef CYBLE_CTS
 256:Generated_Source\PSoC4/BLE_1.c ****         CyBle_CtsInit();
 257:Generated_Source\PSoC4/BLE_1.c ****     #endif /* CYBLE_CTS */
 258:Generated_Source\PSoC4/BLE_1.c **** 
 259:Generated_Source\PSoC4/BLE_1.c ****     #ifdef CYBLE_CUSTOM
 260:Generated_Source\PSoC4/BLE_1.c ****         CyBle_CustomInit();
 261:Generated_Source\PSoC4/BLE_1.c ****     #endif /* CYBLE_CUSTOM */
 262:Generated_Source\PSoC4/BLE_1.c **** 
 263:Generated_Source\PSoC4/BLE_1.c ****     #ifdef CYBLE_DIS
 264:Generated_Source\PSoC4/BLE_1.c ****         CyBle_DisInit();
 265:Generated_Source\PSoC4/BLE_1.c ****     #endif /* CYBLE_DIS */
 266:Generated_Source\PSoC4/BLE_1.c **** 
 267:Generated_Source\PSoC4/BLE_1.c ****     #ifdef CYBLE_ESS
 268:Generated_Source\PSoC4/BLE_1.c ****         CyBle_EssInit();
 238              		.loc 1 268 0
 239 0004 FFF7FEFF 		bl	CyBle_EssInit
 269:Generated_Source\PSoC4/BLE_1.c ****     #endif /* CYBLE_ESS */
 270:Generated_Source\PSoC4/BLE_1.c ****     
ARM GAS  C:\Users\megan\AppData\Local\Temp\cc1Y1tYj.s 			page 10


 271:Generated_Source\PSoC4/BLE_1.c ****     #ifdef CYBLE_GLS
 272:Generated_Source\PSoC4/BLE_1.c ****         CyBle_GlsInit();
 273:Generated_Source\PSoC4/BLE_1.c ****     #endif /* CYBLE_GLS */
 274:Generated_Source\PSoC4/BLE_1.c ****     
 275:Generated_Source\PSoC4/BLE_1.c ****     #ifdef CYBLE_HIDS
 276:Generated_Source\PSoC4/BLE_1.c ****         CyBle_HidsInit();
 277:Generated_Source\PSoC4/BLE_1.c ****     #endif /* CYBLE_HIDS */
 278:Generated_Source\PSoC4/BLE_1.c **** 
 279:Generated_Source\PSoC4/BLE_1.c ****     #ifdef CYBLE_HPS
 280:Generated_Source\PSoC4/BLE_1.c ****         CyBle_HpsInit();
 281:Generated_Source\PSoC4/BLE_1.c ****     #endif /* CYBLE_HPS */
 282:Generated_Source\PSoC4/BLE_1.c **** 
 283:Generated_Source\PSoC4/BLE_1.c ****     #ifdef CYBLE_HRS
 284:Generated_Source\PSoC4/BLE_1.c ****         CyBle_HrsInit();
 285:Generated_Source\PSoC4/BLE_1.c ****     #endif /* CYBLE_HRS */
 286:Generated_Source\PSoC4/BLE_1.c ****     
 287:Generated_Source\PSoC4/BLE_1.c ****     #ifdef CYBLE_HTS
 288:Generated_Source\PSoC4/BLE_1.c ****         CyBle_HtsInit();
 289:Generated_Source\PSoC4/BLE_1.c ****     #endif /* CYBLE_RSCS */
 290:Generated_Source\PSoC4/BLE_1.c **** 
 291:Generated_Source\PSoC4/BLE_1.c ****     #ifdef CYBLE_IAS
 292:Generated_Source\PSoC4/BLE_1.c ****         CyBle_IasInit();
 293:Generated_Source\PSoC4/BLE_1.c ****     #endif /* CYBLE_IAS */
 294:Generated_Source\PSoC4/BLE_1.c **** 
 295:Generated_Source\PSoC4/BLE_1.c ****     #ifdef CYBLE_IPS
 296:Generated_Source\PSoC4/BLE_1.c ****         CyBle_IpsInit();
 297:Generated_Source\PSoC4/BLE_1.c ****     #endif /* CYBLE_IPS */
 298:Generated_Source\PSoC4/BLE_1.c ****     
 299:Generated_Source\PSoC4/BLE_1.c ****     #ifdef CYBLE_LLS
 300:Generated_Source\PSoC4/BLE_1.c ****         CyBle_LlsInit();
 301:Generated_Source\PSoC4/BLE_1.c ****     #endif /* CYBLE_LLS */
 302:Generated_Source\PSoC4/BLE_1.c **** 
 303:Generated_Source\PSoC4/BLE_1.c ****     #ifdef CYBLE_LNS
 304:Generated_Source\PSoC4/BLE_1.c ****         CyBle_LnsInit();
 305:Generated_Source\PSoC4/BLE_1.c ****     #endif /* CYBLE_LNS */
 306:Generated_Source\PSoC4/BLE_1.c ****     
 307:Generated_Source\PSoC4/BLE_1.c ****     #ifdef CYBLE_NDCS
 308:Generated_Source\PSoC4/BLE_1.c ****         CyBle_NdcsInit();
 309:Generated_Source\PSoC4/BLE_1.c ****     #endif /* CYBLE_NDCS */
 310:Generated_Source\PSoC4/BLE_1.c ****     
 311:Generated_Source\PSoC4/BLE_1.c ****     #ifdef CYBLE_PASS
 312:Generated_Source\PSoC4/BLE_1.c ****         CyBle_PassInit();
 313:Generated_Source\PSoC4/BLE_1.c ****     #endif /* CYBLE_PASS */
 314:Generated_Source\PSoC4/BLE_1.c ****     
 315:Generated_Source\PSoC4/BLE_1.c ****     #ifdef CYBLE_PLXS
 316:Generated_Source\PSoC4/BLE_1.c ****         CyBle_PlxsInit();
 317:Generated_Source\PSoC4/BLE_1.c ****     #endif /* CYBLE_PLXS */
 318:Generated_Source\PSoC4/BLE_1.c ****     
 319:Generated_Source\PSoC4/BLE_1.c ****     #ifdef CYBLE_RSCS
 320:Generated_Source\PSoC4/BLE_1.c ****         CyBle_RscsInit();
 321:Generated_Source\PSoC4/BLE_1.c ****     #endif /* CYBLE_RSCS */
 322:Generated_Source\PSoC4/BLE_1.c **** 
 323:Generated_Source\PSoC4/BLE_1.c ****     #ifdef CYBLE_RTUS
 324:Generated_Source\PSoC4/BLE_1.c ****         CyBle_RtusInit();
 325:Generated_Source\PSoC4/BLE_1.c ****     #endif /* CYBLE_RTUS */
 326:Generated_Source\PSoC4/BLE_1.c **** 
 327:Generated_Source\PSoC4/BLE_1.c ****     #ifdef CYBLE_SCPS
ARM GAS  C:\Users\megan\AppData\Local\Temp\cc1Y1tYj.s 			page 11


 328:Generated_Source\PSoC4/BLE_1.c ****         CyBle_ScpsInit();
 329:Generated_Source\PSoC4/BLE_1.c ****     #endif /* CYBLE_SCPS */
 330:Generated_Source\PSoC4/BLE_1.c ****     
 331:Generated_Source\PSoC4/BLE_1.c ****     #ifdef CYBLE_TPS
 332:Generated_Source\PSoC4/BLE_1.c ****         CyBle_TpsInit();
 333:Generated_Source\PSoC4/BLE_1.c ****     #endif /* CYBLE_TPS */
 334:Generated_Source\PSoC4/BLE_1.c ****     
 335:Generated_Source\PSoC4/BLE_1.c ****     #ifdef CYBLE_UDS
 336:Generated_Source\PSoC4/BLE_1.c ****         CyBle_UdsInit();
 337:Generated_Source\PSoC4/BLE_1.c ****     #endif /* CYBLE_UDS */
 338:Generated_Source\PSoC4/BLE_1.c **** 
 339:Generated_Source\PSoC4/BLE_1.c ****     #ifdef CYBLE_WPTS
 340:Generated_Source\PSoC4/BLE_1.c ****         CyBle_WptsInit();
 341:Generated_Source\PSoC4/BLE_1.c ****     #endif /* CYBLE_WPTS */
 342:Generated_Source\PSoC4/BLE_1.c **** 
 343:Generated_Source\PSoC4/BLE_1.c ****     #ifdef CYBLE_WSS
 344:Generated_Source\PSoC4/BLE_1.c ****         CyBle_WssInit();
 345:Generated_Source\PSoC4/BLE_1.c ****     #endif /* CYBLE_WSS */
 346:Generated_Source\PSoC4/BLE_1.c **** }
 240              		.loc 1 346 0
 241 0008 C046     		nop
 242 000a BD46     		mov	sp, r7
 243              		@ sp needed
 244 000c 80BD     		pop	{r7, pc}
 245              		.cfi_endproc
 246              	.LFE3:
 247              		.size	CyBle_ServiceInit, .-CyBle_ServiceInit
 248 000e C046     		.section	.rodata
 249              		.align	2
 250              	.LC0:
 251 0000 2400     		.short	36
 252 0002 03       		.byte	3
 253 0003 00       		.space	1
 254 0004 3000     		.short	48
 255 0006 01       		.byte	1
 256 0007 00       		.space	1
 257 0008 2800     		.short	40
 258 000a 02       		.byte	2
 259 000b 00       		.space	1
 260 000c 2400     		.short	36
 261 000e 01       		.byte	1
 262 000f 00       		.space	1
 263 0010 2400     		.short	36
 264 0012 01       		.byte	1
 265 0013 00       		.space	1
 266              		.section	.text.CyBle_Start,"ax",%progbits
 267              		.align	2
 268              		.global	CyBle_Start
 269              		.code	16
 270              		.thumb_func
 271              		.type	CyBle_Start, %function
 272              	CyBle_Start:
 273              	.LFB4:
 347:Generated_Source\PSoC4/BLE_1.c **** 
 348:Generated_Source\PSoC4/BLE_1.c **** 
 349:Generated_Source\PSoC4/BLE_1.c **** /******************************************************************************
 350:Generated_Source\PSoC4/BLE_1.c **** * Function Name: CyBle_Start
ARM GAS  C:\Users\megan\AppData\Local\Temp\cc1Y1tYj.s 			page 12


 351:Generated_Source\PSoC4/BLE_1.c **** ***************************************************************************//**
 352:Generated_Source\PSoC4/BLE_1.c **** * 
 353:Generated_Source\PSoC4/BLE_1.c **** *  This function initializes the BLE Stack, which consists of the BLE Stack 
 354:Generated_Source\PSoC4/BLE_1.c **** *  Manager, BLE Controller, and BLE Host modules. It takes care of initializing
 355:Generated_Source\PSoC4/BLE_1.c **** *  the Profile layer, schedulers, Timer and other platform related
 356:Generated_Source\PSoC4/BLE_1.c **** *  resources required for the BLE component. It also registers the callback 
 357:Generated_Source\PSoC4/BLE_1.c **** *  function for BLE events that will be registered in the BLE stack.
 358:Generated_Source\PSoC4/BLE_1.c **** * 
 359:Generated_Source\PSoC4/BLE_1.c **** *  Note that this function does not reset the BLE Stack.
 360:Generated_Source\PSoC4/BLE_1.c **** * 
 361:Generated_Source\PSoC4/BLE_1.c **** *  For HCI-Mode of operation, this function will not initialize the BLE Host 
 362:Generated_Source\PSoC4/BLE_1.c **** *  module.
 363:Generated_Source\PSoC4/BLE_1.c **** * 
 364:Generated_Source\PSoC4/BLE_1.c **** *  Calling this function results in the generation of CYBLE_EVT_STACK_ON event
 365:Generated_Source\PSoC4/BLE_1.c **** *  on successful initialization of the BLE Stack.
 366:Generated_Source\PSoC4/BLE_1.c **** * 
 367:Generated_Source\PSoC4/BLE_1.c **** *  \param callbackFunc: Event callback function to receive events from BLE stack.
 368:Generated_Source\PSoC4/BLE_1.c **** *   CYBLE_CALLBACK_T is a function pointer type.
 369:Generated_Source\PSoC4/BLE_1.c **** * 
 370:Generated_Source\PSoC4/BLE_1.c **** * \return
 371:Generated_Source\PSoC4/BLE_1.c **** *  CYBLE_API_RESULT_T : Return value indicates if the function succeeded or 
 372:Generated_Source\PSoC4/BLE_1.c **** *  failed. Following are the possible error codes.
 373:Generated_Source\PSoC4/BLE_1.c **** * 
 374:Generated_Source\PSoC4/BLE_1.c **** *   <table>
 375:Generated_Source\PSoC4/BLE_1.c **** *  	  <tr>
 376:Generated_Source\PSoC4/BLE_1.c **** *       <th>Error codes</th>
 377:Generated_Source\PSoC4/BLE_1.c **** *       <th>Description</th>
 378:Generated_Source\PSoC4/BLE_1.c **** *     </tr>
 379:Generated_Source\PSoC4/BLE_1.c **** *     <tr>
 380:Generated_Source\PSoC4/BLE_1.c **** *       <td>CYBLE_ERROR_OK</td>
 381:Generated_Source\PSoC4/BLE_1.c **** *       <td>On successful operation.</td>
 382:Generated_Source\PSoC4/BLE_1.c **** *     </tr>
 383:Generated_Source\PSoC4/BLE_1.c **** *     <tr>
 384:Generated_Source\PSoC4/BLE_1.c **** *       <td>CYBLE_ERROR_INVALID_PARAMETER</td>
 385:Generated_Source\PSoC4/BLE_1.c **** *       <td>On passing a NULL pointer to the function. 
 386:Generated_Source\PSoC4/BLE_1.c **** *		</td>
 387:Generated_Source\PSoC4/BLE_1.c **** *     </tr>
 388:Generated_Source\PSoC4/BLE_1.c **** *     <tr>
 389:Generated_Source\PSoC4/BLE_1.c **** *       <td>CYBLE_ERROR_REPEATED_ATTEMPTS</td>
 390:Generated_Source\PSoC4/BLE_1.c **** *       <td>On invoking this function more than once without calling CyBle_Shutdown() 
 391:Generated_Source\PSoC4/BLE_1.c **** *           function between calls to this function.</td>
 392:Generated_Source\PSoC4/BLE_1.c **** *     </tr>
 393:Generated_Source\PSoC4/BLE_1.c **** *     <tr>
 394:Generated_Source\PSoC4/BLE_1.c **** *       <td>CYBLE_ERROR_MEMORY_ALLOCATION_FAILED</td>
 395:Generated_Source\PSoC4/BLE_1.c **** *       <td>There is insufficient memory available.</td>
 396:Generated_Source\PSoC4/BLE_1.c **** *     </tr>
 397:Generated_Source\PSoC4/BLE_1.c **** *   </table>
 398:Generated_Source\PSoC4/BLE_1.c **** * 
 399:Generated_Source\PSoC4/BLE_1.c **** *  \globalvars
 400:Generated_Source\PSoC4/BLE_1.c **** *   The CyBle_initVar variable is used to indicate initial
 401:Generated_Source\PSoC4/BLE_1.c **** *   configuration of this component. The variable is initialized to zero (0u)
 402:Generated_Source\PSoC4/BLE_1.c **** *   and set to one (1u) the first time CyBle_Start() is called. This
 403:Generated_Source\PSoC4/BLE_1.c **** *   allows for component initialization without re-initialization in all
 404:Generated_Source\PSoC4/BLE_1.c **** *   subsequent calls to the CyBle_Start() routine.
 405:Generated_Source\PSoC4/BLE_1.c **** * 
 406:Generated_Source\PSoC4/BLE_1.c **** ******************************************************************************/
 407:Generated_Source\PSoC4/BLE_1.c **** CYBLE_API_RESULT_T CyBle_Start(CYBLE_CALLBACK_T callbackFunc)
ARM GAS  C:\Users\megan\AppData\Local\Temp\cc1Y1tYj.s 			page 13


 408:Generated_Source\PSoC4/BLE_1.c **** {
 274              		.loc 1 408 0
 275              		.cfi_startproc
 276              		@ args = 0, pretend = 0, frame = 64
 277              		@ frame_needed = 1, uses_anonymous_args = 0
 278 0000 B0B5     		push	{r4, r5, r7, lr}
 279              		.cfi_def_cfa_offset 16
 280              		.cfi_offset 4, -16
 281              		.cfi_offset 5, -12
 282              		.cfi_offset 7, -8
 283              		.cfi_offset 14, -4
 284 0002 94B0     		sub	sp, sp, #80
 285              		.cfi_def_cfa_offset 96
 286 0004 04AF     		add	r7, sp, #16
 287              		.cfi_def_cfa 7, 80
 288 0006 7860     		str	r0, [r7, #4]
 409:Generated_Source\PSoC4/BLE_1.c ****     CYBLE_API_RESULT_T apiResult = CYBLE_ERROR_OK;
 289              		.loc 1 409 0
 290 0008 3E23     		movs	r3, #62
 291 000a FB18     		adds	r3, r7, r3
 292 000c 0022     		movs	r2, #0
 293 000e 1A80     		strh	r2, [r3]
 410:Generated_Source\PSoC4/BLE_1.c ****     
 411:Generated_Source\PSoC4/BLE_1.c ****     #if(CYBLE_MODE_PROFILE)
 412:Generated_Source\PSoC4/BLE_1.c ****     
 413:Generated_Source\PSoC4/BLE_1.c ****     CYBLE_STK_APP_DATA_BUFF_T cyBle_stackDataBuff[CYBLE_STACK_APP_MIN_POOL] = 
 294              		.loc 1 413 0
 295 0010 2823     		movs	r3, #40
 296 0012 FA18     		adds	r2, r7, r3
 297 0014 3D4B     		ldr	r3, .L12
 298 0016 1000     		movs	r0, r2
 299 0018 1900     		movs	r1, r3
 300 001a 1423     		movs	r3, #20
 301 001c 1A00     		movs	r2, r3
 302 001e FFF7FEFF 		bl	memcpy
 414:Generated_Source\PSoC4/BLE_1.c ****     {
 415:Generated_Source\PSoC4/BLE_1.c ****         {CYBLE_GATT_MTU_PLUS_L2CAP_MEM_EXT, CYBLE_GATT_MTU_BUFF_COUNT + CYBLE_GATT_MAX_ATTR_BUFF_CO
 416:Generated_Source\PSoC4/BLE_1.c ****         {CYBLE_L2CAP_PSM_PLUS_L2CAP_MEM_EXT, CYBLE_L2CAP_PSM_COUNT},
 417:Generated_Source\PSoC4/BLE_1.c ****         {CYBLE_L2CAP_CBFC_PLUS_L2CAP_MEM_EXT, 2u * CYBLE_L2CAP_LOGICAL_CHANNEL_COUNT},
 418:Generated_Source\PSoC4/BLE_1.c ****         {CYBLE_L2CAP_MTU_PLUS_L2CAP_MEM_EXT, CYBLE_L2CAP_LOGICAL_CHANNEL_COUNT},
 419:Generated_Source\PSoC4/BLE_1.c ****         {CYBLE_L2CAP_MPS_PLUS_L2CAP_MEM_EXT, CYBLE_L2CAP_LOGICAL_CHANNEL_COUNT * (CYBLE_L2CAP_MTU_M
 420:Generated_Source\PSoC4/BLE_1.c ****     }; 
 421:Generated_Source\PSoC4/BLE_1.c **** 
 422:Generated_Source\PSoC4/BLE_1.c ****     #endif /* CYBLE_MODE_PROFILE */
 423:Generated_Source\PSoC4/BLE_1.c ****     
 424:Generated_Source\PSoC4/BLE_1.c ****     /* If not initialized then initialize all the required hardware and software */
 425:Generated_Source\PSoC4/BLE_1.c ****     if(cyBle_initVar == 0u)
 303              		.loc 1 425 0
 304 0022 3B4B     		ldr	r3, .L12+4
 305 0024 1B78     		ldrb	r3, [r3]
 306 0026 002B     		cmp	r3, #0
 307 0028 04D1     		bne	.L6
 426:Generated_Source\PSoC4/BLE_1.c ****     {
 427:Generated_Source\PSoC4/BLE_1.c ****         CyBle_Init();
 308              		.loc 1 427 0
 309 002a FFF7FEFF 		bl	CyBle_Init
 428:Generated_Source\PSoC4/BLE_1.c ****         cyBle_initVar = 1u;
ARM GAS  C:\Users\megan\AppData\Local\Temp\cc1Y1tYj.s 			page 14


 310              		.loc 1 428 0
 311 002e 384B     		ldr	r3, .L12+4
 312 0030 0122     		movs	r2, #1
 313 0032 1A70     		strb	r2, [r3]
 314              	.L6:
 429:Generated_Source\PSoC4/BLE_1.c ****     }
 430:Generated_Source\PSoC4/BLE_1.c ****     
 431:Generated_Source\PSoC4/BLE_1.c ****     if(callbackFunc != NULL)
 315              		.loc 1 431 0
 316 0034 7B68     		ldr	r3, [r7, #4]
 317 0036 002B     		cmp	r3, #0
 318 0038 5CD0     		beq	.L7
 432:Generated_Source\PSoC4/BLE_1.c ****     {
 433:Generated_Source\PSoC4/BLE_1.c ****         CyBle_ApplCallback = callbackFunc;
 319              		.loc 1 433 0
 320 003a 364B     		ldr	r3, .L12+8
 321 003c 7A68     		ldr	r2, [r7, #4]
 322 003e 1A60     		str	r2, [r3]
 434:Generated_Source\PSoC4/BLE_1.c ****         
 435:Generated_Source\PSoC4/BLE_1.c ****     #if(CYBLE_SHARING_MODE_EXPORT)
 436:Generated_Source\PSoC4/BLE_1.c ****         if(cyBle_stackMemoryRam == NULL)
 437:Generated_Source\PSoC4/BLE_1.c ****         {
 438:Generated_Source\PSoC4/BLE_1.c ****             cyBle_stackMemoryRam = (uint8 *)malloc(CYBLE_STACK_RAM_SIZE);
 439:Generated_Source\PSoC4/BLE_1.c ****             if(cyBle_stackMemoryRam == NULL)
 440:Generated_Source\PSoC4/BLE_1.c ****             {
 441:Generated_Source\PSoC4/BLE_1.c ****                 apiResult = CYBLE_ERROR_MEMORY_ALLOCATION_FAILED;
 442:Generated_Source\PSoC4/BLE_1.c ****             }
 443:Generated_Source\PSoC4/BLE_1.c ****         }
 444:Generated_Source\PSoC4/BLE_1.c ****     #endif /* CYBLE_SHARING_MODE_EXPORT */
 445:Generated_Source\PSoC4/BLE_1.c ****         if(apiResult == CYBLE_ERROR_OK)
 323              		.loc 1 445 0
 324 0040 3E23     		movs	r3, #62
 325 0042 FB18     		adds	r3, r7, r3
 326 0044 1B88     		ldrh	r3, [r3]
 327 0046 002B     		cmp	r3, #0
 328 0048 29D1     		bne	.L8
 329              	.LBB2:
 446:Generated_Source\PSoC4/BLE_1.c ****         {
 447:Generated_Source\PSoC4/BLE_1.c ****             CYBLE_DLE_CONFIG_PARAM_T dleConfigParams;
 448:Generated_Source\PSoC4/BLE_1.c ****             CYBLE_PRIVACY_1_2_CONFIG_PARAM_T privacyConfigParams;
 449:Generated_Source\PSoC4/BLE_1.c ****             CYBLE_STACK_CONFIG_PARAM_T stackConfig;
 450:Generated_Source\PSoC4/BLE_1.c ****             uint16 featureHeapReq;
 451:Generated_Source\PSoC4/BLE_1.c ****             
 452:Generated_Source\PSoC4/BLE_1.c ****             stackConfig.privacyConfig = &privacyConfigParams;
 330              		.loc 1 452 0
 331 004a 1023     		movs	r3, #16
 332 004c FB18     		adds	r3, r7, r3
 333 004e 1C22     		movs	r2, #28
 334 0050 BA18     		adds	r2, r7, r2
 335 0052 5A60     		str	r2, [r3, #4]
 453:Generated_Source\PSoC4/BLE_1.c ****             stackConfig.dleConfig = &dleConfigParams;
 336              		.loc 1 453 0
 337 0054 1023     		movs	r3, #16
 338 0056 FB18     		adds	r3, r7, r3
 339 0058 2022     		movs	r2, #32
 340 005a BA18     		adds	r2, r7, r2
 341 005c 1A60     		str	r2, [r3]
ARM GAS  C:\Users\megan\AppData\Local\Temp\cc1Y1tYj.s 			page 15


 454:Generated_Source\PSoC4/BLE_1.c ****             
 455:Generated_Source\PSoC4/BLE_1.c ****             /* Configure default BLE 4.1 features and enabled 4.2 features */
 456:Generated_Source\PSoC4/BLE_1.c ****             stackConfig.feature_mask = CYBLE_DLE_FEATURE | CYBLE_LL_PRIVACY_FEATURE | 
 342              		.loc 1 456 0
 343 005e 1023     		movs	r3, #16
 344 0060 FB18     		adds	r3, r7, r3
 345 0062 0022     		movs	r2, #0
 346 0064 1A81     		strh	r2, [r3, #8]
 457:Generated_Source\PSoC4/BLE_1.c ****                                        CYBLE_SECURE_CONN_FEATURE;
 458:Generated_Source\PSoC4/BLE_1.c **** 
 459:Generated_Source\PSoC4/BLE_1.c ****             /* Configure DLE */
 460:Generated_Source\PSoC4/BLE_1.c ****             dleConfigParams.dleMaxTxCapability = CYBLE_LL_MAX_TX_PAYLOAD_SIZE;
 347              		.loc 1 460 0
 348 0066 2023     		movs	r3, #32
 349 0068 FB18     		adds	r3, r7, r3
 350 006a 1B22     		movs	r2, #27
 351 006c 1A80     		strh	r2, [r3]
 461:Generated_Source\PSoC4/BLE_1.c ****             dleConfigParams.dleMaxRxCapability = CYBLE_LL_MAX_RX_PAYLOAD_SIZE;
 352              		.loc 1 461 0
 353 006e 2023     		movs	r3, #32
 354 0070 FB18     		adds	r3, r7, r3
 355 0072 1B22     		movs	r2, #27
 356 0074 5A80     		strh	r2, [r3, #2]
 462:Generated_Source\PSoC4/BLE_1.c ****             dleConfigParams.dleNumTxBuffer = CYBLE_LL_DEFAULT_NUM_ACL_TX_PACKETS;
 357              		.loc 1 462 0
 358 0076 2023     		movs	r3, #32
 359 0078 FB18     		adds	r3, r7, r3
 360 007a 0422     		movs	r2, #4
 361 007c 1A71     		strb	r2, [r3, #4]
 463:Generated_Source\PSoC4/BLE_1.c ****         #if(CYBLE_DLE_FEATURE_ENABLED)
 464:Generated_Source\PSoC4/BLE_1.c ****             CyBle_EnableDleFeature();              /* Enable DLE code in stack */
 465:Generated_Source\PSoC4/BLE_1.c ****         #endif /* CYBLE_DLE_FEATURE_ENABLED */
 466:Generated_Source\PSoC4/BLE_1.c ****         
 467:Generated_Source\PSoC4/BLE_1.c ****             /* Configure LL Privacy */
 468:Generated_Source\PSoC4/BLE_1.c ****             privacyConfigParams.resolvingListSize = CYBLE_MAX_RESOLVABLE_DEVICES;
 362              		.loc 1 468 0
 363 007e 1C23     		movs	r3, #28
 364 0080 FB18     		adds	r3, r7, r3
 365 0082 0822     		movs	r2, #8
 366 0084 1A70     		strb	r2, [r3]
 469:Generated_Source\PSoC4/BLE_1.c ****         #if(CYBLE_LL_PRIVACY_FEATURE_ENABLED)
 470:Generated_Source\PSoC4/BLE_1.c ****             CyBle_EnablePrivacyFeature();          /* Enable LL Privacy code in stack */
 471:Generated_Source\PSoC4/BLE_1.c ****         #endif /* CYBLE_LL_PRIVACY_FEATURE_ENABLED */
 472:Generated_Source\PSoC4/BLE_1.c **** 
 473:Generated_Source\PSoC4/BLE_1.c ****             apiResult = CyBle_StackSetFeatureConfig(&stackConfig, &featureHeapReq);
 367              		.loc 1 473 0
 368 0086 3E23     		movs	r3, #62
 369 0088 FC18     		adds	r4, r7, r3
 370 008a 0E23     		movs	r3, #14
 371 008c FA18     		adds	r2, r7, r3
 372 008e 1023     		movs	r3, #16
 373 0090 FB18     		adds	r3, r7, r3
 374 0092 1100     		movs	r1, r2
 375 0094 1800     		movs	r0, r3
 376 0096 FFF7FEFF 		bl	CyBle_StackSetFeatureConfig
 377 009a 0300     		movs	r3, r0
 378 009c 2380     		strh	r3, [r4]
ARM GAS  C:\Users\megan\AppData\Local\Temp\cc1Y1tYj.s 			page 16


 379              	.L8:
 380              	.LBE2:
 474:Generated_Source\PSoC4/BLE_1.c ****             }
 475:Generated_Source\PSoC4/BLE_1.c ****     
 476:Generated_Source\PSoC4/BLE_1.c ****         if(apiResult == CYBLE_ERROR_OK)
 381              		.loc 1 476 0
 382 009e 3E23     		movs	r3, #62
 383 00a0 FB18     		adds	r3, r7, r3
 384 00a2 1B88     		ldrh	r3, [r3]
 385 00a4 002B     		cmp	r3, #0
 386 00a6 29D1     		bne	.L10
 477:Generated_Source\PSoC4/BLE_1.c ****         {
 478:Generated_Source\PSoC4/BLE_1.c ****         
 479:Generated_Source\PSoC4/BLE_1.c ****         #if(CYBLE_MODE_PROFILE)
 480:Generated_Source\PSoC4/BLE_1.c ****             #if(CYBLE_BONDING_REQUIREMENT == CYBLE_BONDING_YES)
 481:Generated_Source\PSoC4/BLE_1.c ****                 apiResult = CyBle_StackInit(&CyBle_EventHandler, cyBle_stackMemoryRam, 
 387              		.loc 1 481 0
 388 00a8 3E23     		movs	r3, #62
 389 00aa FC18     		adds	r4, r7, r3
 390 00ac 2823     		movs	r3, #40
 391 00ae FD18     		adds	r5, r7, r3
 392 00b0 AE23     		movs	r3, #174
 393 00b2 1A01     		lsls	r2, r3, #4
 394 00b4 1849     		ldr	r1, .L12+12
 395 00b6 1948     		ldr	r0, .L12+16
 396 00b8 194B     		ldr	r3, .L12+20
 397 00ba 0293     		str	r3, [sp, #8]
 398 00bc 194B     		ldr	r3, .L12+24
 399 00be 0193     		str	r3, [sp, #4]
 400 00c0 0523     		movs	r3, #5
 401 00c2 0093     		str	r3, [sp]
 402 00c4 2B00     		movs	r3, r5
 403 00c6 FFF7FEFF 		bl	CyBle_StackInit
 404 00ca 0300     		movs	r3, r0
 405 00cc 2380     		strh	r3, [r4]
 482:Generated_Source\PSoC4/BLE_1.c ****                     CYBLE_STACK_RAM_SIZE - CYBLE_GATT_PREPARE_WRITE_BUFF_LEN, cyBle_stackDataBuff, 
 483:Generated_Source\PSoC4/BLE_1.c ****                     CYBLE_STACK_APP_MIN_POOL, cyBle_flashStorage.stackFlashptr, CYBLE_STACK_FLASH_S
 484:Generated_Source\PSoC4/BLE_1.c ****             #else
 485:Generated_Source\PSoC4/BLE_1.c ****                 apiResult = CyBle_StackInit(&CyBle_EventHandler, cyBle_stackMemoryRam, 
 486:Generated_Source\PSoC4/BLE_1.c ****                     CYBLE_STACK_RAM_SIZE - CYBLE_GATT_PREPARE_WRITE_BUFF_LEN, cyBle_stackDataBuff, 
 487:Generated_Source\PSoC4/BLE_1.c ****                     CYBLE_STACK_APP_MIN_POOL, NULL, 0u);
 488:Generated_Source\PSoC4/BLE_1.c ****             #endif  /* CYBLE_BONDING_REQUIREMENT == CYBLE_BONDING_YES */
 489:Generated_Source\PSoC4/BLE_1.c ****         #else /* HCI mode */
 490:Generated_Source\PSoC4/BLE_1.c ****             /* The following will perform preparation to use HCI over UART or over
 491:Generated_Source\PSoC4/BLE_1.c ****                software. But the following fucntions will not initialize the HCI
 492:Generated_Source\PSoC4/BLE_1.c ****                Transport. This will be done as part of Stack initialization, so
 493:Generated_Source\PSoC4/BLE_1.c ****                the functions should be called prior CyBle_StackInit().
 494:Generated_Source\PSoC4/BLE_1.c ****             */
 495:Generated_Source\PSoC4/BLE_1.c ****             #if (CYBLE_HCI_TYPE == CYBLE_HCI_OVER_UART)
 496:Generated_Source\PSoC4/BLE_1.c ****                 CyBle_HciUartTransportEnable();
 497:Generated_Source\PSoC4/BLE_1.c ****             #else
 498:Generated_Source\PSoC4/BLE_1.c ****                 CyBle_HciSoftTransportEnable();
 499:Generated_Source\PSoC4/BLE_1.c ****             #endif /* (CYBLE_HCI_TYPE == CYBLE_HCI_OVER_UART) */
 500:Generated_Source\PSoC4/BLE_1.c ****             /* This will initialize BLE stack for HCI mode operation */
 501:Generated_Source\PSoC4/BLE_1.c ****             apiResult = CyBle_StackInit(&CyBle_EventHandler, cyBle_stackMemoryRam, CYBLE_STACK_RAM_
 502:Generated_Source\PSoC4/BLE_1.c ****                 NULL, 0u, NULL, 0u);
 503:Generated_Source\PSoC4/BLE_1.c ****         #endif /* CYBLE_MODE_PROFILE */
ARM GAS  C:\Users\megan\AppData\Local\Temp\cc1Y1tYj.s 			page 17


 504:Generated_Source\PSoC4/BLE_1.c **** 
 505:Generated_Source\PSoC4/BLE_1.c ****             if(apiResult == CYBLE_ERROR_OK)
 406              		.loc 1 505 0
 407 00ce 3E23     		movs	r3, #62
 408 00d0 FB18     		adds	r3, r7, r3
 409 00d2 1B88     		ldrh	r3, [r3]
 410 00d4 002B     		cmp	r3, #0
 411 00d6 11D1     		bne	.L10
 506:Generated_Source\PSoC4/BLE_1.c ****             {
 507:Generated_Source\PSoC4/BLE_1.c ****                 CyBle_SetState(CYBLE_STATE_INITIALIZING);
 412              		.loc 1 507 0
 413 00d8 134B     		ldr	r3, .L12+28
 414 00da 0122     		movs	r2, #1
 415 00dc 1A70     		strb	r2, [r3]
 508:Generated_Source\PSoC4/BLE_1.c ****                 
 509:Generated_Source\PSoC4/BLE_1.c ****             #if (CYBLE_GATT_ROLE_CLIENT)
 510:Generated_Source\PSoC4/BLE_1.c ****                 CyBle_SetClientState(CYBLE_CLIENT_STATE_DISCONNECTED);
 511:Generated_Source\PSoC4/BLE_1.c ****             #endif /* CYBLE_GATT_ROLE_CLIENT */
 512:Generated_Source\PSoC4/BLE_1.c ****                 
 513:Generated_Source\PSoC4/BLE_1.c ****             #if(CYBLE_GATT_ROLE_SERVER)
 514:Generated_Source\PSoC4/BLE_1.c ****                 apiResult = CyBle_GattsDbRegister(cyBle_gattDB, CYBLE_GATT_DB_INDEX_COUNT, CYBLE_GA
 416              		.loc 1 514 0
 417 00de 3E23     		movs	r3, #62
 418 00e0 FC18     		adds	r4, r7, r3
 419 00e2 124B     		ldr	r3, .L12+32
 420 00e4 0D22     		movs	r2, #13
 421 00e6 1921     		movs	r1, #25
 422 00e8 1800     		movs	r0, r3
 423 00ea FFF7FEFF 		bl	CyBle_GattsDbRegister
 424 00ee 0300     		movs	r3, r0
 425 00f0 2380     		strh	r3, [r4]
 426 00f2 03E0     		b	.L10
 427              	.L7:
 515:Generated_Source\PSoC4/BLE_1.c ****             #endif /* CYBLE_GATT_ROLE_SERVER */
 516:Generated_Source\PSoC4/BLE_1.c ****             }
 517:Generated_Source\PSoC4/BLE_1.c ****         }
 518:Generated_Source\PSoC4/BLE_1.c ****     }
 519:Generated_Source\PSoC4/BLE_1.c ****     else
 520:Generated_Source\PSoC4/BLE_1.c ****     {
 521:Generated_Source\PSoC4/BLE_1.c ****         apiResult = CYBLE_ERROR_INVALID_PARAMETER;
 428              		.loc 1 521 0
 429 00f4 3E23     		movs	r3, #62
 430 00f6 FB18     		adds	r3, r7, r3
 431 00f8 0122     		movs	r2, #1
 432 00fa 1A80     		strh	r2, [r3]
 433              	.L10:
 522:Generated_Source\PSoC4/BLE_1.c ****     }
 523:Generated_Source\PSoC4/BLE_1.c **** 
 524:Generated_Source\PSoC4/BLE_1.c ****     return (apiResult);
 434              		.loc 1 524 0
 435 00fc 3E23     		movs	r3, #62
 436 00fe FB18     		adds	r3, r7, r3
 437 0100 1B88     		ldrh	r3, [r3]
 525:Generated_Source\PSoC4/BLE_1.c **** }
 438              		.loc 1 525 0
 439 0102 1800     		movs	r0, r3
 440 0104 BD46     		mov	sp, r7
ARM GAS  C:\Users\megan\AppData\Local\Temp\cc1Y1tYj.s 			page 18


 441 0106 10B0     		add	sp, sp, #64
 442              		@ sp needed
 443 0108 B0BD     		pop	{r4, r5, r7, pc}
 444              	.L13:
 445 010a C046     		.align	2
 446              	.L12:
 447 010c 00000000 		.word	.LC0
 448 0110 00000000 		.word	cyBle_initVar
 449 0114 00000000 		.word	CyBle_ApplCallback
 450 0118 00000000 		.word	cyBle_stackMemoryRam
 451 011c 00000000 		.word	CyBle_EventHandler
 452 0120 79020000 		.word	633
 453 0124 00000000 		.word	cyBle_flashStorage
 454 0128 00000000 		.word	cyBle_state
 455 012c 00000000 		.word	cyBle_gattDB
 456              		.cfi_endproc
 457              	.LFE4:
 458              		.size	CyBle_Start, .-CyBle_Start
 459              		.section	.text.CyBle_Stop,"ax",%progbits
 460              		.align	2
 461              		.global	CyBle_Stop
 462              		.code	16
 463              		.thumb_func
 464              		.type	CyBle_Stop, %function
 465              	CyBle_Stop:
 466              	.LFB5:
 526:Generated_Source\PSoC4/BLE_1.c **** 
 527:Generated_Source\PSoC4/BLE_1.c **** 
 528:Generated_Source\PSoC4/BLE_1.c **** /******************************************************************************
 529:Generated_Source\PSoC4/BLE_1.c **** * Function Name: CyBle_Stop
 530:Generated_Source\PSoC4/BLE_1.c **** ***************************************************************************//**
 531:Generated_Source\PSoC4/BLE_1.c **** * 
 532:Generated_Source\PSoC4/BLE_1.c **** *  This function stops any ongoing operation in the BLE Stack and forces the 
 533:Generated_Source\PSoC4/BLE_1.c **** *  BLE Stack to shut down. The only function that can be called after calling
 534:Generated_Source\PSoC4/BLE_1.c **** *  this function is CyBle_Start(). 
 535:Generated_Source\PSoC4/BLE_1.c **** * 
 536:Generated_Source\PSoC4/BLE_1.c **** * \return
 537:Generated_Source\PSoC4/BLE_1.c **** *  None
 538:Generated_Source\PSoC4/BLE_1.c **** * 
 539:Generated_Source\PSoC4/BLE_1.c **** ******************************************************************************/
 540:Generated_Source\PSoC4/BLE_1.c **** void CyBle_Stop(void)
 541:Generated_Source\PSoC4/BLE_1.c **** {
 467              		.loc 1 541 0
 468              		.cfi_startproc
 469              		@ args = 0, pretend = 0, frame = 0
 470              		@ frame_needed = 1, uses_anonymous_args = 0
 471 0000 80B5     		push	{r7, lr}
 472              		.cfi_def_cfa_offset 8
 473              		.cfi_offset 7, -8
 474              		.cfi_offset 14, -4
 475 0002 00AF     		add	r7, sp, #0
 476              		.cfi_def_cfa_register 7
 542:Generated_Source\PSoC4/BLE_1.c ****     CyBle_Shutdown();                         /* Stop all ongoing activities */
 477              		.loc 1 542 0
 478 0004 FFF7FEFF 		bl	CyBle_Shutdown
 543:Generated_Source\PSoC4/BLE_1.c ****     CyBle_SetState(CYBLE_STATE_STOPPED);
 479              		.loc 1 543 0
ARM GAS  C:\Users\megan\AppData\Local\Temp\cc1Y1tYj.s 			page 19


 480 0008 024B     		ldr	r3, .L15
 481 000a 0022     		movs	r2, #0
 482 000c 1A70     		strb	r2, [r3]
 544:Generated_Source\PSoC4/BLE_1.c ****     #if(CYBLE_SHARING_MODE_EXPORT)
 545:Generated_Source\PSoC4/BLE_1.c ****         if(cyBle_stackMemoryRam != NULL)
 546:Generated_Source\PSoC4/BLE_1.c ****         {
 547:Generated_Source\PSoC4/BLE_1.c ****             free(cyBle_stackMemoryRam);
 548:Generated_Source\PSoC4/BLE_1.c ****         }
 549:Generated_Source\PSoC4/BLE_1.c ****     #endif /* CYBLE_SHARING_MODE_EXPORT */
 550:Generated_Source\PSoC4/BLE_1.c **** }
 483              		.loc 1 550 0
 484 000e C046     		nop
 485 0010 BD46     		mov	sp, r7
 486              		@ sp needed
 487 0012 80BD     		pop	{r7, pc}
 488              	.L16:
 489              		.align	2
 490              	.L15:
 491 0014 00000000 		.word	cyBle_state
 492              		.cfi_endproc
 493              	.LFE5:
 494              		.size	CyBle_Stop, .-CyBle_Stop
 495              		.section	.text.CyBle_StoreBondingData,"ax",%progbits
 496              		.align	2
 497              		.global	CyBle_StoreBondingData
 498              		.code	16
 499              		.thumb_func
 500              		.type	CyBle_StoreBondingData, %function
 501              	CyBle_StoreBondingData:
 502              	.LFB6:
 551:Generated_Source\PSoC4/BLE_1.c **** 
 552:Generated_Source\PSoC4/BLE_1.c **** 
 553:Generated_Source\PSoC4/BLE_1.c **** #if((CYBLE_GAP_ROLE_PERIPHERAL || CYBLE_GAP_ROLE_CENTRAL) && (CYBLE_BONDING_REQUIREMENT == CYBLE_BO
 554:Generated_Source\PSoC4/BLE_1.c **** 
 555:Generated_Source\PSoC4/BLE_1.c ****     
 556:Generated_Source\PSoC4/BLE_1.c **** /******************************************************************************
 557:Generated_Source\PSoC4/BLE_1.c **** * Function Name: CyBle_StoreBondingData
 558:Generated_Source\PSoC4/BLE_1.c **** ***************************************************************************//**
 559:Generated_Source\PSoC4/BLE_1.c **** * 
 560:Generated_Source\PSoC4/BLE_1.c **** *  This function writes the new bonding data from RAM to the dedicated Flash 
 561:Generated_Source\PSoC4/BLE_1.c **** *  location as defined by the component. It performs data comparing between RAM
 562:Generated_Source\PSoC4/BLE_1.c **** *  and Flash before writing to Flash. If there is no change between RAM and Flash
 563:Generated_Source\PSoC4/BLE_1.c **** *  data, then no write is performed. It writes only one flash row in one call.
 564:Generated_Source\PSoC4/BLE_1.c **** *  Application should keep calling this function till API return CYBLE_ERROR_OK. 
 565:Generated_Source\PSoC4/BLE_1.c **** *  This function is available only when Bonding requirement is selected in
 566:Generated_Source\PSoC4/BLE_1.c **** *  Security settings.    
 567:Generated_Source\PSoC4/BLE_1.c **** * 
 568:Generated_Source\PSoC4/BLE_1.c **** *  \param isForceWrite:  If value is set to 0, then stack will check if flash write 
 569:Generated_Source\PSoC4/BLE_1.c **** *                 is permissible. 
 570:Generated_Source\PSoC4/BLE_1.c **** *  
 571:Generated_Source\PSoC4/BLE_1.c **** * \return
 572:Generated_Source\PSoC4/BLE_1.c **** *  Return value is of type CYBLE_API_RESULT_T.
 573:Generated_Source\PSoC4/BLE_1.c **** *
 574:Generated_Source\PSoC4/BLE_1.c **** *   Errors codes                         | Description
 575:Generated_Source\PSoC4/BLE_1.c **** *   ----------------------------------   | ------------------------------------
 576:Generated_Source\PSoC4/BLE_1.c **** *   CYBLE_ERROR_OK                       | On successful operation
 577:Generated_Source\PSoC4/BLE_1.c **** *   CYBLE_ERROR_FLASH_WRITE_NOT_PERMITED | Flash Write is not complete
ARM GAS  C:\Users\megan\AppData\Local\Temp\cc1Y1tYj.s 			page 20


 578:Generated_Source\PSoC4/BLE_1.c **** *   CYBLE_ERROR_INVALID_PARAMETER        | Invalid input parameter  
 579:Generated_Source\PSoC4/BLE_1.c **** *   CYBLE_ERROR_FLASH_WRITE              | Error in flash Write	
 580:Generated_Source\PSoC4/BLE_1.c ****     
 581:Generated_Source\PSoC4/BLE_1.c **** *  \sideeffect
 582:Generated_Source\PSoC4/BLE_1.c **** *   For BLE devices with 128K of Flash memory this API will automatically 
 583:Generated_Source\PSoC4/BLE_1.c **** *   modify the clock settings for the device.
 584:Generated_Source\PSoC4/BLE_1.c **** *   Writing to flash requires changes to be done to the IMO (set to 48 MHz)
 585:Generated_Source\PSoC4/BLE_1.c **** *   and HFCLK (source set to IMO) settings. The configuration is restored before
 586:Generated_Source\PSoC4/BLE_1.c **** *   returning. This will impact the operation of most of the hardware in the
 587:Generated_Source\PSoC4/BLE_1.c **** *   device.
 588:Generated_Source\PSoC4/BLE_1.c **** * 
 589:Generated_Source\PSoC4/BLE_1.c **** *  \globalvars
 590:Generated_Source\PSoC4/BLE_1.c **** *   The cyBle_pendingFlashWrite variable is used to detect status
 591:Generated_Source\PSoC4/BLE_1.c **** *   of pending write to flash operation for stack data and CCCD.
 592:Generated_Source\PSoC4/BLE_1.c **** *   This API automatically clears pending bits after write operation complete.
 593:Generated_Source\PSoC4/BLE_1.c **** *     
 594:Generated_Source\PSoC4/BLE_1.c **** ******************************************************************************/
 595:Generated_Source\PSoC4/BLE_1.c **** CYBLE_API_RESULT_T CyBle_StoreBondingData(uint8 isForceWrite)
 596:Generated_Source\PSoC4/BLE_1.c **** {
 503              		.loc 1 596 0
 504              		.cfi_startproc
 505              		@ args = 0, pretend = 0, frame = 40
 506              		@ frame_needed = 1, uses_anonymous_args = 0
 507 0000 90B5     		push	{r4, r7, lr}
 508              		.cfi_def_cfa_offset 12
 509              		.cfi_offset 4, -12
 510              		.cfi_offset 7, -8
 511              		.cfi_offset 14, -4
 512 0002 8BB0     		sub	sp, sp, #44
 513              		.cfi_def_cfa_offset 56
 514 0004 00AF     		add	r7, sp, #0
 515              		.cfi_def_cfa_register 7
 516 0006 0200     		movs	r2, r0
 517 0008 FB1D     		adds	r3, r7, #7
 518 000a 1A70     		strb	r2, [r3]
 597:Generated_Source\PSoC4/BLE_1.c ****     CYBLE_API_RESULT_T apiResult = CYBLE_ERROR_OK;
 519              		.loc 1 597 0
 520 000c 2623     		movs	r3, #38
 521 000e FB18     		adds	r3, r7, r3
 522 0010 0022     		movs	r2, #0
 523 0012 1A80     		strh	r2, [r3]
 598:Generated_Source\PSoC4/BLE_1.c ****     
 599:Generated_Source\PSoC4/BLE_1.c ****     /* Store Stack data */
 600:Generated_Source\PSoC4/BLE_1.c ****     if((cyBle_pendingFlashWrite & CYBLE_PENDING_STACK_FLASH_WRITE_BIT) != 0u)
 524              		.loc 1 600 0
 525 0014 594B     		ldr	r3, .L27
 526 0016 1B78     		ldrb	r3, [r3]
 527 0018 1A00     		movs	r2, r3
 528 001a 0123     		movs	r3, #1
 529 001c 1340     		ands	r3, r2
 530 001e 1ED0     		beq	.L18
 601:Generated_Source\PSoC4/BLE_1.c ****     {
 602:Generated_Source\PSoC4/BLE_1.c ****         apiResult = CyBle_StoreStackData(isForceWrite);
 531              		.loc 1 602 0
 532 0020 2623     		movs	r3, #38
 533 0022 FC18     		adds	r4, r7, r3
 534 0024 FB1D     		adds	r3, r7, #7
ARM GAS  C:\Users\megan\AppData\Local\Temp\cc1Y1tYj.s 			page 21


 535 0026 1B78     		ldrb	r3, [r3]
 536 0028 1800     		movs	r0, r3
 537 002a FFF7FEFF 		bl	CyBle_StoreStackData
 538 002e 0300     		movs	r3, r0
 539 0030 2380     		strh	r3, [r4]
 603:Generated_Source\PSoC4/BLE_1.c ****         if(apiResult == CYBLE_ERROR_OK)
 540              		.loc 1 603 0
 541 0032 2623     		movs	r3, #38
 542 0034 FB18     		adds	r3, r7, r3
 543 0036 1B88     		ldrh	r3, [r3]
 544 0038 002B     		cmp	r3, #0
 545 003a 10D1     		bne	.L18
 604:Generated_Source\PSoC4/BLE_1.c ****         {
 605:Generated_Source\PSoC4/BLE_1.c ****             cyBle_pendingFlashWrite &= (uint8)~CYBLE_PENDING_STACK_FLASH_WRITE_BIT;
 546              		.loc 1 605 0
 547 003c 4F4B     		ldr	r3, .L27
 548 003e 1B78     		ldrb	r3, [r3]
 549 0040 0122     		movs	r2, #1
 550 0042 9343     		bics	r3, r2
 551 0044 DAB2     		uxtb	r2, r3
 552 0046 4D4B     		ldr	r3, .L27
 553 0048 1A70     		strb	r2, [r3]
 606:Generated_Source\PSoC4/BLE_1.c ****             /* Change apiResult if there are more pending data to store */
 607:Generated_Source\PSoC4/BLE_1.c ****             if((cyBle_pendingFlashWrite & CYBLE_PENDING_CCCD_FLASH_WRITE_BIT) != 0u)
 554              		.loc 1 607 0
 555 004a 4C4B     		ldr	r3, .L27
 556 004c 1B78     		ldrb	r3, [r3]
 557 004e 1A00     		movs	r2, r3
 558 0050 0223     		movs	r3, #2
 559 0052 1340     		ands	r3, r2
 560 0054 03D0     		beq	.L18
 608:Generated_Source\PSoC4/BLE_1.c ****             {
 609:Generated_Source\PSoC4/BLE_1.c ****                 apiResult = CYBLE_ERROR_FLASH_WRITE_NOT_PERMITED;
 561              		.loc 1 609 0
 562 0056 2623     		movs	r3, #38
 563 0058 FB18     		adds	r3, r7, r3
 564 005a 2822     		movs	r2, #40
 565 005c 1A80     		strh	r2, [r3]
 566              	.L18:
 610:Generated_Source\PSoC4/BLE_1.c ****             }
 611:Generated_Source\PSoC4/BLE_1.c ****         }
 612:Generated_Source\PSoC4/BLE_1.c ****     }
 613:Generated_Source\PSoC4/BLE_1.c **** #if(CYBLE_GATT_DB_CCCD_COUNT != 0u)
 614:Generated_Source\PSoC4/BLE_1.c ****     /* Store CCCD values */
 615:Generated_Source\PSoC4/BLE_1.c ****     if( ((apiResult == CYBLE_ERROR_OK) || (isForceWrite != 0u)) && 
 567              		.loc 1 615 0
 568 005e 2623     		movs	r3, #38
 569 0060 FB18     		adds	r3, r7, r3
 570 0062 1B88     		ldrh	r3, [r3]
 571 0064 002B     		cmp	r3, #0
 572 0066 03D0     		beq	.L19
 573              		.loc 1 615 0 is_stmt 0 discriminator 2
 574 0068 FB1D     		adds	r3, r7, #7
 575 006a 1B78     		ldrb	r3, [r3]
 576 006c 002B     		cmp	r3, #0
 577 006e 26D0     		beq	.L20
 578              	.L19:
ARM GAS  C:\Users\megan\AppData\Local\Temp\cc1Y1tYj.s 			page 22


 616:Generated_Source\PSoC4/BLE_1.c ****         ((cyBle_pendingFlashWrite & CYBLE_PENDING_CCCD_FLASH_WRITE_BIT) != 0u) &&
 579              		.loc 1 616 0 is_stmt 1 discriminator 3
 580 0070 424B     		ldr	r3, .L27
 581 0072 1B78     		ldrb	r3, [r3]
 582 0074 1A00     		movs	r2, r3
 583 0076 0223     		movs	r3, #2
 584 0078 1340     		ands	r3, r2
 615:Generated_Source\PSoC4/BLE_1.c ****         ((cyBle_pendingFlashWrite & CYBLE_PENDING_CCCD_FLASH_WRITE_BIT) != 0u) &&
 585              		.loc 1 615 0 discriminator 3
 586 007a 20D0     		beq	.L20
 617:Generated_Source\PSoC4/BLE_1.c ****         (cyBle_connHandle.bdHandle <= CYBLE_GAP_MAX_BONDED_DEVICE))
 587              		.loc 1 617 0
 588 007c 404B     		ldr	r3, .L27+4
 589 007e 1B78     		ldrb	r3, [r3]
 616:Generated_Source\PSoC4/BLE_1.c ****         ((cyBle_pendingFlashWrite & CYBLE_PENDING_CCCD_FLASH_WRITE_BIT) != 0u) &&
 590              		.loc 1 616 0
 591 0080 042B     		cmp	r3, #4
 592 0082 1CD8     		bhi	.L20
 618:Generated_Source\PSoC4/BLE_1.c ****     {
 619:Generated_Source\PSoC4/BLE_1.c ****         apiResult = CyBle_StoreAppData(cyBle_attValuesCCCD, cyBle_flashStorage.attValuesCCCDFlashMe
 620:Generated_Source\PSoC4/BLE_1.c ****                         cyBle_connHandle.bdHandle], CYBLE_GATT_DB_CCCD_COUNT, isForceWrite);
 593              		.loc 1 620 0
 594 0084 3E4B     		ldr	r3, .L27+4
 595 0086 1B78     		ldrb	r3, [r3]
 619:Generated_Source\PSoC4/BLE_1.c ****                         cyBle_connHandle.bdHandle], CYBLE_GATT_DB_CCCD_COUNT, isForceWrite);
 596              		.loc 1 619 0
 597 0088 9E33     		adds	r3, r3, #158
 598 008a 9A00     		lsls	r2, r3, #2
 599 008c 3D4B     		ldr	r3, .L27+8
 600 008e D318     		adds	r3, r2, r3
 601 0090 591C     		adds	r1, r3, #1
 602 0092 2623     		movs	r3, #38
 603 0094 FC18     		adds	r4, r7, r3
 604 0096 FB1D     		adds	r3, r7, #7
 605 0098 1B78     		ldrb	r3, [r3]
 606 009a 3B48     		ldr	r0, .L27+12
 607 009c 0422     		movs	r2, #4
 608 009e FFF7FEFF 		bl	CyBle_StoreAppData
 609 00a2 0300     		movs	r3, r0
 610 00a4 2380     		strh	r3, [r4]
 621:Generated_Source\PSoC4/BLE_1.c ****         if(apiResult == CYBLE_ERROR_OK)
 611              		.loc 1 621 0
 612 00a6 2623     		movs	r3, #38
 613 00a8 FB18     		adds	r3, r7, r3
 614 00aa 1B88     		ldrh	r3, [r3]
 615 00ac 002B     		cmp	r3, #0
 616 00ae 06D1     		bne	.L20
 622:Generated_Source\PSoC4/BLE_1.c ****         {
 623:Generated_Source\PSoC4/BLE_1.c ****             cyBle_pendingFlashWrite &= (uint8)~CYBLE_PENDING_CCCD_FLASH_WRITE_BIT;
 617              		.loc 1 623 0
 618 00b0 324B     		ldr	r3, .L27
 619 00b2 1B78     		ldrb	r3, [r3]
 620 00b4 0222     		movs	r2, #2
 621 00b6 9343     		bics	r3, r2
 622 00b8 DAB2     		uxtb	r2, r3
 623 00ba 304B     		ldr	r3, .L27
 624 00bc 1A70     		strb	r2, [r3]
ARM GAS  C:\Users\megan\AppData\Local\Temp\cc1Y1tYj.s 			page 23


 625              	.L20:
 624:Generated_Source\PSoC4/BLE_1.c ****         }
 625:Generated_Source\PSoC4/BLE_1.c ****     }
 626:Generated_Source\PSoC4/BLE_1.c ****     /* Clear requested CCCD values */
 627:Generated_Source\PSoC4/BLE_1.c ****     if( ((apiResult == CYBLE_ERROR_OK) || (isForceWrite != 0u)) && 
 626              		.loc 1 627 0
 627 00be 2623     		movs	r3, #38
 628 00c0 FB18     		adds	r3, r7, r3
 629 00c2 1B88     		ldrh	r3, [r3]
 630 00c4 002B     		cmp	r3, #0
 631 00c6 03D0     		beq	.L21
 632              		.loc 1 627 0 is_stmt 0 discriminator 2
 633 00c8 FB1D     		adds	r3, r7, #7
 634 00ca 1B78     		ldrb	r3, [r3]
 635 00cc 002B     		cmp	r3, #0
 636 00ce 4DD0     		beq	.L22
 637              	.L21:
 628:Generated_Source\PSoC4/BLE_1.c ****         ((cyBle_pendingFlashWrite & CYBLE_PENDING_CCCD_FLASH_CLEAR_MASK) != 0u) )
 638              		.loc 1 628 0 is_stmt 1 discriminator 3
 639 00d0 2A4B     		ldr	r3, .L27
 640 00d2 1B78     		ldrb	r3, [r3]
 641 00d4 1A00     		movs	r2, r3
 642 00d6 0C23     		movs	r3, #12
 643 00d8 1340     		ands	r3, r2
 627:Generated_Source\PSoC4/BLE_1.c ****         ((cyBle_pendingFlashWrite & CYBLE_PENDING_CCCD_FLASH_CLEAR_MASK) != 0u) )
 644              		.loc 1 627 0 discriminator 3
 645 00da 47D0     		beq	.L22
 629:Generated_Source\PSoC4/BLE_1.c ****     {
 630:Generated_Source\PSoC4/BLE_1.c ****         if((cyBle_pendingFlashWrite & CYBLE_PENDING_CCCD_FLASH_CLEAR_ALL_BIT) != 0u)
 646              		.loc 1 630 0
 647 00dc 274B     		ldr	r3, .L27
 648 00de 1B78     		ldrb	r3, [r3]
 649 00e0 1A00     		movs	r2, r3
 650 00e2 0823     		movs	r3, #8
 651 00e4 1340     		ands	r3, r2
 652 00e6 1FD0     		beq	.L23
 653              	.LBB3:
 631:Generated_Source\PSoC4/BLE_1.c ****         {
 632:Generated_Source\PSoC4/BLE_1.c ****             /* Remove cccd values for all bonded devices */
 633:Generated_Source\PSoC4/BLE_1.c ****             uint8 defaultValuesCCCD[CYBLE_GAP_MAX_BONDED_DEVICE + 1u][CYBLE_GATT_DB_CCCD_COUNT];
 634:Generated_Source\PSoC4/BLE_1.c ****             
 635:Generated_Source\PSoC4/BLE_1.c ****             (void)memset(defaultValuesCCCD, 0, sizeof(defaultValuesCCCD));
 654              		.loc 1 635 0
 655 00e8 1023     		movs	r3, #16
 656 00ea FB18     		adds	r3, r7, r3
 657 00ec 1422     		movs	r2, #20
 658 00ee 0021     		movs	r1, #0
 659 00f0 1800     		movs	r0, r3
 660 00f2 FFF7FEFF 		bl	memset
 636:Generated_Source\PSoC4/BLE_1.c **** 
 637:Generated_Source\PSoC4/BLE_1.c ****             apiResult = CyBle_StoreAppData((uint8 *)defaultValuesCCCD, 
 661              		.loc 1 637 0
 662 00f6 2623     		movs	r3, #38
 663 00f8 FC18     		adds	r4, r7, r3
 664 00fa FB1D     		adds	r3, r7, #7
 665 00fc 1B78     		ldrb	r3, [r3]
 666 00fe 2349     		ldr	r1, .L27+16
ARM GAS  C:\Users\megan\AppData\Local\Temp\cc1Y1tYj.s 			page 24


 667 0100 1022     		movs	r2, #16
 668 0102 B818     		adds	r0, r7, r2
 669 0104 1422     		movs	r2, #20
 670 0106 FFF7FEFF 		bl	CyBle_StoreAppData
 671 010a 0300     		movs	r3, r0
 672 010c 2380     		strh	r3, [r4]
 638:Generated_Source\PSoC4/BLE_1.c ****                 (const uint8 *)cyBle_flashStorage.attValuesCCCDFlashMemory, sizeof(defaultValuesCCC
 639:Generated_Source\PSoC4/BLE_1.c ****             if(apiResult == CYBLE_ERROR_OK)
 673              		.loc 1 639 0
 674 010e 2623     		movs	r3, #38
 675 0110 FB18     		adds	r3, r7, r3
 676 0112 1B88     		ldrh	r3, [r3]
 677 0114 002B     		cmp	r3, #0
 678 0116 29D1     		bne	.L22
 640:Generated_Source\PSoC4/BLE_1.c ****             {
 641:Generated_Source\PSoC4/BLE_1.c ****                 cyBle_pendingFlashWrite &= (uint8)~CYBLE_PENDING_CCCD_FLASH_CLEAR_ALL_BIT;
 679              		.loc 1 641 0
 680 0118 184B     		ldr	r3, .L27
 681 011a 1B78     		ldrb	r3, [r3]
 682 011c 0822     		movs	r2, #8
 683 011e 9343     		bics	r3, r2
 684 0120 DAB2     		uxtb	r2, r3
 685 0122 164B     		ldr	r3, .L27
 686 0124 1A70     		strb	r2, [r3]
 687 0126 21E0     		b	.L22
 688              	.L23:
 689              	.LBE3:
 690              	.LBB4:
 642:Generated_Source\PSoC4/BLE_1.c ****             }
 643:Generated_Source\PSoC4/BLE_1.c ****         }
 644:Generated_Source\PSoC4/BLE_1.c ****         else /* Remove cccd values for particular device */
 645:Generated_Source\PSoC4/BLE_1.c ****         {
 646:Generated_Source\PSoC4/BLE_1.c ****             uint8 defaultValuesCCCD[CYBLE_GATT_DB_CCCD_COUNT] = {0u};
 691              		.loc 1 646 0
 692 0128 0C23     		movs	r3, #12
 693 012a FB18     		adds	r3, r7, r3
 694 012c 0022     		movs	r2, #0
 695 012e 1A60     		str	r2, [r3]
 647:Generated_Source\PSoC4/BLE_1.c ****             
 648:Generated_Source\PSoC4/BLE_1.c ****             apiResult = CyBle_StoreAppData(defaultValuesCCCD, cyBle_flashStorage.attValuesCCCDFlash
 696              		.loc 1 648 0
 697 0130 174B     		ldr	r3, .L27+20
 698 0132 1B78     		ldrb	r3, [r3]
 699 0134 9E33     		adds	r3, r3, #158
 700 0136 9A00     		lsls	r2, r3, #2
 701 0138 124B     		ldr	r3, .L27+8
 702 013a D318     		adds	r3, r2, r3
 703 013c 591C     		adds	r1, r3, #1
 704 013e 2623     		movs	r3, #38
 705 0140 FC18     		adds	r4, r7, r3
 706 0142 FB1D     		adds	r3, r7, #7
 707 0144 1B78     		ldrb	r3, [r3]
 708 0146 0C22     		movs	r2, #12
 709 0148 B818     		adds	r0, r7, r2
 710 014a 0422     		movs	r2, #4
 711 014c FFF7FEFF 		bl	CyBle_StoreAppData
 712 0150 0300     		movs	r3, r0
ARM GAS  C:\Users\megan\AppData\Local\Temp\cc1Y1tYj.s 			page 25


 713 0152 2380     		strh	r3, [r4]
 649:Generated_Source\PSoC4/BLE_1.c ****                                     cyBle_pendingFlashClearCccdHandle], CYBLE_GATT_DB_CCCD_COUNT, i
 650:Generated_Source\PSoC4/BLE_1.c ****             if(apiResult == CYBLE_ERROR_OK)
 714              		.loc 1 650 0
 715 0154 2623     		movs	r3, #38
 716 0156 FB18     		adds	r3, r7, r3
 717 0158 1B88     		ldrh	r3, [r3]
 718 015a 002B     		cmp	r3, #0
 719 015c 06D1     		bne	.L22
 651:Generated_Source\PSoC4/BLE_1.c ****             {
 652:Generated_Source\PSoC4/BLE_1.c ****                 cyBle_pendingFlashWrite &= (uint8)~CYBLE_PENDING_CCCD_FLASH_CLEAR_BIT;
 720              		.loc 1 652 0
 721 015e 074B     		ldr	r3, .L27
 722 0160 1B78     		ldrb	r3, [r3]
 723 0162 0422     		movs	r2, #4
 724 0164 9343     		bics	r3, r2
 725 0166 DAB2     		uxtb	r2, r3
 726 0168 044B     		ldr	r3, .L27
 727 016a 1A70     		strb	r2, [r3]
 728              	.L22:
 729              	.LBE4:
 653:Generated_Source\PSoC4/BLE_1.c ****             }
 654:Generated_Source\PSoC4/BLE_1.c ****         }
 655:Generated_Source\PSoC4/BLE_1.c ****     }
 656:Generated_Source\PSoC4/BLE_1.c **** #endif /* CYBLE_GATT_DB_CCCD_COUNT != 0u */
 657:Generated_Source\PSoC4/BLE_1.c ****     return(apiResult);
 730              		.loc 1 657 0
 731 016c 2623     		movs	r3, #38
 732 016e FB18     		adds	r3, r7, r3
 733 0170 1B88     		ldrh	r3, [r3]
 658:Generated_Source\PSoC4/BLE_1.c **** }
 734              		.loc 1 658 0
 735 0172 1800     		movs	r0, r3
 736 0174 BD46     		mov	sp, r7
 737 0176 0BB0     		add	sp, sp, #44
 738              		@ sp needed
 739 0178 90BD     		pop	{r4, r7, pc}
 740              	.L28:
 741 017a C046     		.align	2
 742              	.L27:
 743 017c 00000000 		.word	cyBle_pendingFlashWrite
 744 0180 00000000 		.word	cyBle_connHandle
 745 0184 00000000 		.word	cyBle_flashStorage
 746 0188 00000000 		.word	cyBle_attValuesCCCD
 747 018c 79020000 		.word	cyBle_flashStorage+633
 748 0190 01000000 		.word	cyBle_pendingFlashClearCccdHandle
 749              		.cfi_endproc
 750              	.LFE6:
 751              		.size	CyBle_StoreBondingData, .-CyBle_StoreBondingData
 752              		.section	.text.CyBle_GapRemoveBondedDevice,"ax",%progbits
 753              		.align	2
 754              		.global	CyBle_GapRemoveBondedDevice
 755              		.code	16
 756              		.thumb_func
 757              		.type	CyBle_GapRemoveBondedDevice, %function
 758              	CyBle_GapRemoveBondedDevice:
 759              	.LFB7:
ARM GAS  C:\Users\megan\AppData\Local\Temp\cc1Y1tYj.s 			page 26


 659:Generated_Source\PSoC4/BLE_1.c **** 
 660:Generated_Source\PSoC4/BLE_1.c **** 
 661:Generated_Source\PSoC4/BLE_1.c **** /******************************************************************************
 662:Generated_Source\PSoC4/BLE_1.c **** * Function Name: CyBle_GapRemoveBondedDevice
 663:Generated_Source\PSoC4/BLE_1.c **** ***************************************************************************//**
 664:Generated_Source\PSoC4/BLE_1.c **** * 
 665:Generated_Source\PSoC4/BLE_1.c **** *  This function marks the device untrusted. It removes the bonding information
 666:Generated_Source\PSoC4/BLE_1.c **** *  of the device including CCCD values. This function removes device from the
 667:Generated_Source\PSoC4/BLE_1.c **** *  white list also when autopopulate white list with bonded devices option is
 668:Generated_Source\PSoC4/BLE_1.c **** *  enabled.
 669:Generated_Source\PSoC4/BLE_1.c **** * 
 670:Generated_Source\PSoC4/BLE_1.c **** *  This function is available only when Bonding requirement is selected in
 671:Generated_Source\PSoC4/BLE_1.c **** *  Security settings.    
 672:Generated_Source\PSoC4/BLE_1.c **** *
 673:Generated_Source\PSoC4/BLE_1.c **** *  \param bdAddr: Pointer to peer device address, of type CYBLE_GAP_BD_ADDR_T.
 674:Generated_Source\PSoC4/BLE_1.c **** *                 If device address is set to 0, then all devices shall be
 675:Generated_Source\PSoC4/BLE_1.c **** *                 removed from trusted list and white list.
 676:Generated_Source\PSoC4/BLE_1.c **** *
 677:Generated_Source\PSoC4/BLE_1.c **** * \return
 678:Generated_Source\PSoC4/BLE_1.c **** *  CYBLE_API_RESULT_T : Return value indicates if the function succeeded or
 679:Generated_Source\PSoC4/BLE_1.c **** *  failed. Following are the possible error codes.
 680:Generated_Source\PSoC4/BLE_1.c **** *
 681:Generated_Source\PSoC4/BLE_1.c **** *   Errors codes                     | Description
 682:Generated_Source\PSoC4/BLE_1.c **** *   ---------------------------------| ------------------------------------
 683:Generated_Source\PSoC4/BLE_1.c **** *   CYBLE_ERROR_OK                   | On successful operation.
 684:Generated_Source\PSoC4/BLE_1.c **** *   CYBLE_ERROR_INVALID_PARAMETER    | On specifying NULL as input parameter for 'bdAddr'.
 685:Generated_Source\PSoC4/BLE_1.c **** *   CYBLE_ERROR_INVALID_OPERATION    | Whitelist is already in use or there is pending write to fla
 686:Generated_Source\PSoC4/BLE_1.c **** *   CYBLE_ERROR_NO_DEVICE_ENTITY     | Device does not exist in the bond list.
 687:Generated_Source\PSoC4/BLE_1.c **** *
 688:Generated_Source\PSoC4/BLE_1.c **** *  \globalvars
 689:Generated_Source\PSoC4/BLE_1.c **** *   The bdHandle is set in cyBle_pendingFlashWrite variable to indicate that
 690:Generated_Source\PSoC4/BLE_1.c **** *   data should be stored to flash by CyBle_StoreBondingData afterwards. 
 691:Generated_Source\PSoC4/BLE_1.c **** *     
 692:Generated_Source\PSoC4/BLE_1.c **** ******************************************************************************/
 693:Generated_Source\PSoC4/BLE_1.c **** CYBLE_API_RESULT_T CyBle_GapRemoveBondedDevice(CYBLE_GAP_BD_ADDR_T* bdAddr)
 694:Generated_Source\PSoC4/BLE_1.c **** {
 760              		.loc 1 694 0
 761              		.cfi_startproc
 762              		@ args = 0, pretend = 0, frame = 24
 763              		@ frame_needed = 1, uses_anonymous_args = 0
 764 0000 90B5     		push	{r4, r7, lr}
 765              		.cfi_def_cfa_offset 12
 766              		.cfi_offset 4, -12
 767              		.cfi_offset 7, -8
 768              		.cfi_offset 14, -4
 769 0002 87B0     		sub	sp, sp, #28
 770              		.cfi_def_cfa_offset 40
 771 0004 00AF     		add	r7, sp, #0
 772              		.cfi_def_cfa_register 7
 773 0006 7860     		str	r0, [r7, #4]
 695:Generated_Source\PSoC4/BLE_1.c ****     CYBLE_API_RESULT_T apiResult = CYBLE_ERROR_OK;
 774              		.loc 1 695 0
 775 0008 1623     		movs	r3, #22
 776 000a FB18     		adds	r3, r7, r3
 777 000c 0022     		movs	r2, #0
 778 000e 1A80     		strh	r2, [r3]
 696:Generated_Source\PSoC4/BLE_1.c ****     
ARM GAS  C:\Users\megan\AppData\Local\Temp\cc1Y1tYj.s 			page 27


 697:Generated_Source\PSoC4/BLE_1.c ****     if(cyBle_pendingFlashWrite == 0u)
 779              		.loc 1 697 0
 780 0010 284B     		ldr	r3, .L36
 781 0012 1B78     		ldrb	r3, [r3]
 782 0014 002B     		cmp	r3, #0
 783 0016 42D1     		bne	.L30
 784              	.LBB5:
 698:Generated_Source\PSoC4/BLE_1.c ****     {
 699:Generated_Source\PSoC4/BLE_1.c ****         
 700:Generated_Source\PSoC4/BLE_1.c ****     #if(CYBLE_GATT_DB_CCCD_COUNT != 0u)
 701:Generated_Source\PSoC4/BLE_1.c ****         /* Request to clear CCCD values which will be done by CyBle_StoreBondingData API */
 702:Generated_Source\PSoC4/BLE_1.c ****         uint8 bDevHandle;
 703:Generated_Source\PSoC4/BLE_1.c ****         CYBLE_GAP_BD_ADDR_T invalidBdAddr = {{0u,0u,0u,0u,0u,0u}, 0u};
 785              		.loc 1 703 0
 786 0018 0C23     		movs	r3, #12
 787 001a FB18     		adds	r3, r7, r3
 788 001c 1800     		movs	r0, r3
 789 001e 0723     		movs	r3, #7
 790 0020 1A00     		movs	r2, r3
 791 0022 0021     		movs	r1, #0
 792 0024 FFF7FEFF 		bl	memset
 704:Generated_Source\PSoC4/BLE_1.c **** 
 705:Generated_Source\PSoC4/BLE_1.c ****         if(memcmp(((uint8 *) &(bdAddr->bdAddr)), ((uint8 *) &(invalidBdAddr.bdAddr)), CYBLE_GAP_BD_
 793              		.loc 1 705 0
 794 0028 7B68     		ldr	r3, [r7, #4]
 795 002a 0C22     		movs	r2, #12
 796 002c B918     		adds	r1, r7, r2
 797 002e 0622     		movs	r2, #6
 798 0030 1800     		movs	r0, r3
 799 0032 FFF7FEFF 		bl	memcmp
 800 0036 031E     		subs	r3, r0, #0
 801 0038 07D1     		bne	.L31
 706:Generated_Source\PSoC4/BLE_1.c **** 	    {
 707:Generated_Source\PSoC4/BLE_1.c ****             /* Request to remove all bonded devices by cyBle_StoreBondingData API */
 708:Generated_Source\PSoC4/BLE_1.c ****             cyBle_pendingFlashWrite |= CYBLE_PENDING_CCCD_FLASH_CLEAR_ALL_BIT;
 802              		.loc 1 708 0
 803 003a 1E4B     		ldr	r3, .L36
 804 003c 1B78     		ldrb	r3, [r3]
 805 003e 0822     		movs	r2, #8
 806 0040 1343     		orrs	r3, r2
 807 0042 DAB2     		uxtb	r2, r3
 808 0044 1B4B     		ldr	r3, .L36
 809 0046 1A70     		strb	r2, [r3]
 810 0048 1BE0     		b	.L32
 811              	.L31:
 709:Generated_Source\PSoC4/BLE_1.c ****         }
 710:Generated_Source\PSoC4/BLE_1.c ****         else
 711:Generated_Source\PSoC4/BLE_1.c ****         {
 712:Generated_Source\PSoC4/BLE_1.c ****             /* Get the BD handle from Address */
 713:Generated_Source\PSoC4/BLE_1.c ****             apiResult = CyBle_GapGetPeerBdHandle(&bDevHandle, bdAddr);
 812              		.loc 1 713 0
 813 004a 1623     		movs	r3, #22
 814 004c FC18     		adds	r4, r7, r3
 815 004e 7A68     		ldr	r2, [r7, #4]
 816 0050 1523     		movs	r3, #21
 817 0052 FB18     		adds	r3, r7, r3
 818 0054 1100     		movs	r1, r2
ARM GAS  C:\Users\megan\AppData\Local\Temp\cc1Y1tYj.s 			page 28


 819 0056 1800     		movs	r0, r3
 820 0058 FFF7FEFF 		bl	CyBle_GapGetPeerBdHandle
 821 005c 0300     		movs	r3, r0
 822 005e 2380     		strh	r3, [r4]
 714:Generated_Source\PSoC4/BLE_1.c ****             if(apiResult == CYBLE_ERROR_OK)
 823              		.loc 1 714 0
 824 0060 1623     		movs	r3, #22
 825 0062 FB18     		adds	r3, r7, r3
 826 0064 1B88     		ldrh	r3, [r3]
 827 0066 002B     		cmp	r3, #0
 828 0068 0BD1     		bne	.L32
 715:Generated_Source\PSoC4/BLE_1.c ****             {
 716:Generated_Source\PSoC4/BLE_1.c ****                 /* Store BD handle to clear cccd values by CyBle_StoreBondingData API */
 717:Generated_Source\PSoC4/BLE_1.c ****                 cyBle_pendingFlashWrite |= CYBLE_PENDING_CCCD_FLASH_CLEAR_BIT;
 829              		.loc 1 717 0
 830 006a 124B     		ldr	r3, .L36
 831 006c 1B78     		ldrb	r3, [r3]
 832 006e 0422     		movs	r2, #4
 833 0070 1343     		orrs	r3, r2
 834 0072 DAB2     		uxtb	r2, r3
 835 0074 0F4B     		ldr	r3, .L36
 836 0076 1A70     		strb	r2, [r3]
 718:Generated_Source\PSoC4/BLE_1.c ****                 cyBle_pendingFlashClearCccdHandle = bDevHandle;
 837              		.loc 1 718 0
 838 0078 1523     		movs	r3, #21
 839 007a FB18     		adds	r3, r7, r3
 840 007c 1A78     		ldrb	r2, [r3]
 841 007e 0E4B     		ldr	r3, .L36+4
 842 0080 1A70     		strb	r2, [r3]
 843              	.L32:
 719:Generated_Source\PSoC4/BLE_1.c ****             }
 720:Generated_Source\PSoC4/BLE_1.c ****         }
 721:Generated_Source\PSoC4/BLE_1.c ****     #endif /* CYBLE_GATT_DB_CCCD_COUNT != 0u */
 722:Generated_Source\PSoC4/BLE_1.c ****         if(apiResult == CYBLE_ERROR_OK)
 844              		.loc 1 722 0
 845 0082 1623     		movs	r3, #22
 846 0084 FB18     		adds	r3, r7, r3
 847 0086 1B88     		ldrh	r3, [r3]
 848 0088 002B     		cmp	r3, #0
 849 008a 0CD1     		bne	.L34
 723:Generated_Source\PSoC4/BLE_1.c ****         {
 724:Generated_Source\PSoC4/BLE_1.c ****             apiResult = CyBle_GapRemoveDeviceFromWhiteList(bdAddr);
 850              		.loc 1 724 0
 851 008c 1623     		movs	r3, #22
 852 008e FC18     		adds	r4, r7, r3
 853 0090 7B68     		ldr	r3, [r7, #4]
 854 0092 1800     		movs	r0, r3
 855 0094 FFF7FEFF 		bl	CyBle_GapRemoveDeviceFromWhiteList
 856 0098 0300     		movs	r3, r0
 857 009a 2380     		strh	r3, [r4]
 858 009c 03E0     		b	.L34
 859              	.L30:
 860              	.LBE5:
 725:Generated_Source\PSoC4/BLE_1.c ****         }
 726:Generated_Source\PSoC4/BLE_1.c ****     }
 727:Generated_Source\PSoC4/BLE_1.c ****     else
 728:Generated_Source\PSoC4/BLE_1.c ****     {
ARM GAS  C:\Users\megan\AppData\Local\Temp\cc1Y1tYj.s 			page 29


 729:Generated_Source\PSoC4/BLE_1.c ****         apiResult = CYBLE_ERROR_INVALID_OPERATION;
 861              		.loc 1 729 0
 862 009e 1623     		movs	r3, #22
 863 00a0 FB18     		adds	r3, r7, r3
 864 00a2 0222     		movs	r2, #2
 865 00a4 1A80     		strh	r2, [r3]
 866              	.L34:
 730:Generated_Source\PSoC4/BLE_1.c ****     }
 731:Generated_Source\PSoC4/BLE_1.c ****     
 732:Generated_Source\PSoC4/BLE_1.c ****     return(apiResult);
 867              		.loc 1 732 0
 868 00a6 1623     		movs	r3, #22
 869 00a8 FB18     		adds	r3, r7, r3
 870 00aa 1B88     		ldrh	r3, [r3]
 733:Generated_Source\PSoC4/BLE_1.c **** }
 871              		.loc 1 733 0
 872 00ac 1800     		movs	r0, r3
 873 00ae BD46     		mov	sp, r7
 874 00b0 07B0     		add	sp, sp, #28
 875              		@ sp needed
 876 00b2 90BD     		pop	{r4, r7, pc}
 877              	.L37:
 878              		.align	2
 879              	.L36:
 880 00b4 00000000 		.word	cyBle_pendingFlashWrite
 881 00b8 01000000 		.word	cyBle_pendingFlashClearCccdHandle
 882              		.cfi_endproc
 883              	.LFE7:
 884              		.size	CyBle_GapRemoveBondedDevice, .-CyBle_GapRemoveBondedDevice
 885              		.section	.text.CyBle_GappStartAdvertisement,"ax",%progbits
 886              		.align	2
 887              		.global	CyBle_GappStartAdvertisement
 888              		.code	16
 889              		.thumb_func
 890              		.type	CyBle_GappStartAdvertisement, %function
 891              	CyBle_GappStartAdvertisement:
 892              	.LFB8:
 734:Generated_Source\PSoC4/BLE_1.c **** 
 735:Generated_Source\PSoC4/BLE_1.c **** 
 736:Generated_Source\PSoC4/BLE_1.c **** #endif /* (CYBLE_GAP_ROLE_PERIPHERAL || CYBLE_GAP_ROLE_CENTRAL) && (CYBLE_BONDING_REQUIREMENT == CY
 737:Generated_Source\PSoC4/BLE_1.c **** 
 738:Generated_Source\PSoC4/BLE_1.c **** 
 739:Generated_Source\PSoC4/BLE_1.c **** #if(CYBLE_GAP_ROLE_PERIPHERAL || CYBLE_GAP_ROLE_BROADCASTER)
 740:Generated_Source\PSoC4/BLE_1.c **** 
 741:Generated_Source\PSoC4/BLE_1.c ****     /******************************************************************************
 742:Generated_Source\PSoC4/BLE_1.c ****     *  Function Name: CyBle_GappStartAdvertisement
 743:Generated_Source\PSoC4/BLE_1.c ****     ***************************************************************************//**
 744:Generated_Source\PSoC4/BLE_1.c ****     *     
 745:Generated_Source\PSoC4/BLE_1.c ****     *  This function is used to start the advertisement using the advertisement data 
 746:Generated_Source\PSoC4/BLE_1.c ****     *  set in the component customizer's GUI. After invoking this API, the device 
 747:Generated_Source\PSoC4/BLE_1.c ****     *  will be available for connection by the devices configured for GAP central 
 748:Generated_Source\PSoC4/BLE_1.c ****     *  role. It is only included if the device is configured for GAP Peripheral or 
 749:Generated_Source\PSoC4/BLE_1.c ****     *  GAP Peripheral + Central role.
 750:Generated_Source\PSoC4/BLE_1.c ****     *  
 751:Generated_Source\PSoC4/BLE_1.c ****     *  On start of advertisement, GAP Peripheral receives the
 752:Generated_Source\PSoC4/BLE_1.c ****     *  CYBLE_EVT_GAPP_ADVERTISEMENT_START_STOP event. The following events are 
 753:Generated_Source\PSoC4/BLE_1.c ****     *  possible on invoking this function:
ARM GAS  C:\Users\megan\AppData\Local\Temp\cc1Y1tYj.s 			page 30


 754:Generated_Source\PSoC4/BLE_1.c ****     *  
 755:Generated_Source\PSoC4/BLE_1.c ****     *  * CYBLE_EVT_GAP_DEVICE_CONNECTED - If the device connects to a GAP Central and 
 756:Generated_Source\PSoC4/BLE_1.c ****     *    Link Layer Privacy is disabled in component customizer.
 757:Generated_Source\PSoC4/BLE_1.c ****     *  * CYBLE_EVT_GAP_ENHANCE_CONN_COMPLETE - If the device connects to a GAP Central and 
 758:Generated_Source\PSoC4/BLE_1.c ****     *    Link Layer Privacy is enabled in component customizer.
 759:Generated_Source\PSoC4/BLE_1.c ****     *  * CYBLE_EVT_TIMEOUT: If no device in GAP Central mode connects to this 
 760:Generated_Source\PSoC4/BLE_1.c ****     *                       device within the specified timeout limit. Stack 
 761:Generated_Source\PSoC4/BLE_1.c ****     *                       automatically initiate stop advertising when Slow 
 762:Generated_Source\PSoC4/BLE_1.c ****     *                       advertising was initiated, or starts Slow advertising
 763:Generated_Source\PSoC4/BLE_1.c ****     *                       after Fast advertising timeout occur.
 764:Generated_Source\PSoC4/BLE_1.c ****     *  * CYBLE_EVT_GAPP_ADVERTISEMENT_START_STOP: If device started or stopped
 765:Generated_Source\PSoC4/BLE_1.c ****     *                                               advertising. Use CyBle_GetState()
 766:Generated_Source\PSoC4/BLE_1.c ****     *                                               to determine the state. Sequential 
 767:Generated_Source\PSoC4/BLE_1.c ****     *                                               advertising could be started when
 768:Generated_Source\PSoC4/BLE_1.c ****     *                                               CYBLE_STATE_DISCONNECTED state is
 769:Generated_Source\PSoC4/BLE_1.c ****     *                                               returned.
 770:Generated_Source\PSoC4/BLE_1.c ****     * 
 771:Generated_Source\PSoC4/BLE_1.c ****     *  \param advertisingIntervalType: Fast or slow advertising interval with timings
 772:Generated_Source\PSoC4/BLE_1.c ****     *                                 entered in Advertising settings section of the
 773:Generated_Source\PSoC4/BLE_1.c ****     *                                 customizer.
 774:Generated_Source\PSoC4/BLE_1.c ****     *  * CYBLE_ADVERTISING_FAST   0x00u
 775:Generated_Source\PSoC4/BLE_1.c ****     *  * CYBLE_ADVERTISING_SLOW   0x01u
 776:Generated_Source\PSoC4/BLE_1.c ****     *  * CYBLE_ADVERTISING_CUSTOM 0x02u
 777:Generated_Source\PSoC4/BLE_1.c ****     * 
 778:Generated_Source\PSoC4/BLE_1.c ****     * \return
 779:Generated_Source\PSoC4/BLE_1.c ****     *  CYBLE_API_RESULT_T : Return value indicates if the function succeeded or
 780:Generated_Source\PSoC4/BLE_1.c ****     *  failed. Following are the possible error codes.
 781:Generated_Source\PSoC4/BLE_1.c ****     * 
 782:Generated_Source\PSoC4/BLE_1.c ****     *   Errors codes                      |  Description
 783:Generated_Source\PSoC4/BLE_1.c ****     *   --------------------------------- |  --------------------------------
 784:Generated_Source\PSoC4/BLE_1.c ****     *   CYBLE_ERROR_OK                    |  On successful operation.
 785:Generated_Source\PSoC4/BLE_1.c ****     *   CYBLE_ERROR_INVALID_PARAMETER     |  On passing an invalid parameter.
 786:Generated_Source\PSoC4/BLE_1.c ****     *   CYBLE_ERROR_INVALID_STATE         |  On calling this API not in Disconnected state.
 787:Generated_Source\PSoC4/BLE_1.c ****     *
 788:Generated_Source\PSoC4/BLE_1.c ****     * 
 789:Generated_Source\PSoC4/BLE_1.c ****     *******************************************************************************/
 790:Generated_Source\PSoC4/BLE_1.c ****     CYBLE_API_RESULT_T CyBle_GappStartAdvertisement(uint8 advertisingIntervalType)
 791:Generated_Source\PSoC4/BLE_1.c ****     {
 893              		.loc 1 791 0
 894              		.cfi_startproc
 895              		@ args = 0, pretend = 0, frame = 16
 896              		@ frame_needed = 1, uses_anonymous_args = 0
 897 0000 90B5     		push	{r4, r7, lr}
 898              		.cfi_def_cfa_offset 12
 899              		.cfi_offset 4, -12
 900              		.cfi_offset 7, -8
 901              		.cfi_offset 14, -4
 902 0002 85B0     		sub	sp, sp, #20
 903              		.cfi_def_cfa_offset 32
 904 0004 00AF     		add	r7, sp, #0
 905              		.cfi_def_cfa_register 7
 906 0006 0200     		movs	r2, r0
 907 0008 FB1D     		adds	r3, r7, #7
 908 000a 1A70     		strb	r2, [r3]
 792:Generated_Source\PSoC4/BLE_1.c ****         CYBLE_API_RESULT_T apiResult;
 793:Generated_Source\PSoC4/BLE_1.c ****         
 794:Generated_Source\PSoC4/BLE_1.c ****         if(advertisingIntervalType > CYBLE_ADVERTISING_CUSTOM)
ARM GAS  C:\Users\megan\AppData\Local\Temp\cc1Y1tYj.s 			page 31


 909              		.loc 1 794 0
 910 000c FB1D     		adds	r3, r7, #7
 911 000e 1B78     		ldrb	r3, [r3]
 912 0010 022B     		cmp	r3, #2
 913 0012 04D9     		bls	.L39
 795:Generated_Source\PSoC4/BLE_1.c ****         {
 796:Generated_Source\PSoC4/BLE_1.c ****             apiResult = CYBLE_ERROR_INVALID_PARAMETER;
 914              		.loc 1 796 0
 915 0014 0E23     		movs	r3, #14
 916 0016 FB18     		adds	r3, r7, r3
 917 0018 0122     		movs	r2, #1
 918 001a 1A80     		strh	r2, [r3]
 919 001c 4AE0     		b	.L40
 920              	.L39:
 797:Generated_Source\PSoC4/BLE_1.c ****         }
 798:Generated_Source\PSoC4/BLE_1.c ****         else if((CYBLE_STATE_DISCONNECTED == CyBle_GetState()) && ((cyBle_eventHandlerFlag & CYBLE_
 921              		.loc 1 798 0
 922 001e 294B     		ldr	r3, .L46
 923 0020 1B78     		ldrb	r3, [r3]
 924 0022 042B     		cmp	r3, #4
 925 0024 41D1     		bne	.L41
 926              		.loc 1 798 0 is_stmt 0 discriminator 1
 927 0026 284B     		ldr	r3, .L46+4
 928 0028 1B78     		ldrb	r3, [r3]
 929 002a DBB2     		uxtb	r3, r3
 930 002c 1A00     		movs	r2, r3
 931 002e 0423     		movs	r3, #4
 932 0030 1340     		ands	r3, r2
 933 0032 3AD1     		bne	.L41
 799:Generated_Source\PSoC4/BLE_1.c ****         {   
 800:Generated_Source\PSoC4/BLE_1.c ****             if(advertisingIntervalType == CYBLE_ADVERTISING_FAST)
 934              		.loc 1 800 0 is_stmt 1
 935 0034 FB1D     		adds	r3, r7, #7
 936 0036 1B78     		ldrb	r3, [r3]
 937 0038 002B     		cmp	r3, #0
 938 003a 0BD1     		bne	.L42
 801:Generated_Source\PSoC4/BLE_1.c ****             {
 802:Generated_Source\PSoC4/BLE_1.c ****                 cyBle_discoveryModeInfo.advTo = CYBLE_FAST_ADV_TIMEOUT;
 939              		.loc 1 802 0
 940 003c 234B     		ldr	r3, .L46+8
 941 003e 1E22     		movs	r2, #30
 942 0040 1A82     		strh	r2, [r3, #16]
 803:Generated_Source\PSoC4/BLE_1.c ****                 cyBle_discoveryModeInfo.advParam->advIntvMin = CYBLE_FAST_ADV_INT_MIN;
 943              		.loc 1 803 0
 944 0042 224B     		ldr	r3, .L46+8
 945 0044 5B68     		ldr	r3, [r3, #4]
 946 0046 2022     		movs	r2, #32
 947 0048 1A80     		strh	r2, [r3]
 804:Generated_Source\PSoC4/BLE_1.c ****                 cyBle_discoveryModeInfo.advParam->advIntvMax = CYBLE_FAST_ADV_INT_MAX;
 948              		.loc 1 804 0
 949 004a 204B     		ldr	r3, .L46+8
 950 004c 5B68     		ldr	r3, [r3, #4]
 951 004e 3022     		movs	r2, #48
 952 0050 5A80     		strh	r2, [r3, #2]
 953 0052 10E0     		b	.L43
 954              	.L42:
 805:Generated_Source\PSoC4/BLE_1.c ****             }
ARM GAS  C:\Users\megan\AppData\Local\Temp\cc1Y1tYj.s 			page 32


 806:Generated_Source\PSoC4/BLE_1.c ****             else if(advertisingIntervalType == CYBLE_ADVERTISING_SLOW)
 955              		.loc 1 806 0
 956 0054 FB1D     		adds	r3, r7, #7
 957 0056 1B78     		ldrb	r3, [r3]
 958 0058 012B     		cmp	r3, #1
 959 005a 0CD1     		bne	.L43
 807:Generated_Source\PSoC4/BLE_1.c ****             {
 808:Generated_Source\PSoC4/BLE_1.c ****                 cyBle_discoveryModeInfo.advTo = CYBLE_SLOW_ADV_TIMEOUT;
 960              		.loc 1 808 0
 961 005c 1B4B     		ldr	r3, .L46+8
 962 005e 9622     		movs	r2, #150
 963 0060 1A82     		strh	r2, [r3, #16]
 809:Generated_Source\PSoC4/BLE_1.c ****                 cyBle_discoveryModeInfo.advParam->advIntvMin = CYBLE_SLOW_ADV_INT_MIN;
 964              		.loc 1 809 0
 965 0062 1A4B     		ldr	r3, .L46+8
 966 0064 5B68     		ldr	r3, [r3, #4]
 967 0066 C822     		movs	r2, #200
 968 0068 D200     		lsls	r2, r2, #3
 969 006a 1A80     		strh	r2, [r3]
 810:Generated_Source\PSoC4/BLE_1.c ****                 cyBle_discoveryModeInfo.advParam->advIntvMax = CYBLE_SLOW_ADV_INT_MAX;
 970              		.loc 1 810 0
 971 006c 174B     		ldr	r3, .L46+8
 972 006e 5B68     		ldr	r3, [r3, #4]
 973 0070 8022     		movs	r2, #128
 974 0072 D201     		lsls	r2, r2, #7
 975 0074 5A80     		strh	r2, [r3, #2]
 976              	.L43:
 811:Generated_Source\PSoC4/BLE_1.c ****             }       
 812:Generated_Source\PSoC4/BLE_1.c ****             else /* Do not update advertising intervals */
 813:Generated_Source\PSoC4/BLE_1.c ****             {
 814:Generated_Source\PSoC4/BLE_1.c ****             }
 815:Generated_Source\PSoC4/BLE_1.c ****             cyBle_advertisingIntervalType = advertisingIntervalType;
 977              		.loc 1 815 0
 978 0076 164B     		ldr	r3, .L46+12
 979 0078 FA1D     		adds	r2, r7, #7
 980 007a 1278     		ldrb	r2, [r2]
 981 007c 1A70     		strb	r2, [r3]
 816:Generated_Source\PSoC4/BLE_1.c ****             apiResult = CyBle_GappEnterDiscoveryMode(&cyBle_discoveryModeInfo);
 982              		.loc 1 816 0
 983 007e 0E23     		movs	r3, #14
 984 0080 FC18     		adds	r4, r7, r3
 985 0082 124B     		ldr	r3, .L46+8
 986 0084 1800     		movs	r0, r3
 987 0086 FFF7FEFF 		bl	CyBle_GappEnterDiscoveryMode
 988 008a 0300     		movs	r3, r0
 989 008c 2380     		strh	r3, [r4]
 817:Generated_Source\PSoC4/BLE_1.c ****         
 818:Generated_Source\PSoC4/BLE_1.c ****             if(apiResult == CYBLE_ERROR_OK)
 990              		.loc 1 818 0
 991 008e 0E23     		movs	r3, #14
 992 0090 FB18     		adds	r3, r7, r3
 993 0092 1B88     		ldrh	r3, [r3]
 994 0094 002B     		cmp	r3, #0
 995 0096 0DD1     		bne	.L40
 819:Generated_Source\PSoC4/BLE_1.c ****             {
 820:Generated_Source\PSoC4/BLE_1.c ****                 cyBle_eventHandlerFlag |= CYBLE_START_FLAG;
 996              		.loc 1 820 0
ARM GAS  C:\Users\megan\AppData\Local\Temp\cc1Y1tYj.s 			page 33


 997 0098 0B4B     		ldr	r3, .L46+4
 998 009a 1B78     		ldrb	r3, [r3]
 999 009c DBB2     		uxtb	r3, r3
 1000 009e 0422     		movs	r2, #4
 1001 00a0 1343     		orrs	r3, r2
 1002 00a2 DAB2     		uxtb	r2, r3
 1003 00a4 084B     		ldr	r3, .L46+4
 1004 00a6 1A70     		strb	r2, [r3]
 818:Generated_Source\PSoC4/BLE_1.c ****             {
 1005              		.loc 1 818 0
 1006 00a8 04E0     		b	.L40
 1007              	.L41:
 821:Generated_Source\PSoC4/BLE_1.c ****             }
 822:Generated_Source\PSoC4/BLE_1.c ****         }
 823:Generated_Source\PSoC4/BLE_1.c ****         else
 824:Generated_Source\PSoC4/BLE_1.c ****         {
 825:Generated_Source\PSoC4/BLE_1.c ****             apiResult = CYBLE_ERROR_INVALID_STATE;
 1008              		.loc 1 825 0
 1009 00aa 0E23     		movs	r3, #14
 1010 00ac FB18     		adds	r3, r7, r3
 1011 00ae 0422     		movs	r2, #4
 1012 00b0 FF32     		adds	r2, r2, #255
 1013 00b2 1A80     		strh	r2, [r3]
 1014              	.L40:
 826:Generated_Source\PSoC4/BLE_1.c ****         }
 827:Generated_Source\PSoC4/BLE_1.c **** 
 828:Generated_Source\PSoC4/BLE_1.c ****         return (apiResult);
 1015              		.loc 1 828 0
 1016 00b4 0E23     		movs	r3, #14
 1017 00b6 FB18     		adds	r3, r7, r3
 1018 00b8 1B88     		ldrh	r3, [r3]
 829:Generated_Source\PSoC4/BLE_1.c ****     }
 1019              		.loc 1 829 0
 1020 00ba 1800     		movs	r0, r3
 1021 00bc BD46     		mov	sp, r7
 1022 00be 05B0     		add	sp, sp, #20
 1023              		@ sp needed
 1024 00c0 90BD     		pop	{r4, r7, pc}
 1025              	.L47:
 1026 00c2 C046     		.align	2
 1027              	.L46:
 1028 00c4 00000000 		.word	cyBle_state
 1029 00c8 00000000 		.word	cyBle_eventHandlerFlag
 1030 00cc 00000000 		.word	cyBle_discoveryModeInfo
 1031 00d0 00000000 		.word	cyBle_advertisingIntervalType
 1032              		.cfi_endproc
 1033              	.LFE8:
 1034              		.size	CyBle_GappStartAdvertisement, .-CyBle_GappStartAdvertisement
 1035              		.section	.text.CyBle_GappStopAdvertisement,"ax",%progbits
 1036              		.align	2
 1037              		.global	CyBle_GappStopAdvertisement
 1038              		.code	16
 1039              		.thumb_func
 1040              		.type	CyBle_GappStopAdvertisement, %function
 1041              	CyBle_GappStopAdvertisement:
 1042              	.LFB9:
 830:Generated_Source\PSoC4/BLE_1.c **** 
ARM GAS  C:\Users\megan\AppData\Local\Temp\cc1Y1tYj.s 			page 34


 831:Generated_Source\PSoC4/BLE_1.c ****     
 832:Generated_Source\PSoC4/BLE_1.c ****     /******************************************************************************
 833:Generated_Source\PSoC4/BLE_1.c ****     * Function Name: CyBle_GappStopAdvertisement
 834:Generated_Source\PSoC4/BLE_1.c ****     ***************************************************************************//**
 835:Generated_Source\PSoC4/BLE_1.c ****     * 
 836:Generated_Source\PSoC4/BLE_1.c ****     *   This function can be used to exit from discovery mode. After the execution 
 837:Generated_Source\PSoC4/BLE_1.c ****     *   of this function, there will no longer be any advertisements. On stopping 
 838:Generated_Source\PSoC4/BLE_1.c ****     *   advertising, GAP Peripheral receives CYBLE_EVT_GAPP_ADVERTISEMENT_START_STOP
 839:Generated_Source\PSoC4/BLE_1.c ****     *   event. It is expected that the application layer tracks the function call 
 840:Generated_Source\PSoC4/BLE_1.c ****     *   performed before occurrence of this event as this event can occur on making 
 841:Generated_Source\PSoC4/BLE_1.c ****     *   a call to Cy_BleGappStartAdvertisement(), CyBle_GappEnterDiscoveryMode(), 
 842:Generated_Source\PSoC4/BLE_1.c ****     *   or CyBle_GappStartAdvertisement() functions as well.
 843:Generated_Source\PSoC4/BLE_1.c ****     *   
 844:Generated_Source\PSoC4/BLE_1.c ****     *   The following event occurs on invoking this function:
 845:Generated_Source\PSoC4/BLE_1.c ****     *   * CYBLE_EVT_GAPP_ADVERTISEMENT_START_STOP
 846:Generated_Source\PSoC4/BLE_1.c ****     * 
 847:Generated_Source\PSoC4/BLE_1.c ****     *  \return
 848:Generated_Source\PSoC4/BLE_1.c ****     *   None
 849:Generated_Source\PSoC4/BLE_1.c ****     * 
 850:Generated_Source\PSoC4/BLE_1.c ****     *******************************************************************************/
 851:Generated_Source\PSoC4/BLE_1.c ****     void CyBle_GappStopAdvertisement(void)
 852:Generated_Source\PSoC4/BLE_1.c ****     {
 1043              		.loc 1 852 0
 1044              		.cfi_startproc
 1045              		@ args = 0, pretend = 0, frame = 0
 1046              		@ frame_needed = 1, uses_anonymous_args = 0
 1047 0000 80B5     		push	{r7, lr}
 1048              		.cfi_def_cfa_offset 8
 1049              		.cfi_offset 7, -8
 1050              		.cfi_offset 14, -4
 1051 0002 00AF     		add	r7, sp, #0
 1052              		.cfi_def_cfa_register 7
 853:Generated_Source\PSoC4/BLE_1.c ****         CyBle_GappExitDiscoveryMode();
 1053              		.loc 1 853 0
 1054 0004 FFF7FEFF 		bl	CyBle_GappExitDiscoveryMode
 854:Generated_Source\PSoC4/BLE_1.c ****         cyBle_eventHandlerFlag |= CYBLE_STOP_FLAG;
 1055              		.loc 1 854 0
 1056 0008 054B     		ldr	r3, .L49
 1057 000a 1B78     		ldrb	r3, [r3]
 1058 000c DBB2     		uxtb	r3, r3
 1059 000e 0822     		movs	r2, #8
 1060 0010 1343     		orrs	r3, r2
 1061 0012 DAB2     		uxtb	r2, r3
 1062 0014 024B     		ldr	r3, .L49
 1063 0016 1A70     		strb	r2, [r3]
 855:Generated_Source\PSoC4/BLE_1.c ****     }
 1064              		.loc 1 855 0
 1065 0018 C046     		nop
 1066 001a BD46     		mov	sp, r7
 1067              		@ sp needed
 1068 001c 80BD     		pop	{r7, pc}
 1069              	.L50:
 1070 001e C046     		.align	2
 1071              	.L49:
 1072 0020 00000000 		.word	cyBle_eventHandlerFlag
 1073              		.cfi_endproc
 1074              	.LFE9:
ARM GAS  C:\Users\megan\AppData\Local\Temp\cc1Y1tYj.s 			page 35


 1075              		.size	CyBle_GappStopAdvertisement, .-CyBle_GappStopAdvertisement
 1076              		.section	.text.CyBle_ChangeAdDeviceAddress,"ax",%progbits
 1077              		.align	2
 1078              		.global	CyBle_ChangeAdDeviceAddress
 1079              		.code	16
 1080              		.thumb_func
 1081              		.type	CyBle_ChangeAdDeviceAddress, %function
 1082              	CyBle_ChangeAdDeviceAddress:
 1083              	.LFB10:
 856:Generated_Source\PSoC4/BLE_1.c ****     
 857:Generated_Source\PSoC4/BLE_1.c ****     
 858:Generated_Source\PSoC4/BLE_1.c ****     /******************************************************************************
 859:Generated_Source\PSoC4/BLE_1.c ****     * Function Name: CyBle_ChangeAdDeviceAddress
 860:Generated_Source\PSoC4/BLE_1.c ****     ***************************************************************************//**
 861:Generated_Source\PSoC4/BLE_1.c ****     * 
 862:Generated_Source\PSoC4/BLE_1.c ****     *  This API is used to set the Bluetooth device address into the advertisement 
 863:Generated_Source\PSoC4/BLE_1.c ****     *  or scan response data structure.
 864:Generated_Source\PSoC4/BLE_1.c ****     * 
 865:Generated_Source\PSoC4/BLE_1.c ****     *  \param bdAddr: Bluetooth Device address. The variable is of type CYBLE_GAP_BD_ADDR_T
 866:Generated_Source\PSoC4/BLE_1.c ****     *  \param dest: 0 - selects advertisement structure, not zero value selects scan 
 867:Generated_Source\PSoC4/BLE_1.c ****     *               response structure.
 868:Generated_Source\PSoC4/BLE_1.c ****     * 
 869:Generated_Source\PSoC4/BLE_1.c ****     * \return
 870:Generated_Source\PSoC4/BLE_1.c ****     *  None
 871:Generated_Source\PSoC4/BLE_1.c ****     *  
 872:Generated_Source\PSoC4/BLE_1.c ****     *******************************************************************************/
 873:Generated_Source\PSoC4/BLE_1.c ****     void CyBle_ChangeAdDeviceAddress(const CYBLE_GAP_BD_ADDR_T* bdAddr, uint8 dest)
 874:Generated_Source\PSoC4/BLE_1.c ****     {
 1084              		.loc 1 874 0
 1085              		.cfi_startproc
 1086              		@ args = 0, pretend = 0, frame = 16
 1087              		@ frame_needed = 1, uses_anonymous_args = 0
 1088 0000 80B5     		push	{r7, lr}
 1089              		.cfi_def_cfa_offset 8
 1090              		.cfi_offset 7, -8
 1091              		.cfi_offset 14, -4
 1092 0002 84B0     		sub	sp, sp, #16
 1093              		.cfi_def_cfa_offset 24
 1094 0004 00AF     		add	r7, sp, #0
 1095              		.cfi_def_cfa_register 7
 1096 0006 7860     		str	r0, [r7, #4]
 1097 0008 0A00     		movs	r2, r1
 1098 000a FB1C     		adds	r3, r7, #3
 1099 000c 1A70     		strb	r2, [r3]
 875:Generated_Source\PSoC4/BLE_1.c ****         uint8 i;
 876:Generated_Source\PSoC4/BLE_1.c ****         uint8 *destBuffer = NULL;
 1100              		.loc 1 876 0
 1101 000e 0023     		movs	r3, #0
 1102 0010 BB60     		str	r3, [r7, #8]
 877:Generated_Source\PSoC4/BLE_1.c ****         
 878:Generated_Source\PSoC4/BLE_1.c ****         if(dest == 0u)      /* Destination - advertising structure */
 1103              		.loc 1 878 0
 1104 0012 FB1C     		adds	r3, r7, #3
 1105 0014 1B78     		ldrb	r3, [r3]
 1106 0016 002B     		cmp	r3, #0
 1107 0018 01D1     		bne	.L52
 879:Generated_Source\PSoC4/BLE_1.c ****         {
ARM GAS  C:\Users\megan\AppData\Local\Temp\cc1Y1tYj.s 			page 36


 880:Generated_Source\PSoC4/BLE_1.c ****             #ifdef CYBLE_ADV_PKT_INDEX_BLUETOOTH_DEVICE_ADDRESS
 881:Generated_Source\PSoC4/BLE_1.c ****                 destBuffer = &cyBle_discoveryData.advData[CYBLE_ADV_PKT_INDEX_BLUETOOTH_DEVICE_ADDR
 1108              		.loc 1 881 0
 1109 001a 154B     		ldr	r3, .L57
 1110 001c BB60     		str	r3, [r7, #8]
 1111              	.L52:
 882:Generated_Source\PSoC4/BLE_1.c ****             #endif /* CYBLE_ADV_PKT_INDEX_BLUETOOTH_DEVICE_ADDRESS */
 883:Generated_Source\PSoC4/BLE_1.c ****         }
 884:Generated_Source\PSoC4/BLE_1.c ****         else                /* Destination - scan response structure */
 885:Generated_Source\PSoC4/BLE_1.c ****         {
 886:Generated_Source\PSoC4/BLE_1.c ****             #ifdef CYBLE_SCN_PKT_INDEX_BLUETOOTH_DEVICE_ADDRESS
 887:Generated_Source\PSoC4/BLE_1.c ****                 destBuffer = &cyBle_scanRspData.scanRspData[CYBLE_SCN_PKT_INDEX_BLUETOOTH_DEVICE_AD
 888:Generated_Source\PSoC4/BLE_1.c ****             #endif /* CYBLE_SCN_PKT_INDEX_BLUETOOTH_DEVICE_ADDRESS */    
 889:Generated_Source\PSoC4/BLE_1.c ****         }
 890:Generated_Source\PSoC4/BLE_1.c ****         
 891:Generated_Source\PSoC4/BLE_1.c ****         if(destBuffer != NULL)
 1112              		.loc 1 891 0
 1113 001e BB68     		ldr	r3, [r7, #8]
 1114 0020 002B     		cmp	r3, #0
 1115 0022 20D0     		beq	.L56
 892:Generated_Source\PSoC4/BLE_1.c ****         {
 893:Generated_Source\PSoC4/BLE_1.c ****             /* Update Device Address type */
 894:Generated_Source\PSoC4/BLE_1.c ****             destBuffer[0u] = bdAddr->type;
 1116              		.loc 1 894 0
 1117 0024 7B68     		ldr	r3, [r7, #4]
 1118 0026 9A79     		ldrb	r2, [r3, #6]
 1119 0028 BB68     		ldr	r3, [r7, #8]
 1120 002a 1A70     		strb	r2, [r3]
 895:Generated_Source\PSoC4/BLE_1.c ****             
 896:Generated_Source\PSoC4/BLE_1.c ****             for(i = 0u; i < CYBLE_GAP_BD_ADDR_SIZE; i++)
 1121              		.loc 1 896 0
 1122 002c 0F23     		movs	r3, #15
 1123 002e FB18     		adds	r3, r7, r3
 1124 0030 0022     		movs	r2, #0
 1125 0032 1A70     		strb	r2, [r3]
 1126 0034 12E0     		b	.L54
 1127              	.L55:
 897:Generated_Source\PSoC4/BLE_1.c ****             {
 898:Generated_Source\PSoC4/BLE_1.c ****                 destBuffer[i + 1u] = bdAddr->bdAddr[i];
 1128              		.loc 1 898 0 discriminator 3
 1129 0036 0F23     		movs	r3, #15
 1130 0038 FB18     		adds	r3, r7, r3
 1131 003a 1B78     		ldrb	r3, [r3]
 1132 003c 0133     		adds	r3, r3, #1
 1133 003e BA68     		ldr	r2, [r7, #8]
 1134 0040 D318     		adds	r3, r2, r3
 1135 0042 0F22     		movs	r2, #15
 1136 0044 BA18     		adds	r2, r7, r2
 1137 0046 1278     		ldrb	r2, [r2]
 1138 0048 7968     		ldr	r1, [r7, #4]
 1139 004a 8A5C     		ldrb	r2, [r1, r2]
 1140 004c 1A70     		strb	r2, [r3]
 896:Generated_Source\PSoC4/BLE_1.c ****             {
 1141              		.loc 1 896 0 discriminator 3
 1142 004e 0F23     		movs	r3, #15
 1143 0050 FB18     		adds	r3, r7, r3
 1144 0052 1A78     		ldrb	r2, [r3]
ARM GAS  C:\Users\megan\AppData\Local\Temp\cc1Y1tYj.s 			page 37


 1145 0054 0F23     		movs	r3, #15
 1146 0056 FB18     		adds	r3, r7, r3
 1147 0058 0132     		adds	r2, r2, #1
 1148 005a 1A70     		strb	r2, [r3]
 1149              	.L54:
 896:Generated_Source\PSoC4/BLE_1.c ****             {
 1150              		.loc 1 896 0 is_stmt 0 discriminator 1
 1151 005c 0F23     		movs	r3, #15
 1152 005e FB18     		adds	r3, r7, r3
 1153 0060 1B78     		ldrb	r3, [r3]
 1154 0062 052B     		cmp	r3, #5
 1155 0064 E7D9     		bls	.L55
 1156              	.L56:
 899:Generated_Source\PSoC4/BLE_1.c ****             }
 900:Generated_Source\PSoC4/BLE_1.c ****         }
 901:Generated_Source\PSoC4/BLE_1.c ****     }
 1157              		.loc 1 901 0 is_stmt 1
 1158 0066 C046     		nop
 1159 0068 BD46     		mov	sp, r7
 1160 006a 04B0     		add	sp, sp, #16
 1161              		@ sp needed
 1162 006c 80BD     		pop	{r7, pc}
 1163              	.L58:
 1164 006e C046     		.align	2
 1165              	.L57:
 1166 0070 14000000 		.word	cyBle_discoveryData+20
 1167              		.cfi_endproc
 1168              	.LFE10:
 1169              		.size	CyBle_ChangeAdDeviceAddress, .-CyBle_ChangeAdDeviceAddress
 1170              		.section	.text.CyBle_ChangeAdLocalName,"ax",%progbits
 1171              		.align	2
 1172              		.code	16
 1173              		.thumb_func
 1174              		.type	CyBle_ChangeAdLocalName, %function
 1175              	CyBle_ChangeAdLocalName:
 1176              	.LFB11:
 902:Generated_Source\PSoC4/BLE_1.c ****   
 903:Generated_Source\PSoC4/BLE_1.c **** #endif /* CYBLE_GAP_ROLE_PERIPHERAL || CYBLE_GAP_ROLE_BROADCASTER */
 904:Generated_Source\PSoC4/BLE_1.c **** 
 905:Generated_Source\PSoC4/BLE_1.c **** 
 906:Generated_Source\PSoC4/BLE_1.c **** #if(CYBLE_GAP_ROLE_CENTRAL || CYBLE_GAP_ROLE_OBSERVER)
 907:Generated_Source\PSoC4/BLE_1.c **** 
 908:Generated_Source\PSoC4/BLE_1.c ****     /******************************************************************************
 909:Generated_Source\PSoC4/BLE_1.c ****     * Function Name: CyBle_GapcStartScan
 910:Generated_Source\PSoC4/BLE_1.c ****     ***************************************************************************//**
 911:Generated_Source\PSoC4/BLE_1.c ****     * 
 912:Generated_Source\PSoC4/BLE_1.c ****     *   This function is used for discovering GAP peripheral devices that are 
 913:Generated_Source\PSoC4/BLE_1.c ****     *   available for connection. It performs the scanning routine using the 
 914:Generated_Source\PSoC4/BLE_1.c ****     *   parameters entered in the component's customizer.
 915:Generated_Source\PSoC4/BLE_1.c ****     *   
 916:Generated_Source\PSoC4/BLE_1.c ****     *   As soon as the discovery operation starts, CYBLE_EVT_GAPC_SCAN_START_STOP 
 917:Generated_Source\PSoC4/BLE_1.c ****     *   event is generated. The CYBLE_EVT_GAPC_SCAN_PROGRESS_RESULT event is 
 918:Generated_Source\PSoC4/BLE_1.c ****     *   generated when a GAP peripheral device is located. There are three discovery
 919:Generated_Source\PSoC4/BLE_1.c ****     *   procedures can be selected in the customizer's GUI:
 920:Generated_Source\PSoC4/BLE_1.c ****     *   
 921:Generated_Source\PSoC4/BLE_1.c ****     *   * Observation procedure: A device performing the observer role receives only
 922:Generated_Source\PSoC4/BLE_1.c ****     *                            advertisement data from devices irrespective of 
ARM GAS  C:\Users\megan\AppData\Local\Temp\cc1Y1tYj.s 			page 38


 923:Generated_Source\PSoC4/BLE_1.c ****     *                            their discoverable mode settings. Advertisement 
 924:Generated_Source\PSoC4/BLE_1.c ****     *                            data received is provided by the event,      
 925:Generated_Source\PSoC4/BLE_1.c ****     *                            CYBLE_EVT_GAPC_SCAN_PROGRESS_RESULT. This procedure
 926:Generated_Source\PSoC4/BLE_1.c ****     *                            requires the scanType sub parameter to be passive
 927:Generated_Source\PSoC4/BLE_1.c ****     *                            scanning. 
 928:Generated_Source\PSoC4/BLE_1.c ****     *   
 929:Generated_Source\PSoC4/BLE_1.c ****     *   * Limited Discovery procedure: A device performing the limited discovery
 930:Generated_Source\PSoC4/BLE_1.c ****     *                                  procedure receives advertisement data and 
 931:Generated_Source\PSoC4/BLE_1.c ****     *                                  scan# response data from devices in the 
 932:Generated_Source\PSoC4/BLE_1.c ****     *                                  limited discoverable mode only. Received data
 933:Generated_Source\PSoC4/BLE_1.c ****     *                                  is provided by the event, 
 934:Generated_Source\PSoC4/BLE_1.c ****     *                                  CYBLE_EVT_GAPC_SCAN_PROGRESS_RESULT. This 
 935:Generated_Source\PSoC4/BLE_1.c ****     *                                  procedure requires the scanType sub-parameter 
 936:Generated_Source\PSoC4/BLE_1.c ****     *                                  to be active scanning.
 937:Generated_Source\PSoC4/BLE_1.c ****     *   
 938:Generated_Source\PSoC4/BLE_1.c ****     *   * General Discovery procedure: A device performing the general discovery 
 939:Generated_Source\PSoC4/BLE_1.c ****     *                                  procedure receives the advertisement data and
 940:Generated_Source\PSoC4/BLE_1.c ****     *                                  scan response data from devices in both 
 941:Generated_Source\PSoC4/BLE_1.c ****     *                                  limited discoverable mode and the general 
 942:Generated_Source\PSoC4/BLE_1.c ****     *                                  discoverable mode. Received data is provided
 943:Generated_Source\PSoC4/BLE_1.c ****     *                                  by the event,
 944:Generated_Source\PSoC4/BLE_1.c ****     *                                  CYBLE_EVT_GAPC_SCAN_PROGRESS_RESULT. This 
 945:Generated_Source\PSoC4/BLE_1.c ****     *                                  procedure requires the scanType sub-parameter
 946:Generated_Source\PSoC4/BLE_1.c ****     *                                  to be active scanning.
 947:Generated_Source\PSoC4/BLE_1.c ****     *   
 948:Generated_Source\PSoC4/BLE_1.c ****     *   Every Advertisement / Scan response packet received results in a new event, 
 949:Generated_Source\PSoC4/BLE_1.c ****     *   CYBLE_EVT_GAPC_SCAN_PROGRESS_RESULT.
 950:Generated_Source\PSoC4/BLE_1.c ****     *   If 'scanTo' sub-parameter is a non-zero value, then upon commencement of 
 951:Generated_Source\PSoC4/BLE_1.c ****     *   discovery procedure and elapsed time = 'scanTo', CYBLE_EVT_TIMEOUT event
 952:Generated_Source\PSoC4/BLE_1.c ****     *   is generated with the event parameter indicating CYBLE_GAP_SCAN_TO.
 953:Generated_Source\PSoC4/BLE_1.c ****     *   Possible generated events are:
 954:Generated_Source\PSoC4/BLE_1.c ****     *   * CYBLE_EVT_GAPC_SCAN_START_STOP: If a device started or stopped scanning. 
 955:Generated_Source\PSoC4/BLE_1.c ****     *                                     Use CyBle_GetState() to determine the 
 956:Generated_Source\PSoC4/BLE_1.c ****     *                                     state. Sequential scanning could be 
 957:Generated_Source\PSoC4/BLE_1.c ****     *                                     started when CYBLE_STATE_DISCONNECTED 
 958:Generated_Source\PSoC4/BLE_1.c ****     *                                     state is returned. 
 959:Generated_Source\PSoC4/BLE_1.c ****     *   * CYBLE_EVT_GAPC_SCAN_PROGRESS_RESULT 
 960:Generated_Source\PSoC4/BLE_1.c ****     *   * CYBLE_EVT_TIMEOUT (CYBLE_GAP_SCAN_TO)
 961:Generated_Source\PSoC4/BLE_1.c ****     * 
 962:Generated_Source\PSoC4/BLE_1.c ****     *   \param scanningIntervalType:  Fast or slow scanning interval with
 963:Generated_Source\PSoC4/BLE_1.c ****     *       timings entered in Scan settings section of the customizer.
 964:Generated_Source\PSoC4/BLE_1.c ****     * 	  * CYBLE_SCANNING_FAST   0x00u
 965:Generated_Source\PSoC4/BLE_1.c ****     * 	  * CYBLE_SCANNING_SLOW   0x01u
 966:Generated_Source\PSoC4/BLE_1.c ****     * 	  * CYBLE_SCANNING_CUSTOM 0x02u
 967:Generated_Source\PSoC4/BLE_1.c ****     * 
 968:Generated_Source\PSoC4/BLE_1.c ****     * \return
 969:Generated_Source\PSoC4/BLE_1.c ****     *  CYBLE_API_RESULT_T : Return value indicates if the function succeeded or
 970:Generated_Source\PSoC4/BLE_1.c ****     *  failed. Following are the possible error codes.
 971:Generated_Source\PSoC4/BLE_1.c ****     *
 972:Generated_Source\PSoC4/BLE_1.c ****     *   Errors codes                       | Description
 973:Generated_Source\PSoC4/BLE_1.c ****     *   ---------------------------------- | -----------------------------------
 974:Generated_Source\PSoC4/BLE_1.c ****     *   CYBLE_ERROR_OK                     | On successful operation.
 975:Generated_Source\PSoC4/BLE_1.c ****     *   CYBLE_ERROR_STACK_INTERNAL         | An error occurred in the BLE stack.
 976:Generated_Source\PSoC4/BLE_1.c ****     *   CYBLE_ERROR_INVALID_PARAMETER      | On passing an invalid parameter.
 977:Generated_Source\PSoC4/BLE_1.c ****     *  
 978:Generated_Source\PSoC4/BLE_1.c ****     *******************************************************************************/
 979:Generated_Source\PSoC4/BLE_1.c ****     CYBLE_API_RESULT_T CyBle_GapcStartScan(uint8 scanningIntervalType)
ARM GAS  C:\Users\megan\AppData\Local\Temp\cc1Y1tYj.s 			page 39


 980:Generated_Source\PSoC4/BLE_1.c ****     {
 981:Generated_Source\PSoC4/BLE_1.c ****         CYBLE_API_RESULT_T apiResult;
 982:Generated_Source\PSoC4/BLE_1.c **** 
 983:Generated_Source\PSoC4/BLE_1.c ****         if(scanningIntervalType > CYBLE_SCANNING_CUSTOM)
 984:Generated_Source\PSoC4/BLE_1.c ****         {
 985:Generated_Source\PSoC4/BLE_1.c ****             apiResult = CYBLE_ERROR_INVALID_PARAMETER;
 986:Generated_Source\PSoC4/BLE_1.c ****         }
 987:Generated_Source\PSoC4/BLE_1.c ****         else
 988:Generated_Source\PSoC4/BLE_1.c ****         {
 989:Generated_Source\PSoC4/BLE_1.c ****             if(scanningIntervalType == CYBLE_SCANNING_FAST)
 990:Generated_Source\PSoC4/BLE_1.c ****             {
 991:Generated_Source\PSoC4/BLE_1.c ****                 cyBle_discoveryInfo.scanTo = CYBLE_FAST_SCAN_TIMEOUT;
 992:Generated_Source\PSoC4/BLE_1.c ****                 cyBle_discoveryInfo.scanIntv = CYBLE_FAST_SCAN_INTERVAL;
 993:Generated_Source\PSoC4/BLE_1.c ****                 cyBle_discoveryInfo.scanWindow = CYBLE_FAST_SCAN_WINDOW;
 994:Generated_Source\PSoC4/BLE_1.c ****             }
 995:Generated_Source\PSoC4/BLE_1.c ****             else if(scanningIntervalType == CYBLE_SCANNING_SLOW)
 996:Generated_Source\PSoC4/BLE_1.c ****             {
 997:Generated_Source\PSoC4/BLE_1.c ****                 cyBle_discoveryInfo.scanTo = CYBLE_SLOW_SCAN_TIMEOUT;
 998:Generated_Source\PSoC4/BLE_1.c ****                 cyBle_discoveryInfo.scanIntv = CYBLE_SLOW_SCAN_INTERVAL;
 999:Generated_Source\PSoC4/BLE_1.c ****                 cyBle_discoveryInfo.scanWindow = CYBLE_SLOW_SCAN_WINDOW;
1000:Generated_Source\PSoC4/BLE_1.c ****             }       
1001:Generated_Source\PSoC4/BLE_1.c ****             else /* Do not update scanning intervals */
1002:Generated_Source\PSoC4/BLE_1.c ****             {
1003:Generated_Source\PSoC4/BLE_1.c ****             }
1004:Generated_Source\PSoC4/BLE_1.c ****             
1005:Generated_Source\PSoC4/BLE_1.c ****             cyBle_scanningIntervalType = scanningIntervalType;
1006:Generated_Source\PSoC4/BLE_1.c ****             apiResult = CyBle_GapcStartDiscovery(&cyBle_discoveryInfo);
1007:Generated_Source\PSoC4/BLE_1.c ****         
1008:Generated_Source\PSoC4/BLE_1.c ****             if(apiResult == CYBLE_ERROR_OK)
1009:Generated_Source\PSoC4/BLE_1.c ****             {
1010:Generated_Source\PSoC4/BLE_1.c ****                 cyBle_eventHandlerFlag |= CYBLE_START_FLAG;
1011:Generated_Source\PSoC4/BLE_1.c ****             }
1012:Generated_Source\PSoC4/BLE_1.c ****         }
1013:Generated_Source\PSoC4/BLE_1.c ****        
1014:Generated_Source\PSoC4/BLE_1.c ****         return (apiResult);
1015:Generated_Source\PSoC4/BLE_1.c ****     }
1016:Generated_Source\PSoC4/BLE_1.c ****     
1017:Generated_Source\PSoC4/BLE_1.c ****     
1018:Generated_Source\PSoC4/BLE_1.c ****     /******************************************************************************
1019:Generated_Source\PSoC4/BLE_1.c ****     * Function Name: CyBle_GapcStopScan
1020:Generated_Source\PSoC4/BLE_1.c ****     ***************************************************************************//**
1021:Generated_Source\PSoC4/BLE_1.c ****     * 
1022:Generated_Source\PSoC4/BLE_1.c ****     *   This function used to stop the discovery of devices. On stopping discovery
1023:Generated_Source\PSoC4/BLE_1.c ****     *   operation, CYBLE_EVT_GAPC_SCAN_START_STOP event is generated. Application
1024:Generated_Source\PSoC4/BLE_1.c ****     *   layer needs to keep track of the function call made before receiving this
1025:Generated_Source\PSoC4/BLE_1.c ****     *   event to associate this event with either the start or stop discovery
1026:Generated_Source\PSoC4/BLE_1.c ****     *   function.
1027:Generated_Source\PSoC4/BLE_1.c ****     * 
1028:Generated_Source\PSoC4/BLE_1.c ****     *   Possible events generated are:
1029:Generated_Source\PSoC4/BLE_1.c ****     *    * CYBLE_EVT_GAPC_SCAN_START_STOP
1030:Generated_Source\PSoC4/BLE_1.c ****     * 
1031:Generated_Source\PSoC4/BLE_1.c ****     *  \return
1032:Generated_Source\PSoC4/BLE_1.c ****     *   None
1033:Generated_Source\PSoC4/BLE_1.c ****     * 
1034:Generated_Source\PSoC4/BLE_1.c ****     *******************************************************************************/
1035:Generated_Source\PSoC4/BLE_1.c ****     void CyBle_GapcStopScan(void)
1036:Generated_Source\PSoC4/BLE_1.c ****     {
ARM GAS  C:\Users\megan\AppData\Local\Temp\cc1Y1tYj.s 			page 40


1037:Generated_Source\PSoC4/BLE_1.c ****         CyBle_GapcStopDiscovery();
1038:Generated_Source\PSoC4/BLE_1.c ****         
1039:Generated_Source\PSoC4/BLE_1.c ****         cyBle_eventHandlerFlag |= CYBLE_STOP_FLAG;
1040:Generated_Source\PSoC4/BLE_1.c ****     }
1041:Generated_Source\PSoC4/BLE_1.c **** 
1042:Generated_Source\PSoC4/BLE_1.c ****     
1043:Generated_Source\PSoC4/BLE_1.c **** #endif /* CYBLE_GAP_ROLE_CENTRAL || CYBLE_GAP_ROLE_OBSERVER */
1044:Generated_Source\PSoC4/BLE_1.c **** 
1045:Generated_Source\PSoC4/BLE_1.c **** 
1046:Generated_Source\PSoC4/BLE_1.c **** #if(CYBLE_GAP_ROLE_CENTRAL)
1047:Generated_Source\PSoC4/BLE_1.c **** 
1048:Generated_Source\PSoC4/BLE_1.c ****     /******************************************************************************
1049:Generated_Source\PSoC4/BLE_1.c ****     * Function Name: CyBle_GapcConnectDevice
1050:Generated_Source\PSoC4/BLE_1.c ****     ***************************************************************************//**
1051:Generated_Source\PSoC4/BLE_1.c ****     * 
1052:Generated_Source\PSoC4/BLE_1.c ****     *  This function is used to send a connection request to the remote device with
1053:Generated_Source\PSoC4/BLE_1.c ****     *  the connection parameters set in the component customizer. This function needs
1054:Generated_Source\PSoC4/BLE_1.c ****     *  to be called only once after the target device is discovered by 
1055:Generated_Source\PSoC4/BLE_1.c ****     *  CyBle_GapcStartScan() and further scanning has stopped. Scanning is 
1056:Generated_Source\PSoC4/BLE_1.c ****     *  successfully stopped on invoking CyBle_GapcStopScan() and then receiving the
1057:Generated_Source\PSoC4/BLE_1.c ****     *  event CYBLE_EVT_GAPC_SCAN_START_STOP with sub-parameter 'success' = 0x01u.
1058:Generated_Source\PSoC4/BLE_1.c ****     *  
1059:Generated_Source\PSoC4/BLE_1.c ****     *  On successful connection, the following events are generated at the GAP 
1060:Generated_Source\PSoC4/BLE_1.c ****     *  Central device (as well as the GAP Peripheral device), in the following order.
1061:Generated_Source\PSoC4/BLE_1.c ****     *  * CYBLE_EVT_GATT_CONNECT_IND
1062:Generated_Source\PSoC4/BLE_1.c ****     *  * CYBLE_EVT_GAP_DEVICE_CONNECTED - If the device connects to a GAP Central and 
1063:Generated_Source\PSoC4/BLE_1.c ****     *    Link Layer Privacy is disabled in component customizer.
1064:Generated_Source\PSoC4/BLE_1.c ****     *  * CYBLE_EVT_GAP_ENHANCE_CONN_COMPLETE - If the device connects to a GAP Central and 
1065:Generated_Source\PSoC4/BLE_1.c ****     *    Link Layer Privacy is enabled in component customizer.
1066:Generated_Source\PSoC4/BLE_1.c ****     *  * CYBLE_EVT_GAP_DEVICE_CONNECTED
1067:Generated_Source\PSoC4/BLE_1.c ****     *  
1068:Generated_Source\PSoC4/BLE_1.c ****     *  A procedure is considered to have timed out if a connection response packet is 
1069:Generated_Source\PSoC4/BLE_1.c ****     *  not received within time set by cyBle_connectingTimeout global variable
1070:Generated_Source\PSoC4/BLE_1.c ****     *  (30 seconds by default). CYBLE_EVT_TIMEOUT event with CYBLE_GENERIC_TO parameter
1071:Generated_Source\PSoC4/BLE_1.c ****     *  will indicate about connection procedure timeout. Connection will automatically
1072:Generated_Source\PSoC4/BLE_1.c ****     *  be canceled and state will be changed to CYBLE_STATE_DISCONNECTED.
1073:Generated_Source\PSoC4/BLE_1.c ****     * 
1074:Generated_Source\PSoC4/BLE_1.c ****     *  \param address: The device address of the remote device to connect to. 
1075:Generated_Source\PSoC4/BLE_1.c ****     *  
1076:Generated_Source\PSoC4/BLE_1.c ****     * \return
1077:Generated_Source\PSoC4/BLE_1.c ****     *  CYBLE_API_RESULT_T : Return value indicates if the function succeeded or 
1078:Generated_Source\PSoC4/BLE_1.c ****     *  failed. Following are the possible error codes.
1079:Generated_Source\PSoC4/BLE_1.c ****     *
1080:Generated_Source\PSoC4/BLE_1.c ****     *   Errors codes                       | Description
1081:Generated_Source\PSoC4/BLE_1.c ****     *   ------------                       | -----------
1082:Generated_Source\PSoC4/BLE_1.c ****     *   CYBLE_ERROR_OK                     | On successful operation.
1083:Generated_Source\PSoC4/BLE_1.c ****     *   CYBLE_ERROR_STACK_INTERNAL         | On error occurred in the BLE stack.
1084:Generated_Source\PSoC4/BLE_1.c ****     *   CYBLE_ERROR_INVALID_PARAMETER      | On passing an invalid parameter.
1085:Generated_Source\PSoC4/BLE_1.c ****     *   CYBLE_ERROR_INVALID_STATE          | On calling this API not in Disconnected state.
1086:Generated_Source\PSoC4/BLE_1.c ****     *  
1087:Generated_Source\PSoC4/BLE_1.c ****     ******************************************************************************/
1088:Generated_Source\PSoC4/BLE_1.c ****     CYBLE_API_RESULT_T CyBle_GapcConnectDevice(const CYBLE_GAP_BD_ADDR_T * address)
1089:Generated_Source\PSoC4/BLE_1.c ****     {
1090:Generated_Source\PSoC4/BLE_1.c ****         CYBLE_API_RESULT_T apiResult;
1091:Generated_Source\PSoC4/BLE_1.c ****         uint8 i;
1092:Generated_Source\PSoC4/BLE_1.c **** 
1093:Generated_Source\PSoC4/BLE_1.c ****         if(CyBle_GetState() != CYBLE_STATE_DISCONNECTED)
ARM GAS  C:\Users\megan\AppData\Local\Temp\cc1Y1tYj.s 			page 41


1094:Generated_Source\PSoC4/BLE_1.c ****         {
1095:Generated_Source\PSoC4/BLE_1.c ****             apiResult = CYBLE_ERROR_INVALID_STATE;
1096:Generated_Source\PSoC4/BLE_1.c ****         }
1097:Generated_Source\PSoC4/BLE_1.c ****         else if(address == NULL)
1098:Generated_Source\PSoC4/BLE_1.c ****         {
1099:Generated_Source\PSoC4/BLE_1.c ****             apiResult = CYBLE_ERROR_INVALID_PARAMETER;
1100:Generated_Source\PSoC4/BLE_1.c ****         }
1101:Generated_Source\PSoC4/BLE_1.c ****         else
1102:Generated_Source\PSoC4/BLE_1.c ****         {
1103:Generated_Source\PSoC4/BLE_1.c ****             for(i = 0u; i < CYBLE_GAP_BD_ADDR_SIZE; i++)
1104:Generated_Source\PSoC4/BLE_1.c ****             {
1105:Generated_Source\PSoC4/BLE_1.c ****                 cyBle_connectionParameters.peerBdAddr[i] = address->bdAddr[i];
1106:Generated_Source\PSoC4/BLE_1.c ****             }
1107:Generated_Source\PSoC4/BLE_1.c ****             cyBle_connectionParameters.peerAddrType = address -> type;
1108:Generated_Source\PSoC4/BLE_1.c ****             apiResult = CyBle_GapcInitConnection(&cyBle_connectionParameters);
1109:Generated_Source\PSoC4/BLE_1.c ****             
1110:Generated_Source\PSoC4/BLE_1.c ****             if(apiResult == CYBLE_ERROR_OK)
1111:Generated_Source\PSoC4/BLE_1.c ****             {
1112:Generated_Source\PSoC4/BLE_1.c ****                 CyBle_SetState(CYBLE_STATE_CONNECTING);
1113:Generated_Source\PSoC4/BLE_1.c ****                 if(cyBle_connectingTimeout != 0u)
1114:Generated_Source\PSoC4/BLE_1.c ****                 {
1115:Generated_Source\PSoC4/BLE_1.c ****                     (void)CyBle_StartTimer(cyBle_connectingTimeout);
1116:Generated_Source\PSoC4/BLE_1.c ****                 }
1117:Generated_Source\PSoC4/BLE_1.c ****             }
1118:Generated_Source\PSoC4/BLE_1.c ****         }
1119:Generated_Source\PSoC4/BLE_1.c ****         return (apiResult);
1120:Generated_Source\PSoC4/BLE_1.c ****     }
1121:Generated_Source\PSoC4/BLE_1.c ****     
1122:Generated_Source\PSoC4/BLE_1.c **** 
1123:Generated_Source\PSoC4/BLE_1.c ****     /******************************************************************************
1124:Generated_Source\PSoC4/BLE_1.c ****     * Function Name: CyBle_GapcCancelDeviceConnection
1125:Generated_Source\PSoC4/BLE_1.c ****     ***************************************************************************//**
1126:Generated_Source\PSoC4/BLE_1.c ****     * 
1127:Generated_Source\PSoC4/BLE_1.c ****     *  This function cancels a previously initiated connection with the remote 
1128:Generated_Source\PSoC4/BLE_1.c ****     *  device. It is a blocking function. No event is generated on calling this 
1129:Generated_Source\PSoC4/BLE_1.c ****     *  function. If the devices are already connected then this function should not
1130:Generated_Source\PSoC4/BLE_1.c ****     *  be used. If you intend to disconnect from an existing connection, the function
1131:Generated_Source\PSoC4/BLE_1.c ****     *  CyBle_GapDisconnect() should be used.
1132:Generated_Source\PSoC4/BLE_1.c ****     * 
1133:Generated_Source\PSoC4/BLE_1.c ****     * \return
1134:Generated_Source\PSoC4/BLE_1.c ****     *  CYBLE_API_RESULT_T : Return value indicates if the function succeeded or 
1135:Generated_Source\PSoC4/BLE_1.c ****     *  failed. Following are the possible error codes.
1136:Generated_Source\PSoC4/BLE_1.c ****     *
1137:Generated_Source\PSoC4/BLE_1.c ****     *   Errors codes                       | Description
1138:Generated_Source\PSoC4/BLE_1.c ****     *   ---------------------------------- | --------------------------------------
1139:Generated_Source\PSoC4/BLE_1.c ****     *   CYBLE_ERROR_OK                     | On successful operation.
1140:Generated_Source\PSoC4/BLE_1.c ****     *   CYBLE_ERROR_STACK_INTERNAL         | An error occurred in the BLE stack.
1141:Generated_Source\PSoC4/BLE_1.c ****     *   CYBLE_ERROR_INVALID_STATE          | On calling this API not in Connecting state.
1142:Generated_Source\PSoC4/BLE_1.c ****     *  
1143:Generated_Source\PSoC4/BLE_1.c ****     *******************************************************************************/
1144:Generated_Source\PSoC4/BLE_1.c ****     CYBLE_API_RESULT_T CyBle_GapcCancelDeviceConnection(void)
1145:Generated_Source\PSoC4/BLE_1.c ****     {
1146:Generated_Source\PSoC4/BLE_1.c ****         CYBLE_API_RESULT_T apiResult;
1147:Generated_Source\PSoC4/BLE_1.c ****         
1148:Generated_Source\PSoC4/BLE_1.c ****         if(CyBle_GetState() != CYBLE_STATE_CONNECTING)
1149:Generated_Source\PSoC4/BLE_1.c ****         {
1150:Generated_Source\PSoC4/BLE_1.c ****             apiResult = CYBLE_ERROR_INVALID_STATE;
ARM GAS  C:\Users\megan\AppData\Local\Temp\cc1Y1tYj.s 			page 42


1151:Generated_Source\PSoC4/BLE_1.c ****         }
1152:Generated_Source\PSoC4/BLE_1.c ****         else 
1153:Generated_Source\PSoC4/BLE_1.c ****         {
1154:Generated_Source\PSoC4/BLE_1.c ****             apiResult = CyBle_GapcCancelConnection();
1155:Generated_Source\PSoC4/BLE_1.c ****             
1156:Generated_Source\PSoC4/BLE_1.c ****             if(cyBle_connectingTimeout != 0u)
1157:Generated_Source\PSoC4/BLE_1.c ****             {
1158:Generated_Source\PSoC4/BLE_1.c ****                 (void)CyBle_StopTimer();
1159:Generated_Source\PSoC4/BLE_1.c ****             }
1160:Generated_Source\PSoC4/BLE_1.c **** 
1161:Generated_Source\PSoC4/BLE_1.c ****             if(apiResult == CYBLE_ERROR_OK)
1162:Generated_Source\PSoC4/BLE_1.c ****             {
1163:Generated_Source\PSoC4/BLE_1.c ****                 CyBle_SetState(CYBLE_STATE_DISCONNECTED);
1164:Generated_Source\PSoC4/BLE_1.c ****             }
1165:Generated_Source\PSoC4/BLE_1.c ****         }
1166:Generated_Source\PSoC4/BLE_1.c ****         return (apiResult);
1167:Generated_Source\PSoC4/BLE_1.c ****     }    
1168:Generated_Source\PSoC4/BLE_1.c **** 
1169:Generated_Source\PSoC4/BLE_1.c ****     
1170:Generated_Source\PSoC4/BLE_1.c **** #endif /* CYBLE_GAP_ROLE_CENTRAL */
1171:Generated_Source\PSoC4/BLE_1.c **** 
1172:Generated_Source\PSoC4/BLE_1.c **** 
1173:Generated_Source\PSoC4/BLE_1.c **** #if(CYBLE_GATT_ROLE_SERVER)
1174:Generated_Source\PSoC4/BLE_1.c **** 
1175:Generated_Source\PSoC4/BLE_1.c **** #if(CYBLE_GAP_ROLE_PERIPHERAL)
1176:Generated_Source\PSoC4/BLE_1.c **** 
1177:Generated_Source\PSoC4/BLE_1.c ****         /******************************************************************************
1178:Generated_Source\PSoC4/BLE_1.c ****         * Function Name: CyBle_ChangeAdLocalName
1179:Generated_Source\PSoC4/BLE_1.c ****         ***************************************************************************//**
1180:Generated_Source\PSoC4/BLE_1.c ****         *  This API is used to set the local device name in the advertisement or scan 
1181:Generated_Source\PSoC4/BLE_1.c ****         *  response data structure.
1182:Generated_Source\PSoC4/BLE_1.c ****         * 
1183:Generated_Source\PSoC4/BLE_1.c ****         *  \param name: The local device name string to be set in advertisement data 
1184:Generated_Source\PSoC4/BLE_1.c ****         *            structure.
1185:Generated_Source\PSoC4/BLE_1.c ****         *  \param dest: 0 - advertisement structure, not zero value selects scan response
1186:Generated_Source\PSoC4/BLE_1.c ****         *              structure.
1187:Generated_Source\PSoC4/BLE_1.c ****         * 
1188:Generated_Source\PSoC4/BLE_1.c ****         * \return
1189:Generated_Source\PSoC4/BLE_1.c ****         *  None
1190:Generated_Source\PSoC4/BLE_1.c ****         *  
1191:Generated_Source\PSoC4/BLE_1.c ****         *******************************************************************************/
1192:Generated_Source\PSoC4/BLE_1.c ****         static void CyBle_ChangeAdLocalName(const char8 name[], uint8 dest)
1193:Generated_Source\PSoC4/BLE_1.c ****         {
 1177              		.loc 1 1193 0
 1178              		.cfi_startproc
 1179              		@ args = 0, pretend = 0, frame = 24
 1180              		@ frame_needed = 1, uses_anonymous_args = 0
 1181 0000 80B5     		push	{r7, lr}
 1182              		.cfi_def_cfa_offset 8
 1183              		.cfi_offset 7, -8
 1184              		.cfi_offset 14, -4
 1185 0002 86B0     		sub	sp, sp, #24
 1186              		.cfi_def_cfa_offset 32
 1187 0004 00AF     		add	r7, sp, #0
 1188              		.cfi_def_cfa_register 7
 1189 0006 7860     		str	r0, [r7, #4]
 1190 0008 0A00     		movs	r2, r1
ARM GAS  C:\Users\megan\AppData\Local\Temp\cc1Y1tYj.s 			page 43


 1191 000a FB1C     		adds	r3, r7, #3
 1192 000c 1A70     		strb	r2, [r3]
1194:Generated_Source\PSoC4/BLE_1.c ****             uint8 i;
1195:Generated_Source\PSoC4/BLE_1.c ****             uint8 flag = 0u;
 1193              		.loc 1 1195 0
 1194 000e 1623     		movs	r3, #22
 1195 0010 FB18     		adds	r3, r7, r3
 1196 0012 0022     		movs	r2, #0
 1197 0014 1A70     		strb	r2, [r3]
1196:Generated_Source\PSoC4/BLE_1.c ****             uint8 adLength = 0u;
 1198              		.loc 1 1196 0
 1199 0016 1523     		movs	r3, #21
 1200 0018 FB18     		adds	r3, r7, r3
 1201 001a 0022     		movs	r2, #0
 1202 001c 1A70     		strb	r2, [r3]
1197:Generated_Source\PSoC4/BLE_1.c ****             uint8 byteCounter = 0u;
 1203              		.loc 1 1197 0
 1204 001e 1423     		movs	r3, #20
 1205 0020 FB18     		adds	r3, r7, r3
 1206 0022 0022     		movs	r2, #0
 1207 0024 1A70     		strb	r2, [r3]
1198:Generated_Source\PSoC4/BLE_1.c ****             uint8 *destBuffer;
1199:Generated_Source\PSoC4/BLE_1.c ****             uint8 maxLength;
1200:Generated_Source\PSoC4/BLE_1.c ****             
1201:Generated_Source\PSoC4/BLE_1.c ****             if(dest == 0u)      /* Destination - advertising structure */
 1208              		.loc 1 1201 0
 1209 0026 FB1C     		adds	r3, r7, #3
 1210 0028 1B78     		ldrb	r3, [r3]
 1211 002a 002B     		cmp	r3, #0
 1212 002c 07D1     		bne	.L60
1202:Generated_Source\PSoC4/BLE_1.c ****             {
1203:Generated_Source\PSoC4/BLE_1.c ****                 destBuffer = cyBle_discoveryData.advData;
 1213              		.loc 1 1203 0
 1214 002e 5C4B     		ldr	r3, .L77
 1215 0030 3B61     		str	r3, [r7, #16]
1204:Generated_Source\PSoC4/BLE_1.c ****                 maxLength = cyBle_discoveryData.advDataLen;
 1216              		.loc 1 1204 0
 1217 0032 0F23     		movs	r3, #15
 1218 0034 FB18     		adds	r3, r7, r3
 1219 0036 5A4A     		ldr	r2, .L77
 1220 0038 D27F     		ldrb	r2, [r2, #31]
 1221 003a 1A70     		strb	r2, [r3]
 1222 003c 3BE0     		b	.L62
 1223              	.L60:
1205:Generated_Source\PSoC4/BLE_1.c ****             }
1206:Generated_Source\PSoC4/BLE_1.c ****             else                /* Destination - scan response structure */
1207:Generated_Source\PSoC4/BLE_1.c ****             {
1208:Generated_Source\PSoC4/BLE_1.c ****                 destBuffer = cyBle_scanRspData.scanRspData;
 1224              		.loc 1 1208 0
 1225 003e 594B     		ldr	r3, .L77+4
 1226 0040 3B61     		str	r3, [r7, #16]
1209:Generated_Source\PSoC4/BLE_1.c ****                 maxLength = cyBle_scanRspData.scanRspDataLen;
 1227              		.loc 1 1209 0
 1228 0042 0F23     		movs	r3, #15
 1229 0044 FB18     		adds	r3, r7, r3
 1230 0046 574A     		ldr	r2, .L77+4
 1231 0048 D27F     		ldrb	r2, [r2, #31]
ARM GAS  C:\Users\megan\AppData\Local\Temp\cc1Y1tYj.s 			page 44


 1232 004a 1A70     		strb	r2, [r3]
1210:Generated_Source\PSoC4/BLE_1.c ****             }
1211:Generated_Source\PSoC4/BLE_1.c ****             
1212:Generated_Source\PSoC4/BLE_1.c ****             while((byteCounter < maxLength) && (flag == 0u))
 1233              		.loc 1 1212 0
 1234 004c 33E0     		b	.L62
 1235              	.L68:
1213:Generated_Source\PSoC4/BLE_1.c ****             {
1214:Generated_Source\PSoC4/BLE_1.c ****                 adLength = destBuffer[byteCounter];
 1236              		.loc 1 1214 0
 1237 004e 1423     		movs	r3, #20
 1238 0050 FB18     		adds	r3, r7, r3
 1239 0052 1B78     		ldrb	r3, [r3]
 1240 0054 3A69     		ldr	r2, [r7, #16]
 1241 0056 D218     		adds	r2, r2, r3
 1242 0058 1523     		movs	r3, #21
 1243 005a FB18     		adds	r3, r7, r3
 1244 005c 1278     		ldrb	r2, [r2]
 1245 005e 1A70     		strb	r2, [r3]
1215:Generated_Source\PSoC4/BLE_1.c ****                 
1216:Generated_Source\PSoC4/BLE_1.c ****                 if(0u != adLength)
 1246              		.loc 1 1216 0
 1247 0060 1523     		movs	r3, #21
 1248 0062 FB18     		adds	r3, r7, r3
 1249 0064 1B78     		ldrb	r3, [r3]
 1250 0066 002B     		cmp	r3, #0
 1251 0068 33D0     		beq	.L75
1217:Generated_Source\PSoC4/BLE_1.c ****                 {
1218:Generated_Source\PSoC4/BLE_1.c ****                     /* Increment byte counter so it can point to AD type */
1219:Generated_Source\PSoC4/BLE_1.c ****                     byteCounter++;
 1252              		.loc 1 1219 0
 1253 006a 1423     		movs	r3, #20
 1254 006c FB18     		adds	r3, r7, r3
 1255 006e 1A78     		ldrb	r2, [r3]
 1256 0070 1423     		movs	r3, #20
 1257 0072 FB18     		adds	r3, r7, r3
 1258 0074 0132     		adds	r2, r2, #1
 1259 0076 1A70     		strb	r2, [r3]
1220:Generated_Source\PSoC4/BLE_1.c ****                     
1221:Generated_Source\PSoC4/BLE_1.c ****                     if((destBuffer[byteCounter] == CYBLE_SHORT_LOCAL_NAME) || 
 1260              		.loc 1 1221 0
 1261 0078 1423     		movs	r3, #20
 1262 007a FB18     		adds	r3, r7, r3
 1263 007c 1B78     		ldrb	r3, [r3]
 1264 007e 3A69     		ldr	r2, [r7, #16]
 1265 0080 D318     		adds	r3, r2, r3
 1266 0082 1B78     		ldrb	r3, [r3]
 1267 0084 082B     		cmp	r3, #8
 1268 0086 07D0     		beq	.L64
1222:Generated_Source\PSoC4/BLE_1.c ****                        (destBuffer[byteCounter] == CYBLE_COMPLETE_LOCAL_NAME))
 1269              		.loc 1 1222 0 discriminator 1
 1270 0088 1423     		movs	r3, #20
 1271 008a FB18     		adds	r3, r7, r3
 1272 008c 1B78     		ldrb	r3, [r3]
 1273 008e 3A69     		ldr	r2, [r7, #16]
 1274 0090 D318     		adds	r3, r2, r3
 1275 0092 1B78     		ldrb	r3, [r3]
ARM GAS  C:\Users\megan\AppData\Local\Temp\cc1Y1tYj.s 			page 45


1221:Generated_Source\PSoC4/BLE_1.c ****                        (destBuffer[byteCounter] == CYBLE_COMPLETE_LOCAL_NAME))
 1276              		.loc 1 1221 0 discriminator 1
 1277 0094 092B     		cmp	r3, #9
 1278 0096 04D1     		bne	.L65
 1279              	.L64:
1223:Generated_Source\PSoC4/BLE_1.c ****                     {
1224:Generated_Source\PSoC4/BLE_1.c ****                         /* Start of the Local Name AD type was fount. Set flag and exit the loop. *
1225:Generated_Source\PSoC4/BLE_1.c ****                         flag = 1u;
 1280              		.loc 1 1225 0
 1281 0098 1623     		movs	r3, #22
 1282 009a FB18     		adds	r3, r7, r3
 1283 009c 0122     		movs	r2, #1
 1284 009e 1A70     		strb	r2, [r3]
 1285 00a0 09E0     		b	.L62
 1286              	.L65:
1226:Generated_Source\PSoC4/BLE_1.c ****                     }
1227:Generated_Source\PSoC4/BLE_1.c ****                     else
1228:Generated_Source\PSoC4/BLE_1.c ****                     {
1229:Generated_Source\PSoC4/BLE_1.c ****                         byteCounter += adLength;
 1287              		.loc 1 1229 0
 1288 00a2 1423     		movs	r3, #20
 1289 00a4 FB18     		adds	r3, r7, r3
 1290 00a6 1422     		movs	r2, #20
 1291 00a8 B918     		adds	r1, r7, r2
 1292 00aa 1522     		movs	r2, #21
 1293 00ac BA18     		adds	r2, r7, r2
 1294 00ae 0978     		ldrb	r1, [r1]
 1295 00b0 1278     		ldrb	r2, [r2]
 1296 00b2 8A18     		adds	r2, r1, r2
 1297 00b4 1A70     		strb	r2, [r3]
 1298              	.L62:
1212:Generated_Source\PSoC4/BLE_1.c ****             {
 1299              		.loc 1 1212 0
 1300 00b6 1423     		movs	r3, #20
 1301 00b8 FA18     		adds	r2, r7, r3
 1302 00ba 0F23     		movs	r3, #15
 1303 00bc FB18     		adds	r3, r7, r3
 1304 00be 1278     		ldrb	r2, [r2]
 1305 00c0 1B78     		ldrb	r3, [r3]
 1306 00c2 9A42     		cmp	r2, r3
 1307 00c4 06D2     		bcs	.L67
1212:Generated_Source\PSoC4/BLE_1.c ****             {
 1308              		.loc 1 1212 0 is_stmt 0 discriminator 1
 1309 00c6 1623     		movs	r3, #22
 1310 00c8 FB18     		adds	r3, r7, r3
 1311 00ca 1B78     		ldrb	r3, [r3]
 1312 00cc 002B     		cmp	r3, #0
 1313 00ce BED0     		beq	.L68
 1314 00d0 00E0     		b	.L67
 1315              	.L75:
1230:Generated_Source\PSoC4/BLE_1.c ****                     }
1231:Generated_Source\PSoC4/BLE_1.c ****                 }
1232:Generated_Source\PSoC4/BLE_1.c ****                 else
1233:Generated_Source\PSoC4/BLE_1.c ****                 {
1234:Generated_Source\PSoC4/BLE_1.c ****                     /* The end of advertisement data structure was encountered though exit the loop
1235:Generated_Source\PSoC4/BLE_1.c ****                     break;
 1316              		.loc 1 1235 0 is_stmt 1
ARM GAS  C:\Users\megan\AppData\Local\Temp\cc1Y1tYj.s 			page 46


 1317 00d2 C046     		nop
 1318              	.L67:
1236:Generated_Source\PSoC4/BLE_1.c ****                 }
1237:Generated_Source\PSoC4/BLE_1.c ****             }
1238:Generated_Source\PSoC4/BLE_1.c ****             
1239:Generated_Source\PSoC4/BLE_1.c ****             if(0u != flag)
 1319              		.loc 1 1239 0
 1320 00d4 1623     		movs	r3, #22
 1321 00d6 FB18     		adds	r3, r7, r3
 1322 00d8 1B78     		ldrb	r3, [r3]
 1323 00da 002B     		cmp	r3, #0
 1324 00dc 5BD0     		beq	.L76
1240:Generated_Source\PSoC4/BLE_1.c ****             {
1241:Generated_Source\PSoC4/BLE_1.c ****                 /* Reuse "adLength" to hold location of the last character of local name in 
1242:Generated_Source\PSoC4/BLE_1.c ****                    AD structure. */
1243:Generated_Source\PSoC4/BLE_1.c ****                 adLength += byteCounter;
 1325              		.loc 1 1243 0
 1326 00de 1523     		movs	r3, #21
 1327 00e0 FB18     		adds	r3, r7, r3
 1328 00e2 1522     		movs	r2, #21
 1329 00e4 B918     		adds	r1, r7, r2
 1330 00e6 1422     		movs	r2, #20
 1331 00e8 BA18     		adds	r2, r7, r2
 1332 00ea 0978     		ldrb	r1, [r1]
 1333 00ec 1278     		ldrb	r2, [r2]
 1334 00ee 8A18     		adds	r2, r1, r2
 1335 00f0 1A70     		strb	r2, [r3]
1244:Generated_Source\PSoC4/BLE_1.c ****                 
1245:Generated_Source\PSoC4/BLE_1.c ****                 /* Increment byte counter to point to start of the local Name string */
1246:Generated_Source\PSoC4/BLE_1.c ****                 byteCounter++;
 1336              		.loc 1 1246 0
 1337 00f2 1423     		movs	r3, #20
 1338 00f4 FB18     		adds	r3, r7, r3
 1339 00f6 1A78     		ldrb	r2, [r3]
 1340 00f8 1423     		movs	r3, #20
 1341 00fa FB18     		adds	r3, r7, r3
 1342 00fc 0132     		adds	r2, r2, #1
 1343 00fe 1A70     		strb	r2, [r3]
1247:Generated_Source\PSoC4/BLE_1.c ****                 
1248:Generated_Source\PSoC4/BLE_1.c ****                 for(i = byteCounter; ((i < (adLength)) && (CYBLE_NULL_CHARCTER != name[i - byteCoun
 1344              		.loc 1 1248 0
 1345 0100 1723     		movs	r3, #23
 1346 0102 FB18     		adds	r3, r7, r3
 1347 0104 1422     		movs	r2, #20
 1348 0106 BA18     		adds	r2, r7, r2
 1349 0108 1278     		ldrb	r2, [r2]
 1350 010a 1A70     		strb	r2, [r3]
 1351 010c 17E0     		b	.L70
 1352              	.L72:
1249:Generated_Source\PSoC4/BLE_1.c ****                 {
1250:Generated_Source\PSoC4/BLE_1.c ****                     destBuffer[i] = (uint8)name[i - byteCounter];
 1353              		.loc 1 1250 0 discriminator 4
 1354 010e 1723     		movs	r3, #23
 1355 0110 FB18     		adds	r3, r7, r3
 1356 0112 1B78     		ldrb	r3, [r3]
 1357 0114 3A69     		ldr	r2, [r7, #16]
 1358 0116 D318     		adds	r3, r2, r3
ARM GAS  C:\Users\megan\AppData\Local\Temp\cc1Y1tYj.s 			page 47


 1359 0118 1722     		movs	r2, #23
 1360 011a BA18     		adds	r2, r7, r2
 1361 011c 1178     		ldrb	r1, [r2]
 1362 011e 1422     		movs	r2, #20
 1363 0120 BA18     		adds	r2, r7, r2
 1364 0122 1278     		ldrb	r2, [r2]
 1365 0124 8A1A     		subs	r2, r1, r2
 1366 0126 1100     		movs	r1, r2
 1367 0128 7A68     		ldr	r2, [r7, #4]
 1368 012a 5218     		adds	r2, r2, r1
 1369 012c 1278     		ldrb	r2, [r2]
 1370 012e 1A70     		strb	r2, [r3]
1248:Generated_Source\PSoC4/BLE_1.c ****                 {
 1371              		.loc 1 1248 0 discriminator 4
 1372 0130 1723     		movs	r3, #23
 1373 0132 FB18     		adds	r3, r7, r3
 1374 0134 1A78     		ldrb	r2, [r3]
 1375 0136 1723     		movs	r3, #23
 1376 0138 FB18     		adds	r3, r7, r3
 1377 013a 0132     		adds	r2, r2, #1
 1378 013c 1A70     		strb	r2, [r3]
 1379              	.L70:
1248:Generated_Source\PSoC4/BLE_1.c ****                 {
 1380              		.loc 1 1248 0 is_stmt 0 discriminator 1
 1381 013e 1723     		movs	r3, #23
 1382 0140 FA18     		adds	r2, r7, r3
 1383 0142 1523     		movs	r3, #21
 1384 0144 FB18     		adds	r3, r7, r3
 1385 0146 1278     		ldrb	r2, [r2]
 1386 0148 1B78     		ldrb	r3, [r3]
 1387 014a 9A42     		cmp	r2, r3
 1388 014c 1BD2     		bcs	.L73
1248:Generated_Source\PSoC4/BLE_1.c ****                 {
 1389              		.loc 1 1248 0 discriminator 3
 1390 014e 1723     		movs	r3, #23
 1391 0150 FB18     		adds	r3, r7, r3
 1392 0152 1A78     		ldrb	r2, [r3]
 1393 0154 1423     		movs	r3, #20
 1394 0156 FB18     		adds	r3, r7, r3
 1395 0158 1B78     		ldrb	r3, [r3]
 1396 015a D31A     		subs	r3, r2, r3
 1397 015c 1A00     		movs	r2, r3
 1398 015e 7B68     		ldr	r3, [r7, #4]
 1399 0160 9B18     		adds	r3, r3, r2
 1400 0162 1B78     		ldrb	r3, [r3]
 1401 0164 002B     		cmp	r3, #0
 1402 0166 D2D1     		bne	.L72
1251:Generated_Source\PSoC4/BLE_1.c ****                 }
1252:Generated_Source\PSoC4/BLE_1.c ****                 
1253:Generated_Source\PSoC4/BLE_1.c ****                 /* This loop handles the case when new local name is shorted than old one.
1254:Generated_Source\PSoC4/BLE_1.c ****                    In this case all remaining characters should be null characters. */
1255:Generated_Source\PSoC4/BLE_1.c ****                 while(adLength > i)
 1403              		.loc 1 1255 0 is_stmt 1
 1404 0168 0DE0     		b	.L73
 1405              	.L74:
1256:Generated_Source\PSoC4/BLE_1.c ****                 {
1257:Generated_Source\PSoC4/BLE_1.c ****                     /* Terminate string */
ARM GAS  C:\Users\megan\AppData\Local\Temp\cc1Y1tYj.s 			page 48


1258:Generated_Source\PSoC4/BLE_1.c ****                     destBuffer[i] = (uint8)CYBLE_NULL_CHARCTER;
 1406              		.loc 1 1258 0
 1407 016a 1723     		movs	r3, #23
 1408 016c FB18     		adds	r3, r7, r3
 1409 016e 1B78     		ldrb	r3, [r3]
 1410 0170 3A69     		ldr	r2, [r7, #16]
 1411 0172 D318     		adds	r3, r2, r3
 1412 0174 0022     		movs	r2, #0
 1413 0176 1A70     		strb	r2, [r3]
1259:Generated_Source\PSoC4/BLE_1.c ****                     i++;
 1414              		.loc 1 1259 0
 1415 0178 1723     		movs	r3, #23
 1416 017a FB18     		adds	r3, r7, r3
 1417 017c 1A78     		ldrb	r2, [r3]
 1418 017e 1723     		movs	r3, #23
 1419 0180 FB18     		adds	r3, r7, r3
 1420 0182 0132     		adds	r2, r2, #1
 1421 0184 1A70     		strb	r2, [r3]
 1422              	.L73:
1255:Generated_Source\PSoC4/BLE_1.c ****                 {
 1423              		.loc 1 1255 0
 1424 0186 1523     		movs	r3, #21
 1425 0188 FA18     		adds	r2, r7, r3
 1426 018a 1723     		movs	r3, #23
 1427 018c FB18     		adds	r3, r7, r3
 1428 018e 1278     		ldrb	r2, [r2]
 1429 0190 1B78     		ldrb	r3, [r3]
 1430 0192 9A42     		cmp	r2, r3
 1431 0194 E9D8     		bhi	.L74
 1432              	.L76:
1260:Generated_Source\PSoC4/BLE_1.c ****                 }
1261:Generated_Source\PSoC4/BLE_1.c ****             }
1262:Generated_Source\PSoC4/BLE_1.c ****         }
 1433              		.loc 1 1262 0
 1434 0196 C046     		nop
 1435 0198 BD46     		mov	sp, r7
 1436 019a 06B0     		add	sp, sp, #24
 1437              		@ sp needed
 1438 019c 80BD     		pop	{r7, pc}
 1439              	.L78:
 1440 019e C046     		.align	2
 1441              	.L77:
 1442 01a0 00000000 		.word	cyBle_discoveryData
 1443 01a4 00000000 		.word	cyBle_scanRspData
 1444              		.cfi_endproc
 1445              	.LFE11:
 1446              		.size	CyBle_ChangeAdLocalName, .-CyBle_ChangeAdLocalName
 1447              		.section	.text.CyBle_GapSetLocalName,"ax",%progbits
 1448              		.align	2
 1449              		.global	CyBle_GapSetLocalName
 1450              		.code	16
 1451              		.thumb_func
 1452              		.type	CyBle_GapSetLocalName, %function
 1453              	CyBle_GapSetLocalName:
 1454              	.LFB12:
1263:Generated_Source\PSoC4/BLE_1.c ****         
1264:Generated_Source\PSoC4/BLE_1.c **** #endif /* (CYBLE_GAP_ROLE_PERIPHERAL) */  
ARM GAS  C:\Users\megan\AppData\Local\Temp\cc1Y1tYj.s 			page 49


1265:Generated_Source\PSoC4/BLE_1.c ****     
1266:Generated_Source\PSoC4/BLE_1.c ****     
1267:Generated_Source\PSoC4/BLE_1.c ****     /******************************************************************************
1268:Generated_Source\PSoC4/BLE_1.c ****     * Function Name: CyBle_GapSetLocalName
1269:Generated_Source\PSoC4/BLE_1.c ****     ***************************************************************************//**
1270:Generated_Source\PSoC4/BLE_1.c ****     *  This API is used to set the local device name - a Characteristic of the 
1271:Generated_Source\PSoC4/BLE_1.c ****     *  GAP Service. If the characteristic length entered in the component customizer
1272:Generated_Source\PSoC4/BLE_1.c ****     *  is shorter than the string specified by the "name" parameter, the local device
1273:Generated_Source\PSoC4/BLE_1.c ****     *  name will be cut to the length specified in the customizer.
1274:Generated_Source\PSoC4/BLE_1.c ****     * 
1275:Generated_Source\PSoC4/BLE_1.c ****     *  \param name: The local device name string. The name string to be written as
1276:Generated_Source\PSoC4/BLE_1.c ****     *              the local device name. It represents a UTF-8 encoded User
1277:Generated_Source\PSoC4/BLE_1.c ****     *              Friendly Descriptive Name for the device. The length of the local
1278:Generated_Source\PSoC4/BLE_1.c ****     *              device string is entered into the component customizer and it can
1279:Generated_Source\PSoC4/BLE_1.c ****     *              be set to a value from 0 to 248 bytes. If the name contained in
1280:Generated_Source\PSoC4/BLE_1.c ****     *              the parameter is shorter than the length from the customizer, the
1281:Generated_Source\PSoC4/BLE_1.c ****     *              end of the name is indicated by a NULL octet (0x00).
1282:Generated_Source\PSoC4/BLE_1.c ****     * 
1283:Generated_Source\PSoC4/BLE_1.c ****     * \return
1284:Generated_Source\PSoC4/BLE_1.c ****     *  CYBLE_API_RESULT_T : Return value indicates if the function succeeded or 
1285:Generated_Source\PSoC4/BLE_1.c ****     *  failed. Following are the possible error codes.
1286:Generated_Source\PSoC4/BLE_1.c ****     *
1287:Generated_Source\PSoC4/BLE_1.c ****     *   Errors codes                       | Description
1288:Generated_Source\PSoC4/BLE_1.c ****     *   ------------                       | -----------
1289:Generated_Source\PSoC4/BLE_1.c ****     *   CYBLE_ERROR_OK                     | Function completed successfully.
1290:Generated_Source\PSoC4/BLE_1.c ****     *   CYBLE_ERROR_INVALID_PARAMETER      | On specifying NULL as input parameter
1291:Generated_Source\PSoC4/BLE_1.c ****     *  
1292:Generated_Source\PSoC4/BLE_1.c ****     *******************************************************************************/
1293:Generated_Source\PSoC4/BLE_1.c ****     CYBLE_API_RESULT_T CyBle_GapSetLocalName(const char8 name[])
1294:Generated_Source\PSoC4/BLE_1.c ****     {
 1455              		.loc 1 1294 0
 1456              		.cfi_startproc
 1457              		@ args = 0, pretend = 0, frame = 24
 1458              		@ frame_needed = 1, uses_anonymous_args = 0
 1459 0000 80B5     		push	{r7, lr}
 1460              		.cfi_def_cfa_offset 8
 1461              		.cfi_offset 7, -8
 1462              		.cfi_offset 14, -4
 1463 0002 86B0     		sub	sp, sp, #24
 1464              		.cfi_def_cfa_offset 32
 1465 0004 00AF     		add	r7, sp, #0
 1466              		.cfi_def_cfa_register 7
 1467 0006 7860     		str	r0, [r7, #4]
1295:Generated_Source\PSoC4/BLE_1.c ****         CYBLE_API_RESULT_T apiResult = CYBLE_ERROR_OK;
 1468              		.loc 1 1295 0
 1469 0008 1623     		movs	r3, #22
 1470 000a FB18     		adds	r3, r7, r3
 1471 000c 0022     		movs	r2, #0
 1472 000e 1A80     		strh	r2, [r3]
1296:Generated_Source\PSoC4/BLE_1.c ****         uint8 i;
1297:Generated_Source\PSoC4/BLE_1.c ****         char8 *ptr;
1298:Generated_Source\PSoC4/BLE_1.c ****         uint8 charLen;
1299:Generated_Source\PSoC4/BLE_1.c **** 
1300:Generated_Source\PSoC4/BLE_1.c ****         if(NULL != name)
 1473              		.loc 1 1300 0
 1474 0010 7B68     		ldr	r3, [r7, #4]
 1475 0012 002B     		cmp	r3, #0
ARM GAS  C:\Users\megan\AppData\Local\Temp\cc1Y1tYj.s 			page 50


 1476 0014 5CD0     		beq	.L80
1301:Generated_Source\PSoC4/BLE_1.c ****         {
1302:Generated_Source\PSoC4/BLE_1.c ****             /* Get the pointer to the Device Name characteristic  */
1303:Generated_Source\PSoC4/BLE_1.c ****             ptr = (char8 *) CYBLE_GATT_DB_ATTR_GET_ATTR_GEN_PTR(cyBle_gaps.deviceNameCharHandle);
 1477              		.loc 1 1303 0
 1478 0016 344B     		ldr	r3, .L87
 1479 0018 5B88     		ldrh	r3, [r3, #2]
 1480 001a 5A1E     		subs	r2, r3, #1
 1481 001c 3349     		ldr	r1, .L87+4
 1482 001e 1300     		movs	r3, r2
 1483 0020 9B00     		lsls	r3, r3, #2
 1484 0022 9B18     		adds	r3, r3, r2
 1485 0024 9B00     		lsls	r3, r3, #2
 1486 0026 CB18     		adds	r3, r1, r3
 1487 0028 1033     		adds	r3, r3, #16
 1488 002a 1B68     		ldr	r3, [r3]
 1489 002c 5B68     		ldr	r3, [r3, #4]
 1490 002e 3B61     		str	r3, [r7, #16]
1304:Generated_Source\PSoC4/BLE_1.c **** 
1305:Generated_Source\PSoC4/BLE_1.c ****             /* First need to get the maximum length of the characteristic data in the GATT
1306:Generated_Source\PSoC4/BLE_1.c ****                 database to make sure there is enough place for the data. The length
1307:Generated_Source\PSoC4/BLE_1.c ****                 can't be longer than 248, so only the LSB of 16 bit of length is to
1308:Generated_Source\PSoC4/BLE_1.c ****                 be used. */
1309:Generated_Source\PSoC4/BLE_1.c ****             charLen = (uint8)CYBLE_GATT_DB_ATTR_GET_ATTR_GEN_MAX_LEN(cyBle_gaps.deviceNameCharHandl
 1491              		.loc 1 1309 0
 1492 0030 2D4B     		ldr	r3, .L87
 1493 0032 5B88     		ldrh	r3, [r3, #2]
 1494 0034 5A1E     		subs	r2, r3, #1
 1495 0036 2D49     		ldr	r1, .L87+4
 1496 0038 1300     		movs	r3, r2
 1497 003a 9B00     		lsls	r3, r3, #2
 1498 003c 9B18     		adds	r3, r3, r2
 1499 003e 9B00     		lsls	r3, r3, #2
 1500 0040 CB18     		adds	r3, r1, r3
 1501 0042 0C33     		adds	r3, r3, #12
 1502 0044 1A88     		ldrh	r2, [r3]
 1503 0046 0F23     		movs	r3, #15
 1504 0048 FB18     		adds	r3, r7, r3
 1505 004a 1A70     		strb	r2, [r3]
1310:Generated_Source\PSoC4/BLE_1.c **** 
1311:Generated_Source\PSoC4/BLE_1.c ****             /* Copy name into characteristic */
1312:Generated_Source\PSoC4/BLE_1.c ****             for(i = 0u; ((i < charLen) && (CYBLE_NULL_CHARCTER != name[i])); i++)
 1506              		.loc 1 1312 0
 1507 004c 1523     		movs	r3, #21
 1508 004e FB18     		adds	r3, r7, r3
 1509 0050 0022     		movs	r2, #0
 1510 0052 1A70     		strb	r2, [r3]
 1511 0054 12E0     		b	.L81
 1512              	.L83:
1313:Generated_Source\PSoC4/BLE_1.c ****             {
1314:Generated_Source\PSoC4/BLE_1.c ****                 ptr[i] = name[i];
 1513              		.loc 1 1314 0 discriminator 4
 1514 0056 1523     		movs	r3, #21
 1515 0058 FB18     		adds	r3, r7, r3
 1516 005a 1B78     		ldrb	r3, [r3]
 1517 005c 3A69     		ldr	r2, [r7, #16]
 1518 005e D318     		adds	r3, r2, r3
ARM GAS  C:\Users\megan\AppData\Local\Temp\cc1Y1tYj.s 			page 51


 1519 0060 1522     		movs	r2, #21
 1520 0062 BA18     		adds	r2, r7, r2
 1521 0064 1278     		ldrb	r2, [r2]
 1522 0066 7968     		ldr	r1, [r7, #4]
 1523 0068 8A18     		adds	r2, r1, r2
 1524 006a 1278     		ldrb	r2, [r2]
 1525 006c 1A70     		strb	r2, [r3]
1312:Generated_Source\PSoC4/BLE_1.c ****             {
 1526              		.loc 1 1312 0 discriminator 4
 1527 006e 1523     		movs	r3, #21
 1528 0070 FB18     		adds	r3, r7, r3
 1529 0072 1A78     		ldrb	r2, [r3]
 1530 0074 1523     		movs	r3, #21
 1531 0076 FB18     		adds	r3, r7, r3
 1532 0078 0132     		adds	r2, r2, #1
 1533 007a 1A70     		strb	r2, [r3]
 1534              	.L81:
1312:Generated_Source\PSoC4/BLE_1.c ****             {
 1535              		.loc 1 1312 0 is_stmt 0 discriminator 1
 1536 007c 1523     		movs	r3, #21
 1537 007e FA18     		adds	r2, r7, r3
 1538 0080 0F23     		movs	r3, #15
 1539 0082 FB18     		adds	r3, r7, r3
 1540 0084 1278     		ldrb	r2, [r2]
 1541 0086 1B78     		ldrb	r3, [r3]
 1542 0088 9A42     		cmp	r2, r3
 1543 008a 07D2     		bcs	.L82
1312:Generated_Source\PSoC4/BLE_1.c ****             {
 1544              		.loc 1 1312 0 discriminator 3
 1545 008c 1523     		movs	r3, #21
 1546 008e FB18     		adds	r3, r7, r3
 1547 0090 1B78     		ldrb	r3, [r3]
 1548 0092 7A68     		ldr	r2, [r7, #4]
 1549 0094 D318     		adds	r3, r2, r3
 1550 0096 1B78     		ldrb	r3, [r3]
 1551 0098 002B     		cmp	r3, #0
 1552 009a DCD1     		bne	.L83
 1553              	.L82:
1315:Generated_Source\PSoC4/BLE_1.c ****             }
1316:Generated_Source\PSoC4/BLE_1.c **** 
1317:Generated_Source\PSoC4/BLE_1.c ****             if(i < charLen)
 1554              		.loc 1 1317 0 is_stmt 1
 1555 009c 1523     		movs	r3, #21
 1556 009e FA18     		adds	r2, r7, r3
 1557 00a0 0F23     		movs	r3, #15
 1558 00a2 FB18     		adds	r3, r7, r3
 1559 00a4 1278     		ldrb	r2, [r2]
 1560 00a6 1B78     		ldrb	r3, [r3]
 1561 00a8 9A42     		cmp	r2, r3
 1562 00aa 06D2     		bcs	.L84
1318:Generated_Source\PSoC4/BLE_1.c ****             {
1319:Generated_Source\PSoC4/BLE_1.c ****                 /* Terminate string */
1320:Generated_Source\PSoC4/BLE_1.c ****                 ptr[i] = CYBLE_NULL_CHARCTER;
 1563              		.loc 1 1320 0
 1564 00ac 1523     		movs	r3, #21
 1565 00ae FB18     		adds	r3, r7, r3
 1566 00b0 1B78     		ldrb	r3, [r3]
ARM GAS  C:\Users\megan\AppData\Local\Temp\cc1Y1tYj.s 			page 52


 1567 00b2 3A69     		ldr	r2, [r7, #16]
 1568 00b4 D318     		adds	r3, r2, r3
 1569 00b6 0022     		movs	r2, #0
 1570 00b8 1A70     		strb	r2, [r3]
 1571              	.L84:
1321:Generated_Source\PSoC4/BLE_1.c ****             }
1322:Generated_Source\PSoC4/BLE_1.c ****             
1323:Generated_Source\PSoC4/BLE_1.c ****             /* Set new actual length */
1324:Generated_Source\PSoC4/BLE_1.c ****             
1325:Generated_Source\PSoC4/BLE_1.c ****             /* Update device name in advertising and scan response structure */
1326:Generated_Source\PSoC4/BLE_1.c ****             #if(CYBLE_GAP_ROLE_PERIPHERAL)
1327:Generated_Source\PSoC4/BLE_1.c ****                 CyBle_ChangeAdLocalName(name, 0u);
 1572              		.loc 1 1327 0
 1573 00ba 7B68     		ldr	r3, [r7, #4]
 1574 00bc 0021     		movs	r1, #0
 1575 00be 1800     		movs	r0, r3
 1576 00c0 FFF7FEFF 		bl	CyBle_ChangeAdLocalName
1328:Generated_Source\PSoC4/BLE_1.c ****                 CyBle_ChangeAdLocalName(name, 1u);
 1577              		.loc 1 1328 0
 1578 00c4 7B68     		ldr	r3, [r7, #4]
 1579 00c6 0121     		movs	r1, #1
 1580 00c8 1800     		movs	r0, r3
 1581 00ca FFF7FEFF 		bl	CyBle_ChangeAdLocalName
 1582 00ce 03E0     		b	.L85
 1583              	.L80:
1329:Generated_Source\PSoC4/BLE_1.c ****             #endif /* (CYBLE_GAP_ROLE_PERIPHERAL) */
1330:Generated_Source\PSoC4/BLE_1.c ****         }
1331:Generated_Source\PSoC4/BLE_1.c ****         else
1332:Generated_Source\PSoC4/BLE_1.c ****         {
1333:Generated_Source\PSoC4/BLE_1.c ****             apiResult = CYBLE_ERROR_INVALID_PARAMETER;
 1584              		.loc 1 1333 0
 1585 00d0 1623     		movs	r3, #22
 1586 00d2 FB18     		adds	r3, r7, r3
 1587 00d4 0122     		movs	r2, #1
 1588 00d6 1A80     		strh	r2, [r3]
 1589              	.L85:
1334:Generated_Source\PSoC4/BLE_1.c ****         }
1335:Generated_Source\PSoC4/BLE_1.c ****         
1336:Generated_Source\PSoC4/BLE_1.c ****         return(apiResult);
 1590              		.loc 1 1336 0
 1591 00d8 1623     		movs	r3, #22
 1592 00da FB18     		adds	r3, r7, r3
 1593 00dc 1B88     		ldrh	r3, [r3]
1337:Generated_Source\PSoC4/BLE_1.c ****     }
 1594              		.loc 1 1337 0
 1595 00de 1800     		movs	r0, r3
 1596 00e0 BD46     		mov	sp, r7
 1597 00e2 06B0     		add	sp, sp, #24
 1598              		@ sp needed
 1599 00e4 80BD     		pop	{r7, pc}
 1600              	.L88:
 1601 00e6 C046     		.align	2
 1602              	.L87:
 1603 00e8 00000000 		.word	cyBle_gaps
 1604 00ec 00000000 		.word	cyBle_gattDB
 1605              		.cfi_endproc
 1606              	.LFE12:
ARM GAS  C:\Users\megan\AppData\Local\Temp\cc1Y1tYj.s 			page 53


 1607              		.size	CyBle_GapSetLocalName, .-CyBle_GapSetLocalName
 1608              		.section	.text.CyBle_GapGetLocalName,"ax",%progbits
 1609              		.align	2
 1610              		.global	CyBle_GapGetLocalName
 1611              		.code	16
 1612              		.thumb_func
 1613              		.type	CyBle_GapGetLocalName, %function
 1614              	CyBle_GapGetLocalName:
 1615              	.LFB13:
1338:Generated_Source\PSoC4/BLE_1.c **** 
1339:Generated_Source\PSoC4/BLE_1.c **** 
1340:Generated_Source\PSoC4/BLE_1.c ****     /******************************************************************************
1341:Generated_Source\PSoC4/BLE_1.c ****     * Function Name: CyBle_GapGetLocalName
1342:Generated_Source\PSoC4/BLE_1.c ****     ***************************************************************************//**
1343:Generated_Source\PSoC4/BLE_1.c ****     *  
1344:Generated_Source\PSoC4/BLE_1.c ****     *  This API is used to read the local device name - a Characteristic of the 
1345:Generated_Source\PSoC4/BLE_1.c ****     *  GAP Service.
1346:Generated_Source\PSoC4/BLE_1.c ****     * 
1347:Generated_Source\PSoC4/BLE_1.c ****     * \param name: The local device name string. Used to read the local name to the
1348:Generated_Source\PSoC4/BLE_1.c ****     *             given string array. It represents a UTF-8 encoded User Friendly 
1349:Generated_Source\PSoC4/BLE_1.c ****     *             Descriptive Name for the device. The length of the local device
1350:Generated_Source\PSoC4/BLE_1.c ****     *             string is entered into the component customizer and it can be set
1351:Generated_Source\PSoC4/BLE_1.c ****     *             to a value from 0 to 248 bytes. If the name contained in the
1352:Generated_Source\PSoC4/BLE_1.c ****     *             parameter is shorter than the length from the customizer, the end
1353:Generated_Source\PSoC4/BLE_1.c ****     *             of the name is indicated by a NULL octet (0x00).
1354:Generated_Source\PSoC4/BLE_1.c ****     * 
1355:Generated_Source\PSoC4/BLE_1.c ****     * \return
1356:Generated_Source\PSoC4/BLE_1.c ****     *  CYBLE_API_RESULT_T : Return value indicates if the function succeeded or 
1357:Generated_Source\PSoC4/BLE_1.c ****     *  failed. Following are the possible error codes.
1358:Generated_Source\PSoC4/BLE_1.c ****     *
1359:Generated_Source\PSoC4/BLE_1.c ****     *   Errors codes                       | Description
1360:Generated_Source\PSoC4/BLE_1.c ****     *   ------------                       | -----------
1361:Generated_Source\PSoC4/BLE_1.c ****     *   CYBLE_ERROR_OK                     | Function completed successfully.
1362:Generated_Source\PSoC4/BLE_1.c ****     *   CYBLE_ERROR_INVALID_PARAMETER      | On specifying NULL as input parameter
1363:Generated_Source\PSoC4/BLE_1.c ****     *
1364:Generated_Source\PSoC4/BLE_1.c ****     *******************************************************************************/
1365:Generated_Source\PSoC4/BLE_1.c ****     CYBLE_API_RESULT_T CyBle_GapGetLocalName(char8 name[])
1366:Generated_Source\PSoC4/BLE_1.c ****     {
 1616              		.loc 1 1366 0
 1617              		.cfi_startproc
 1618              		@ args = 0, pretend = 0, frame = 24
 1619              		@ frame_needed = 1, uses_anonymous_args = 0
 1620 0000 80B5     		push	{r7, lr}
 1621              		.cfi_def_cfa_offset 8
 1622              		.cfi_offset 7, -8
 1623              		.cfi_offset 14, -4
 1624 0002 86B0     		sub	sp, sp, #24
 1625              		.cfi_def_cfa_offset 32
 1626 0004 00AF     		add	r7, sp, #0
 1627              		.cfi_def_cfa_register 7
 1628 0006 7860     		str	r0, [r7, #4]
1367:Generated_Source\PSoC4/BLE_1.c ****         CYBLE_API_RESULT_T apiResult = CYBLE_ERROR_OK;
 1629              		.loc 1 1367 0
 1630 0008 1623     		movs	r3, #22
 1631 000a FB18     		adds	r3, r7, r3
 1632 000c 0022     		movs	r2, #0
 1633 000e 1A80     		strh	r2, [r3]
ARM GAS  C:\Users\megan\AppData\Local\Temp\cc1Y1tYj.s 			page 54


1368:Generated_Source\PSoC4/BLE_1.c ****         uint8 charLen;
1369:Generated_Source\PSoC4/BLE_1.c ****         uint8 i;
1370:Generated_Source\PSoC4/BLE_1.c ****         char8 *ptr;
1371:Generated_Source\PSoC4/BLE_1.c **** 
1372:Generated_Source\PSoC4/BLE_1.c ****         if(NULL != name)
 1634              		.loc 1 1372 0
 1635 0010 7B68     		ldr	r3, [r7, #4]
 1636 0012 002B     		cmp	r3, #0
 1637 0014 4BD0     		beq	.L90
1373:Generated_Source\PSoC4/BLE_1.c ****         {
1374:Generated_Source\PSoC4/BLE_1.c ****             /* Get the pointer to the Device Name characteristic  */
1375:Generated_Source\PSoC4/BLE_1.c ****             ptr = (char8 *) CYBLE_GATT_DB_ATTR_GET_ATTR_GEN_PTR(cyBle_gaps.deviceNameCharHandle);
 1638              		.loc 1 1375 0
 1639 0016 2B4B     		ldr	r3, .L96
 1640 0018 5B88     		ldrh	r3, [r3, #2]
 1641 001a 5A1E     		subs	r2, r3, #1
 1642 001c 2A49     		ldr	r1, .L96+4
 1643 001e 1300     		movs	r3, r2
 1644 0020 9B00     		lsls	r3, r3, #2
 1645 0022 9B18     		adds	r3, r3, r2
 1646 0024 9B00     		lsls	r3, r3, #2
 1647 0026 CB18     		adds	r3, r1, r3
 1648 0028 1033     		adds	r3, r3, #16
 1649 002a 1B68     		ldr	r3, [r3]
 1650 002c 5B68     		ldr	r3, [r3, #4]
 1651 002e 3B61     		str	r3, [r7, #16]
1376:Generated_Source\PSoC4/BLE_1.c **** 
1377:Generated_Source\PSoC4/BLE_1.c ****             /* First need to get the length of the characteristic data in the GATT
1378:Generated_Source\PSoC4/BLE_1.c ****                 database to make sure there is enough place for the data. The length
1379:Generated_Source\PSoC4/BLE_1.c ****                 can't be longer than 248, so only the LSB of 16 bit of length is to
1380:Generated_Source\PSoC4/BLE_1.c ****                 be used. */
1381:Generated_Source\PSoC4/BLE_1.c ****             charLen = (uint8)CYBLE_GATT_DB_ATTR_GET_ATTR_GEN_LEN(cyBle_gaps.deviceNameCharHandle);
 1652              		.loc 1 1381 0
 1653 0030 244B     		ldr	r3, .L96
 1654 0032 5B88     		ldrh	r3, [r3, #2]
 1655 0034 5A1E     		subs	r2, r3, #1
 1656 0036 2449     		ldr	r1, .L96+4
 1657 0038 1300     		movs	r3, r2
 1658 003a 9B00     		lsls	r3, r3, #2
 1659 003c 9B18     		adds	r3, r3, r2
 1660 003e 9B00     		lsls	r3, r3, #2
 1661 0040 CB18     		adds	r3, r1, r3
 1662 0042 1033     		adds	r3, r3, #16
 1663 0044 1B68     		ldr	r3, [r3]
 1664 0046 1A88     		ldrh	r2, [r3]
 1665 0048 0F23     		movs	r3, #15
 1666 004a FB18     		adds	r3, r7, r3
 1667 004c 1A70     		strb	r2, [r3]
1382:Generated_Source\PSoC4/BLE_1.c **** 
1383:Generated_Source\PSoC4/BLE_1.c ****             /* Copy name from characteristic */
1384:Generated_Source\PSoC4/BLE_1.c ****             for(i = 0u; ((i < charLen) && (CYBLE_NULL_CHARCTER != ptr[i])); i++)
 1668              		.loc 1 1384 0
 1669 004e 1523     		movs	r3, #21
 1670 0050 FB18     		adds	r3, r7, r3
 1671 0052 0022     		movs	r2, #0
 1672 0054 1A70     		strb	r2, [r3]
 1673 0056 12E0     		b	.L91
ARM GAS  C:\Users\megan\AppData\Local\Temp\cc1Y1tYj.s 			page 55


 1674              	.L93:
1385:Generated_Source\PSoC4/BLE_1.c ****             {
1386:Generated_Source\PSoC4/BLE_1.c ****                 name[i] = ptr[i];
 1675              		.loc 1 1386 0 discriminator 4
 1676 0058 1523     		movs	r3, #21
 1677 005a FB18     		adds	r3, r7, r3
 1678 005c 1B78     		ldrb	r3, [r3]
 1679 005e 7A68     		ldr	r2, [r7, #4]
 1680 0060 D318     		adds	r3, r2, r3
 1681 0062 1522     		movs	r2, #21
 1682 0064 BA18     		adds	r2, r7, r2
 1683 0066 1278     		ldrb	r2, [r2]
 1684 0068 3969     		ldr	r1, [r7, #16]
 1685 006a 8A18     		adds	r2, r1, r2
 1686 006c 1278     		ldrb	r2, [r2]
 1687 006e 1A70     		strb	r2, [r3]
1384:Generated_Source\PSoC4/BLE_1.c ****             {
 1688              		.loc 1 1384 0 discriminator 4
 1689 0070 1523     		movs	r3, #21
 1690 0072 FB18     		adds	r3, r7, r3
 1691 0074 1A78     		ldrb	r2, [r3]
 1692 0076 1523     		movs	r3, #21
 1693 0078 FB18     		adds	r3, r7, r3
 1694 007a 0132     		adds	r2, r2, #1
 1695 007c 1A70     		strb	r2, [r3]
 1696              	.L91:
1384:Generated_Source\PSoC4/BLE_1.c ****             {
 1697              		.loc 1 1384 0 is_stmt 0 discriminator 1
 1698 007e 1523     		movs	r3, #21
 1699 0080 FA18     		adds	r2, r7, r3
 1700 0082 0F23     		movs	r3, #15
 1701 0084 FB18     		adds	r3, r7, r3
 1702 0086 1278     		ldrb	r2, [r2]
 1703 0088 1B78     		ldrb	r3, [r3]
 1704 008a 9A42     		cmp	r2, r3
 1705 008c 07D2     		bcs	.L92
1384:Generated_Source\PSoC4/BLE_1.c ****             {
 1706              		.loc 1 1384 0 discriminator 3
 1707 008e 1523     		movs	r3, #21
 1708 0090 FB18     		adds	r3, r7, r3
 1709 0092 1B78     		ldrb	r3, [r3]
 1710 0094 3A69     		ldr	r2, [r7, #16]
 1711 0096 D318     		adds	r3, r2, r3
 1712 0098 1B78     		ldrb	r3, [r3]
 1713 009a 002B     		cmp	r3, #0
 1714 009c DCD1     		bne	.L93
 1715              	.L92:
1387:Generated_Source\PSoC4/BLE_1.c ****             }
1388:Generated_Source\PSoC4/BLE_1.c **** 
1389:Generated_Source\PSoC4/BLE_1.c ****             /* Terminate string */
1390:Generated_Source\PSoC4/BLE_1.c ****             name[i] = CYBLE_NULL_CHARCTER;
 1716              		.loc 1 1390 0 is_stmt 1
 1717 009e 1523     		movs	r3, #21
 1718 00a0 FB18     		adds	r3, r7, r3
 1719 00a2 1B78     		ldrb	r3, [r3]
 1720 00a4 7A68     		ldr	r2, [r7, #4]
 1721 00a6 D318     		adds	r3, r2, r3
ARM GAS  C:\Users\megan\AppData\Local\Temp\cc1Y1tYj.s 			page 56


 1722 00a8 0022     		movs	r2, #0
 1723 00aa 1A70     		strb	r2, [r3]
 1724 00ac 03E0     		b	.L94
 1725              	.L90:
1391:Generated_Source\PSoC4/BLE_1.c ****         }
1392:Generated_Source\PSoC4/BLE_1.c ****         else
1393:Generated_Source\PSoC4/BLE_1.c ****         {
1394:Generated_Source\PSoC4/BLE_1.c ****             apiResult = CYBLE_ERROR_INVALID_PARAMETER;
 1726              		.loc 1 1394 0
 1727 00ae 1623     		movs	r3, #22
 1728 00b0 FB18     		adds	r3, r7, r3
 1729 00b2 0122     		movs	r2, #1
 1730 00b4 1A80     		strh	r2, [r3]
 1731              	.L94:
1395:Generated_Source\PSoC4/BLE_1.c ****         }
1396:Generated_Source\PSoC4/BLE_1.c ****         
1397:Generated_Source\PSoC4/BLE_1.c ****         return(apiResult);
 1732              		.loc 1 1397 0
 1733 00b6 1623     		movs	r3, #22
 1734 00b8 FB18     		adds	r3, r7, r3
 1735 00ba 1B88     		ldrh	r3, [r3]
1398:Generated_Source\PSoC4/BLE_1.c ****     }
 1736              		.loc 1 1398 0
 1737 00bc 1800     		movs	r0, r3
 1738 00be BD46     		mov	sp, r7
 1739 00c0 06B0     		add	sp, sp, #24
 1740              		@ sp needed
 1741 00c2 80BD     		pop	{r7, pc}
 1742              	.L97:
 1743              		.align	2
 1744              	.L96:
 1745 00c4 00000000 		.word	cyBle_gaps
 1746 00c8 00000000 		.word	cyBle_gattDB
 1747              		.cfi_endproc
 1748              	.LFE13:
 1749              		.size	CyBle_GapGetLocalName, .-CyBle_GapGetLocalName
 1750              		.section	.text.CyBle_Get16ByPtr,"ax",%progbits
 1751              		.align	2
 1752              		.global	CyBle_Get16ByPtr
 1753              		.code	16
 1754              		.thumb_func
 1755              		.type	CyBle_Get16ByPtr, %function
 1756              	CyBle_Get16ByPtr:
 1757              	.LFB14:
1399:Generated_Source\PSoC4/BLE_1.c **** 
1400:Generated_Source\PSoC4/BLE_1.c **** #endif /* (CYBLE_GATT_ROLE_SERVER) */
1401:Generated_Source\PSoC4/BLE_1.c **** 
1402:Generated_Source\PSoC4/BLE_1.c **** 
1403:Generated_Source\PSoC4/BLE_1.c **** /******************************************************************************
1404:Generated_Source\PSoC4/BLE_1.c **** * Function Name: CyBle_Get16ByPtr
1405:Generated_Source\PSoC4/BLE_1.c **** ***************************************************************************//**
1406:Generated_Source\PSoC4/BLE_1.c **** * 
1407:Generated_Source\PSoC4/BLE_1.c **** *  Returns the two-bytes value by using a pointer to the LSB.
1408:Generated_Source\PSoC4/BLE_1.c **** * 
1409:Generated_Source\PSoC4/BLE_1.c **** *  \param ptr: Pointer to the LSB of two-bytes data (little endian).
1410:Generated_Source\PSoC4/BLE_1.c **** * 
1411:Generated_Source\PSoC4/BLE_1.c **** *  \return
ARM GAS  C:\Users\megan\AppData\Local\Temp\cc1Y1tYj.s 			page 57


1412:Generated_Source\PSoC4/BLE_1.c **** *  uint16: Two-bytes data.
1413:Generated_Source\PSoC4/BLE_1.c **** * 
1414:Generated_Source\PSoC4/BLE_1.c **** ******************************************************************************/
1415:Generated_Source\PSoC4/BLE_1.c **** uint16 CyBle_Get16ByPtr(const uint8 ptr[])
1416:Generated_Source\PSoC4/BLE_1.c **** {
 1758              		.loc 1 1416 0
 1759              		.cfi_startproc
 1760              		@ args = 0, pretend = 0, frame = 8
 1761              		@ frame_needed = 1, uses_anonymous_args = 0
 1762 0000 80B5     		push	{r7, lr}
 1763              		.cfi_def_cfa_offset 8
 1764              		.cfi_offset 7, -8
 1765              		.cfi_offset 14, -4
 1766 0002 82B0     		sub	sp, sp, #8
 1767              		.cfi_def_cfa_offset 16
 1768 0004 00AF     		add	r7, sp, #0
 1769              		.cfi_def_cfa_register 7
 1770 0006 7860     		str	r0, [r7, #4]
1417:Generated_Source\PSoC4/BLE_1.c ****     return ((uint16) ptr[0u] | ((uint16) (((uint16) ptr[1u]) << 8u)));
 1771              		.loc 1 1417 0
 1772 0008 7B68     		ldr	r3, [r7, #4]
 1773 000a 1B78     		ldrb	r3, [r3]
 1774 000c 9AB2     		uxth	r2, r3
 1775 000e 7B68     		ldr	r3, [r7, #4]
 1776 0010 0133     		adds	r3, r3, #1
 1777 0012 1B78     		ldrb	r3, [r3]
 1778 0014 9BB2     		uxth	r3, r3
 1779 0016 1B02     		lsls	r3, r3, #8
 1780 0018 9BB2     		uxth	r3, r3
 1781 001a 1343     		orrs	r3, r2
 1782 001c 9BB2     		uxth	r3, r3
1418:Generated_Source\PSoC4/BLE_1.c **** }
 1783              		.loc 1 1418 0
 1784 001e 1800     		movs	r0, r3
 1785 0020 BD46     		mov	sp, r7
 1786 0022 02B0     		add	sp, sp, #8
 1787              		@ sp needed
 1788 0024 80BD     		pop	{r7, pc}
 1789              		.cfi_endproc
 1790              	.LFE14:
 1791              		.size	CyBle_Get16ByPtr, .-CyBle_Get16ByPtr
 1792 0026 C046     		.section	.text.CyBle_Set16ByPtr,"ax",%progbits
 1793              		.align	2
 1794              		.global	CyBle_Set16ByPtr
 1795              		.code	16
 1796              		.thumb_func
 1797              		.type	CyBle_Set16ByPtr, %function
 1798              	CyBle_Set16ByPtr:
 1799              	.LFB15:
1419:Generated_Source\PSoC4/BLE_1.c **** 
1420:Generated_Source\PSoC4/BLE_1.c **** 
1421:Generated_Source\PSoC4/BLE_1.c **** /******************************************************************************
1422:Generated_Source\PSoC4/BLE_1.c **** * Function Name: CyBle_Set16ByPtr
1423:Generated_Source\PSoC4/BLE_1.c **** ***************************************************************************//**
1424:Generated_Source\PSoC4/BLE_1.c **** * 
1425:Generated_Source\PSoC4/BLE_1.c **** *  Sets the two-bytes value by using a pointer to the LSB.
1426:Generated_Source\PSoC4/BLE_1.c **** * 
ARM GAS  C:\Users\megan\AppData\Local\Temp\cc1Y1tYj.s 			page 58


1427:Generated_Source\PSoC4/BLE_1.c **** *  \param ptr:    Pointer to the LSB of two-bytes data (little endian).
1428:Generated_Source\PSoC4/BLE_1.c **** *  \param value:  Two-bytes data to be written.
1429:Generated_Source\PSoC4/BLE_1.c **** * 
1430:Generated_Source\PSoC4/BLE_1.c **** *  \return
1431:Generated_Source\PSoC4/BLE_1.c **** *  None
1432:Generated_Source\PSoC4/BLE_1.c **** * 
1433:Generated_Source\PSoC4/BLE_1.c **** ******************************************************************************/
1434:Generated_Source\PSoC4/BLE_1.c **** void CyBle_Set16ByPtr(uint8 ptr[], uint16 value)
1435:Generated_Source\PSoC4/BLE_1.c **** {
 1800              		.loc 1 1435 0
 1801              		.cfi_startproc
 1802              		@ args = 0, pretend = 0, frame = 8
 1803              		@ frame_needed = 1, uses_anonymous_args = 0
 1804 0000 80B5     		push	{r7, lr}
 1805              		.cfi_def_cfa_offset 8
 1806              		.cfi_offset 7, -8
 1807              		.cfi_offset 14, -4
 1808 0002 82B0     		sub	sp, sp, #8
 1809              		.cfi_def_cfa_offset 16
 1810 0004 00AF     		add	r7, sp, #0
 1811              		.cfi_def_cfa_register 7
 1812 0006 7860     		str	r0, [r7, #4]
 1813 0008 0A00     		movs	r2, r1
 1814 000a BB1C     		adds	r3, r7, #2
 1815 000c 1A80     		strh	r2, [r3]
1436:Generated_Source\PSoC4/BLE_1.c ****     ptr[0u] = (uint8) value;
 1816              		.loc 1 1436 0
 1817 000e BB1C     		adds	r3, r7, #2
 1818 0010 1B88     		ldrh	r3, [r3]
 1819 0012 DAB2     		uxtb	r2, r3
 1820 0014 7B68     		ldr	r3, [r7, #4]
 1821 0016 1A70     		strb	r2, [r3]
1437:Generated_Source\PSoC4/BLE_1.c ****     ptr[1u] = (uint8) (value >> 8u);
 1822              		.loc 1 1437 0
 1823 0018 7B68     		ldr	r3, [r7, #4]
 1824 001a 0133     		adds	r3, r3, #1
 1825 001c BA1C     		adds	r2, r7, #2
 1826 001e 1288     		ldrh	r2, [r2]
 1827 0020 120A     		lsrs	r2, r2, #8
 1828 0022 92B2     		uxth	r2, r2
 1829 0024 D2B2     		uxtb	r2, r2
 1830 0026 1A70     		strb	r2, [r3]
1438:Generated_Source\PSoC4/BLE_1.c **** }
 1831              		.loc 1 1438 0
 1832 0028 C046     		nop
 1833 002a BD46     		mov	sp, r7
 1834 002c 02B0     		add	sp, sp, #8
 1835              		@ sp needed
 1836 002e 80BD     		pop	{r7, pc}
 1837              		.cfi_endproc
 1838              	.LFE15:
 1839              		.size	CyBle_Set16ByPtr, .-CyBle_Set16ByPtr
 1840              		.text
 1841              	.Letext0:
 1842              		.file 2 "Generated_Source\\PSoC4\\cytypes.h"
 1843              		.file 3 "Generated_Source\\PSoC4\\BLE_1_Stack.h"
 1844              		.file 4 "Generated_Source\\PSoC4\\BLE_1_StackGap.h"
ARM GAS  C:\Users\megan\AppData\Local\Temp\cc1Y1tYj.s 			page 59


 1845              		.file 5 "Generated_Source\\PSoC4\\BLE_1_StackGatt.h"
 1846              		.file 6 "Generated_Source\\PSoC4\\BLE_1_StackGattDb.h"
 1847              		.file 7 "Generated_Source\\PSoC4\\BLE_1.h"
 1848              		.file 8 "Generated_Source\\PSoC4\\BLE_1_gatt.h"
 1849              		.file 9 "Generated_Source\\PSoC4\\BLE_1_ess.h"
 1850              		.file 10 "Generated_Source\\PSoC4\\BLE_1_eventHandler.h"