ARM GAS  C:\Users\megan\AppData\Local\Temp\ccmgjhBj.s 			page 1


   1              		.syntax unified
   2              		.cpu cortex-m0
   3              		.fpu softvfp
   4              		.eabi_attribute 20, 1
   5              		.eabi_attribute 21, 1
   6              		.eabi_attribute 23, 3
   7              		.eabi_attribute 24, 1
   8              		.eabi_attribute 25, 1
   9              		.eabi_attribute 26, 1
  10              		.eabi_attribute 30, 6
  11              		.eabi_attribute 34, 0
  12              		.eabi_attribute 18, 4
  13              		.thumb
  14              		.syntax unified
  15              		.file	"BLE_1_ess.c"
  16              		.text
  17              	.Ltext0:
  18              		.cfi_sections	.debug_frame
  19              		.data
  20              		.align	2
  21              		.type	esssCharIdx0, %object
  22              		.size	esssCharIdx0, 20
  23              	esssCharIdx0:
  24 0000 1200     		.short	18
  25 0002 1300     		.short	19
  26 0004 0000     		.short	0
  27 0006 0000     		.short	0
  28 0008 0000     		.short	0
  29 000a 0000     		.short	0
  30 000c 0000     		.short	0
  31 000e 0000     		.short	0
  32 0010 0000     		.short	0
  33 0012 0000     		.short	0
  34              		.align	2
  35              		.type	esssCharIdx12, %object
  36              		.size	esssCharIdx12, 20
  37              	esssCharIdx12:
  38 0014 1500     		.short	21
  39 0016 0000     		.short	0
  40 0018 0000     		.short	0
  41 001a 1600     		.short	22
  42 001c 1700     		.short	23
  43 001e 0000     		.short	0
  44 0020 0000     		.short	0
  45 0022 0000     		.short	0
  46 0024 1800     		.short	24
  47 0026 1900     		.short	25
  48              		.global	cyBle_esssCharInstances
  49              		.align	2
  50              		.type	cyBle_esssCharInstances, %object
  51              		.size	cyBle_esssCharInstances, 21
  52              	cyBle_esssCharInstances:
  53 0028 01       		.byte	1
  54 0029 00       		.byte	0
  55 002a 00       		.byte	0
  56 002b 00       		.byte	0
  57 002c 00       		.byte	0
ARM GAS  C:\Users\megan\AppData\Local\Temp\ccmgjhBj.s 			page 2


  58 002d 00       		.byte	0
  59 002e 00       		.byte	0
  60 002f 00       		.byte	0
  61 0030 00       		.byte	0
  62 0031 00       		.byte	0
  63 0032 00       		.byte	0
  64 0033 00       		.byte	0
  65 0034 01       		.byte	1
  66 0035 00       		.byte	0
  67 0036 00       		.byte	0
  68 0037 00       		.byte	0
  69 0038 00       		.byte	0
  70 0039 00       		.byte	0
  71 003a 00       		.byte	0
  72 003b 00       		.byte	0
  73 003c 00       		.byte	0
  74              		.global	cyBle_esss
  75              		.section	.rodata
  76              		.align	2
  77              		.type	cyBle_esss, %object
  78              		.size	cyBle_esss, 88
  79              	cyBle_esss:
  80 0000 1000     		.short	16
  81 0002 0000     		.space	2
  82 0004 00000000 		.word	esssCharIdx0
  83 0008 00000000 		.word	0
  84 000c 00000000 		.word	0
  85 0010 00000000 		.word	0
  86 0014 00000000 		.word	0
  87 0018 00000000 		.word	0
  88 001c 00000000 		.word	0
  89 0020 00000000 		.word	0
  90 0024 00000000 		.word	0
  91 0028 00000000 		.word	0
  92 002c 00000000 		.word	0
  93 0030 00000000 		.word	0
  94 0034 14000000 		.word	esssCharIdx12
  95 0038 00000000 		.word	0
  96 003c 00000000 		.word	0
  97 0040 00000000 		.word	0
  98 0044 00000000 		.word	0
  99 0048 00000000 		.word	0
 100 004c 00000000 		.word	0
 101 0050 00000000 		.word	0
 102 0054 00000000 		.word	0
 103              		.bss
 104              		.align	1
 105              	cyBle_esssReqHandle:
 106 0000 0000     		.space	2
 107 0002 0000     		.align	2
 108              	CyBle_EssApplCallback:
 109 0004 00000000 		.space	4
 110              		.section	.text.CyBle_EssInit,"ax",%progbits
 111              		.align	2
 112              		.global	CyBle_EssInit
 113              		.code	16
 114              		.thumb_func
ARM GAS  C:\Users\megan\AppData\Local\Temp\ccmgjhBj.s 			page 3


 115              		.type	CyBle_EssInit, %function
 116              	CyBle_EssInit:
 117              	.LFB2:
 118              		.file 1 "Generated_Source\\PSoC4\\BLE_1_ess.c"
   1:Generated_Source\PSoC4/BLE_1_ess.c **** /***************************************************************************//**
   2:Generated_Source\PSoC4/BLE_1_ess.c **** * \file CYBLE_ess.c
   3:Generated_Source\PSoC4/BLE_1_ess.c **** * \version 3.30
   4:Generated_Source\PSoC4/BLE_1_ess.c **** * 
   5:Generated_Source\PSoC4/BLE_1_ess.c **** * \brief
   6:Generated_Source\PSoC4/BLE_1_ess.c **** *  Contains the source code for Environmental Sensing Service.
   7:Generated_Source\PSoC4/BLE_1_ess.c **** * 
   8:Generated_Source\PSoC4/BLE_1_ess.c **** ********************************************************************************
   9:Generated_Source\PSoC4/BLE_1_ess.c **** * \copyright
  10:Generated_Source\PSoC4/BLE_1_ess.c **** * Copyright 2014-2016, Cypress Semiconductor Corporation.  All rights reserved.
  11:Generated_Source\PSoC4/BLE_1_ess.c **** * You may use this file only in accordance with the license, terms, conditions,
  12:Generated_Source\PSoC4/BLE_1_ess.c **** * disclaimers, and limitations in the end user license agreement accompanying
  13:Generated_Source\PSoC4/BLE_1_ess.c **** * the software package with which this file was provided.
  14:Generated_Source\PSoC4/BLE_1_ess.c **** *******************************************************************************/
  15:Generated_Source\PSoC4/BLE_1_ess.c **** 
  16:Generated_Source\PSoC4/BLE_1_ess.c **** #include "BLE_1_eventHandler.h"
  17:Generated_Source\PSoC4/BLE_1_ess.c **** 
  18:Generated_Source\PSoC4/BLE_1_ess.c **** 
  19:Generated_Source\PSoC4/BLE_1_ess.c **** #ifdef CYBLE_ESS_SERVER
  20:Generated_Source\PSoC4/BLE_1_ess.c **** /* Generated code */
  21:Generated_Source\PSoC4/BLE_1_ess.c **** /* Descriptor Value Changed characteristic data */
  22:Generated_Source\PSoC4/BLE_1_ess.c **** static CYBLE_ESSS_CHAR_T esssCharIdx0[0x01u] = {
  23:Generated_Source\PSoC4/BLE_1_ess.c ****     {
  24:Generated_Source\PSoC4/BLE_1_ess.c ****         0x0012u, /* Handle of the Descriptor Value Changed characteristic */ 
  25:Generated_Source\PSoC4/BLE_1_ess.c ****         
  26:Generated_Source\PSoC4/BLE_1_ess.c ****             /* Array of Descriptors handles */
  27:Generated_Source\PSoC4/BLE_1_ess.c ****             {
  28:Generated_Source\PSoC4/BLE_1_ess.c ****                 0x0013u, /* Handle of the Client Characteristic Configuration descriptor */ 
  29:Generated_Source\PSoC4/BLE_1_ess.c ****                 CYBLE_GATT_INVALID_ATTR_HANDLE_VALUE, /* Handle of the Characteristic Extended Prop
  30:Generated_Source\PSoC4/BLE_1_ess.c ****                 CYBLE_GATT_INVALID_ATTR_HANDLE_VALUE, 
  31:Generated_Source\PSoC4/BLE_1_ess.c ****                 CYBLE_GATT_INVALID_ATTR_HANDLE_VALUE, 
  32:Generated_Source\PSoC4/BLE_1_ess.c ****                 CYBLE_GATT_INVALID_ATTR_HANDLE_VALUE, 
  33:Generated_Source\PSoC4/BLE_1_ess.c ****                 CYBLE_GATT_INVALID_ATTR_HANDLE_VALUE, 
  34:Generated_Source\PSoC4/BLE_1_ess.c ****                 CYBLE_GATT_INVALID_ATTR_HANDLE_VALUE, 
  35:Generated_Source\PSoC4/BLE_1_ess.c ****                 CYBLE_GATT_INVALID_ATTR_HANDLE_VALUE, 
  36:Generated_Source\PSoC4/BLE_1_ess.c ****                 CYBLE_GATT_INVALID_ATTR_HANDLE_VALUE, 
  37:Generated_Source\PSoC4/BLE_1_ess.c ****             }, 
  38:Generated_Source\PSoC4/BLE_1_ess.c ****     },
  39:Generated_Source\PSoC4/BLE_1_ess.c **** };
  40:Generated_Source\PSoC4/BLE_1_ess.c **** 
  41:Generated_Source\PSoC4/BLE_1_ess.c **** /* Temperature characteristic data */
  42:Generated_Source\PSoC4/BLE_1_ess.c **** static CYBLE_ESSS_CHAR_T esssCharIdx12[0x01u] = {
  43:Generated_Source\PSoC4/BLE_1_ess.c ****     {
  44:Generated_Source\PSoC4/BLE_1_ess.c ****         0x0015u, /* Handle of the Temperature characteristic */ 
  45:Generated_Source\PSoC4/BLE_1_ess.c ****         
  46:Generated_Source\PSoC4/BLE_1_ess.c ****             /* Array of Descriptors handles */
  47:Generated_Source\PSoC4/BLE_1_ess.c ****             {
  48:Generated_Source\PSoC4/BLE_1_ess.c ****                 CYBLE_GATT_INVALID_ATTR_HANDLE_VALUE, /* Handle of the Client Characteristic Config
  49:Generated_Source\PSoC4/BLE_1_ess.c ****                 CYBLE_GATT_INVALID_ATTR_HANDLE_VALUE, /* Handle of the Characteristic Extended Prop
  50:Generated_Source\PSoC4/BLE_1_ess.c ****                 0x0016u, /* Handle of the ES Measurement descriptor */ 
  51:Generated_Source\PSoC4/BLE_1_ess.c ****                 0x0017u, /* Handle of the ES Trigger Setting descriptor */ 
  52:Generated_Source\PSoC4/BLE_1_ess.c ****                 CYBLE_GATT_INVALID_ATTR_HANDLE_VALUE, /* Handle of the ES Trigger Setting 2 descrip
  53:Generated_Source\PSoC4/BLE_1_ess.c ****                 CYBLE_GATT_INVALID_ATTR_HANDLE_VALUE, /* Handle of the ES Trigger Setting 3 descrip
ARM GAS  C:\Users\megan\AppData\Local\Temp\ccmgjhBj.s 			page 4


  54:Generated_Source\PSoC4/BLE_1_ess.c ****                 CYBLE_GATT_INVALID_ATTR_HANDLE_VALUE, /* Handle of the ES Configuration descriptor 
  55:Generated_Source\PSoC4/BLE_1_ess.c ****                 0x0018u, /* Handle of the Characteristic User Description descriptor */ 
  56:Generated_Source\PSoC4/BLE_1_ess.c ****                 0x0019u, /* Handle of the Valid Range descriptor */ 
  57:Generated_Source\PSoC4/BLE_1_ess.c ****             }, 
  58:Generated_Source\PSoC4/BLE_1_ess.c ****     },
  59:Generated_Source\PSoC4/BLE_1_ess.c **** };
  60:Generated_Source\PSoC4/BLE_1_ess.c **** 
  61:Generated_Source\PSoC4/BLE_1_ess.c **** /* Number of ESS characteristics instances */
  62:Generated_Source\PSoC4/BLE_1_ess.c **** uint8 cyBle_esssCharInstances[0x15u] = {
  63:Generated_Source\PSoC4/BLE_1_ess.c ****     0x01u, 0x00u, 0x00u, 0x00u, 0x00u, 0x00u, 0x00u, 0x00u, 0x00u, 0x00u, 0x00u, 0x00u, 0x01u, 0x00
  64:Generated_Source\PSoC4/BLE_1_ess.c ****     0x00u, 0x00u, 0x00u, 0x00u, 0x00u
  65:Generated_Source\PSoC4/BLE_1_ess.c **** };
  66:Generated_Source\PSoC4/BLE_1_ess.c **** 
  67:Generated_Source\PSoC4/BLE_1_ess.c **** const CYBLE_ESSS_T cyBle_esss =
  68:Generated_Source\PSoC4/BLE_1_ess.c **** {
  69:Generated_Source\PSoC4/BLE_1_ess.c ****     0x0010u,    /* Handle of the ESS service */
  70:Generated_Source\PSoC4/BLE_1_ess.c ****     {
  71:Generated_Source\PSoC4/BLE_1_ess.c ****         {
  72:Generated_Source\PSoC4/BLE_1_ess.c ****             &esssCharIdx0[0], /* Handle of the Descriptor Value Changed characteristic */ 
  73:Generated_Source\PSoC4/BLE_1_ess.c ****         }, 
  74:Generated_Source\PSoC4/BLE_1_ess.c ****         {
  75:Generated_Source\PSoC4/BLE_1_ess.c ****             NULL, /* Handle of the Apparent Wind Direction characteristic */ 
  76:Generated_Source\PSoC4/BLE_1_ess.c ****         }, 
  77:Generated_Source\PSoC4/BLE_1_ess.c ****         {
  78:Generated_Source\PSoC4/BLE_1_ess.c ****             NULL, /* Handle of the Apparent Wind Speed characteristic */ 
  79:Generated_Source\PSoC4/BLE_1_ess.c ****         }, 
  80:Generated_Source\PSoC4/BLE_1_ess.c ****         {
  81:Generated_Source\PSoC4/BLE_1_ess.c ****             NULL, /* Handle of the Dew Point characteristic */ 
  82:Generated_Source\PSoC4/BLE_1_ess.c ****         }, 
  83:Generated_Source\PSoC4/BLE_1_ess.c ****         {
  84:Generated_Source\PSoC4/BLE_1_ess.c ****             NULL, /* Handle of the Elevation characteristic */ 
  85:Generated_Source\PSoC4/BLE_1_ess.c ****         }, 
  86:Generated_Source\PSoC4/BLE_1_ess.c ****         {
  87:Generated_Source\PSoC4/BLE_1_ess.c ****             NULL, /* Handle of the Gust Factor characteristic */ 
  88:Generated_Source\PSoC4/BLE_1_ess.c ****         }, 
  89:Generated_Source\PSoC4/BLE_1_ess.c ****         {
  90:Generated_Source\PSoC4/BLE_1_ess.c ****             NULL, /* Handle of the Heat Index characteristic */ 
  91:Generated_Source\PSoC4/BLE_1_ess.c ****         }, 
  92:Generated_Source\PSoC4/BLE_1_ess.c ****         {
  93:Generated_Source\PSoC4/BLE_1_ess.c ****             NULL, /* Handle of the Humidity characteristic */ 
  94:Generated_Source\PSoC4/BLE_1_ess.c ****         }, 
  95:Generated_Source\PSoC4/BLE_1_ess.c ****         {
  96:Generated_Source\PSoC4/BLE_1_ess.c ****             NULL, /* Handle of the Irradiance characteristic */ 
  97:Generated_Source\PSoC4/BLE_1_ess.c ****         }, 
  98:Generated_Source\PSoC4/BLE_1_ess.c ****         {
  99:Generated_Source\PSoC4/BLE_1_ess.c ****             NULL, /* Handle of the Pollen Concentration characteristic */ 
 100:Generated_Source\PSoC4/BLE_1_ess.c ****         }, 
 101:Generated_Source\PSoC4/BLE_1_ess.c ****         {
 102:Generated_Source\PSoC4/BLE_1_ess.c ****             NULL, /* Handle of the Rainfall characteristic */ 
 103:Generated_Source\PSoC4/BLE_1_ess.c ****         }, 
 104:Generated_Source\PSoC4/BLE_1_ess.c ****         {
 105:Generated_Source\PSoC4/BLE_1_ess.c ****             NULL, /* Handle of the Pressure characteristic */ 
 106:Generated_Source\PSoC4/BLE_1_ess.c ****         }, 
 107:Generated_Source\PSoC4/BLE_1_ess.c ****         {
 108:Generated_Source\PSoC4/BLE_1_ess.c ****             &esssCharIdx12[0], /* Handle of the Temperature characteristic */ 
 109:Generated_Source\PSoC4/BLE_1_ess.c ****         }, 
 110:Generated_Source\PSoC4/BLE_1_ess.c ****         {
ARM GAS  C:\Users\megan\AppData\Local\Temp\ccmgjhBj.s 			page 5


 111:Generated_Source\PSoC4/BLE_1_ess.c ****             NULL, /* Handle of the True Wind Direction characteristic */ 
 112:Generated_Source\PSoC4/BLE_1_ess.c ****         }, 
 113:Generated_Source\PSoC4/BLE_1_ess.c ****         {
 114:Generated_Source\PSoC4/BLE_1_ess.c ****             NULL, /* Handle of the True Wind Speed characteristic */ 
 115:Generated_Source\PSoC4/BLE_1_ess.c ****         }, 
 116:Generated_Source\PSoC4/BLE_1_ess.c ****         {
 117:Generated_Source\PSoC4/BLE_1_ess.c ****             NULL, /* Handle of the UV Index characteristic */ 
 118:Generated_Source\PSoC4/BLE_1_ess.c ****         }, 
 119:Generated_Source\PSoC4/BLE_1_ess.c ****         {
 120:Generated_Source\PSoC4/BLE_1_ess.c ****             NULL, /* Handle of the Wind Chill characteristic */ 
 121:Generated_Source\PSoC4/BLE_1_ess.c ****         }, 
 122:Generated_Source\PSoC4/BLE_1_ess.c ****         {
 123:Generated_Source\PSoC4/BLE_1_ess.c ****             NULL, /* Handle of the Barometric Pressure Trend characteristic */ 
 124:Generated_Source\PSoC4/BLE_1_ess.c ****         }, 
 125:Generated_Source\PSoC4/BLE_1_ess.c ****         {
 126:Generated_Source\PSoC4/BLE_1_ess.c ****             NULL, /* Handle of the Magnetic Declination characteristic */ 
 127:Generated_Source\PSoC4/BLE_1_ess.c ****         }, 
 128:Generated_Source\PSoC4/BLE_1_ess.c ****         {
 129:Generated_Source\PSoC4/BLE_1_ess.c ****             NULL, /* Handle of the Magnetic Flux Density - 2D characteristic */ 
 130:Generated_Source\PSoC4/BLE_1_ess.c ****         }, 
 131:Generated_Source\PSoC4/BLE_1_ess.c ****         {
 132:Generated_Source\PSoC4/BLE_1_ess.c ****             NULL, /* Handle of the Magnetic Flux Density - 3D characteristic */ 
 133:Generated_Source\PSoC4/BLE_1_ess.c ****         }, 
 134:Generated_Source\PSoC4/BLE_1_ess.c ****     },
 135:Generated_Source\PSoC4/BLE_1_ess.c **** };
 136:Generated_Source\PSoC4/BLE_1_ess.c **** 
 137:Generated_Source\PSoC4/BLE_1_ess.c **** /* End of generated code */
 138:Generated_Source\PSoC4/BLE_1_ess.c **** 
 139:Generated_Source\PSoC4/BLE_1_ess.c **** static CYBLE_GATT_DB_ATTR_HANDLE_T cyBle_esssReqHandle;
 140:Generated_Source\PSoC4/BLE_1_ess.c **** #endif /* CYBLE_ESS_SERVER */
 141:Generated_Source\PSoC4/BLE_1_ess.c **** 
 142:Generated_Source\PSoC4/BLE_1_ess.c **** #ifdef CYBLE_ESS_CLIENT
 143:Generated_Source\PSoC4/BLE_1_ess.c **** /* Generated code */
 144:Generated_Source\PSoC4/BLE_1_ess.c **** 
 145:Generated_Source\PSoC4/BLE_1_ess.c **** /* End of generated code */
 146:Generated_Source\PSoC4/BLE_1_ess.c **** 
 147:Generated_Source\PSoC4/BLE_1_ess.c **** static CYBLE_GATT_DB_ATTR_HANDLE_T cyBle_esscReqHandle;
 148:Generated_Source\PSoC4/BLE_1_ess.c **** 
 149:Generated_Source\PSoC4/BLE_1_ess.c **** /* Read Long Descriptors variables */
 150:Generated_Source\PSoC4/BLE_1_ess.c **** static uint8 * cyBle_esscRdLongBuffPtr = NULL;
 151:Generated_Source\PSoC4/BLE_1_ess.c **** static uint8 cyBle_esscRdLongBuffLen = 0u;
 152:Generated_Source\PSoC4/BLE_1_ess.c **** static uint8 cyBle_esscCurrLen = 0u;
 153:Generated_Source\PSoC4/BLE_1_ess.c **** 
 154:Generated_Source\PSoC4/BLE_1_ess.c **** uint8 cyBle_esscActiveCharIndex = 0u;
 155:Generated_Source\PSoC4/BLE_1_ess.c **** uint8 cyBle_esscActiveCharInstance = 0u;
 156:Generated_Source\PSoC4/BLE_1_ess.c **** uint8 cyBle_esscPrevCharInstIndex;
 157:Generated_Source\PSoC4/BLE_1_ess.c **** 
 158:Generated_Source\PSoC4/BLE_1_ess.c **** #endif /* (CYBLE_ESS_CLIENT) */
 159:Generated_Source\PSoC4/BLE_1_ess.c **** 
 160:Generated_Source\PSoC4/BLE_1_ess.c **** static CYBLE_CALLBACK_T CyBle_EssApplCallback = NULL;
 161:Generated_Source\PSoC4/BLE_1_ess.c **** 
 162:Generated_Source\PSoC4/BLE_1_ess.c **** 
 163:Generated_Source\PSoC4/BLE_1_ess.c **** /******************************************************************************
 164:Generated_Source\PSoC4/BLE_1_ess.c **** * Function Name: CyBle_EssInit
 165:Generated_Source\PSoC4/BLE_1_ess.c **** ***************************************************************************//**
 166:Generated_Source\PSoC4/BLE_1_ess.c **** * 
 167:Generated_Source\PSoC4/BLE_1_ess.c **** *  This function initializes the Environmental Sensing Service.
ARM GAS  C:\Users\megan\AppData\Local\Temp\ccmgjhBj.s 			page 6


 168:Generated_Source\PSoC4/BLE_1_ess.c **** * 
 169:Generated_Source\PSoC4/BLE_1_ess.c **** ******************************************************************************/
 170:Generated_Source\PSoC4/BLE_1_ess.c **** void CyBle_EssInit(void)
 171:Generated_Source\PSoC4/BLE_1_ess.c **** {
 119              		.loc 1 171 0
 120              		.cfi_startproc
 121              		@ args = 0, pretend = 0, frame = 0
 122              		@ frame_needed = 1, uses_anonymous_args = 0
 123 0000 80B5     		push	{r7, lr}
 124              		.cfi_def_cfa_offset 8
 125              		.cfi_offset 7, -8
 126              		.cfi_offset 14, -4
 127 0002 00AF     		add	r7, sp, #0
 128              		.cfi_def_cfa_register 7
 172:Generated_Source\PSoC4/BLE_1_ess.c **** #ifdef CYBLE_ESS_SERVER
 173:Generated_Source\PSoC4/BLE_1_ess.c **** 
 174:Generated_Source\PSoC4/BLE_1_ess.c ****     cyBle_esssReqHandle = CYBLE_GATT_INVALID_ATTR_HANDLE_VALUE;
 129              		.loc 1 174 0
 130 0004 024B     		ldr	r3, .L2
 131 0006 0022     		movs	r2, #0
 132 0008 1A80     		strh	r2, [r3]
 175:Generated_Source\PSoC4/BLE_1_ess.c **** 
 176:Generated_Source\PSoC4/BLE_1_ess.c **** #endif /* CYBLE_ESS_SERVER */
 177:Generated_Source\PSoC4/BLE_1_ess.c **** 
 178:Generated_Source\PSoC4/BLE_1_ess.c **** #ifdef CYBLE_ESS_CLIENT
 179:Generated_Source\PSoC4/BLE_1_ess.c **** 
 180:Generated_Source\PSoC4/BLE_1_ess.c ****     cyBle_esscActiveCharIndex = 0u;
 181:Generated_Source\PSoC4/BLE_1_ess.c ****     cyBle_esscActiveCharInstance = 0u;
 182:Generated_Source\PSoC4/BLE_1_ess.c ****     cyBle_esscPrevCharInstIndex = 0u;
 183:Generated_Source\PSoC4/BLE_1_ess.c **** 
 184:Generated_Source\PSoC4/BLE_1_ess.c ****     cyBle_esscRdLongBuffPtr = NULL;
 185:Generated_Source\PSoC4/BLE_1_ess.c ****     cyBle_esscRdLongBuffLen = 0u;
 186:Generated_Source\PSoC4/BLE_1_ess.c ****     cyBle_esscCurrLen = 0u;
 187:Generated_Source\PSoC4/BLE_1_ess.c **** 
 188:Generated_Source\PSoC4/BLE_1_ess.c ****     CyBle_EssClearClientDiscInfo();
 189:Generated_Source\PSoC4/BLE_1_ess.c **** 
 190:Generated_Source\PSoC4/BLE_1_ess.c ****     cyBle_esscReqHandle = CYBLE_GATT_INVALID_ATTR_HANDLE_VALUE;
 191:Generated_Source\PSoC4/BLE_1_ess.c **** 
 192:Generated_Source\PSoC4/BLE_1_ess.c **** #endif /* CYBLE_ESS_CLIENT */
 193:Generated_Source\PSoC4/BLE_1_ess.c **** }
 133              		.loc 1 193 0
 134 000a C046     		nop
 135 000c BD46     		mov	sp, r7
 136              		@ sp needed
 137 000e 80BD     		pop	{r7, pc}
 138              	.L3:
 139              		.align	2
 140              	.L2:
 141 0010 00000000 		.word	cyBle_esssReqHandle
 142              		.cfi_endproc
 143              	.LFE2:
 144              		.size	CyBle_EssInit, .-CyBle_EssInit
 145              		.section	.text.CyBle_EssRegisterAttrCallback,"ax",%progbits
 146              		.align	2
 147              		.global	CyBle_EssRegisterAttrCallback
 148              		.code	16
 149              		.thumb_func
ARM GAS  C:\Users\megan\AppData\Local\Temp\ccmgjhBj.s 			page 7


 150              		.type	CyBle_EssRegisterAttrCallback, %function
 151              	CyBle_EssRegisterAttrCallback:
 152              	.LFB3:
 194:Generated_Source\PSoC4/BLE_1_ess.c **** 
 195:Generated_Source\PSoC4/BLE_1_ess.c **** 
 196:Generated_Source\PSoC4/BLE_1_ess.c **** /******************************************************************************
 197:Generated_Source\PSoC4/BLE_1_ess.c **** * Function Name: CyBle_EssRegisterAttrCallback
 198:Generated_Source\PSoC4/BLE_1_ess.c **** ***************************************************************************//**
 199:Generated_Source\PSoC4/BLE_1_ess.c **** * 
 200:Generated_Source\PSoC4/BLE_1_ess.c **** *  Registers a callback function for service specific attribute operations.
 201:Generated_Source\PSoC4/BLE_1_ess.c **** *  Service specific write requests from peer device will not be handled with
 202:Generated_Source\PSoC4/BLE_1_ess.c **** *  unregistered callback function.
 203:Generated_Source\PSoC4/BLE_1_ess.c **** * 
 204:Generated_Source\PSoC4/BLE_1_ess.c **** *  \param callbackFunc:  An application layer event callback function to receive
 205:Generated_Source\PSoC4/BLE_1_ess.c **** *                 events from the BLE Component. The definition of
 206:Generated_Source\PSoC4/BLE_1_ess.c **** *                 CYBLE_CALLBACK_T for ESS Service is:\n
 207:Generated_Source\PSoC4/BLE_1_ess.c **** *                 typedef void (* CYBLE_CALLBACK_T) (uint32 eventCode,
 208:Generated_Source\PSoC4/BLE_1_ess.c **** *                                                    void *eventParam)
 209:Generated_Source\PSoC4/BLE_1_ess.c **** *                 * eventCode:  Indicates the event that triggered this callback
 210:Generated_Source\PSoC4/BLE_1_ess.c **** *                   (e.g. CYBLE_EVT_ESSS_NOTIFICATION_ENABLED).
 211:Generated_Source\PSoC4/BLE_1_ess.c **** *                 * eventParam: Contains the parameters corresponding to the
 212:Generated_Source\PSoC4/BLE_1_ess.c **** *                   current event. (e.g. Pointer to CYBLE_ESS_CHAR_VALUE_T
 213:Generated_Source\PSoC4/BLE_1_ess.c **** *                   structure that contains details of the characteristic
 214:Generated_Source\PSoC4/BLE_1_ess.c **** *                   for which the notification enabled event was triggered).
 215:Generated_Source\PSoC4/BLE_1_ess.c **** * 
 216:Generated_Source\PSoC4/BLE_1_ess.c **** ******************************************************************************/
 217:Generated_Source\PSoC4/BLE_1_ess.c **** void CyBle_EssRegisterAttrCallback(CYBLE_CALLBACK_T callbackFunc)
 218:Generated_Source\PSoC4/BLE_1_ess.c **** {
 153              		.loc 1 218 0
 154              		.cfi_startproc
 155              		@ args = 0, pretend = 0, frame = 8
 156              		@ frame_needed = 1, uses_anonymous_args = 0
 157 0000 80B5     		push	{r7, lr}
 158              		.cfi_def_cfa_offset 8
 159              		.cfi_offset 7, -8
 160              		.cfi_offset 14, -4
 161 0002 82B0     		sub	sp, sp, #8
 162              		.cfi_def_cfa_offset 16
 163 0004 00AF     		add	r7, sp, #0
 164              		.cfi_def_cfa_register 7
 165 0006 7860     		str	r0, [r7, #4]
 219:Generated_Source\PSoC4/BLE_1_ess.c ****     CyBle_EssApplCallback = callbackFunc;
 166              		.loc 1 219 0
 167 0008 034B     		ldr	r3, .L5
 168 000a 7A68     		ldr	r2, [r7, #4]
 169 000c 1A60     		str	r2, [r3]
 220:Generated_Source\PSoC4/BLE_1_ess.c **** }
 170              		.loc 1 220 0
 171 000e C046     		nop
 172 0010 BD46     		mov	sp, r7
 173 0012 02B0     		add	sp, sp, #8
 174              		@ sp needed
 175 0014 80BD     		pop	{r7, pc}
 176              	.L6:
 177 0016 C046     		.align	2
 178              	.L5:
 179 0018 04000000 		.word	CyBle_EssApplCallback
ARM GAS  C:\Users\megan\AppData\Local\Temp\ccmgjhBj.s 			page 8


 180              		.cfi_endproc
 181              	.LFE3:
 182              		.size	CyBle_EssRegisterAttrCallback, .-CyBle_EssRegisterAttrCallback
 183              		.section	.text.CyBle_EssGet24ByPtr,"ax",%progbits
 184              		.align	2
 185              		.global	CyBle_EssGet24ByPtr
 186              		.code	16
 187              		.thumb_func
 188              		.type	CyBle_EssGet24ByPtr, %function
 189              	CyBle_EssGet24ByPtr:
 190              	.LFB4:
 221:Generated_Source\PSoC4/BLE_1_ess.c **** 
 222:Generated_Source\PSoC4/BLE_1_ess.c **** 
 223:Generated_Source\PSoC4/BLE_1_ess.c **** #ifdef CYBLE_ESS_SERVER
 224:Generated_Source\PSoC4/BLE_1_ess.c **** 
 225:Generated_Source\PSoC4/BLE_1_ess.c **** /******************************************************************************
 226:Generated_Source\PSoC4/BLE_1_ess.c **** * Function Name: CyBle_EssGet24ByPtr
 227:Generated_Source\PSoC4/BLE_1_ess.c **** ***************************************************************************//**
 228:Generated_Source\PSoC4/BLE_1_ess.c **** * 
 229:Generated_Source\PSoC4/BLE_1_ess.c **** *  Returns a three-bytes value by using a pointer to the LSB. The value is
 230:Generated_Source\PSoC4/BLE_1_ess.c **** *  returned as uint32.
 231:Generated_Source\PSoC4/BLE_1_ess.c **** * 
 232:Generated_Source\PSoC4/BLE_1_ess.c **** *  \param ptr: The pointer to the LSB of three-byte data (little-endian).
 233:Generated_Source\PSoC4/BLE_1_ess.c **** * 
 234:Generated_Source\PSoC4/BLE_1_ess.c **** * \return
 235:Generated_Source\PSoC4/BLE_1_ess.c **** *  uint32 value: Three-byte data.
 236:Generated_Source\PSoC4/BLE_1_ess.c **** * 
 237:Generated_Source\PSoC4/BLE_1_ess.c **** ******************************************************************************/
 238:Generated_Source\PSoC4/BLE_1_ess.c **** uint32 CyBle_EssGet24ByPtr(const uint8 ptr[])
 239:Generated_Source\PSoC4/BLE_1_ess.c **** {
 191              		.loc 1 239 0
 192              		.cfi_startproc
 193              		@ args = 0, pretend = 0, frame = 8
 194              		@ frame_needed = 1, uses_anonymous_args = 0
 195 0000 80B5     		push	{r7, lr}
 196              		.cfi_def_cfa_offset 8
 197              		.cfi_offset 7, -8
 198              		.cfi_offset 14, -4
 199 0002 82B0     		sub	sp, sp, #8
 200              		.cfi_def_cfa_offset 16
 201 0004 00AF     		add	r7, sp, #0
 202              		.cfi_def_cfa_register 7
 203 0006 7860     		str	r0, [r7, #4]
 240:Generated_Source\PSoC4/BLE_1_ess.c ****     return (((uint32) ptr[0u]) | ((uint32)(((uint32) ptr[1u]) << 8u)) | ((uint32)((uint32) ptr[2u])
 204              		.loc 1 240 0
 205 0008 7B68     		ldr	r3, [r7, #4]
 206 000a 1B78     		ldrb	r3, [r3]
 207 000c 1A00     		movs	r2, r3
 208 000e 7B68     		ldr	r3, [r7, #4]
 209 0010 0133     		adds	r3, r3, #1
 210 0012 1B78     		ldrb	r3, [r3]
 211 0014 1B02     		lsls	r3, r3, #8
 212 0016 1A43     		orrs	r2, r3
 213 0018 7B68     		ldr	r3, [r7, #4]
 214 001a 0233     		adds	r3, r3, #2
 215 001c 1B78     		ldrb	r3, [r3]
 216 001e 1B04     		lsls	r3, r3, #16
ARM GAS  C:\Users\megan\AppData\Local\Temp\ccmgjhBj.s 			page 9


 217 0020 1343     		orrs	r3, r2
 241:Generated_Source\PSoC4/BLE_1_ess.c **** }
 218              		.loc 1 241 0
 219 0022 1800     		movs	r0, r3
 220 0024 BD46     		mov	sp, r7
 221 0026 02B0     		add	sp, sp, #8
 222              		@ sp needed
 223 0028 80BD     		pop	{r7, pc}
 224              		.cfi_endproc
 225              	.LFE4:
 226              		.size	CyBle_EssGet24ByPtr, .-CyBle_EssGet24ByPtr
 227 002a C046     		.section	.text.CyBle_EssGet32ByPtr,"ax",%progbits
 228              		.align	2
 229              		.global	CyBle_EssGet32ByPtr
 230              		.code	16
 231              		.thumb_func
 232              		.type	CyBle_EssGet32ByPtr, %function
 233              	CyBle_EssGet32ByPtr:
 234              	.LFB5:
 242:Generated_Source\PSoC4/BLE_1_ess.c **** 
 243:Generated_Source\PSoC4/BLE_1_ess.c **** 
 244:Generated_Source\PSoC4/BLE_1_ess.c **** /******************************************************************************
 245:Generated_Source\PSoC4/BLE_1_ess.c **** * Function Name: CyBle_EssGet32ByPtr
 246:Generated_Source\PSoC4/BLE_1_ess.c **** ***************************************************************************//**
 247:Generated_Source\PSoC4/BLE_1_ess.c **** * 
 248:Generated_Source\PSoC4/BLE_1_ess.c **** *  Returns a four-byte value by using a pointer to the LSB.
 249:Generated_Source\PSoC4/BLE_1_ess.c **** * 
 250:Generated_Source\PSoC4/BLE_1_ess.c **** *  \param ptr: The pointer to the LSB of four-byte data (little-endian).
 251:Generated_Source\PSoC4/BLE_1_ess.c **** * 
 252:Generated_Source\PSoC4/BLE_1_ess.c **** * \return
 253:Generated_Source\PSoC4/BLE_1_ess.c **** *  uint32 value: Four-byte data.
 254:Generated_Source\PSoC4/BLE_1_ess.c **** * 
 255:Generated_Source\PSoC4/BLE_1_ess.c **** ******************************************************************************/
 256:Generated_Source\PSoC4/BLE_1_ess.c **** uint32 CyBle_EssGet32ByPtr(const uint8 ptr[])
 257:Generated_Source\PSoC4/BLE_1_ess.c **** {
 235              		.loc 1 257 0
 236              		.cfi_startproc
 237              		@ args = 0, pretend = 0, frame = 8
 238              		@ frame_needed = 1, uses_anonymous_args = 0
 239 0000 80B5     		push	{r7, lr}
 240              		.cfi_def_cfa_offset 8
 241              		.cfi_offset 7, -8
 242              		.cfi_offset 14, -4
 243 0002 82B0     		sub	sp, sp, #8
 244              		.cfi_def_cfa_offset 16
 245 0004 00AF     		add	r7, sp, #0
 246              		.cfi_def_cfa_register 7
 247 0006 7860     		str	r0, [r7, #4]
 258:Generated_Source\PSoC4/BLE_1_ess.c ****     return (((uint32) ptr[0u]) | ((uint32) (((uint32) ptr[1u]) << 8u)) | ((uint32)((uint32) ptr[2u]
 248              		.loc 1 258 0
 249 0008 7B68     		ldr	r3, [r7, #4]
 250 000a 1B78     		ldrb	r3, [r3]
 251 000c 1A00     		movs	r2, r3
 252 000e 7B68     		ldr	r3, [r7, #4]
 253 0010 0133     		adds	r3, r3, #1
 254 0012 1B78     		ldrb	r3, [r3]
 255 0014 1B02     		lsls	r3, r3, #8
ARM GAS  C:\Users\megan\AppData\Local\Temp\ccmgjhBj.s 			page 10


 256 0016 1A43     		orrs	r2, r3
 257 0018 7B68     		ldr	r3, [r7, #4]
 258 001a 0233     		adds	r3, r3, #2
 259 001c 1B78     		ldrb	r3, [r3]
 260 001e 1B04     		lsls	r3, r3, #16
 261 0020 1A43     		orrs	r2, r3
 259:Generated_Source\PSoC4/BLE_1_ess.c ****         ((uint32)((uint32) ptr[3u]) << 24u));
 262              		.loc 1 259 0
 263 0022 7B68     		ldr	r3, [r7, #4]
 264 0024 0333     		adds	r3, r3, #3
 265 0026 1B78     		ldrb	r3, [r3]
 266 0028 1B06     		lsls	r3, r3, #24
 258:Generated_Source\PSoC4/BLE_1_ess.c ****     return (((uint32) ptr[0u]) | ((uint32) (((uint32) ptr[1u]) << 8u)) | ((uint32)((uint32) ptr[2u]
 267              		.loc 1 258 0
 268 002a 1343     		orrs	r3, r2
 260:Generated_Source\PSoC4/BLE_1_ess.c **** }
 269              		.loc 1 260 0
 270 002c 1800     		movs	r0, r3
 271 002e BD46     		mov	sp, r7
 272 0030 02B0     		add	sp, sp, #8
 273              		@ sp needed
 274 0032 80BD     		pop	{r7, pc}
 275              		.cfi_endproc
 276              	.LFE5:
 277              		.size	CyBle_EssGet32ByPtr, .-CyBle_EssGet32ByPtr
 278              		.section	.text.CyBle_EsssCheckIfInRange,"ax",%progbits
 279              		.align	2
 280              		.global	CyBle_EsssCheckIfInRange
 281              		.code	16
 282              		.thumb_func
 283              		.type	CyBle_EsssCheckIfInRange, %function
 284              	CyBle_EsssCheckIfInRange:
 285              	.LFB6:
 261:Generated_Source\PSoC4/BLE_1_ess.c **** 
 262:Generated_Source\PSoC4/BLE_1_ess.c **** 
 263:Generated_Source\PSoC4/BLE_1_ess.c **** /******************************************************************************
 264:Generated_Source\PSoC4/BLE_1_ess.c **** * Function Name: CyBle_EsssCheckIfInRange
 265:Generated_Source\PSoC4/BLE_1_ess.c **** ***************************************************************************//**
 266:Generated_Source\PSoC4/BLE_1_ess.c **** * 
 267:Generated_Source\PSoC4/BLE_1_ess.c **** *  Checks if the "value" is in the range of "min" and "max". As the ESS
 268:Generated_Source\PSoC4/BLE_1_ess.c **** *  characteristics operate with signed or unsigned value types and the value in
 269:Generated_Source\PSoC4/BLE_1_ess.c **** *  the GATT database are stored in unsigned variables. Need to clearly identify
 270:Generated_Source\PSoC4/BLE_1_ess.c **** *  the signedness of each "value", "min" and "max". After that the values can
 271:Generated_Source\PSoC4/BLE_1_ess.c **** *  be properly compared. The signedness of each parameter is encoded in "state"
 272:Generated_Source\PSoC4/BLE_1_ess.c **** *  and has the following meaning:
 273:Generated_Source\PSoC4/BLE_1_ess.c **** *     State 0: All three are positive (all three are of unsigned type)
 274:Generated_Source\PSoC4/BLE_1_ess.c **** *     State 1: Min - positive, Max - positive, Value - negative
 275:Generated_Source\PSoC4/BLE_1_ess.c **** *     State 2: Min - positive, Max - negative, Value - positive
 276:Generated_Source\PSoC4/BLE_1_ess.c **** *     State 3: Min - positive, Max - negative, Value - negative
 277:Generated_Source\PSoC4/BLE_1_ess.c **** *     State 4: Min - negative, Max - positive, Value - positive
 278:Generated_Source\PSoC4/BLE_1_ess.c **** *     State 5: Min - negative, Max - positive, Value - negative
 279:Generated_Source\PSoC4/BLE_1_ess.c **** *     State 6: Min - negative, Max - negative, Value - positive
 280:Generated_Source\PSoC4/BLE_1_ess.c **** *     State 7: All three are negative
 281:Generated_Source\PSoC4/BLE_1_ess.c **** * 
 282:Generated_Source\PSoC4/BLE_1_ess.c **** *  min - Minimum inclusive limit.
 283:Generated_Source\PSoC4/BLE_1_ess.c **** *  max - Minimum inclusive limit.
 284:Generated_Source\PSoC4/BLE_1_ess.c **** *  value - The value to be checked if it is in the range.
ARM GAS  C:\Users\megan\AppData\Local\Temp\ccmgjhBj.s 			page 11


 285:Generated_Source\PSoC4/BLE_1_ess.c **** *  state - The state as shown above.
 286:Generated_Source\PSoC4/BLE_1_ess.c **** * 
 287:Generated_Source\PSoC4/BLE_1_ess.c **** * \return
 288:Generated_Source\PSoC4/BLE_1_ess.c **** *  A return value is of type CYBLE_GATT_ERR_CODE_T.
 289:Generated_Source\PSoC4/BLE_1_ess.c **** *   * CYBLE_GATT_ERR_NONE - "value" is in the range.
 290:Generated_Source\PSoC4/BLE_1_ess.c **** *   * CYBLE_GATT_ERR_OUT_OF_RANGE - "value" is not in the range.
 291:Generated_Source\PSoC4/BLE_1_ess.c **** * 
 292:Generated_Source\PSoC4/BLE_1_ess.c **** ******************************************************************************/
 293:Generated_Source\PSoC4/BLE_1_ess.c **** CYBLE_GATT_ERR_CODE_T CyBle_EsssCheckIfInRange(uint32 min, uint32 max, uint32 value, uint8 state)
 294:Generated_Source\PSoC4/BLE_1_ess.c **** {
 286              		.loc 1 294 0
 287              		.cfi_startproc
 288              		@ args = 0, pretend = 0, frame = 24
 289              		@ frame_needed = 1, uses_anonymous_args = 0
 290 0000 80B5     		push	{r7, lr}
 291              		.cfi_def_cfa_offset 8
 292              		.cfi_offset 7, -8
 293              		.cfi_offset 14, -4
 294 0002 86B0     		sub	sp, sp, #24
 295              		.cfi_def_cfa_offset 32
 296 0004 00AF     		add	r7, sp, #0
 297              		.cfi_def_cfa_register 7
 298 0006 F860     		str	r0, [r7, #12]
 299 0008 B960     		str	r1, [r7, #8]
 300 000a 7A60     		str	r2, [r7, #4]
 301 000c 1A00     		movs	r2, r3
 302 000e FB1C     		adds	r3, r7, #3
 303 0010 1A70     		strb	r2, [r3]
 295:Generated_Source\PSoC4/BLE_1_ess.c ****     CYBLE_GATT_ERR_CODE_T gattErr = CYBLE_GATT_ERR_NONE;
 304              		.loc 1 295 0
 305 0012 1723     		movs	r3, #23
 306 0014 FB18     		adds	r3, r7, r3
 307 0016 0022     		movs	r2, #0
 308 0018 1A70     		strb	r2, [r3]
 296:Generated_Source\PSoC4/BLE_1_ess.c **** 
 297:Generated_Source\PSoC4/BLE_1_ess.c ****     switch(state)
 309              		.loc 1 297 0
 310 001a FB1C     		adds	r3, r7, #3
 311 001c 1B78     		ldrb	r3, [r3]
 312 001e 072B     		cmp	r3, #7
 313 0020 35D8     		bhi	.L12
 314 0022 9A00     		lsls	r2, r3, #2
 315 0024 234B     		ldr	r3, .L31
 316 0026 D318     		adds	r3, r2, r3
 317 0028 1B68     		ldr	r3, [r3]
 318 002a 9F46     		mov	pc, r3
 319              		.section	.rodata
 320              		.align	2
 321              	.L14:
 322 0058 2C000000 		.word	.L13
 323 005c 46000000 		.word	.L15
 324 0060 8E000000 		.word	.L12
 325 0064 8E000000 		.word	.L12
 326 0068 50000000 		.word	.L16
 327 006c 62000000 		.word	.L17
 328 0070 46000000 		.word	.L15
 329 0074 74000000 		.word	.L18
ARM GAS  C:\Users\megan\AppData\Local\Temp\ccmgjhBj.s 			page 12


 330              		.section	.text.CyBle_EsssCheckIfInRange
 331              	.L13:
 298:Generated_Source\PSoC4/BLE_1_ess.c ****     {
 299:Generated_Source\PSoC4/BLE_1_ess.c ****         /* All values are positive */
 300:Generated_Source\PSoC4/BLE_1_ess.c ****         case CYBLE_ESS_STATE_0:
 301:Generated_Source\PSoC4/BLE_1_ess.c ****             if((min > value) || (max < value))
 332              		.loc 1 301 0
 333 002c FA68     		ldr	r2, [r7, #12]
 334 002e 7B68     		ldr	r3, [r7, #4]
 335 0030 9A42     		cmp	r2, r3
 336 0032 03D8     		bhi	.L19
 337              		.loc 1 301 0 is_stmt 0 discriminator 1
 338 0034 BA68     		ldr	r2, [r7, #8]
 339 0036 7B68     		ldr	r3, [r7, #4]
 340 0038 9A42     		cmp	r2, r3
 341 003a 2DD2     		bcs	.L27
 342              	.L19:
 302:Generated_Source\PSoC4/BLE_1_ess.c ****             {
 303:Generated_Source\PSoC4/BLE_1_ess.c ****                 gattErr = CYBLE_GATT_ERR_OUT_OF_RANGE;
 343              		.loc 1 303 0 is_stmt 1
 344 003c 1723     		movs	r3, #23
 345 003e FB18     		adds	r3, r7, r3
 346 0040 FF22     		movs	r2, #255
 347 0042 1A70     		strb	r2, [r3]
 304:Generated_Source\PSoC4/BLE_1_ess.c ****             }
 305:Generated_Source\PSoC4/BLE_1_ess.c ****             break;
 348              		.loc 1 305 0
 349 0044 28E0     		b	.L27
 350              	.L15:
 306:Generated_Source\PSoC4/BLE_1_ess.c **** 
 307:Generated_Source\PSoC4/BLE_1_ess.c ****         /* "Not in range" cases. Min and Max are negative and value is positive or
 308:Generated_Source\PSoC4/BLE_1_ess.c ****         * vice versa.
 309:Generated_Source\PSoC4/BLE_1_ess.c ****         */
 310:Generated_Source\PSoC4/BLE_1_ess.c ****         case CYBLE_ESS_STATE_1:
 311:Generated_Source\PSoC4/BLE_1_ess.c ****         case CYBLE_ESS_STATE_6:
 312:Generated_Source\PSoC4/BLE_1_ess.c ****             gattErr = CYBLE_GATT_ERR_OUT_OF_RANGE;
 351              		.loc 1 312 0
 352 0046 1723     		movs	r3, #23
 353 0048 FB18     		adds	r3, r7, r3
 354 004a FF22     		movs	r2, #255
 355 004c 1A70     		strb	r2, [r3]
 313:Generated_Source\PSoC4/BLE_1_ess.c ****             break;
 356              		.loc 1 313 0
 357 004e 2AE0     		b	.L21
 358              	.L16:
 314:Generated_Source\PSoC4/BLE_1_ess.c **** 
 315:Generated_Source\PSoC4/BLE_1_ess.c ****         /* Min is negative, Max and value are positive */
 316:Generated_Source\PSoC4/BLE_1_ess.c ****         case CYBLE_ESS_STATE_4:
 317:Generated_Source\PSoC4/BLE_1_ess.c ****             if(max < value)
 359              		.loc 1 317 0
 360 0050 BA68     		ldr	r2, [r7, #8]
 361 0052 7B68     		ldr	r3, [r7, #4]
 362 0054 9A42     		cmp	r2, r3
 363 0056 21D2     		bcs	.L28
 318:Generated_Source\PSoC4/BLE_1_ess.c ****             {
 319:Generated_Source\PSoC4/BLE_1_ess.c ****                 gattErr = CYBLE_GATT_ERR_OUT_OF_RANGE;
 364              		.loc 1 319 0
ARM GAS  C:\Users\megan\AppData\Local\Temp\ccmgjhBj.s 			page 13


 365 0058 1723     		movs	r3, #23
 366 005a FB18     		adds	r3, r7, r3
 367 005c FF22     		movs	r2, #255
 368 005e 1A70     		strb	r2, [r3]
 320:Generated_Source\PSoC4/BLE_1_ess.c ****             }
 321:Generated_Source\PSoC4/BLE_1_ess.c ****             break;
 369              		.loc 1 321 0
 370 0060 1CE0     		b	.L28
 371              	.L17:
 322:Generated_Source\PSoC4/BLE_1_ess.c **** 
 323:Generated_Source\PSoC4/BLE_1_ess.c ****         /* Max is positive, Min and value are negative */
 324:Generated_Source\PSoC4/BLE_1_ess.c ****         case CYBLE_ESS_STATE_5:
 325:Generated_Source\PSoC4/BLE_1_ess.c ****             if(min > value)
 372              		.loc 1 325 0
 373 0062 FA68     		ldr	r2, [r7, #12]
 374 0064 7B68     		ldr	r3, [r7, #4]
 375 0066 9A42     		cmp	r2, r3
 376 0068 1AD9     		bls	.L29
 326:Generated_Source\PSoC4/BLE_1_ess.c ****             {
 327:Generated_Source\PSoC4/BLE_1_ess.c ****                 gattErr = CYBLE_GATT_ERR_OUT_OF_RANGE;
 377              		.loc 1 327 0
 378 006a 1723     		movs	r3, #23
 379 006c FB18     		adds	r3, r7, r3
 380 006e FF22     		movs	r2, #255
 381 0070 1A70     		strb	r2, [r3]
 328:Generated_Source\PSoC4/BLE_1_ess.c ****             }
 329:Generated_Source\PSoC4/BLE_1_ess.c ****             break;
 382              		.loc 1 329 0
 383 0072 15E0     		b	.L29
 384              	.L18:
 330:Generated_Source\PSoC4/BLE_1_ess.c **** 
 331:Generated_Source\PSoC4/BLE_1_ess.c ****         /* All values are negative */
 332:Generated_Source\PSoC4/BLE_1_ess.c ****         case CYBLE_ESS_STATE_7:
 333:Generated_Source\PSoC4/BLE_1_ess.c ****             if((min > value) || (max < value))
 385              		.loc 1 333 0
 386 0074 FA68     		ldr	r2, [r7, #12]
 387 0076 7B68     		ldr	r3, [r7, #4]
 388 0078 9A42     		cmp	r2, r3
 389 007a 03D8     		bhi	.L24
 390              		.loc 1 333 0 is_stmt 0 discriminator 1
 391 007c BA68     		ldr	r2, [r7, #8]
 392 007e 7B68     		ldr	r3, [r7, #4]
 393 0080 9A42     		cmp	r2, r3
 394 0082 0FD2     		bcs	.L30
 395              	.L24:
 334:Generated_Source\PSoC4/BLE_1_ess.c ****             {
 335:Generated_Source\PSoC4/BLE_1_ess.c ****                 gattErr = CYBLE_GATT_ERR_OUT_OF_RANGE;
 396              		.loc 1 335 0 is_stmt 1
 397 0084 1723     		movs	r3, #23
 398 0086 FB18     		adds	r3, r7, r3
 399 0088 FF22     		movs	r2, #255
 400 008a 1A70     		strb	r2, [r3]
 336:Generated_Source\PSoC4/BLE_1_ess.c ****             }
 337:Generated_Source\PSoC4/BLE_1_ess.c ****             break;
 401              		.loc 1 337 0
 402 008c 0AE0     		b	.L30
 403              	.L12:
ARM GAS  C:\Users\megan\AppData\Local\Temp\ccmgjhBj.s 			page 14


 338:Generated_Source\PSoC4/BLE_1_ess.c **** 
 339:Generated_Source\PSoC4/BLE_1_ess.c ****         /* Invalid cases. Handled by customizer. */
 340:Generated_Source\PSoC4/BLE_1_ess.c ****         case CYBLE_ESS_STATE_2:
 341:Generated_Source\PSoC4/BLE_1_ess.c ****         case CYBLE_ESS_STATE_3:
 342:Generated_Source\PSoC4/BLE_1_ess.c ****         default:
 343:Generated_Source\PSoC4/BLE_1_ess.c ****             gattErr = CYBLE_GATT_ERR_OUT_OF_RANGE;
 404              		.loc 1 343 0
 405 008e 1723     		movs	r3, #23
 406 0090 FB18     		adds	r3, r7, r3
 407 0092 FF22     		movs	r2, #255
 408 0094 1A70     		strb	r2, [r3]
 344:Generated_Source\PSoC4/BLE_1_ess.c ****             break;
 409              		.loc 1 344 0
 410 0096 06E0     		b	.L21
 411              	.L27:
 305:Generated_Source\PSoC4/BLE_1_ess.c **** 
 412              		.loc 1 305 0
 413 0098 C046     		nop
 414 009a 04E0     		b	.L21
 415              	.L28:
 321:Generated_Source\PSoC4/BLE_1_ess.c **** 
 416              		.loc 1 321 0
 417 009c C046     		nop
 418 009e 02E0     		b	.L21
 419              	.L29:
 329:Generated_Source\PSoC4/BLE_1_ess.c **** 
 420              		.loc 1 329 0
 421 00a0 C046     		nop
 422 00a2 00E0     		b	.L21
 423              	.L30:
 337:Generated_Source\PSoC4/BLE_1_ess.c **** 
 424              		.loc 1 337 0
 425 00a4 C046     		nop
 426              	.L21:
 345:Generated_Source\PSoC4/BLE_1_ess.c ****     }
 346:Generated_Source\PSoC4/BLE_1_ess.c **** 
 347:Generated_Source\PSoC4/BLE_1_ess.c ****     return (gattErr);
 427              		.loc 1 347 0
 428 00a6 1723     		movs	r3, #23
 429 00a8 FB18     		adds	r3, r7, r3
 430 00aa 1B78     		ldrb	r3, [r3]
 348:Generated_Source\PSoC4/BLE_1_ess.c **** }
 431              		.loc 1 348 0
 432 00ac 1800     		movs	r0, r3
 433 00ae BD46     		mov	sp, r7
 434 00b0 06B0     		add	sp, sp, #24
 435              		@ sp needed
 436 00b2 80BD     		pop	{r7, pc}
 437              	.L32:
 438              		.align	2
 439              	.L31:
 440 00b4 58000000 		.word	.L14
 441              		.cfi_endproc
 442              	.LFE6:
 443              		.size	CyBle_EsssCheckIfInRange, .-CyBle_EsssCheckIfInRange
 444              		.section	.text.CyBle_EssHandleRangeCheck,"ax",%progbits
 445              		.align	2
ARM GAS  C:\Users\megan\AppData\Local\Temp\ccmgjhBj.s 			page 15


 446              		.global	CyBle_EssHandleRangeCheck
 447              		.code	16
 448              		.thumb_func
 449              		.type	CyBle_EssHandleRangeCheck, %function
 450              	CyBle_EssHandleRangeCheck:
 451              	.LFB7:
 349:Generated_Source\PSoC4/BLE_1_ess.c **** 
 350:Generated_Source\PSoC4/BLE_1_ess.c **** 
 351:Generated_Source\PSoC4/BLE_1_ess.c **** /******************************************************************************
 352:Generated_Source\PSoC4/BLE_1_ess.c **** * Function Name: CyBle_EssHandleRangeCheck
 353:Generated_Source\PSoC4/BLE_1_ess.c **** ***************************************************************************//**
 354:Generated_Source\PSoC4/BLE_1_ess.c **** * 
 355:Generated_Source\PSoC4/BLE_1_ess.c **** *  Performs an extraction of the characteristic value ranges then compares it to
 356:Generated_Source\PSoC4/BLE_1_ess.c **** *  the value received from the client and returns a result of the comparison.
 357:Generated_Source\PSoC4/BLE_1_ess.c **** * 
 358:Generated_Source\PSoC4/BLE_1_ess.c **** *  \param charIndex: The index of the service characteristic. Starts with zero.
 359:Generated_Source\PSoC4/BLE_1_ess.c **** *  \param charInstance: The instance number of the characteristic specified by
 360:Generated_Source\PSoC4/BLE_1_ess.c **** *                "charIndex".
 361:Generated_Source\PSoC4/BLE_1_ess.c **** *  \param length: The length of a buffer to store the main and may ranges. Can be 2,4,6
 362:Generated_Source\PSoC4/BLE_1_ess.c **** *          or 8 bytes.
 363:Generated_Source\PSoC4/BLE_1_ess.c **** *  \param type: Identifies the type of the value pointed by "pValue" (0 - the value
 364:Generated_Source\PSoC4/BLE_1_ess.c **** *        is of unsigned type, 1 - the value is of signed type).
 365:Generated_Source\PSoC4/BLE_1_ess.c **** *  \param pValue: The pointer to the value to be validated if it is in the range.
 366:Generated_Source\PSoC4/BLE_1_ess.c **** * 
 367:Generated_Source\PSoC4/BLE_1_ess.c **** * 
 368:Generated_Source\PSoC4/BLE_1_ess.c **** * \return
 369:Generated_Source\PSoC4/BLE_1_ess.c **** *  A return value is of type CYBLE_GATT_ERR_CODE_T.
 370:Generated_Source\PSoC4/BLE_1_ess.c **** *   * CYBLE_GATT_ERR_NONE - The value stored in "pValue" is in ranges specified
 371:Generated_Source\PSoC4/BLE_1_ess.c **** *                           by Valid Range Descriptor of the characteristic 
 372:Generated_Source\PSoC4/BLE_1_ess.c **** *                           addressed by "charIndex" and "charInstance".
 373:Generated_Source\PSoC4/BLE_1_ess.c **** *   * CYBLE_GATT_ERR_UNLIKELY_ERROR - Failed to read Valid Range Descriptor 
 374:Generated_Source\PSoC4/BLE_1_ess.c **** *                                     value.
 375:Generated_Source\PSoC4/BLE_1_ess.c **** *   * CYBLE_GATT_ERR_OUT_OF_RANGE - The value stored in "pValue" is not in the
 376:Generated_Source\PSoC4/BLE_1_ess.c **** *                                   valid ranges.
 377:Generated_Source\PSoC4/BLE_1_ess.c **** * 
 378:Generated_Source\PSoC4/BLE_1_ess.c **** ******************************************************************************/
 379:Generated_Source\PSoC4/BLE_1_ess.c **** CYBLE_GATT_ERR_CODE_T CyBle_EssHandleRangeCheck(CYBLE_ESS_CHAR_INDEX_T charIndex, uint8 charInstanc
 380:Generated_Source\PSoC4/BLE_1_ess.c ****     uint8 type, const uint8 pValue[])
 381:Generated_Source\PSoC4/BLE_1_ess.c **** {
 452              		.loc 1 381 0
 453              		.cfi_startproc
 454              		@ args = 4, pretend = 0, frame = 40
 455              		@ frame_needed = 1, uses_anonymous_args = 0
 456 0000 B0B5     		push	{r4, r5, r7, lr}
 457              		.cfi_def_cfa_offset 16
 458              		.cfi_offset 4, -16
 459              		.cfi_offset 5, -12
 460              		.cfi_offset 7, -8
 461              		.cfi_offset 14, -4
 462 0002 8CB0     		sub	sp, sp, #48
 463              		.cfi_def_cfa_offset 64
 464 0004 02AF     		add	r7, sp, #8
 465              		.cfi_def_cfa 7, 56
 466 0006 0500     		movs	r5, r0
 467 0008 0C00     		movs	r4, r1
 468 000a 1000     		movs	r0, r2
 469 000c 1900     		movs	r1, r3
ARM GAS  C:\Users\megan\AppData\Local\Temp\ccmgjhBj.s 			page 16


 470 000e FB1D     		adds	r3, r7, #7
 471 0010 2A1C     		adds	r2, r5, #0
 472 0012 1A70     		strb	r2, [r3]
 473 0014 BB1D     		adds	r3, r7, #6
 474 0016 221C     		adds	r2, r4, #0
 475 0018 1A70     		strb	r2, [r3]
 476 001a 3B1D     		adds	r3, r7, #4
 477 001c 021C     		adds	r2, r0, #0
 478 001e 1A80     		strh	r2, [r3]
 479 0020 FB1C     		adds	r3, r7, #3
 480 0022 0A1C     		adds	r2, r1, #0
 481 0024 1A70     		strb	r2, [r3]
 382:Generated_Source\PSoC4/BLE_1_ess.c ****     uint8  state = 0u;
 482              		.loc 1 382 0
 483 0026 2723     		movs	r3, #39
 484 0028 FB18     		adds	r3, r7, r3
 485 002a 0022     		movs	r2, #0
 486 002c 1A70     		strb	r2, [r3]
 383:Generated_Source\PSoC4/BLE_1_ess.c ****     uint8  skipSignCheck = 0u;
 487              		.loc 1 383 0
 488 002e 2623     		movs	r3, #38
 489 0030 FB18     		adds	r3, r7, r3
 490 0032 0022     		movs	r2, #0
 491 0034 1A70     		strb	r2, [r3]
 384:Generated_Source\PSoC4/BLE_1_ess.c ****     uint8  tmpBuff[8u];
 385:Generated_Source\PSoC4/BLE_1_ess.c ****     uint32 maxLimit = 0u;
 492              		.loc 1 385 0
 493 0036 0023     		movs	r3, #0
 494 0038 3B62     		str	r3, [r7, #32]
 386:Generated_Source\PSoC4/BLE_1_ess.c ****     uint32 minLimit = 0u;
 495              		.loc 1 386 0
 496 003a 0023     		movs	r3, #0
 497 003c FB61     		str	r3, [r7, #28]
 387:Generated_Source\PSoC4/BLE_1_ess.c ****     uint32 operand = 0u;
 498              		.loc 1 387 0
 499 003e 0023     		movs	r3, #0
 500 0040 BB61     		str	r3, [r7, #24]
 388:Generated_Source\PSoC4/BLE_1_ess.c ****     uint32 u32Sign = 0u;
 501              		.loc 1 388 0
 502 0042 0023     		movs	r3, #0
 503 0044 7B61     		str	r3, [r7, #20]
 389:Generated_Source\PSoC4/BLE_1_ess.c ****     CYBLE_GATT_ERR_CODE_T apiResult = CYBLE_GATT_ERR_UNLIKELY_ERROR;
 504              		.loc 1 389 0
 505 0046 1323     		movs	r3, #19
 506 0048 FB18     		adds	r3, r7, r3
 507 004a 0E22     		movs	r2, #14
 508 004c 1A70     		strb	r2, [r3]
 390:Generated_Source\PSoC4/BLE_1_ess.c ****     
 391:Generated_Source\PSoC4/BLE_1_ess.c ****     if(CyBle_EsssGetCharacteristicDescriptor(charIndex, charInstance, CYBLE_ESS_VRD, length, tmpBuf
 509              		.loc 1 391 0
 510 004e 3B1D     		adds	r3, r7, #4
 511 0050 1A88     		ldrh	r2, [r3]
 512 0052 BB1D     		adds	r3, r7, #6
 513 0054 1978     		ldrb	r1, [r3]
 514 0056 FB1D     		adds	r3, r7, #7
 515 0058 1878     		ldrb	r0, [r3]
 516 005a 0823     		movs	r3, #8
ARM GAS  C:\Users\megan\AppData\Local\Temp\ccmgjhBj.s 			page 17


 517 005c FB18     		adds	r3, r7, r3
 518 005e 0093     		str	r3, [sp]
 519 0060 1300     		movs	r3, r2
 520 0062 0822     		movs	r2, #8
 521 0064 FFF7FEFF 		bl	CyBle_EsssGetCharacteristicDescriptor
 522 0068 031E     		subs	r3, r0, #0
 523 006a 00D0     		beq	.LCB356
 524 006c AFE0     		b	.L34	@long jump
 525              	.LCB356:
 392:Generated_Source\PSoC4/BLE_1_ess.c ****     {
 393:Generated_Source\PSoC4/BLE_1_ess.c ****         switch(length)
 526              		.loc 1 393 0
 527 006e 3B1D     		adds	r3, r7, #4
 528 0070 1B88     		ldrh	r3, [r3]
 529 0072 042B     		cmp	r3, #4
 530 0074 16D0     		beq	.L36
 531 0076 02DC     		bgt	.L37
 532 0078 022B     		cmp	r3, #2
 533 007a 05D0     		beq	.L38
 534 007c 5AE0     		b	.L35
 535              	.L37:
 536 007e 062B     		cmp	r3, #6
 537 0080 29D0     		beq	.L39
 538 0082 082B     		cmp	r3, #8
 539 0084 40D0     		beq	.L40
 540 0086 55E0     		b	.L35
 541              	.L38:
 394:Generated_Source\PSoC4/BLE_1_ess.c ****         {
 395:Generated_Source\PSoC4/BLE_1_ess.c ****             case CYBLE_ESS_2BYTES_LENGTH:
 396:Generated_Source\PSoC4/BLE_1_ess.c ****                 operand =  (uint32)(pValue[0u]);
 542              		.loc 1 396 0
 543 0088 BB6B     		ldr	r3, [r7, #56]
 544 008a 1B78     		ldrb	r3, [r3]
 545 008c BB61     		str	r3, [r7, #24]
 397:Generated_Source\PSoC4/BLE_1_ess.c ****                 minLimit = (uint32)(tmpBuff[0u]);
 546              		.loc 1 397 0
 547 008e 0823     		movs	r3, #8
 548 0090 FB18     		adds	r3, r7, r3
 549 0092 1B78     		ldrb	r3, [r3]
 550 0094 FB61     		str	r3, [r7, #28]
 398:Generated_Source\PSoC4/BLE_1_ess.c ****                 maxLimit = (uint32)(tmpBuff[1u]);
 551              		.loc 1 398 0
 552 0096 0823     		movs	r3, #8
 553 0098 FB18     		adds	r3, r7, r3
 554 009a 5B78     		ldrb	r3, [r3, #1]
 555 009c 3B62     		str	r3, [r7, #32]
 399:Generated_Source\PSoC4/BLE_1_ess.c ****                 u32Sign = CYBLE_ESS_U8_SIGN_BIT;
 556              		.loc 1 399 0
 557 009e 8023     		movs	r3, #128
 558 00a0 7B61     		str	r3, [r7, #20]
 400:Generated_Source\PSoC4/BLE_1_ess.c ****                 break;
 559              		.loc 1 400 0
 560 00a2 4CE0     		b	.L41
 561              	.L36:
 401:Generated_Source\PSoC4/BLE_1_ess.c ****             case CYBLE_ESS_4BYTES_LENGTH:
 402:Generated_Source\PSoC4/BLE_1_ess.c ****                 operand =  (uint32) CyBle_EssGet16ByPtr(&pValue[0u]);
 562              		.loc 1 402 0
ARM GAS  C:\Users\megan\AppData\Local\Temp\ccmgjhBj.s 			page 18


 563 00a4 BB6B     		ldr	r3, [r7, #56]
 564 00a6 1800     		movs	r0, r3
 565 00a8 FFF7FEFF 		bl	CyBle_Get16ByPtr
 566 00ac 0300     		movs	r3, r0
 567 00ae BB61     		str	r3, [r7, #24]
 403:Generated_Source\PSoC4/BLE_1_ess.c ****                 minLimit = (uint32) CyBle_EssGet16ByPtr(&tmpBuff[0u]);
 568              		.loc 1 403 0
 569 00b0 0823     		movs	r3, #8
 570 00b2 FB18     		adds	r3, r7, r3
 571 00b4 1800     		movs	r0, r3
 572 00b6 FFF7FEFF 		bl	CyBle_Get16ByPtr
 573 00ba 0300     		movs	r3, r0
 574 00bc FB61     		str	r3, [r7, #28]
 404:Generated_Source\PSoC4/BLE_1_ess.c ****                 maxLimit = (uint32) CyBle_EssGet16ByPtr(&tmpBuff[2u]);
 575              		.loc 1 404 0
 576 00be 0823     		movs	r3, #8
 577 00c0 FB18     		adds	r3, r7, r3
 578 00c2 0233     		adds	r3, r3, #2
 579 00c4 1800     		movs	r0, r3
 580 00c6 FFF7FEFF 		bl	CyBle_Get16ByPtr
 581 00ca 0300     		movs	r3, r0
 582 00cc 3B62     		str	r3, [r7, #32]
 405:Generated_Source\PSoC4/BLE_1_ess.c ****                 u32Sign = CYBLE_ESS_U16_SIGN_BIT;
 583              		.loc 1 405 0
 584 00ce 8023     		movs	r3, #128
 585 00d0 1B02     		lsls	r3, r3, #8
 586 00d2 7B61     		str	r3, [r7, #20]
 406:Generated_Source\PSoC4/BLE_1_ess.c ****                 break;
 587              		.loc 1 406 0
 588 00d4 33E0     		b	.L41
 589              	.L39:
 407:Generated_Source\PSoC4/BLE_1_ess.c ****             case CYBLE_ESS_6BYTES_LENGTH:
 408:Generated_Source\PSoC4/BLE_1_ess.c ****                 operand =  (uint32) CyBle_EssGet24ByPtr(&pValue[0u]);
 590              		.loc 1 408 0
 591 00d6 BB6B     		ldr	r3, [r7, #56]
 592 00d8 1800     		movs	r0, r3
 593 00da FFF7FEFF 		bl	CyBle_EssGet24ByPtr
 594 00de 0300     		movs	r3, r0
 595 00e0 BB61     		str	r3, [r7, #24]
 409:Generated_Source\PSoC4/BLE_1_ess.c ****                 minLimit = (uint32) CyBle_EssGet24ByPtr(&tmpBuff[0u]);
 596              		.loc 1 409 0
 597 00e2 0823     		movs	r3, #8
 598 00e4 FB18     		adds	r3, r7, r3
 599 00e6 1800     		movs	r0, r3
 600 00e8 FFF7FEFF 		bl	CyBle_EssGet24ByPtr
 601 00ec 0300     		movs	r3, r0
 602 00ee FB61     		str	r3, [r7, #28]
 410:Generated_Source\PSoC4/BLE_1_ess.c ****                 maxLimit = (uint32) CyBle_EssGet24ByPtr(&tmpBuff[3u]);
 603              		.loc 1 410 0
 604 00f0 0823     		movs	r3, #8
 605 00f2 FB18     		adds	r3, r7, r3
 606 00f4 0333     		adds	r3, r3, #3
 607 00f6 1800     		movs	r0, r3
 608 00f8 FFF7FEFF 		bl	CyBle_EssGet24ByPtr
 609 00fc 0300     		movs	r3, r0
 610 00fe 3B62     		str	r3, [r7, #32]
 411:Generated_Source\PSoC4/BLE_1_ess.c ****                 u32Sign = CYBLE_ESS_U24_SIGN_BIT;
ARM GAS  C:\Users\megan\AppData\Local\Temp\ccmgjhBj.s 			page 19


 611              		.loc 1 411 0
 612 0100 8023     		movs	r3, #128
 613 0102 1B04     		lsls	r3, r3, #16
 614 0104 7B61     		str	r3, [r7, #20]
 412:Generated_Source\PSoC4/BLE_1_ess.c ****                 break;
 615              		.loc 1 412 0
 616 0106 1AE0     		b	.L41
 617              	.L40:
 413:Generated_Source\PSoC4/BLE_1_ess.c ****             case CYBLE_ESS_8BYTES_LENGTH:
 414:Generated_Source\PSoC4/BLE_1_ess.c ****                 operand =  (uint32) CyBle_EssGet32ByPtr(&pValue[0u]);
 618              		.loc 1 414 0
 619 0108 BB6B     		ldr	r3, [r7, #56]
 620 010a 1800     		movs	r0, r3
 621 010c FFF7FEFF 		bl	CyBle_EssGet32ByPtr
 622 0110 0300     		movs	r3, r0
 623 0112 BB61     		str	r3, [r7, #24]
 415:Generated_Source\PSoC4/BLE_1_ess.c ****                 minLimit = (uint32) CyBle_EssGet32ByPtr(&tmpBuff[0u]);
 624              		.loc 1 415 0
 625 0114 0823     		movs	r3, #8
 626 0116 FB18     		adds	r3, r7, r3
 627 0118 1800     		movs	r0, r3
 628 011a FFF7FEFF 		bl	CyBle_EssGet32ByPtr
 629 011e 0300     		movs	r3, r0
 630 0120 FB61     		str	r3, [r7, #28]
 416:Generated_Source\PSoC4/BLE_1_ess.c ****                 maxLimit = (uint32) CyBle_EssGet32ByPtr(&tmpBuff[4u]);
 631              		.loc 1 416 0
 632 0122 0823     		movs	r3, #8
 633 0124 FB18     		adds	r3, r7, r3
 634 0126 0433     		adds	r3, r3, #4
 635 0128 1800     		movs	r0, r3
 636 012a FFF7FEFF 		bl	CyBle_EssGet32ByPtr
 637 012e 0300     		movs	r3, r0
 638 0130 3B62     		str	r3, [r7, #32]
 417:Generated_Source\PSoC4/BLE_1_ess.c ****                 break;
 639              		.loc 1 417 0
 640 0132 04E0     		b	.L41
 641              	.L35:
 418:Generated_Source\PSoC4/BLE_1_ess.c **** 
 419:Generated_Source\PSoC4/BLE_1_ess.c ****             default:
 420:Generated_Source\PSoC4/BLE_1_ess.c ****                 skipSignCheck = 1u;
 642              		.loc 1 420 0
 643 0134 2623     		movs	r3, #38
 644 0136 FB18     		adds	r3, r7, r3
 645 0138 0122     		movs	r2, #1
 646 013a 1A70     		strb	r2, [r3]
 421:Generated_Source\PSoC4/BLE_1_ess.c ****                 break;
 647              		.loc 1 421 0
 648 013c C046     		nop
 649              	.L41:
 422:Generated_Source\PSoC4/BLE_1_ess.c ****         }
 423:Generated_Source\PSoC4/BLE_1_ess.c **** 
 424:Generated_Source\PSoC4/BLE_1_ess.c ****         if(skipSignCheck == 0u)
 650              		.loc 1 424 0
 651 013e 2623     		movs	r3, #38
 652 0140 FB18     		adds	r3, r7, r3
 653 0142 1B78     		ldrb	r3, [r3]
 654 0144 002B     		cmp	r3, #0
ARM GAS  C:\Users\megan\AppData\Local\Temp\ccmgjhBj.s 			page 20


 655 0146 36D1     		bne	.L42
 425:Generated_Source\PSoC4/BLE_1_ess.c ****         {
 426:Generated_Source\PSoC4/BLE_1_ess.c ****             if(type != CYBLE_ESS_UNSIGNED_TYPE)
 656              		.loc 1 426 0
 657 0148 FB1C     		adds	r3, r7, #3
 658 014a 1B78     		ldrb	r3, [r3]
 659 014c 002B     		cmp	r3, #0
 660 014e 2ED0     		beq	.L43
 427:Generated_Source\PSoC4/BLE_1_ess.c ****             {
 428:Generated_Source\PSoC4/BLE_1_ess.c ****                 state = CYBLE_ESS_IS_NEGATIVE(minLimit, u32Sign) << 1u;
 661              		.loc 1 428 0
 662 0150 FB69     		ldr	r3, [r7, #28]
 663 0152 7A69     		ldr	r2, [r7, #20]
 664 0154 1A40     		ands	r2, r3
 665 0156 7B69     		ldr	r3, [r7, #20]
 666 0158 9A42     		cmp	r2, r3
 667 015a 01D1     		bne	.L44
 668              		.loc 1 428 0 is_stmt 0 discriminator 1
 669 015c 0222     		movs	r2, #2
 670 015e 00E0     		b	.L45
 671              	.L44:
 672              		.loc 1 428 0 discriminator 2
 673 0160 0022     		movs	r2, #0
 674              	.L45:
 675              		.loc 1 428 0 discriminator 4
 676 0162 2723     		movs	r3, #39
 677 0164 FB18     		adds	r3, r7, r3
 678 0166 1A70     		strb	r2, [r3]
 429:Generated_Source\PSoC4/BLE_1_ess.c ****                 state = (state | CYBLE_ESS_IS_NEGATIVE(maxLimit, u32Sign)) << 1u;
 679              		.loc 1 429 0 is_stmt 1 discriminator 4
 680 0168 3B6A     		ldr	r3, [r7, #32]
 681 016a 7A69     		ldr	r2, [r7, #20]
 682 016c 1A40     		ands	r2, r3
 683 016e 7B69     		ldr	r3, [r7, #20]
 684 0170 9A42     		cmp	r2, r3
 685 0172 01D1     		bne	.L46
 686              		.loc 1 429 0 is_stmt 0 discriminator 1
 687 0174 0123     		movs	r3, #1
 688 0176 00E0     		b	.L47
 689              	.L46:
 690              		.loc 1 429 0 discriminator 2
 691 0178 0023     		movs	r3, #0
 692              	.L47:
 693              		.loc 1 429 0 discriminator 4
 694 017a 2722     		movs	r2, #39
 695 017c BA18     		adds	r2, r7, r2
 696 017e 1278     		ldrb	r2, [r2]
 697 0180 1343     		orrs	r3, r2
 698 0182 DBB2     		uxtb	r3, r3
 699 0184 2722     		movs	r2, #39
 700 0186 BA18     		adds	r2, r7, r2
 701 0188 DB18     		adds	r3, r3, r3
 702 018a 1370     		strb	r3, [r2]
 430:Generated_Source\PSoC4/BLE_1_ess.c ****                 state |= CYBLE_ESS_IS_NEGATIVE(operand, u32Sign);
 703              		.loc 1 430 0 is_stmt 1 discriminator 4
 704 018c BB69     		ldr	r3, [r7, #24]
 705 018e 7A69     		ldr	r2, [r7, #20]
ARM GAS  C:\Users\megan\AppData\Local\Temp\ccmgjhBj.s 			page 21


 706 0190 1A40     		ands	r2, r3
 707 0192 7B69     		ldr	r3, [r7, #20]
 708 0194 9A42     		cmp	r2, r3
 709 0196 01D1     		bne	.L48
 710              		.loc 1 430 0 is_stmt 0 discriminator 1
 711 0198 0123     		movs	r3, #1
 712 019a 00E0     		b	.L49
 713              	.L48:
 714              		.loc 1 430 0 discriminator 2
 715 019c 0023     		movs	r3, #0
 716              	.L49:
 717              		.loc 1 430 0 discriminator 4
 718 019e 2722     		movs	r2, #39
 719 01a0 BA18     		adds	r2, r7, r2
 720 01a2 2721     		movs	r1, #39
 721 01a4 7918     		adds	r1, r7, r1
 722 01a6 0978     		ldrb	r1, [r1]
 723 01a8 0B43     		orrs	r3, r1
 724 01aa 1370     		strb	r3, [r2]
 725 01ac 03E0     		b	.L42
 726              	.L43:
 431:Generated_Source\PSoC4/BLE_1_ess.c ****             }
 432:Generated_Source\PSoC4/BLE_1_ess.c ****             else
 433:Generated_Source\PSoC4/BLE_1_ess.c ****             {
 434:Generated_Source\PSoC4/BLE_1_ess.c ****                 state = 0u;
 727              		.loc 1 434 0 is_stmt 1
 728 01ae 2723     		movs	r3, #39
 729 01b0 FB18     		adds	r3, r7, r3
 730 01b2 0022     		movs	r2, #0
 731 01b4 1A70     		strb	r2, [r3]
 732              	.L42:
 435:Generated_Source\PSoC4/BLE_1_ess.c ****             }
 436:Generated_Source\PSoC4/BLE_1_ess.c ****         }
 437:Generated_Source\PSoC4/BLE_1_ess.c **** 
 438:Generated_Source\PSoC4/BLE_1_ess.c ****         /* Compare the operand to the limits with respect to the state
 439:Generated_Source\PSoC4/BLE_1_ess.c ****         * and return the results. 
 440:Generated_Source\PSoC4/BLE_1_ess.c ****         */
 441:Generated_Source\PSoC4/BLE_1_ess.c ****         apiResult = CyBle_EsssCheckIfInRange(minLimit, maxLimit, operand, state);
 733              		.loc 1 441 0
 734 01b6 1323     		movs	r3, #19
 735 01b8 FC18     		adds	r4, r7, r3
 736 01ba 2723     		movs	r3, #39
 737 01bc FB18     		adds	r3, r7, r3
 738 01be 1B78     		ldrb	r3, [r3]
 739 01c0 BA69     		ldr	r2, [r7, #24]
 740 01c2 396A     		ldr	r1, [r7, #32]
 741 01c4 F869     		ldr	r0, [r7, #28]
 742 01c6 FFF7FEFF 		bl	CyBle_EsssCheckIfInRange
 743 01ca 0300     		movs	r3, r0
 744 01cc 2370     		strb	r3, [r4]
 745              	.L34:
 442:Generated_Source\PSoC4/BLE_1_ess.c ****     }
 443:Generated_Source\PSoC4/BLE_1_ess.c **** 
 444:Generated_Source\PSoC4/BLE_1_ess.c ****     return(apiResult);
 746              		.loc 1 444 0
 747 01ce 1323     		movs	r3, #19
 748 01d0 FB18     		adds	r3, r7, r3
ARM GAS  C:\Users\megan\AppData\Local\Temp\ccmgjhBj.s 			page 22


 749 01d2 1B78     		ldrb	r3, [r3]
 445:Generated_Source\PSoC4/BLE_1_ess.c **** }
 750              		.loc 1 445 0
 751 01d4 1800     		movs	r0, r3
 752 01d6 BD46     		mov	sp, r7
 753 01d8 0AB0     		add	sp, sp, #40
 754              		@ sp needed
 755 01da B0BD     		pop	{r4, r5, r7, pc}
 756              		.cfi_endproc
 757              	.LFE7:
 758              		.size	CyBle_EssHandleRangeCheck, .-CyBle_EssHandleRangeCheck
 759              		.section	.text.CyBle_EsssWriteEventHandler,"ax",%progbits
 760              		.align	2
 761              		.global	CyBle_EsssWriteEventHandler
 762              		.code	16
 763              		.thumb_func
 764              		.type	CyBle_EsssWriteEventHandler, %function
 765              	CyBle_EsssWriteEventHandler:
 766              	.LFB8:
 446:Generated_Source\PSoC4/BLE_1_ess.c **** 
 447:Generated_Source\PSoC4/BLE_1_ess.c **** 
 448:Generated_Source\PSoC4/BLE_1_ess.c **** /******************************************************************************
 449:Generated_Source\PSoC4/BLE_1_ess.c **** * Function Name: CyBle_EsssWriteEventHandler
 450:Generated_Source\PSoC4/BLE_1_ess.c **** ***************************************************************************//**
 451:Generated_Source\PSoC4/BLE_1_ess.c **** * 
 452:Generated_Source\PSoC4/BLE_1_ess.c **** *  Handles a Write Request event for Environmental Sensing Service.
 453:Generated_Source\PSoC4/BLE_1_ess.c **** * 
 454:Generated_Source\PSoC4/BLE_1_ess.c **** *  \param eventParam: The pointer to the data structure specified by an event.
 455:Generated_Source\PSoC4/BLE_1_ess.c **** * 
 456:Generated_Source\PSoC4/BLE_1_ess.c **** * \return
 457:Generated_Source\PSoC4/BLE_1_ess.c **** *  A return value is of type CYBLE_GATT_ERR_CODE_T.
 458:Generated_Source\PSoC4/BLE_1_ess.c **** *   * CYBLE_GATT_ERR_NONE - Write is successful.
 459:Generated_Source\PSoC4/BLE_1_ess.c **** *   * CYBLE_GATT_ERR_REQUEST_NOT_SUPPORTED - Request is not supported.
 460:Generated_Source\PSoC4/BLE_1_ess.c **** *   * CYBLE_GATT_ERR_INVALID_HANDLE - 'handleValuePair.attrHandle' is not valid.
 461:Generated_Source\PSoC4/BLE_1_ess.c **** *   * CYBLE_GATT_ERR_WRITE_NOT_PERMITTED - Write operation is not permitted on
 462:Generated_Source\PSoC4/BLE_1_ess.c **** *                                          this attribute.
 463:Generated_Source\PSoC4/BLE_1_ess.c **** *   * CYBLE_GATT_ERR_INVALID_OFFSET - the offset value is invalid.
 464:Generated_Source\PSoC4/BLE_1_ess.c **** *   * CYBLE_GATT_ERR_UNLIKELY_ERROR - Some other error occurred.
 465:Generated_Source\PSoC4/BLE_1_ess.c **** *   * CYBLE_GATT_ERR_CONDITION_NOT_SUPPORTED - The condition in ES Trigger Settings
 466:Generated_Source\PSoC4/BLE_1_ess.c **** *                                              Descriptor is not supported.
 467:Generated_Source\PSoC4/BLE_1_ess.c **** *   * CYBLE_GATT_ERR_WRITE_REQ_REJECTED - A write request was rejected.
 468:Generated_Source\PSoC4/BLE_1_ess.c **** * 
 469:Generated_Source\PSoC4/BLE_1_ess.c **** ******************************************************************************/
 470:Generated_Source\PSoC4/BLE_1_ess.c **** CYBLE_GATT_ERR_CODE_T CyBle_EsssWriteEventHandler(CYBLE_GATTS_WRITE_REQ_PARAM_T *eventParam)
 471:Generated_Source\PSoC4/BLE_1_ess.c **** {
 767              		.loc 1 471 0
 768              		.cfi_startproc
 769              		@ args = 0, pretend = 0, frame = 40
 770              		@ frame_needed = 1, uses_anonymous_args = 0
 771 0000 90B5     		push	{r4, r7, lr}
 772              		.cfi_def_cfa_offset 12
 773              		.cfi_offset 4, -12
 774              		.cfi_offset 7, -8
 775              		.cfi_offset 14, -4
 776 0002 8DB0     		sub	sp, sp, #52
 777              		.cfi_def_cfa_offset 64
 778 0004 02AF     		add	r7, sp, #8
ARM GAS  C:\Users\megan\AppData\Local\Temp\ccmgjhBj.s 			page 23


 779              		.cfi_def_cfa 7, 56
 780 0006 7860     		str	r0, [r7, #4]
 472:Generated_Source\PSoC4/BLE_1_ess.c ****     uint8 i;
 473:Generated_Source\PSoC4/BLE_1_ess.c ****     uint8 j;
 474:Generated_Source\PSoC4/BLE_1_ess.c ****     uint32 event = (uint32) CYBLE_EVT_ESSS_DESCR_WRITE;
 781              		.loc 1 474 0
 782 0008 8223     		movs	r3, #130
 783 000a FF33     		adds	r3, r3, #255
 784 000c 3B62     		str	r3, [r7, #32]
 475:Generated_Source\PSoC4/BLE_1_ess.c ****     uint8 foundItem = 0u;
 785              		.loc 1 475 0
 786 000e 1F23     		movs	r3, #31
 787 0010 FB18     		adds	r3, r7, r3
 788 0012 0022     		movs	r2, #0
 789 0014 1A70     		strb	r2, [r3]
 476:Generated_Source\PSoC4/BLE_1_ess.c ****     CYBLE_ESSS_CHAR_T *essCharInfoPtr;
 477:Generated_Source\PSoC4/BLE_1_ess.c ****     CYBLE_ESS_DESCR_VALUE_T wrDescrReqParam;
 478:Generated_Source\PSoC4/BLE_1_ess.c ****     CYBLE_GATT_DB_ATTR_HANDLE_T tmpHandle;
 479:Generated_Source\PSoC4/BLE_1_ess.c ****     CYBLE_GATT_ERR_CODE_T gattErr = CYBLE_GATT_ERR_NONE;
 790              		.loc 1 479 0
 791 0016 1E23     		movs	r3, #30
 792 0018 FB18     		adds	r3, r7, r3
 793 001a 0022     		movs	r2, #0
 794 001c 1A70     		strb	r2, [r3]
 480:Generated_Source\PSoC4/BLE_1_ess.c **** 
 481:Generated_Source\PSoC4/BLE_1_ess.c ****     tmpHandle = eventParam->handleValPair.attrHandle;
 795              		.loc 1 481 0
 796 001e 1C23     		movs	r3, #28
 797 0020 FB18     		adds	r3, r7, r3
 798 0022 7A68     		ldr	r2, [r7, #4]
 799 0024 9289     		ldrh	r2, [r2, #12]
 800 0026 1A80     		strh	r2, [r3]
 482:Generated_Source\PSoC4/BLE_1_ess.c **** 
 483:Generated_Source\PSoC4/BLE_1_ess.c ****     if(NULL != CyBle_EssApplCallback)
 801              		.loc 1 483 0
 802 0028 CF4B     		ldr	r3, .L107
 803 002a 1B68     		ldr	r3, [r3]
 804 002c 002B     		cmp	r3, #0
 805 002e 00D1     		bne	.LCB615
 806 0030 B0E2     		b	.L52	@long jump
 807              	.LCB615:
 484:Generated_Source\PSoC4/BLE_1_ess.c ****     {
 485:Generated_Source\PSoC4/BLE_1_ess.c ****         wrDescrReqParam.descrIndex = CYBLE_ESS_DESCR_COUNT;
 808              		.loc 1 485 0
 809 0032 0C23     		movs	r3, #12
 810 0034 FB18     		adds	r3, r7, r3
 811 0036 0922     		movs	r2, #9
 812 0038 1A71     		strb	r2, [r3, #4]
 486:Generated_Source\PSoC4/BLE_1_ess.c ****         
 487:Generated_Source\PSoC4/BLE_1_ess.c ****         /* Go through all possible Service characteristics.
 488:Generated_Source\PSoC4/BLE_1_ess.c ****         * Exit the handler in following conditions:
 489:Generated_Source\PSoC4/BLE_1_ess.c ****         * 1) No more characteristic left;
 490:Generated_Source\PSoC4/BLE_1_ess.c ****         * 2) Characteristic or descriptor was successfully written;
 491:Generated_Source\PSoC4/BLE_1_ess.c ****         * 3) Error occurred while writing characteristic or descriptor.
 492:Generated_Source\PSoC4/BLE_1_ess.c ****         */
 493:Generated_Source\PSoC4/BLE_1_ess.c ****         for(i = 0u; ((i < ((uint8) CYBLE_ESS_CHAR_COUNT)) && (foundItem == 0u) && (gattErr == CYBLE
 813              		.loc 1 493 0
ARM GAS  C:\Users\megan\AppData\Local\Temp\ccmgjhBj.s 			page 24


 814 003a 2723     		movs	r3, #39
 815 003c FB18     		adds	r3, r7, r3
 816 003e 0022     		movs	r2, #0
 817 0040 1A70     		strb	r2, [r3]
 818 0042 97E2     		b	.L53
 819              	.L100:
 494:Generated_Source\PSoC4/BLE_1_ess.c ****             i++)
 495:Generated_Source\PSoC4/BLE_1_ess.c ****         {
 496:Generated_Source\PSoC4/BLE_1_ess.c ****             /* Check if characteristic is enabled. If the pointer to the characteristic
 497:Generated_Source\PSoC4/BLE_1_ess.c ****             * is not "NULL", there is at least one instance of the characteristic in
 498:Generated_Source\PSoC4/BLE_1_ess.c ****             * the ES Service.
 499:Generated_Source\PSoC4/BLE_1_ess.c ****             */
 500:Generated_Source\PSoC4/BLE_1_ess.c ****             if(NULL != cyBle_esss.charInfoAddr[i].charInfoPtr)
 820              		.loc 1 500 0
 821 0044 2723     		movs	r3, #39
 822 0046 FB18     		adds	r3, r7, r3
 823 0048 1B78     		ldrb	r3, [r3]
 824 004a C84A     		ldr	r2, .L107+4
 825 004c 9B00     		lsls	r3, r3, #2
 826 004e D318     		adds	r3, r2, r3
 827 0050 0433     		adds	r3, r3, #4
 828 0052 1B68     		ldr	r3, [r3]
 829 0054 002B     		cmp	r3, #0
 830 0056 00D1     		bne	.LCB637
 831 0058 85E2     		b	.L54	@long jump
 832              	.LCB637:
 501:Generated_Source\PSoC4/BLE_1_ess.c ****             {
 502:Generated_Source\PSoC4/BLE_1_ess.c ****                 for(j = 0u; j < cyBle_esssCharInstances[i]; j++)
 833              		.loc 1 502 0
 834 005a 2623     		movs	r3, #38
 835 005c FB18     		adds	r3, r7, r3
 836 005e 0022     		movs	r2, #0
 837 0060 1A70     		strb	r2, [r3]
 838 0062 75E2     		b	.L55
 839              	.L99:
 503:Generated_Source\PSoC4/BLE_1_ess.c ****                 {
 504:Generated_Source\PSoC4/BLE_1_ess.c ****                     essCharInfoPtr = &cyBle_esss.charInfoAddr[i].charInfoPtr[j];
 840              		.loc 1 504 0
 841 0064 2723     		movs	r3, #39
 842 0066 FB18     		adds	r3, r7, r3
 843 0068 1B78     		ldrb	r3, [r3]
 844 006a C04A     		ldr	r2, .L107+4
 845 006c 9B00     		lsls	r3, r3, #2
 846 006e D318     		adds	r3, r2, r3
 847 0070 0433     		adds	r3, r3, #4
 848 0072 1968     		ldr	r1, [r3]
 849 0074 2623     		movs	r3, #38
 850 0076 FB18     		adds	r3, r7, r3
 851 0078 1A78     		ldrb	r2, [r3]
 852 007a 1300     		movs	r3, r2
 853 007c 9B00     		lsls	r3, r3, #2
 854 007e 9B18     		adds	r3, r3, r2
 855 0080 9B00     		lsls	r3, r3, #2
 856 0082 CB18     		adds	r3, r1, r3
 857 0084 BB61     		str	r3, [r7, #24]
 505:Generated_Source\PSoC4/BLE_1_ess.c **** 
 506:Generated_Source\PSoC4/BLE_1_ess.c ****                     /* Client Characteristic Configuration Descriptor Write Request handling */
ARM GAS  C:\Users\megan\AppData\Local\Temp\ccmgjhBj.s 			page 25


 507:Generated_Source\PSoC4/BLE_1_ess.c ****                     if(tmpHandle == essCharInfoPtr->descrHandle[CYBLE_ESS_CCCD])
 858              		.loc 1 507 0
 859 0086 BB69     		ldr	r3, [r7, #24]
 860 0088 5B88     		ldrh	r3, [r3, #2]
 861 008a 1C22     		movs	r2, #28
 862 008c BA18     		adds	r2, r7, r2
 863 008e 1288     		ldrh	r2, [r2]
 864 0090 9A42     		cmp	r2, r3
 865 0092 00D0     		beq	.LCB669
 866 0094 79E0     		b	.L56	@long jump
 867              	.LCB669:
 508:Generated_Source\PSoC4/BLE_1_ess.c ****                     {
 509:Generated_Source\PSoC4/BLE_1_ess.c ****                         /* Verify that optional notification property is enabled for characteristic
 510:Generated_Source\PSoC4/BLE_1_ess.c ****                         if(CYBLE_IS_NOTIFICATION_SUPPORTED(essCharInfoPtr->charHandle))
 868              		.loc 1 510 0
 869 0096 BB69     		ldr	r3, [r7, #24]
 870 0098 1B88     		ldrh	r3, [r3]
 871 009a 5A1E     		subs	r2, r3, #1
 872 009c B449     		ldr	r1, .L107+8
 873 009e 1300     		movs	r3, r2
 874 00a0 9B00     		lsls	r3, r3, #2
 875 00a2 9B18     		adds	r3, r3, r2
 876 00a4 9B00     		lsls	r3, r3, #2
 877 00a6 CB18     		adds	r3, r1, r3
 878 00a8 0433     		adds	r3, r3, #4
 879 00aa 1A68     		ldr	r2, [r3]
 880 00ac 8023     		movs	r3, #128
 881 00ae 5B03     		lsls	r3, r3, #13
 882 00b0 1340     		ands	r3, r2
 883 00b2 2BD0     		beq	.L57
 511:Generated_Source\PSoC4/BLE_1_ess.c ****                         {
 512:Generated_Source\PSoC4/BLE_1_ess.c ****                             if(CYBLE_IS_NOTIFICATION_ENABLED_IN_PTR(eventParam->handleValPair.value
 884              		.loc 1 512 0
 885 00b4 7B68     		ldr	r3, [r7, #4]
 886 00b6 5B68     		ldr	r3, [r3, #4]
 887 00b8 1800     		movs	r0, r3
 888 00ba FFF7FEFF 		bl	CyBle_Get16ByPtr
 889 00be 0300     		movs	r3, r0
 890 00c0 1A00     		movs	r2, r3
 891 00c2 0123     		movs	r3, #1
 892 00c4 1340     		ands	r3, r2
 893 00c6 9BB2     		uxth	r3, r3
 894 00c8 002B     		cmp	r3, #0
 895 00ca 03D0     		beq	.L58
 513:Generated_Source\PSoC4/BLE_1_ess.c ****                             {
 514:Generated_Source\PSoC4/BLE_1_ess.c ****                                 event = (uint32)CYBLE_EVT_ESSS_NOTIFICATION_ENABLED;
 896              		.loc 1 514 0
 897 00cc 7C23     		movs	r3, #124
 898 00ce FF33     		adds	r3, r3, #255
 899 00d0 3B62     		str	r3, [r7, #32]
 900 00d2 02E0     		b	.L59
 901              	.L58:
 515:Generated_Source\PSoC4/BLE_1_ess.c ****                             }
 516:Generated_Source\PSoC4/BLE_1_ess.c ****                             else
 517:Generated_Source\PSoC4/BLE_1_ess.c ****                             {
 518:Generated_Source\PSoC4/BLE_1_ess.c ****                                 event = (uint32)CYBLE_EVT_ESSS_NOTIFICATION_DISABLED;
 902              		.loc 1 518 0
ARM GAS  C:\Users\megan\AppData\Local\Temp\ccmgjhBj.s 			page 26


 903 00d4 BE23     		movs	r3, #190
 904 00d6 5B00     		lsls	r3, r3, #1
 905 00d8 3B62     		str	r3, [r7, #32]
 906              	.L59:
 519:Generated_Source\PSoC4/BLE_1_ess.c ****                             }
 520:Generated_Source\PSoC4/BLE_1_ess.c **** 
 521:Generated_Source\PSoC4/BLE_1_ess.c ****                             /* Value is NULL for descriptors */
 522:Generated_Source\PSoC4/BLE_1_ess.c ****                             wrDescrReqParam.value = NULL;
 907              		.loc 1 522 0
 908 00da 0C23     		movs	r3, #12
 909 00dc FB18     		adds	r3, r7, r3
 910 00de 0022     		movs	r2, #0
 911 00e0 9A60     		str	r2, [r3, #8]
 523:Generated_Source\PSoC4/BLE_1_ess.c ****                             wrDescrReqParam.descrIndex = CYBLE_ESS_CCCD;
 912              		.loc 1 523 0
 913 00e2 0C23     		movs	r3, #12
 914 00e4 FB18     		adds	r3, r7, r3
 915 00e6 0022     		movs	r2, #0
 916 00e8 1A71     		strb	r2, [r3, #4]
 524:Generated_Source\PSoC4/BLE_1_ess.c ****                             foundItem = CYBLE_ESS_DESCRIPTOR_ITEM;
 917              		.loc 1 524 0
 918 00ea 1F23     		movs	r3, #31
 919 00ec FB18     		adds	r3, r7, r3
 920 00ee 0222     		movs	r2, #2
 921 00f0 1A70     		strb	r2, [r3]
 525:Generated_Source\PSoC4/BLE_1_ess.c **** 
 526:Generated_Source\PSoC4/BLE_1_ess.c ****                         #if((CYBLE_GAP_ROLE_PERIPHERAL || CYBLE_GAP_ROLE_CENTRAL) && \
 527:Generated_Source\PSoC4/BLE_1_ess.c ****                             (CYBLE_BONDING_REQUIREMENT == CYBLE_BONDING_YES))
 528:Generated_Source\PSoC4/BLE_1_ess.c ****                             /* Set flag to store bonding data to flash */
 529:Generated_Source\PSoC4/BLE_1_ess.c ****                             if(cyBle_peerBonding == CYBLE_GAP_BONDING)
 922              		.loc 1 529 0
 923 00f2 A04B     		ldr	r3, .L107+12
 924 00f4 1B78     		ldrb	r3, [r3]
 925 00f6 012B     		cmp	r3, #1
 926 00f8 00D0     		beq	.LCB724
 927 00fa 95E0     		b	.L66	@long jump
 928              	.LCB724:
 530:Generated_Source\PSoC4/BLE_1_ess.c ****                             {
 531:Generated_Source\PSoC4/BLE_1_ess.c ****                                 cyBle_pendingFlashWrite |= CYBLE_PENDING_CCCD_FLASH_WRITE_BIT;
 929              		.loc 1 531 0
 930 00fc 9E4B     		ldr	r3, .L107+16
 931 00fe 1B78     		ldrb	r3, [r3]
 932 0100 0222     		movs	r2, #2
 933 0102 1343     		orrs	r3, r2
 934 0104 DAB2     		uxtb	r2, r3
 935 0106 9C4B     		ldr	r3, .L107+16
 936 0108 1A70     		strb	r2, [r3]
 937 010a 8DE0     		b	.L66
 938              	.L57:
 532:Generated_Source\PSoC4/BLE_1_ess.c ****                             }
 533:Generated_Source\PSoC4/BLE_1_ess.c ****                         #endif /* (CYBLE_BONDING_REQUIREMENT == CYBLE_BONDING_YES) */
 534:Generated_Source\PSoC4/BLE_1_ess.c ****                         }
 535:Generated_Source\PSoC4/BLE_1_ess.c ****                         else if(CYBLE_IS_INDICATION_SUPPORTED(essCharInfoPtr->charHandle))
 939              		.loc 1 535 0
 940 010c BB69     		ldr	r3, [r7, #24]
 941 010e 1B88     		ldrh	r3, [r3]
 942 0110 5A1E     		subs	r2, r3, #1
ARM GAS  C:\Users\megan\AppData\Local\Temp\ccmgjhBj.s 			page 27


 943 0112 9749     		ldr	r1, .L107+8
 944 0114 1300     		movs	r3, r2
 945 0116 9B00     		lsls	r3, r3, #2
 946 0118 9B18     		adds	r3, r3, r2
 947 011a 9B00     		lsls	r3, r3, #2
 948 011c CB18     		adds	r3, r1, r3
 949 011e 0433     		adds	r3, r3, #4
 950 0120 1A68     		ldr	r2, [r3]
 951 0122 8023     		movs	r3, #128
 952 0124 9B03     		lsls	r3, r3, #14
 953 0126 1340     		ands	r3, r2
 954 0128 2AD0     		beq	.L62
 536:Generated_Source\PSoC4/BLE_1_ess.c ****                         {
 537:Generated_Source\PSoC4/BLE_1_ess.c ****                             if(CYBLE_IS_INDICATION_ENABLED_IN_PTR(eventParam->handleValPair.value.v
 955              		.loc 1 537 0
 956 012a 7B68     		ldr	r3, [r7, #4]
 957 012c 5B68     		ldr	r3, [r3, #4]
 958 012e 1800     		movs	r0, r3
 959 0130 FFF7FEFF 		bl	CyBle_Get16ByPtr
 960 0134 0300     		movs	r3, r0
 961 0136 1A00     		movs	r2, r3
 962 0138 0223     		movs	r3, #2
 963 013a 1340     		ands	r3, r2
 964 013c 9BB2     		uxth	r3, r3
 965 013e 002B     		cmp	r3, #0
 966 0140 03D0     		beq	.L63
 538:Generated_Source\PSoC4/BLE_1_ess.c ****                             {
 539:Generated_Source\PSoC4/BLE_1_ess.c ****                                 event = (uint32)CYBLE_EVT_ESSS_INDICATION_ENABLED;
 967              		.loc 1 539 0
 968 0142 7E23     		movs	r3, #126
 969 0144 FF33     		adds	r3, r3, #255
 970 0146 3B62     		str	r3, [r7, #32]
 971 0148 02E0     		b	.L64
 972              	.L63:
 540:Generated_Source\PSoC4/BLE_1_ess.c ****                             }
 541:Generated_Source\PSoC4/BLE_1_ess.c ****                             else
 542:Generated_Source\PSoC4/BLE_1_ess.c ****                             {
 543:Generated_Source\PSoC4/BLE_1_ess.c ****                                 event = (uint32)CYBLE_EVT_ESSS_INDICATION_DISABLED;
 973              		.loc 1 543 0
 974 014a BF23     		movs	r3, #191
 975 014c 5B00     		lsls	r3, r3, #1
 976 014e 3B62     		str	r3, [r7, #32]
 977              	.L64:
 544:Generated_Source\PSoC4/BLE_1_ess.c ****                             }
 545:Generated_Source\PSoC4/BLE_1_ess.c **** 
 546:Generated_Source\PSoC4/BLE_1_ess.c ****                             /* Value is NULL for descriptors */
 547:Generated_Source\PSoC4/BLE_1_ess.c ****                             wrDescrReqParam.value = NULL;
 978              		.loc 1 547 0
 979 0150 0C23     		movs	r3, #12
 980 0152 FB18     		adds	r3, r7, r3
 981 0154 0022     		movs	r2, #0
 982 0156 9A60     		str	r2, [r3, #8]
 548:Generated_Source\PSoC4/BLE_1_ess.c ****                             wrDescrReqParam.descrIndex = CYBLE_ESS_CCCD;
 983              		.loc 1 548 0
 984 0158 0C23     		movs	r3, #12
 985 015a FB18     		adds	r3, r7, r3
 986 015c 0022     		movs	r2, #0
ARM GAS  C:\Users\megan\AppData\Local\Temp\ccmgjhBj.s 			page 28


 987 015e 1A71     		strb	r2, [r3, #4]
 549:Generated_Source\PSoC4/BLE_1_ess.c ****                             foundItem = CYBLE_ESS_DESCRIPTOR_ITEM;
 988              		.loc 1 549 0
 989 0160 1F23     		movs	r3, #31
 990 0162 FB18     		adds	r3, r7, r3
 991 0164 0222     		movs	r2, #2
 992 0166 1A70     		strb	r2, [r3]
 550:Generated_Source\PSoC4/BLE_1_ess.c **** 
 551:Generated_Source\PSoC4/BLE_1_ess.c ****                         #if((CYBLE_GAP_ROLE_PERIPHERAL || CYBLE_GAP_ROLE_CENTRAL) && \
 552:Generated_Source\PSoC4/BLE_1_ess.c ****                             (CYBLE_BONDING_REQUIREMENT == CYBLE_BONDING_YES))
 553:Generated_Source\PSoC4/BLE_1_ess.c ****                             /* Set flag to store bonding data to flash */
 554:Generated_Source\PSoC4/BLE_1_ess.c ****                             if(cyBle_peerBonding == CYBLE_GAP_BONDING)
 993              		.loc 1 554 0
 994 0168 824B     		ldr	r3, .L107+12
 995 016a 1B78     		ldrb	r3, [r3]
 996 016c 012B     		cmp	r3, #1
 997 016e 5BD1     		bne	.L66
 555:Generated_Source\PSoC4/BLE_1_ess.c ****                             {
 556:Generated_Source\PSoC4/BLE_1_ess.c ****                                 cyBle_pendingFlashWrite |= CYBLE_PENDING_CCCD_FLASH_WRITE_BIT;
 998              		.loc 1 556 0
 999 0170 814B     		ldr	r3, .L107+16
 1000 0172 1B78     		ldrb	r3, [r3]
 1001 0174 0222     		movs	r2, #2
 1002 0176 1343     		orrs	r3, r2
 1003 0178 DAB2     		uxtb	r2, r3
 1004 017a 7F4B     		ldr	r3, .L107+16
 1005 017c 1A70     		strb	r2, [r3]
 1006 017e 53E0     		b	.L66
 1007              	.L62:
 557:Generated_Source\PSoC4/BLE_1_ess.c ****                             }
 558:Generated_Source\PSoC4/BLE_1_ess.c ****                         #endif /* (CYBLE_BONDING_REQUIREMENT == CYBLE_BONDING_YES) */
 559:Generated_Source\PSoC4/BLE_1_ess.c ****                         }
 560:Generated_Source\PSoC4/BLE_1_ess.c ****                         else
 561:Generated_Source\PSoC4/BLE_1_ess.c ****                         {
 562:Generated_Source\PSoC4/BLE_1_ess.c ****                             gattErr = (CYBLE_GATT_ERR_CODE_T) CYBLE_GATT_ERR_WRITE_REQ_REJECTED;
 1008              		.loc 1 562 0
 1009 0180 1E23     		movs	r3, #30
 1010 0182 FB18     		adds	r3, r7, r3
 1011 0184 8022     		movs	r2, #128
 1012 0186 1A70     		strb	r2, [r3]
 1013 0188 4EE0     		b	.L66
 1014              	.L56:
 563:Generated_Source\PSoC4/BLE_1_ess.c ****                         }
 564:Generated_Source\PSoC4/BLE_1_ess.c ****                     }
 565:Generated_Source\PSoC4/BLE_1_ess.c ****                     else if(tmpHandle == essCharInfoPtr->descrHandle[CYBLE_ESS_ES_TRIGGER_SETTINGS_
 1015              		.loc 1 565 0
 1016 018a BB69     		ldr	r3, [r7, #24]
 1017 018c 1B89     		ldrh	r3, [r3, #8]
 1018 018e 1C22     		movs	r2, #28
 1019 0190 BA18     		adds	r2, r7, r2
 1020 0192 1288     		ldrh	r2, [r2]
 1021 0194 9A42     		cmp	r2, r3
 1022 0196 08D1     		bne	.L67
 566:Generated_Source\PSoC4/BLE_1_ess.c ****                     {
 567:Generated_Source\PSoC4/BLE_1_ess.c ****                         wrDescrReqParam.descrIndex = CYBLE_ESS_ES_TRIGGER_SETTINGS_DESCR1;
 1023              		.loc 1 567 0
 1024 0198 0C23     		movs	r3, #12
ARM GAS  C:\Users\megan\AppData\Local\Temp\ccmgjhBj.s 			page 29


 1025 019a FB18     		adds	r3, r7, r3
 1026 019c 0322     		movs	r2, #3
 1027 019e 1A71     		strb	r2, [r3, #4]
 568:Generated_Source\PSoC4/BLE_1_ess.c ****                         foundItem = CYBLE_ESS_DESCRIPTOR_ITEM;
 1028              		.loc 1 568 0
 1029 01a0 1F23     		movs	r3, #31
 1030 01a2 FB18     		adds	r3, r7, r3
 1031 01a4 0222     		movs	r2, #2
 1032 01a6 1A70     		strb	r2, [r3]
 1033 01a8 3EE0     		b	.L66
 1034              	.L67:
 569:Generated_Source\PSoC4/BLE_1_ess.c ****                     }
 570:Generated_Source\PSoC4/BLE_1_ess.c ****                     else if(tmpHandle == essCharInfoPtr->descrHandle[CYBLE_ESS_ES_TRIGGER_SETTINGS_
 1035              		.loc 1 570 0
 1036 01aa BB69     		ldr	r3, [r7, #24]
 1037 01ac 5B89     		ldrh	r3, [r3, #10]
 1038 01ae 1C22     		movs	r2, #28
 1039 01b0 BA18     		adds	r2, r7, r2
 1040 01b2 1288     		ldrh	r2, [r2]
 1041 01b4 9A42     		cmp	r2, r3
 1042 01b6 08D1     		bne	.L68
 571:Generated_Source\PSoC4/BLE_1_ess.c ****                     {
 572:Generated_Source\PSoC4/BLE_1_ess.c ****                         wrDescrReqParam.descrIndex = CYBLE_ESS_ES_TRIGGER_SETTINGS_DESCR2;
 1043              		.loc 1 572 0
 1044 01b8 0C23     		movs	r3, #12
 1045 01ba FB18     		adds	r3, r7, r3
 1046 01bc 0422     		movs	r2, #4
 1047 01be 1A71     		strb	r2, [r3, #4]
 573:Generated_Source\PSoC4/BLE_1_ess.c ****                         foundItem = CYBLE_ESS_DESCRIPTOR_ITEM;
 1048              		.loc 1 573 0
 1049 01c0 1F23     		movs	r3, #31
 1050 01c2 FB18     		adds	r3, r7, r3
 1051 01c4 0222     		movs	r2, #2
 1052 01c6 1A70     		strb	r2, [r3]
 1053 01c8 2EE0     		b	.L66
 1054              	.L68:
 574:Generated_Source\PSoC4/BLE_1_ess.c ****                     }
 575:Generated_Source\PSoC4/BLE_1_ess.c ****                     else if(tmpHandle == essCharInfoPtr->descrHandle[CYBLE_ESS_ES_TRIGGER_SETTINGS_
 1055              		.loc 1 575 0
 1056 01ca BB69     		ldr	r3, [r7, #24]
 1057 01cc 9B89     		ldrh	r3, [r3, #12]
 1058 01ce 1C22     		movs	r2, #28
 1059 01d0 BA18     		adds	r2, r7, r2
 1060 01d2 1288     		ldrh	r2, [r2]
 1061 01d4 9A42     		cmp	r2, r3
 1062 01d6 08D1     		bne	.L69
 576:Generated_Source\PSoC4/BLE_1_ess.c ****                     {
 577:Generated_Source\PSoC4/BLE_1_ess.c ****                         wrDescrReqParam.descrIndex = CYBLE_ESS_ES_TRIGGER_SETTINGS_DESCR3;
 1063              		.loc 1 577 0
 1064 01d8 0C23     		movs	r3, #12
 1065 01da FB18     		adds	r3, r7, r3
 1066 01dc 0522     		movs	r2, #5
 1067 01de 1A71     		strb	r2, [r3, #4]
 578:Generated_Source\PSoC4/BLE_1_ess.c ****                         foundItem = CYBLE_ESS_DESCRIPTOR_ITEM;
 1068              		.loc 1 578 0
 1069 01e0 1F23     		movs	r3, #31
 1070 01e2 FB18     		adds	r3, r7, r3
ARM GAS  C:\Users\megan\AppData\Local\Temp\ccmgjhBj.s 			page 30


 1071 01e4 0222     		movs	r2, #2
 1072 01e6 1A70     		strb	r2, [r3]
 1073 01e8 1EE0     		b	.L66
 1074              	.L69:
 579:Generated_Source\PSoC4/BLE_1_ess.c ****                     }
 580:Generated_Source\PSoC4/BLE_1_ess.c ****                     else if(tmpHandle == essCharInfoPtr->descrHandle[CYBLE_ESS_ES_CONFIG_DESCR])
 1075              		.loc 1 580 0
 1076 01ea BB69     		ldr	r3, [r7, #24]
 1077 01ec DB89     		ldrh	r3, [r3, #14]
 1078 01ee 1C22     		movs	r2, #28
 1079 01f0 BA18     		adds	r2, r7, r2
 1080 01f2 1288     		ldrh	r2, [r2]
 1081 01f4 9A42     		cmp	r2, r3
 1082 01f6 08D1     		bne	.L70
 581:Generated_Source\PSoC4/BLE_1_ess.c ****                     {
 582:Generated_Source\PSoC4/BLE_1_ess.c ****                         wrDescrReqParam.descrIndex = CYBLE_ESS_ES_CONFIG_DESCR;
 1083              		.loc 1 582 0
 1084 01f8 0C23     		movs	r3, #12
 1085 01fa FB18     		adds	r3, r7, r3
 1086 01fc 0622     		movs	r2, #6
 1087 01fe 1A71     		strb	r2, [r3, #4]
 583:Generated_Source\PSoC4/BLE_1_ess.c ****                         foundItem = CYBLE_ESS_DESCRIPTOR_ITEM;
 1088              		.loc 1 583 0
 1089 0200 1F23     		movs	r3, #31
 1090 0202 FB18     		adds	r3, r7, r3
 1091 0204 0222     		movs	r2, #2
 1092 0206 1A70     		strb	r2, [r3]
 1093 0208 0EE0     		b	.L66
 1094              	.L70:
 584:Generated_Source\PSoC4/BLE_1_ess.c ****                     }
 585:Generated_Source\PSoC4/BLE_1_ess.c ****                     else if(tmpHandle == essCharInfoPtr->descrHandle[CYBLE_ESS_CHAR_USER_DESCRIPTIO
 1095              		.loc 1 585 0
 1096 020a BB69     		ldr	r3, [r7, #24]
 1097 020c 1B8A     		ldrh	r3, [r3, #16]
 1098 020e 1C22     		movs	r2, #28
 1099 0210 BA18     		adds	r2, r7, r2
 1100 0212 1288     		ldrh	r2, [r2]
 1101 0214 9A42     		cmp	r2, r3
 1102 0216 07D1     		bne	.L66
 586:Generated_Source\PSoC4/BLE_1_ess.c ****                     {
 587:Generated_Source\PSoC4/BLE_1_ess.c ****                         wrDescrReqParam.descrIndex = CYBLE_ESS_CHAR_USER_DESCRIPTION_DESCR;
 1103              		.loc 1 587 0
 1104 0218 0C23     		movs	r3, #12
 1105 021a FB18     		adds	r3, r7, r3
 1106 021c 0722     		movs	r2, #7
 1107 021e 1A71     		strb	r2, [r3, #4]
 588:Generated_Source\PSoC4/BLE_1_ess.c ****                         foundItem = CYBLE_ESS_DESCRIPTOR_ITEM;
 1108              		.loc 1 588 0
 1109 0220 1F23     		movs	r3, #31
 1110 0222 FB18     		adds	r3, r7, r3
 1111 0224 0222     		movs	r2, #2
 1112 0226 1A70     		strb	r2, [r3]
 1113              	.L66:
 589:Generated_Source\PSoC4/BLE_1_ess.c ****                     }
 590:Generated_Source\PSoC4/BLE_1_ess.c ****                     else
 591:Generated_Source\PSoC4/BLE_1_ess.c ****                     {
 592:Generated_Source\PSoC4/BLE_1_ess.c ****                         /* No handle match was found */
ARM GAS  C:\Users\megan\AppData\Local\Temp\ccmgjhBj.s 			page 31


 593:Generated_Source\PSoC4/BLE_1_ess.c ****                     }
 594:Generated_Source\PSoC4/BLE_1_ess.c **** 
 595:Generated_Source\PSoC4/BLE_1_ess.c ****                     /* Verify if requested handle was found and successfully handled */
 596:Generated_Source\PSoC4/BLE_1_ess.c ****                     if((gattErr == CYBLE_GATT_ERR_NONE) && (0u != foundItem))
 1114              		.loc 1 596 0
 1115 0228 1E23     		movs	r3, #30
 1116 022a FB18     		adds	r3, r7, r3
 1117 022c 1B78     		ldrb	r3, [r3]
 1118 022e 002B     		cmp	r3, #0
 1119 0230 00D0     		beq	.LCB907
 1120 0232 86E1     		b	.L71	@long jump
 1121              	.LCB907:
 1122              		.loc 1 596 0 is_stmt 0 discriminator 1
 1123 0234 1F23     		movs	r3, #31
 1124 0236 FB18     		adds	r3, r7, r3
 1125 0238 1B78     		ldrb	r3, [r3]
 1126 023a 002B     		cmp	r3, #0
 1127 023c 00D1     		bne	.LCB912
 1128 023e 80E1     		b	.L71	@long jump
 1129              	.LCB912:
 597:Generated_Source\PSoC4/BLE_1_ess.c ****                     {
 598:Generated_Source\PSoC4/BLE_1_ess.c ****                         switch(wrDescrReqParam.descrIndex)
 1130              		.loc 1 598 0 is_stmt 1
 1131 0240 0C23     		movs	r3, #12
 1132 0242 FB18     		adds	r3, r7, r3
 1133 0244 1B79     		ldrb	r3, [r3, #4]
 1134 0246 062B     		cmp	r3, #6
 1135 0248 00D1     		bne	.LCB917
 1136 024a F6E0     		b	.L73	@long jump
 1137              	.LCB917:
 1138 024c 03DC     		bgt	.L74
 1139 024e 032B     		cmp	r3, #3
 1140 0250 00DA     		bge	.LCB921
 1141 0252 1FE1     		b	.L104	@long jump
 1142              	.LCB921:
 1143 0254 03E0     		b	.L103
 1144              	.L74:
 1145 0256 072B     		cmp	r3, #7
 1146 0258 00D1     		bne	.LCB927
 1147 025a F8E0     		b	.L76	@long jump
 1148              	.LCB927:
 599:Generated_Source\PSoC4/BLE_1_ess.c ****                         {
 600:Generated_Source\PSoC4/BLE_1_ess.c ****                         case CYBLE_ESS_ES_TRIGGER_SETTINGS_DESCR1:
 601:Generated_Source\PSoC4/BLE_1_ess.c ****                         case CYBLE_ESS_ES_TRIGGER_SETTINGS_DESCR2:
 602:Generated_Source\PSoC4/BLE_1_ess.c ****                         case CYBLE_ESS_ES_TRIGGER_SETTINGS_DESCR3:
 603:Generated_Source\PSoC4/BLE_1_ess.c ****                             if(eventParam->handleValPair.value.val[0u] > CYBLE_ESS_TRIG_WHILE_EQUAL
 604:Generated_Source\PSoC4/BLE_1_ess.c ****                             {
 605:Generated_Source\PSoC4/BLE_1_ess.c ****                                 /* Trigger condition is not supported */
 606:Generated_Source\PSoC4/BLE_1_ess.c ****                                 gattErr = (CYBLE_GATT_ERR_CODE_T) CYBLE_GATT_ERR_CONDITION_NOT_SUPP
 607:Generated_Source\PSoC4/BLE_1_ess.c ****                             }
 608:Generated_Source\PSoC4/BLE_1_ess.c ****                             /* If Valid Range Descriptor for the characteristic is present, then
 609:Generated_Source\PSoC4/BLE_1_ess.c ****                             * check the characteristic value range. The ranges should be properly
 610:Generated_Source\PSoC4/BLE_1_ess.c ****                             * set in the server or otherwise the server will constantly return an
 611:Generated_Source\PSoC4/BLE_1_ess.c ****                             * "Out of range" error.
 612:Generated_Source\PSoC4/BLE_1_ess.c ****                             */
 613:Generated_Source\PSoC4/BLE_1_ess.c ****                             else if((CYBLE_GATT_INVALID_ATTR_HANDLE_VALUE !=
 614:Generated_Source\PSoC4/BLE_1_ess.c ****                                 essCharInfoPtr->descrHandle[CYBLE_ESS_VRD]) &&
ARM GAS  C:\Users\megan\AppData\Local\Temp\ccmgjhBj.s 			page 32


 615:Generated_Source\PSoC4/BLE_1_ess.c ****                                     (eventParam->handleValPair.value.len > 1u)&& 
 616:Generated_Source\PSoC4/BLE_1_ess.c ****                                         (eventParam->handleValPair.value.val[0u] >= CYBLE_ESS_TRIG_
 617:Generated_Source\PSoC4/BLE_1_ess.c ****                             {
 618:Generated_Source\PSoC4/BLE_1_ess.c ****                                 /* The following "switch" groups characteristics are based on their
 619:Generated_Source\PSoC4/BLE_1_ess.c ****                                 * type.
 620:Generated_Source\PSoC4/BLE_1_ess.c ****                                 */
 621:Generated_Source\PSoC4/BLE_1_ess.c ****                                 switch((CYBLE_ESS_CHAR_INDEX_T) i)
 622:Generated_Source\PSoC4/BLE_1_ess.c ****                                 {
 623:Generated_Source\PSoC4/BLE_1_ess.c ****                                     /* uint8 */
 624:Generated_Source\PSoC4/BLE_1_ess.c ****                                     case CYBLE_ESS_BAROMETRIC_PRESSURE_TREND:
 625:Generated_Source\PSoC4/BLE_1_ess.c ****                                     case CYBLE_ESS_GUST_FACTOR:
 626:Generated_Source\PSoC4/BLE_1_ess.c ****                                     case CYBLE_ESS_UV_INDEX:
 627:Generated_Source\PSoC4/BLE_1_ess.c ****                                         gattErr = CyBle_EssHandleRangeCheck((CYBLE_ESS_CHAR_INDEX_T
 628:Generated_Source\PSoC4/BLE_1_ess.c ****                                             CYBLE_ESS_2BYTES_LENGTH, CYBLE_ESS_UNSIGNED_TYPE,
 629:Generated_Source\PSoC4/BLE_1_ess.c ****                                                 &eventParam->handleValPair.value.val[1u]);
 630:Generated_Source\PSoC4/BLE_1_ess.c ****                                         break;
 631:Generated_Source\PSoC4/BLE_1_ess.c **** 
 632:Generated_Source\PSoC4/BLE_1_ess.c ****                                     /* uint16 */
 633:Generated_Source\PSoC4/BLE_1_ess.c ****                                     case CYBLE_ESS_APPARENT_WIND_DIR:
 634:Generated_Source\PSoC4/BLE_1_ess.c ****                                     case CYBLE_ESS_APPARENT_WIND_SPEED:
 635:Generated_Source\PSoC4/BLE_1_ess.c ****                                     case CYBLE_ESS_HUMIDITY:
 636:Generated_Source\PSoC4/BLE_1_ess.c ****                                     case CYBLE_ESS_IRRADIANCE:
 637:Generated_Source\PSoC4/BLE_1_ess.c ****                                     case CYBLE_ESS_MAGNETIC_DECLINATION:
 638:Generated_Source\PSoC4/BLE_1_ess.c ****                                     case CYBLE_ESS_RAINFALL:
 639:Generated_Source\PSoC4/BLE_1_ess.c ****                                     case CYBLE_ESS_TRUE_WIND_DIR:
 640:Generated_Source\PSoC4/BLE_1_ess.c ****                                     case CYBLE_ESS_TRUE_WIND_SPEED:
 641:Generated_Source\PSoC4/BLE_1_ess.c ****                                         gattErr = CyBle_EssHandleRangeCheck((CYBLE_ESS_CHAR_INDEX_T
 642:Generated_Source\PSoC4/BLE_1_ess.c ****                                             CYBLE_ESS_4BYTES_LENGTH, CYBLE_ESS_UNSIGNED_TYPE,
 643:Generated_Source\PSoC4/BLE_1_ess.c ****                                                 &eventParam->handleValPair.value.val[1u]);
 644:Generated_Source\PSoC4/BLE_1_ess.c ****                                         break;
 645:Generated_Source\PSoC4/BLE_1_ess.c **** 
 646:Generated_Source\PSoC4/BLE_1_ess.c ****                                     /* uint24 */
 647:Generated_Source\PSoC4/BLE_1_ess.c ****                                     case CYBLE_ESS_POLLEN_CONCENTRATION:
 648:Generated_Source\PSoC4/BLE_1_ess.c ****                                         gattErr = CyBle_EssHandleRangeCheck((CYBLE_ESS_CHAR_INDEX_T
 649:Generated_Source\PSoC4/BLE_1_ess.c ****                                             CYBLE_ESS_6BYTES_LENGTH, CYBLE_ESS_UNSIGNED_TYPE,
 650:Generated_Source\PSoC4/BLE_1_ess.c ****                                                 &eventParam->handleValPair.value.val[1u]);
 651:Generated_Source\PSoC4/BLE_1_ess.c ****                                         break;
 652:Generated_Source\PSoC4/BLE_1_ess.c **** 
 653:Generated_Source\PSoC4/BLE_1_ess.c ****                                     /* uint32 */
 654:Generated_Source\PSoC4/BLE_1_ess.c ****                                     case CYBLE_ESS_PRESSURE:
 655:Generated_Source\PSoC4/BLE_1_ess.c ****                                         gattErr = CyBle_EssHandleRangeCheck((CYBLE_ESS_CHAR_INDEX_T
 656:Generated_Source\PSoC4/BLE_1_ess.c ****                                             CYBLE_ESS_8BYTES_LENGTH, CYBLE_ESS_UNSIGNED_TYPE,
 657:Generated_Source\PSoC4/BLE_1_ess.c ****                                                 &eventParam->handleValPair.value.val[1u]);
 658:Generated_Source\PSoC4/BLE_1_ess.c ****                                         break;
 659:Generated_Source\PSoC4/BLE_1_ess.c **** 
 660:Generated_Source\PSoC4/BLE_1_ess.c ****                                     /* int8 */
 661:Generated_Source\PSoC4/BLE_1_ess.c ****                                     case CYBLE_ESS_DEW_POINT:
 662:Generated_Source\PSoC4/BLE_1_ess.c ****                                     case CYBLE_ESS_HEAT_INDEX:
 663:Generated_Source\PSoC4/BLE_1_ess.c ****                                     case CYBLE_ESS_WIND_CHILL:
 664:Generated_Source\PSoC4/BLE_1_ess.c ****                                         gattErr = CyBle_EssHandleRangeCheck((CYBLE_ESS_CHAR_INDEX_T
 665:Generated_Source\PSoC4/BLE_1_ess.c ****                                             CYBLE_ESS_2BYTES_LENGTH, CYBLE_ESS_SIGNED_TYPE,
 666:Generated_Source\PSoC4/BLE_1_ess.c ****                                                 &eventParam->handleValPair.value.val[1u]);
 667:Generated_Source\PSoC4/BLE_1_ess.c ****                                         break;
 668:Generated_Source\PSoC4/BLE_1_ess.c **** 
 669:Generated_Source\PSoC4/BLE_1_ess.c ****                                     /* int16 */
 670:Generated_Source\PSoC4/BLE_1_ess.c ****                                     case CYBLE_ESS_TEMPERATURE:
 671:Generated_Source\PSoC4/BLE_1_ess.c ****                                         gattErr = CyBle_EssHandleRangeCheck((CYBLE_ESS_CHAR_INDEX_T
ARM GAS  C:\Users\megan\AppData\Local\Temp\ccmgjhBj.s 			page 33


 672:Generated_Source\PSoC4/BLE_1_ess.c ****                                             CYBLE_ESS_4BYTES_LENGTH, CYBLE_ESS_SIGNED_TYPE,
 673:Generated_Source\PSoC4/BLE_1_ess.c ****                                                 &eventParam->handleValPair.value.val[1u]);
 674:Generated_Source\PSoC4/BLE_1_ess.c ****                                         break;
 675:Generated_Source\PSoC4/BLE_1_ess.c **** 
 676:Generated_Source\PSoC4/BLE_1_ess.c ****                                     /* int24 */
 677:Generated_Source\PSoC4/BLE_1_ess.c ****                                     case CYBLE_ESS_ELEVATION:
 678:Generated_Source\PSoC4/BLE_1_ess.c ****                                         gattErr = CyBle_EssHandleRangeCheck((CYBLE_ESS_CHAR_INDEX_T
 679:Generated_Source\PSoC4/BLE_1_ess.c ****                                             CYBLE_ESS_6BYTES_LENGTH, CYBLE_ESS_SIGNED_TYPE,
 680:Generated_Source\PSoC4/BLE_1_ess.c ****                                                 &eventParam->handleValPair.value.val[1u]);
 681:Generated_Source\PSoC4/BLE_1_ess.c ****                                         break;
 682:Generated_Source\PSoC4/BLE_1_ess.c **** 
 683:Generated_Source\PSoC4/BLE_1_ess.c ****                                     case CYBLE_ESS_MAGNETIC_FLUX_DENSITY_2D:
 684:Generated_Source\PSoC4/BLE_1_ess.c ****                                         /* No validation required */
 685:Generated_Source\PSoC4/BLE_1_ess.c ****                                         break;
 686:Generated_Source\PSoC4/BLE_1_ess.c **** 
 687:Generated_Source\PSoC4/BLE_1_ess.c ****                                     case CYBLE_ESS_MAGNETIC_FLUX_DENSITY_3D:
 688:Generated_Source\PSoC4/BLE_1_ess.c ****                                         /* No validation required */
 689:Generated_Source\PSoC4/BLE_1_ess.c ****                                         break;
 690:Generated_Source\PSoC4/BLE_1_ess.c **** 
 691:Generated_Source\PSoC4/BLE_1_ess.c ****                                     default:
 692:Generated_Source\PSoC4/BLE_1_ess.c ****                                         /* Invalid characteristic */
 693:Generated_Source\PSoC4/BLE_1_ess.c ****                                         gattErr = CYBLE_GATT_ERR_UNLIKELY_ERROR;
 694:Generated_Source\PSoC4/BLE_1_ess.c ****                                         break;
 695:Generated_Source\PSoC4/BLE_1_ess.c ****                                 }
 696:Generated_Source\PSoC4/BLE_1_ess.c ****                             }
 697:Generated_Source\PSoC4/BLE_1_ess.c ****                             else /* No error */
 698:Generated_Source\PSoC4/BLE_1_ess.c ****                             {
 699:Generated_Source\PSoC4/BLE_1_ess.c ****                                 if(CYBLE_GATT_DB_ATTR_GET_ATTR_GEN_MAX_LEN(
 700:Generated_Source\PSoC4/BLE_1_ess.c ****                                     essCharInfoPtr->descrHandle[wrDescrReqParam.descrIndex]) >=
 701:Generated_Source\PSoC4/BLE_1_ess.c ****                                         eventParam->handleValPair.value.len)
 702:Generated_Source\PSoC4/BLE_1_ess.c ****                                 {
 703:Generated_Source\PSoC4/BLE_1_ess.c ****                                     /* Set new length of the descriptor value */
 704:Generated_Source\PSoC4/BLE_1_ess.c ****                                     CYBLE_GATT_DB_ATTR_SET_ATTR_GEN_LEN(
 705:Generated_Source\PSoC4/BLE_1_ess.c ****                                         essCharInfoPtr->descrHandle[wrDescrReqParam.descrIndex],
 706:Generated_Source\PSoC4/BLE_1_ess.c ****                                             eventParam->handleValPair.value.len);
 707:Generated_Source\PSoC4/BLE_1_ess.c ****                                 }
 708:Generated_Source\PSoC4/BLE_1_ess.c ****                                 else
 709:Generated_Source\PSoC4/BLE_1_ess.c ****                                 {
 710:Generated_Source\PSoC4/BLE_1_ess.c ****                                     gattErr = CYBLE_GATT_ERR_INVALID_ATTRIBUTE_LEN;
 711:Generated_Source\PSoC4/BLE_1_ess.c ****                                 }
 712:Generated_Source\PSoC4/BLE_1_ess.c ****                             }
 713:Generated_Source\PSoC4/BLE_1_ess.c ****                             break;
 714:Generated_Source\PSoC4/BLE_1_ess.c ****                         case CYBLE_ESS_ES_CONFIG_DESCR:
 715:Generated_Source\PSoC4/BLE_1_ess.c ****                             if(eventParam->handleValPair.value.val[0u] > CYBLE_ESS_CONF_BOOLEAN_OR)
 716:Generated_Source\PSoC4/BLE_1_ess.c ****                             {
 717:Generated_Source\PSoC4/BLE_1_ess.c ****                                 /* Trigger Logic value is not supported */
 718:Generated_Source\PSoC4/BLE_1_ess.c ****                                 gattErr = (CYBLE_GATT_ERR_CODE_T) CYBLE_GATT_ERR_WRITE_REQ_REJECTED
 719:Generated_Source\PSoC4/BLE_1_ess.c ****                             }
 720:Generated_Source\PSoC4/BLE_1_ess.c ****                             break;
 721:Generated_Source\PSoC4/BLE_1_ess.c ****                         case CYBLE_ESS_CHAR_USER_DESCRIPTION_DESCR:
 722:Generated_Source\PSoC4/BLE_1_ess.c ****                             /* The ESS spec. states are the following: "The Server may also choose 
 723:Generated_Source\PSoC4/BLE_1_ess.c ****                             * a write request to the Characteristic User Description if it determin
 724:Generated_Source\PSoC4/BLE_1_ess.c ****                             * the contents of the new value are unsuitable, such as a string contai
 725:Generated_Source\PSoC4/BLE_1_ess.c ****                             * characters in a language that the implementation does not support."
 726:Generated_Source\PSoC4/BLE_1_ess.c ****                             * This validation is omitted in the current version of the service.
 727:Generated_Source\PSoC4/BLE_1_ess.c ****                             */
 728:Generated_Source\PSoC4/BLE_1_ess.c **** 
ARM GAS  C:\Users\megan\AppData\Local\Temp\ccmgjhBj.s 			page 34


 729:Generated_Source\PSoC4/BLE_1_ess.c ****                             if(CYBLE_GATT_DB_ATTR_GET_ATTR_GEN_MAX_LEN(
 730:Generated_Source\PSoC4/BLE_1_ess.c ****                                 essCharInfoPtr->descrHandle[CYBLE_ESS_CHAR_USER_DESCRIPTION_DESCR])
 731:Generated_Source\PSoC4/BLE_1_ess.c ****                                     eventParam->handleValPair.value.len)
 732:Generated_Source\PSoC4/BLE_1_ess.c ****                             {
 733:Generated_Source\PSoC4/BLE_1_ess.c ****                                 /* Set new length of the descriptor value */
 734:Generated_Source\PSoC4/BLE_1_ess.c ****                                 CYBLE_GATT_DB_ATTR_SET_ATTR_GEN_LEN(
 735:Generated_Source\PSoC4/BLE_1_ess.c ****                                     essCharInfoPtr->descrHandle[CYBLE_ESS_CHAR_USER_DESCRIPTION_DES
 736:Generated_Source\PSoC4/BLE_1_ess.c ****                                         eventParam->handleValPair.value.len);
 737:Generated_Source\PSoC4/BLE_1_ess.c ****                             }
 738:Generated_Source\PSoC4/BLE_1_ess.c ****                             else
 739:Generated_Source\PSoC4/BLE_1_ess.c ****                             {
 740:Generated_Source\PSoC4/BLE_1_ess.c ****                                 gattErr = CYBLE_GATT_ERR_INVALID_ATTRIBUTE_LEN;
 741:Generated_Source\PSoC4/BLE_1_ess.c ****                             }
 742:Generated_Source\PSoC4/BLE_1_ess.c ****                             break;
 743:Generated_Source\PSoC4/BLE_1_ess.c ****                         default:
 744:Generated_Source\PSoC4/BLE_1_ess.c ****                             break;
 1149              		.loc 1 744 0
 1150 025c 1AE1     		b	.L104
 1151              	.L103:
 603:Generated_Source\PSoC4/BLE_1_ess.c ****                             {
 1152              		.loc 1 603 0
 1153 025e 7B68     		ldr	r3, [r7, #4]
 1154 0260 5B68     		ldr	r3, [r3, #4]
 1155 0262 1B78     		ldrb	r3, [r3]
 1156 0264 092B     		cmp	r3, #9
 1157 0266 04D9     		bls	.L77
 606:Generated_Source\PSoC4/BLE_1_ess.c ****                             }
 1158              		.loc 1 606 0
 1159 0268 1E23     		movs	r3, #30
 1160 026a FB18     		adds	r3, r7, r3
 1161 026c 8122     		movs	r2, #129
 1162 026e 1A70     		strb	r2, [r3]
 713:Generated_Source\PSoC4/BLE_1_ess.c ****                         case CYBLE_ESS_ES_CONFIG_DESCR:
 1163              		.loc 1 713 0
 1164 0270 13E1     		b	.L93
 1165              	.L77:
 614:Generated_Source\PSoC4/BLE_1_ess.c ****                                     (eventParam->handleValPair.value.len > 1u)&& 
 1166              		.loc 1 614 0
 1167 0272 BB69     		ldr	r3, [r7, #24]
 1168 0274 5B8A     		ldrh	r3, [r3, #18]
 613:Generated_Source\PSoC4/BLE_1_ess.c ****                                 essCharInfoPtr->descrHandle[CYBLE_ESS_VRD]) &&
 1169              		.loc 1 613 0
 1170 0276 002B     		cmp	r3, #0
 1171 0278 00D1     		bne	.LCB948
 1172 027a AFE0     		b	.L79	@long jump
 1173              	.LCB948:
 615:Generated_Source\PSoC4/BLE_1_ess.c ****                                         (eventParam->handleValPair.value.val[0u] >= CYBLE_ESS_TRIG_
 1174              		.loc 1 615 0
 1175 027c 7B68     		ldr	r3, [r7, #4]
 1176 027e 1B89     		ldrh	r3, [r3, #8]
 614:Generated_Source\PSoC4/BLE_1_ess.c ****                                     (eventParam->handleValPair.value.len > 1u)&& 
 1177              		.loc 1 614 0
 1178 0280 012B     		cmp	r3, #1
 1179 0282 00D8     		bhi	.LCB952
 1180 0284 AAE0     		b	.L79	@long jump
 1181              	.LCB952:
 616:Generated_Source\PSoC4/BLE_1_ess.c ****                             {
ARM GAS  C:\Users\megan\AppData\Local\Temp\ccmgjhBj.s 			page 35


 1182              		.loc 1 616 0
 1183 0286 7B68     		ldr	r3, [r7, #4]
 1184 0288 5B68     		ldr	r3, [r3, #4]
 1185 028a 1B78     		ldrb	r3, [r3]
 615:Generated_Source\PSoC4/BLE_1_ess.c ****                                         (eventParam->handleValPair.value.val[0u] >= CYBLE_ESS_TRIG_
 1186              		.loc 1 615 0
 1187 028c 032B     		cmp	r3, #3
 1188 028e 00D8     		bhi	.LCB957
 1189 0290 A4E0     		b	.L79	@long jump
 1190              	.LCB957:
 621:Generated_Source\PSoC4/BLE_1_ess.c ****                                 {
 1191              		.loc 1 621 0
 1192 0292 2723     		movs	r3, #39
 1193 0294 FB18     		adds	r3, r7, r3
 1194 0296 1B78     		ldrb	r3, [r3]
 1195 0298 142B     		cmp	r3, #20
 1196 029a 00D9     		bls	.LCB962
 1197 029c 96E0     		b	.L80	@long jump
 1198              	.LCB962:
 1199 029e 9A00     		lsls	r2, r3, #2
 1200 02a0 364B     		ldr	r3, .L107+20
 1201 02a2 D318     		adds	r3, r2, r3
 1202 02a4 1B68     		ldr	r3, [r3]
 1203 02a6 9F46     		mov	pc, r3
 1204              		.section	.rodata
 1205              		.align	2
 1206              	.L82:
 1207 0078 CC030000 		.word	.L80
 1208 007c CE020000 		.word	.L81
 1209 0080 CE020000 		.word	.L81
 1210 0084 40030000 		.word	.L83
 1211 0088 A6030000 		.word	.L84
 1212 008c A8020000 		.word	.L85
 1213 0090 40030000 		.word	.L83
 1214 0094 CE020000 		.word	.L81
 1215 0098 CE020000 		.word	.L81
 1216 009c F4020000 		.word	.L86
 1217 00a0 CE020000 		.word	.L81
 1218 00a4 1A030000 		.word	.L87
 1219 00a8 80030000 		.word	.L88
 1220 00ac CE020000 		.word	.L81
 1221 00b0 CE020000 		.word	.L81
 1222 00b4 A8020000 		.word	.L85
 1223 00b8 40030000 		.word	.L83
 1224 00bc A8020000 		.word	.L85
 1225 00c0 CE020000 		.word	.L81
 1226 00c4 D6030000 		.word	.L105
 1227 00c8 D6030000 		.word	.L105
 1228              		.section	.text.CyBle_EsssWriteEventHandler
 1229              	.L85:
 629:Generated_Source\PSoC4/BLE_1_ess.c ****                                         break;
 1230              		.loc 1 629 0
 1231 02a8 7B68     		ldr	r3, [r7, #4]
 1232 02aa 5B68     		ldr	r3, [r3, #4]
 627:Generated_Source\PSoC4/BLE_1_ess.c ****                                             CYBLE_ESS_2BYTES_LENGTH, CYBLE_ESS_UNSIGNED_TYPE,
 1233              		.loc 1 627 0
 1234 02ac 0133     		adds	r3, r3, #1
ARM GAS  C:\Users\megan\AppData\Local\Temp\ccmgjhBj.s 			page 36


 1235 02ae 1E22     		movs	r2, #30
 1236 02b0 BC18     		adds	r4, r7, r2
 1237 02b2 2622     		movs	r2, #38
 1238 02b4 BA18     		adds	r2, r7, r2
 1239 02b6 1178     		ldrb	r1, [r2]
 1240 02b8 2722     		movs	r2, #39
 1241 02ba BA18     		adds	r2, r7, r2
 1242 02bc 1078     		ldrb	r0, [r2]
 1243 02be 0093     		str	r3, [sp]
 1244 02c0 0023     		movs	r3, #0
 1245 02c2 0222     		movs	r2, #2
 1246 02c4 FFF7FEFF 		bl	CyBle_EssHandleRangeCheck
 1247 02c8 0300     		movs	r3, r0
 1248 02ca 2370     		strb	r3, [r4]
 630:Generated_Source\PSoC4/BLE_1_ess.c **** 
 1249              		.loc 1 630 0
 1250 02cc 84E0     		b	.L91
 1251              	.L81:
 643:Generated_Source\PSoC4/BLE_1_ess.c ****                                         break;
 1252              		.loc 1 643 0
 1253 02ce 7B68     		ldr	r3, [r7, #4]
 1254 02d0 5B68     		ldr	r3, [r3, #4]
 641:Generated_Source\PSoC4/BLE_1_ess.c ****                                             CYBLE_ESS_4BYTES_LENGTH, CYBLE_ESS_UNSIGNED_TYPE,
 1255              		.loc 1 641 0
 1256 02d2 0133     		adds	r3, r3, #1
 1257 02d4 1E22     		movs	r2, #30
 1258 02d6 BC18     		adds	r4, r7, r2
 1259 02d8 2622     		movs	r2, #38
 1260 02da BA18     		adds	r2, r7, r2
 1261 02dc 1178     		ldrb	r1, [r2]
 1262 02de 2722     		movs	r2, #39
 1263 02e0 BA18     		adds	r2, r7, r2
 1264 02e2 1078     		ldrb	r0, [r2]
 1265 02e4 0093     		str	r3, [sp]
 1266 02e6 0023     		movs	r3, #0
 1267 02e8 0422     		movs	r2, #4
 1268 02ea FFF7FEFF 		bl	CyBle_EssHandleRangeCheck
 1269 02ee 0300     		movs	r3, r0
 1270 02f0 2370     		strb	r3, [r4]
 644:Generated_Source\PSoC4/BLE_1_ess.c **** 
 1271              		.loc 1 644 0
 1272 02f2 71E0     		b	.L91
 1273              	.L86:
 650:Generated_Source\PSoC4/BLE_1_ess.c ****                                         break;
 1274              		.loc 1 650 0
 1275 02f4 7B68     		ldr	r3, [r7, #4]
 1276 02f6 5B68     		ldr	r3, [r3, #4]
 648:Generated_Source\PSoC4/BLE_1_ess.c ****                                             CYBLE_ESS_6BYTES_LENGTH, CYBLE_ESS_UNSIGNED_TYPE,
 1277              		.loc 1 648 0
 1278 02f8 0133     		adds	r3, r3, #1
 1279 02fa 1E22     		movs	r2, #30
 1280 02fc BC18     		adds	r4, r7, r2
 1281 02fe 2622     		movs	r2, #38
 1282 0300 BA18     		adds	r2, r7, r2
 1283 0302 1178     		ldrb	r1, [r2]
 1284 0304 2722     		movs	r2, #39
 1285 0306 BA18     		adds	r2, r7, r2
ARM GAS  C:\Users\megan\AppData\Local\Temp\ccmgjhBj.s 			page 37


 1286 0308 1078     		ldrb	r0, [r2]
 1287 030a 0093     		str	r3, [sp]
 1288 030c 0023     		movs	r3, #0
 1289 030e 0622     		movs	r2, #6
 1290 0310 FFF7FEFF 		bl	CyBle_EssHandleRangeCheck
 1291 0314 0300     		movs	r3, r0
 1292 0316 2370     		strb	r3, [r4]
 651:Generated_Source\PSoC4/BLE_1_ess.c **** 
 1293              		.loc 1 651 0
 1294 0318 5EE0     		b	.L91
 1295              	.L87:
 657:Generated_Source\PSoC4/BLE_1_ess.c ****                                         break;
 1296              		.loc 1 657 0
 1297 031a 7B68     		ldr	r3, [r7, #4]
 1298 031c 5B68     		ldr	r3, [r3, #4]
 655:Generated_Source\PSoC4/BLE_1_ess.c ****                                             CYBLE_ESS_8BYTES_LENGTH, CYBLE_ESS_UNSIGNED_TYPE,
 1299              		.loc 1 655 0
 1300 031e 0133     		adds	r3, r3, #1
 1301 0320 1E22     		movs	r2, #30
 1302 0322 BC18     		adds	r4, r7, r2
 1303 0324 2622     		movs	r2, #38
 1304 0326 BA18     		adds	r2, r7, r2
 1305 0328 1178     		ldrb	r1, [r2]
 1306 032a 2722     		movs	r2, #39
 1307 032c BA18     		adds	r2, r7, r2
 1308 032e 1078     		ldrb	r0, [r2]
 1309 0330 0093     		str	r3, [sp]
 1310 0332 0023     		movs	r3, #0
 1311 0334 0822     		movs	r2, #8
 1312 0336 FFF7FEFF 		bl	CyBle_EssHandleRangeCheck
 1313 033a 0300     		movs	r3, r0
 1314 033c 2370     		strb	r3, [r4]
 658:Generated_Source\PSoC4/BLE_1_ess.c **** 
 1315              		.loc 1 658 0
 1316 033e 4BE0     		b	.L91
 1317              	.L83:
 666:Generated_Source\PSoC4/BLE_1_ess.c ****                                         break;
 1318              		.loc 1 666 0
 1319 0340 7B68     		ldr	r3, [r7, #4]
 1320 0342 5B68     		ldr	r3, [r3, #4]
 664:Generated_Source\PSoC4/BLE_1_ess.c ****                                             CYBLE_ESS_2BYTES_LENGTH, CYBLE_ESS_SIGNED_TYPE,
 1321              		.loc 1 664 0
 1322 0344 0133     		adds	r3, r3, #1
 1323 0346 1E22     		movs	r2, #30
 1324 0348 BC18     		adds	r4, r7, r2
 1325 034a 2622     		movs	r2, #38
 1326 034c BA18     		adds	r2, r7, r2
 1327 034e 1178     		ldrb	r1, [r2]
 1328 0350 2722     		movs	r2, #39
 1329 0352 BA18     		adds	r2, r7, r2
 1330 0354 1078     		ldrb	r0, [r2]
 1331 0356 0093     		str	r3, [sp]
 1332 0358 0123     		movs	r3, #1
 1333 035a 0222     		movs	r2, #2
 1334 035c FFF7FEFF 		bl	CyBle_EssHandleRangeCheck
 1335 0360 0300     		movs	r3, r0
 1336 0362 2370     		strb	r3, [r4]
ARM GAS  C:\Users\megan\AppData\Local\Temp\ccmgjhBj.s 			page 38


 667:Generated_Source\PSoC4/BLE_1_ess.c **** 
 1337              		.loc 1 667 0
 1338 0364 38E0     		b	.L91
 1339              	.L108:
 1340 0366 C046     		.align	2
 1341              	.L107:
 1342 0368 04000000 		.word	CyBle_EssApplCallback
 1343 036c 00000000 		.word	cyBle_esss
 1344 0370 00000000 		.word	cyBle_gattDB
 1345 0374 00000000 		.word	cyBle_peerBonding
 1346 0378 00000000 		.word	cyBle_pendingFlashWrite
 1347 037c 78000000 		.word	.L82
 1348              	.L88:
 673:Generated_Source\PSoC4/BLE_1_ess.c ****                                         break;
 1349              		.loc 1 673 0
 1350 0380 7B68     		ldr	r3, [r7, #4]
 1351 0382 5B68     		ldr	r3, [r3, #4]
 671:Generated_Source\PSoC4/BLE_1_ess.c ****                                             CYBLE_ESS_4BYTES_LENGTH, CYBLE_ESS_SIGNED_TYPE,
 1352              		.loc 1 671 0
 1353 0384 0133     		adds	r3, r3, #1
 1354 0386 1E22     		movs	r2, #30
 1355 0388 BC18     		adds	r4, r7, r2
 1356 038a 2622     		movs	r2, #38
 1357 038c BA18     		adds	r2, r7, r2
 1358 038e 1178     		ldrb	r1, [r2]
 1359 0390 2722     		movs	r2, #39
 1360 0392 BA18     		adds	r2, r7, r2
 1361 0394 1078     		ldrb	r0, [r2]
 1362 0396 0093     		str	r3, [sp]
 1363 0398 0123     		movs	r3, #1
 1364 039a 0422     		movs	r2, #4
 1365 039c FFF7FEFF 		bl	CyBle_EssHandleRangeCheck
 1366 03a0 0300     		movs	r3, r0
 1367 03a2 2370     		strb	r3, [r4]
 674:Generated_Source\PSoC4/BLE_1_ess.c **** 
 1368              		.loc 1 674 0
 1369 03a4 18E0     		b	.L91
 1370              	.L84:
 680:Generated_Source\PSoC4/BLE_1_ess.c ****                                         break;
 1371              		.loc 1 680 0
 1372 03a6 7B68     		ldr	r3, [r7, #4]
 1373 03a8 5B68     		ldr	r3, [r3, #4]
 678:Generated_Source\PSoC4/BLE_1_ess.c ****                                             CYBLE_ESS_6BYTES_LENGTH, CYBLE_ESS_SIGNED_TYPE,
 1374              		.loc 1 678 0
 1375 03aa 0133     		adds	r3, r3, #1
 1376 03ac 1E22     		movs	r2, #30
 1377 03ae BC18     		adds	r4, r7, r2
 1378 03b0 2622     		movs	r2, #38
 1379 03b2 BA18     		adds	r2, r7, r2
 1380 03b4 1178     		ldrb	r1, [r2]
 1381 03b6 2722     		movs	r2, #39
 1382 03b8 BA18     		adds	r2, r7, r2
 1383 03ba 1078     		ldrb	r0, [r2]
 1384 03bc 0093     		str	r3, [sp]
 1385 03be 0123     		movs	r3, #1
 1386 03c0 0622     		movs	r2, #6
 1387 03c2 FFF7FEFF 		bl	CyBle_EssHandleRangeCheck
ARM GAS  C:\Users\megan\AppData\Local\Temp\ccmgjhBj.s 			page 39


 1388 03c6 0300     		movs	r3, r0
 1389 03c8 2370     		strb	r3, [r4]
 681:Generated_Source\PSoC4/BLE_1_ess.c **** 
 1390              		.loc 1 681 0
 1391 03ca 05E0     		b	.L91
 1392              	.L80:
 693:Generated_Source\PSoC4/BLE_1_ess.c ****                                         break;
 1393              		.loc 1 693 0
 1394 03cc 1E23     		movs	r3, #30
 1395 03ce FB18     		adds	r3, r7, r3
 1396 03d0 0E22     		movs	r2, #14
 1397 03d2 1A70     		strb	r2, [r3]
 694:Generated_Source\PSoC4/BLE_1_ess.c ****                                 }
 1398              		.loc 1 694 0
 1399 03d4 00E0     		b	.L91
 1400              	.L105:
 685:Generated_Source\PSoC4/BLE_1_ess.c **** 
 1401              		.loc 1 685 0
 1402 03d6 C046     		nop
 1403              	.L91:
 696:Generated_Source\PSoC4/BLE_1_ess.c ****                             else /* No error */
 1404              		.loc 1 696 0 discriminator 3
 1405 03d8 C046     		nop
 713:Generated_Source\PSoC4/BLE_1_ess.c ****                         case CYBLE_ESS_ES_CONFIG_DESCR:
 1406              		.loc 1 713 0 discriminator 3
 1407 03da 5EE0     		b	.L93
 1408              	.L79:
 699:Generated_Source\PSoC4/BLE_1_ess.c ****                                     essCharInfoPtr->descrHandle[wrDescrReqParam.descrIndex]) >=
 1409              		.loc 1 699 0
 1410 03dc 0C23     		movs	r3, #12
 1411 03de FB18     		adds	r3, r7, r3
 1412 03e0 1B79     		ldrb	r3, [r3, #4]
 1413 03e2 BA69     		ldr	r2, [r7, #24]
 1414 03e4 5B00     		lsls	r3, r3, #1
 1415 03e6 D318     		adds	r3, r2, r3
 1416 03e8 0233     		adds	r3, r3, #2
 1417 03ea 1B88     		ldrh	r3, [r3]
 1418 03ec 5A1E     		subs	r2, r3, #1
 1419 03ee 7349     		ldr	r1, .L109
 1420 03f0 1300     		movs	r3, r2
 1421 03f2 9B00     		lsls	r3, r3, #2
 1422 03f4 9B18     		adds	r3, r3, r2
 1423 03f6 9B00     		lsls	r3, r3, #2
 1424 03f8 CB18     		adds	r3, r1, r3
 1425 03fa 0C33     		adds	r3, r3, #12
 1426 03fc 1A88     		ldrh	r2, [r3]
 701:Generated_Source\PSoC4/BLE_1_ess.c ****                                 {
 1427              		.loc 1 701 0
 1428 03fe 7B68     		ldr	r3, [r7, #4]
 1429 0400 1B89     		ldrh	r3, [r3, #8]
 699:Generated_Source\PSoC4/BLE_1_ess.c ****                                     essCharInfoPtr->descrHandle[wrDescrReqParam.descrIndex]) >=
 1430              		.loc 1 699 0
 1431 0402 9A42     		cmp	r2, r3
 1432 0404 14D3     		bcc	.L92
 704:Generated_Source\PSoC4/BLE_1_ess.c ****                                         essCharInfoPtr->descrHandle[wrDescrReqParam.descrIndex],
 1433              		.loc 1 704 0
 1434 0406 0C23     		movs	r3, #12
ARM GAS  C:\Users\megan\AppData\Local\Temp\ccmgjhBj.s 			page 40


 1435 0408 FB18     		adds	r3, r7, r3
 1436 040a 1B79     		ldrb	r3, [r3, #4]
 1437 040c BA69     		ldr	r2, [r7, #24]
 1438 040e 5B00     		lsls	r3, r3, #1
 1439 0410 D318     		adds	r3, r2, r3
 1440 0412 0233     		adds	r3, r3, #2
 1441 0414 1B88     		ldrh	r3, [r3]
 1442 0416 5A1E     		subs	r2, r3, #1
 1443 0418 6849     		ldr	r1, .L109
 1444 041a 1300     		movs	r3, r2
 1445 041c 9B00     		lsls	r3, r3, #2
 1446 041e 9B18     		adds	r3, r3, r2
 1447 0420 9B00     		lsls	r3, r3, #2
 1448 0422 CB18     		adds	r3, r1, r3
 1449 0424 1033     		adds	r3, r3, #16
 1450 0426 1B68     		ldr	r3, [r3]
 1451 0428 7A68     		ldr	r2, [r7, #4]
 1452 042a 1289     		ldrh	r2, [r2, #8]
 1453 042c 1A80     		strh	r2, [r3]
 713:Generated_Source\PSoC4/BLE_1_ess.c ****                         case CYBLE_ESS_ES_CONFIG_DESCR:
 1454              		.loc 1 713 0
 1455 042e 34E0     		b	.L93
 1456              	.L92:
 710:Generated_Source\PSoC4/BLE_1_ess.c ****                                 }
 1457              		.loc 1 710 0
 1458 0430 1E23     		movs	r3, #30
 1459 0432 FB18     		adds	r3, r7, r3
 1460 0434 0D22     		movs	r2, #13
 1461 0436 1A70     		strb	r2, [r3]
 713:Generated_Source\PSoC4/BLE_1_ess.c ****                         case CYBLE_ESS_ES_CONFIG_DESCR:
 1462              		.loc 1 713 0
 1463 0438 2FE0     		b	.L93
 1464              	.L73:
 715:Generated_Source\PSoC4/BLE_1_ess.c ****                             {
 1465              		.loc 1 715 0
 1466 043a 7B68     		ldr	r3, [r7, #4]
 1467 043c 5B68     		ldr	r3, [r3, #4]
 1468 043e 1B78     		ldrb	r3, [r3]
 1469 0440 012B     		cmp	r3, #1
 1470 0442 29D9     		bls	.L106
 718:Generated_Source\PSoC4/BLE_1_ess.c ****                             }
 1471              		.loc 1 718 0
 1472 0444 1E23     		movs	r3, #30
 1473 0446 FB18     		adds	r3, r7, r3
 1474 0448 8022     		movs	r2, #128
 1475 044a 1A70     		strb	r2, [r3]
 720:Generated_Source\PSoC4/BLE_1_ess.c ****                         case CYBLE_ESS_CHAR_USER_DESCRIPTION_DESCR:
 1476              		.loc 1 720 0
 1477 044c 24E0     		b	.L106
 1478              	.L76:
 729:Generated_Source\PSoC4/BLE_1_ess.c ****                                 essCharInfoPtr->descrHandle[CYBLE_ESS_CHAR_USER_DESCRIPTION_DESCR])
 1479              		.loc 1 729 0
 1480 044e BB69     		ldr	r3, [r7, #24]
 1481 0450 1B8A     		ldrh	r3, [r3, #16]
 1482 0452 5A1E     		subs	r2, r3, #1
 1483 0454 5949     		ldr	r1, .L109
 1484 0456 1300     		movs	r3, r2
ARM GAS  C:\Users\megan\AppData\Local\Temp\ccmgjhBj.s 			page 41


 1485 0458 9B00     		lsls	r3, r3, #2
 1486 045a 9B18     		adds	r3, r3, r2
 1487 045c 9B00     		lsls	r3, r3, #2
 1488 045e CB18     		adds	r3, r1, r3
 1489 0460 0C33     		adds	r3, r3, #12
 1490 0462 1A88     		ldrh	r2, [r3]
 731:Generated_Source\PSoC4/BLE_1_ess.c ****                             {
 1491              		.loc 1 731 0
 1492 0464 7B68     		ldr	r3, [r7, #4]
 1493 0466 1B89     		ldrh	r3, [r3, #8]
 729:Generated_Source\PSoC4/BLE_1_ess.c ****                                 essCharInfoPtr->descrHandle[CYBLE_ESS_CHAR_USER_DESCRIPTION_DESCR])
 1494              		.loc 1 729 0
 1495 0468 9A42     		cmp	r2, r3
 1496 046a 0ED3     		bcc	.L95
 734:Generated_Source\PSoC4/BLE_1_ess.c ****                                     essCharInfoPtr->descrHandle[CYBLE_ESS_CHAR_USER_DESCRIPTION_DES
 1497              		.loc 1 734 0
 1498 046c BB69     		ldr	r3, [r7, #24]
 1499 046e 1B8A     		ldrh	r3, [r3, #16]
 1500 0470 5A1E     		subs	r2, r3, #1
 1501 0472 5249     		ldr	r1, .L109
 1502 0474 1300     		movs	r3, r2
 1503 0476 9B00     		lsls	r3, r3, #2
 1504 0478 9B18     		adds	r3, r3, r2
 1505 047a 9B00     		lsls	r3, r3, #2
 1506 047c CB18     		adds	r3, r1, r3
 1507 047e 1033     		adds	r3, r3, #16
 1508 0480 1B68     		ldr	r3, [r3]
 1509 0482 7A68     		ldr	r2, [r7, #4]
 1510 0484 1289     		ldrh	r2, [r2, #8]
 1511 0486 1A80     		strh	r2, [r3]
 742:Generated_Source\PSoC4/BLE_1_ess.c ****                         default:
 1512              		.loc 1 742 0
 1513 0488 07E0     		b	.L93
 1514              	.L95:
 740:Generated_Source\PSoC4/BLE_1_ess.c ****                             }
 1515              		.loc 1 740 0
 1516 048a 1E23     		movs	r3, #30
 1517 048c FB18     		adds	r3, r7, r3
 1518 048e 0D22     		movs	r2, #13
 1519 0490 1A70     		strb	r2, [r3]
 742:Generated_Source\PSoC4/BLE_1_ess.c ****                         default:
 1520              		.loc 1 742 0
 1521 0492 02E0     		b	.L93
 1522              	.L104:
 1523              		.loc 1 744 0
 1524 0494 C046     		nop
 1525 0496 00E0     		b	.L93
 1526              	.L106:
 720:Generated_Source\PSoC4/BLE_1_ess.c ****                         case CYBLE_ESS_CHAR_USER_DESCRIPTION_DESCR:
 1527              		.loc 1 720 0
 1528 0498 C046     		nop
 1529              	.L93:
 745:Generated_Source\PSoC4/BLE_1_ess.c ****                         }
 746:Generated_Source\PSoC4/BLE_1_ess.c ****                         
 747:Generated_Source\PSoC4/BLE_1_ess.c ****                         /* Check is there no error conditions happen yet */
 748:Generated_Source\PSoC4/BLE_1_ess.c ****                         if(gattErr == CYBLE_GATT_ERR_NONE)
 1530              		.loc 1 748 0
ARM GAS  C:\Users\megan\AppData\Local\Temp\ccmgjhBj.s 			page 42


 1531 049a 1E23     		movs	r3, #30
 1532 049c FB18     		adds	r3, r7, r3
 1533 049e 1B78     		ldrb	r3, [r3]
 1534 04a0 002B     		cmp	r3, #0
 1535 04a2 45D1     		bne	.L97
 749:Generated_Source\PSoC4/BLE_1_ess.c ****                         {
 750:Generated_Source\PSoC4/BLE_1_ess.c ****                             gattErr = CyBle_GattDbCheckPermission(eventParam->handleValPair.attrHan
 1536              		.loc 1 750 0
 1537 04a4 7B68     		ldr	r3, [r7, #4]
 1538 04a6 9B89     		ldrh	r3, [r3, #12]
 1539 04a8 7968     		ldr	r1, [r7, #4]
 1540 04aa 1E22     		movs	r2, #30
 1541 04ac BC18     		adds	r4, r7, r2
 1542 04ae 4222     		movs	r2, #66
 1543 04b0 1800     		movs	r0, r3
 1544 04b2 FFF7FEFF 		bl	CyBle_GattDbCheckPermission
 1545 04b6 0300     		movs	r3, r0
 1546 04b8 2370     		strb	r3, [r4]
 751:Generated_Source\PSoC4/BLE_1_ess.c ****                                                                   &eventParam->connHandle,
 752:Generated_Source\PSoC4/BLE_1_ess.c ****                                                                   CYBLE_GATT_DB_WRITE | CYBLE_GATT_
 753:Generated_Source\PSoC4/BLE_1_ess.c ****                             
 754:Generated_Source\PSoC4/BLE_1_ess.c ****                             if(gattErr == CYBLE_GATT_ERR_NONE)
 1547              		.loc 1 754 0
 1548 04ba 1E23     		movs	r3, #30
 1549 04bc FB18     		adds	r3, r7, r3
 1550 04be 1B78     		ldrb	r3, [r3]
 1551 04c0 002B     		cmp	r3, #0
 1552 04c2 35D1     		bne	.L97
 755:Generated_Source\PSoC4/BLE_1_ess.c ****                             {
 756:Generated_Source\PSoC4/BLE_1_ess.c ****                                 /* Fill data and pass it to user */
 757:Generated_Source\PSoC4/BLE_1_ess.c ****                                 wrDescrReqParam.connHandle = eventParam->connHandle;
 1553              		.loc 1 757 0
 1554 04c4 0C23     		movs	r3, #12
 1555 04c6 FB18     		adds	r3, r7, r3
 1556 04c8 7A68     		ldr	r2, [r7, #4]
 1557 04ca 1288     		ldrh	r2, [r2]
 1558 04cc 1A80     		strh	r2, [r3]
 758:Generated_Source\PSoC4/BLE_1_ess.c ****                                 wrDescrReqParam.charIndex = (CYBLE_ESS_CHAR_INDEX_T) i;
 1559              		.loc 1 758 0
 1560 04ce 0C23     		movs	r3, #12
 1561 04d0 FB18     		adds	r3, r7, r3
 1562 04d2 2722     		movs	r2, #39
 1563 04d4 BA18     		adds	r2, r7, r2
 1564 04d6 1278     		ldrb	r2, [r2]
 1565 04d8 9A70     		strb	r2, [r3, #2]
 759:Generated_Source\PSoC4/BLE_1_ess.c ****                                 wrDescrReqParam.charInstance = j;
 1566              		.loc 1 759 0
 1567 04da 0C23     		movs	r3, #12
 1568 04dc FB18     		adds	r3, r7, r3
 1569 04de 2622     		movs	r2, #38
 1570 04e0 BA18     		adds	r2, r7, r2
 1571 04e2 1278     		ldrb	r2, [r2]
 1572 04e4 DA70     		strb	r2, [r3, #3]
 760:Generated_Source\PSoC4/BLE_1_ess.c ****                                 wrDescrReqParam.gattErrorCode = CYBLE_GATT_ERR_NONE;
 1573              		.loc 1 760 0
 1574 04e6 0C23     		movs	r3, #12
 1575 04e8 FB18     		adds	r3, r7, r3
ARM GAS  C:\Users\megan\AppData\Local\Temp\ccmgjhBj.s 			page 43


 1576 04ea 0022     		movs	r2, #0
 1577 04ec 5A71     		strb	r2, [r3, #5]
 761:Generated_Source\PSoC4/BLE_1_ess.c **** 
 762:Generated_Source\PSoC4/BLE_1_ess.c ****                                 if(wrDescrReqParam.descrIndex != CYBLE_ESS_CCCD)
 1578              		.loc 1 762 0
 1579 04ee 0C23     		movs	r3, #12
 1580 04f0 FB18     		adds	r3, r7, r3
 1581 04f2 1B79     		ldrb	r3, [r3, #4]
 1582 04f4 002B     		cmp	r3, #0
 1583 04f6 04D0     		beq	.L98
 763:Generated_Source\PSoC4/BLE_1_ess.c ****                                 {
 764:Generated_Source\PSoC4/BLE_1_ess.c ****                                     /* Check if descriptor index is not CCCD index as "event" and
 765:Generated_Source\PSoC4/BLE_1_ess.c ****                                     * "wrDescrReqParam.value" parameters for CCCD were handled
 766:Generated_Source\PSoC4/BLE_1_ess.c ****                                     * above.
 767:Generated_Source\PSoC4/BLE_1_ess.c ****                                     */
 768:Generated_Source\PSoC4/BLE_1_ess.c ****                                     wrDescrReqParam.value = &eventParam->handleValPair.value;
 1584              		.loc 1 768 0
 1585 04f8 7B68     		ldr	r3, [r7, #4]
 1586 04fa 1A1D     		adds	r2, r3, #4
 1587 04fc 0C23     		movs	r3, #12
 1588 04fe FB18     		adds	r3, r7, r3
 1589 0500 9A60     		str	r2, [r3, #8]
 1590              	.L98:
 769:Generated_Source\PSoC4/BLE_1_ess.c ****                                 }
 770:Generated_Source\PSoC4/BLE_1_ess.c **** 
 771:Generated_Source\PSoC4/BLE_1_ess.c ****                                 CyBle_EssApplCallback(event, &wrDescrReqParam);
 1591              		.loc 1 771 0
 1592 0502 2F4B     		ldr	r3, .L109+4
 1593 0504 1B68     		ldr	r3, [r3]
 1594 0506 0C22     		movs	r2, #12
 1595 0508 B918     		adds	r1, r7, r2
 1596 050a 3A6A     		ldr	r2, [r7, #32]
 1597 050c 1000     		movs	r0, r2
 1598 050e 9847     		blx	r3
 772:Generated_Source\PSoC4/BLE_1_ess.c **** 
 773:Generated_Source\PSoC4/BLE_1_ess.c ****                                 if(wrDescrReqParam.gattErrorCode == CYBLE_GATT_ERR_NONE)
 1599              		.loc 1 773 0
 1600 0510 0C23     		movs	r3, #12
 1601 0512 FB18     		adds	r3, r7, r3
 1602 0514 5B79     		ldrb	r3, [r3, #5]
 1603 0516 002B     		cmp	r3, #0
 1604 0518 0AD1     		bne	.L97
 774:Generated_Source\PSoC4/BLE_1_ess.c ****                                 {
 775:Generated_Source\PSoC4/BLE_1_ess.c ****                                     /* Write value to GATT database */
 776:Generated_Source\PSoC4/BLE_1_ess.c ****                                     gattErr = CyBle_GattsWriteAttributeValue(&eventParam->handleVal
 1605              		.loc 1 776 0
 1606 051a 7B68     		ldr	r3, [r7, #4]
 1607 051c 181D     		adds	r0, r3, #4
 1608 051e 7A68     		ldr	r2, [r7, #4]
 1609 0520 1E23     		movs	r3, #30
 1610 0522 FC18     		adds	r4, r7, r3
 1611 0524 4023     		movs	r3, #64
 1612 0526 0021     		movs	r1, #0
 1613 0528 FFF7FEFF 		bl	CyBle_GattsWriteAttributeValue
 1614 052c 0300     		movs	r3, r0
 1615 052e 2370     		strb	r3, [r4]
 1616              	.L97:
ARM GAS  C:\Users\megan\AppData\Local\Temp\ccmgjhBj.s 			page 44


 777:Generated_Source\PSoC4/BLE_1_ess.c ****                                         &eventParam->connHandle, CYBLE_GATT_DB_PEER_INITIATED);
 778:Generated_Source\PSoC4/BLE_1_ess.c ****                                 }
 779:Generated_Source\PSoC4/BLE_1_ess.c ****                             }
 780:Generated_Source\PSoC4/BLE_1_ess.c ****                         }
 781:Generated_Source\PSoC4/BLE_1_ess.c **** 
 782:Generated_Source\PSoC4/BLE_1_ess.c ****                         cyBle_eventHandlerFlag &= (uint8)~CYBLE_CALLBACK;
 1617              		.loc 1 782 0
 1618 0530 244B     		ldr	r3, .L109+8
 1619 0532 1B78     		ldrb	r3, [r3]
 1620 0534 DBB2     		uxtb	r3, r3
 1621 0536 0122     		movs	r2, #1
 1622 0538 9343     		bics	r3, r2
 1623 053a DAB2     		uxtb	r2, r3
 1624 053c 214B     		ldr	r3, .L109+8
 1625 053e 1A70     		strb	r2, [r3]
 783:Generated_Source\PSoC4/BLE_1_ess.c ****                         break;
 1626              		.loc 1 783 0
 1627 0540 11E0     		b	.L54
 1628              	.L71:
 502:Generated_Source\PSoC4/BLE_1_ess.c ****                 {
 1629              		.loc 1 502 0 discriminator 2
 1630 0542 2623     		movs	r3, #38
 1631 0544 FB18     		adds	r3, r7, r3
 1632 0546 1A78     		ldrb	r2, [r3]
 1633 0548 2623     		movs	r3, #38
 1634 054a FB18     		adds	r3, r7, r3
 1635 054c 0132     		adds	r2, r2, #1
 1636 054e 1A70     		strb	r2, [r3]
 1637              	.L55:
 502:Generated_Source\PSoC4/BLE_1_ess.c ****                 {
 1638              		.loc 1 502 0 is_stmt 0 discriminator 1
 1639 0550 2723     		movs	r3, #39
 1640 0552 FB18     		adds	r3, r7, r3
 1641 0554 1B78     		ldrb	r3, [r3]
 1642 0556 1C4A     		ldr	r2, .L109+12
 1643 0558 D35C     		ldrb	r3, [r2, r3]
 1644 055a 2622     		movs	r2, #38
 1645 055c BA18     		adds	r2, r7, r2
 1646 055e 1278     		ldrb	r2, [r2]
 1647 0560 9A42     		cmp	r2, r3
 1648 0562 00D2     		bcs	.LCB1370
 1649 0564 7EE5     		b	.L99	@long jump
 1650              	.LCB1370:
 1651              	.L54:
 494:Generated_Source\PSoC4/BLE_1_ess.c ****         {
 1652              		.loc 1 494 0 is_stmt 1
 1653 0566 2723     		movs	r3, #39
 1654 0568 FB18     		adds	r3, r7, r3
 1655 056a 1A78     		ldrb	r2, [r3]
 1656 056c 2723     		movs	r3, #39
 1657 056e FB18     		adds	r3, r7, r3
 1658 0570 0132     		adds	r2, r2, #1
 1659 0572 1A70     		strb	r2, [r3]
 1660              	.L53:
 493:Generated_Source\PSoC4/BLE_1_ess.c ****             i++)
 1661              		.loc 1 493 0 discriminator 1
 1662 0574 2723     		movs	r3, #39
ARM GAS  C:\Users\megan\AppData\Local\Temp\ccmgjhBj.s 			page 45


 1663 0576 FB18     		adds	r3, r7, r3
 1664 0578 1B78     		ldrb	r3, [r3]
 1665 057a 142B     		cmp	r3, #20
 1666 057c 0AD8     		bhi	.L52
 493:Generated_Source\PSoC4/BLE_1_ess.c ****             i++)
 1667              		.loc 1 493 0 is_stmt 0 discriminator 2
 1668 057e 1F23     		movs	r3, #31
 1669 0580 FB18     		adds	r3, r7, r3
 1670 0582 1B78     		ldrb	r3, [r3]
 1671 0584 002B     		cmp	r3, #0
 1672 0586 05D1     		bne	.L52
 493:Generated_Source\PSoC4/BLE_1_ess.c ****             i++)
 1673              		.loc 1 493 0 discriminator 3
 1674 0588 1E23     		movs	r3, #30
 1675 058a FB18     		adds	r3, r7, r3
 1676 058c 1B78     		ldrb	r3, [r3]
 1677 058e 002B     		cmp	r3, #0
 1678 0590 00D1     		bne	.LCB1395
 1679 0592 57E5     		b	.L100	@long jump
 1680              	.LCB1395:
 1681              	.L52:
 784:Generated_Source\PSoC4/BLE_1_ess.c ****                     }
 785:Generated_Source\PSoC4/BLE_1_ess.c ****                 }
 786:Generated_Source\PSoC4/BLE_1_ess.c ****             }
 787:Generated_Source\PSoC4/BLE_1_ess.c ****         }
 788:Generated_Source\PSoC4/BLE_1_ess.c ****     }
 789:Generated_Source\PSoC4/BLE_1_ess.c **** 
 790:Generated_Source\PSoC4/BLE_1_ess.c ****     if(CYBLE_GATT_ERR_NONE != gattErr)
 1682              		.loc 1 790 0 is_stmt 1
 1683 0594 1E23     		movs	r3, #30
 1684 0596 FB18     		adds	r3, r7, r3
 1685 0598 1B78     		ldrb	r3, [r3]
 1686 059a 002B     		cmp	r3, #0
 1687 059c 07D0     		beq	.L101
 791:Generated_Source\PSoC4/BLE_1_ess.c ****     {
 792:Generated_Source\PSoC4/BLE_1_ess.c ****         /* Indicate that request was handled */
 793:Generated_Source\PSoC4/BLE_1_ess.c ****         cyBle_eventHandlerFlag &= (uint8)~CYBLE_CALLBACK;
 1688              		.loc 1 793 0
 1689 059e 094B     		ldr	r3, .L109+8
 1690 05a0 1B78     		ldrb	r3, [r3]
 1691 05a2 DBB2     		uxtb	r3, r3
 1692 05a4 0122     		movs	r2, #1
 1693 05a6 9343     		bics	r3, r2
 1694 05a8 DAB2     		uxtb	r2, r3
 1695 05aa 064B     		ldr	r3, .L109+8
 1696 05ac 1A70     		strb	r2, [r3]
 1697              	.L101:
 794:Generated_Source\PSoC4/BLE_1_ess.c ****     }
 795:Generated_Source\PSoC4/BLE_1_ess.c **** 
 796:Generated_Source\PSoC4/BLE_1_ess.c ****     return (gattErr);
 1698              		.loc 1 796 0
 1699 05ae 1E23     		movs	r3, #30
 1700 05b0 FB18     		adds	r3, r7, r3
 1701 05b2 1B78     		ldrb	r3, [r3]
 797:Generated_Source\PSoC4/BLE_1_ess.c **** }
 1702              		.loc 1 797 0
 1703 05b4 1800     		movs	r0, r3
ARM GAS  C:\Users\megan\AppData\Local\Temp\ccmgjhBj.s 			page 46


 1704 05b6 BD46     		mov	sp, r7
 1705 05b8 0BB0     		add	sp, sp, #44
 1706              		@ sp needed
 1707 05ba 90BD     		pop	{r4, r7, pc}
 1708              	.L110:
 1709              		.align	2
 1710              	.L109:
 1711 05bc 00000000 		.word	cyBle_gattDB
 1712 05c0 04000000 		.word	CyBle_EssApplCallback
 1713 05c4 00000000 		.word	cyBle_eventHandlerFlag
 1714 05c8 00000000 		.word	cyBle_esssCharInstances
 1715              		.cfi_endproc
 1716              	.LFE8:
 1717              		.size	CyBle_EsssWriteEventHandler, .-CyBle_EsssWriteEventHandler
 1718              		.section	.text.CyBle_EsssPrepareWriteRequestEventHandler,"ax",%progbits
 1719              		.align	2
 1720              		.global	CyBle_EsssPrepareWriteRequestEventHandler
 1721              		.code	16
 1722              		.thumb_func
 1723              		.type	CyBle_EsssPrepareWriteRequestEventHandler, %function
 1724              	CyBle_EsssPrepareWriteRequestEventHandler:
 1725              	.LFB9:
 798:Generated_Source\PSoC4/BLE_1_ess.c **** 
 799:Generated_Source\PSoC4/BLE_1_ess.c **** 
 800:Generated_Source\PSoC4/BLE_1_ess.c **** /****************************************************************************** 
 801:Generated_Source\PSoC4/BLE_1_ess.c **** * Function Name: CyBle_EsssPrepareWriteRequestEventHandler
 802:Generated_Source\PSoC4/BLE_1_ess.c **** ***************************************************************************//**
 803:Generated_Source\PSoC4/BLE_1_ess.c **** * 
 804:Generated_Source\PSoC4/BLE_1_ess.c **** *  Handles the Write Request Event for the Environmental Sensing Service.
 805:Generated_Source\PSoC4/BLE_1_ess.c **** * 
 806:Generated_Source\PSoC4/BLE_1_ess.c **** *  \param eventParam: The pointer to the data that received with a prepare write
 807:Generated_Source\PSoC4/BLE_1_ess.c **** *               request event for the  Environmental Sensing Service.
 808:Generated_Source\PSoC4/BLE_1_ess.c **** * 
 809:Generated_Source\PSoC4/BLE_1_ess.c **** ******************************************************************************/
 810:Generated_Source\PSoC4/BLE_1_ess.c **** void CyBle_EsssPrepareWriteRequestEventHandler(const CYBLE_GATTS_PREP_WRITE_REQ_PARAM_T *eventParam
 811:Generated_Source\PSoC4/BLE_1_ess.c **** {
 1726              		.loc 1 811 0
 1727              		.cfi_startproc
 1728              		@ args = 0, pretend = 0, frame = 16
 1729              		@ frame_needed = 1, uses_anonymous_args = 0
 1730 0000 80B5     		push	{r7, lr}
 1731              		.cfi_def_cfa_offset 8
 1732              		.cfi_offset 7, -8
 1733              		.cfi_offset 14, -4
 1734 0002 84B0     		sub	sp, sp, #16
 1735              		.cfi_def_cfa_offset 24
 1736 0004 00AF     		add	r7, sp, #0
 1737              		.cfi_def_cfa_register 7
 1738 0006 7860     		str	r0, [r7, #4]
 812:Generated_Source\PSoC4/BLE_1_ess.c ****     uint8 i;
 813:Generated_Source\PSoC4/BLE_1_ess.c ****     uint8 j;
 814:Generated_Source\PSoC4/BLE_1_ess.c ****     uint8 exitLoop = 0u;
 1739              		.loc 1 814 0
 1740 0008 0D23     		movs	r3, #13
 1741 000a FB18     		adds	r3, r7, r3
 1742 000c 0022     		movs	r2, #0
 1743 000e 1A70     		strb	r2, [r3]
ARM GAS  C:\Users\megan\AppData\Local\Temp\ccmgjhBj.s 			page 47


 815:Generated_Source\PSoC4/BLE_1_ess.c ****     CYBLE_ESSS_CHAR_T *essCharInfoPtr;
 816:Generated_Source\PSoC4/BLE_1_ess.c **** 
 817:Generated_Source\PSoC4/BLE_1_ess.c ****     if(NULL != CyBle_EssApplCallback)
 1744              		.loc 1 817 0
 1745 0010 404B     		ldr	r3, .L121
 1746 0012 1B68     		ldr	r3, [r3]
 1747 0014 002B     		cmp	r3, #0
 1748 0016 00D1     		bne	.LCB1456
 1749 0018 78E0     		b	.L120	@long jump
 1750              	.LCB1456:
 818:Generated_Source\PSoC4/BLE_1_ess.c ****     {
 819:Generated_Source\PSoC4/BLE_1_ess.c ****         for(i = 0u; ((i < ((uint8) CYBLE_ESS_CHAR_COUNT)) && (exitLoop == 0u)); i++)
 1751              		.loc 1 819 0
 1752 001a 0F23     		movs	r3, #15
 1753 001c FB18     		adds	r3, r7, r3
 1754 001e 0022     		movs	r2, #0
 1755 0020 1A70     		strb	r2, [r3]
 1756 0022 69E0     		b	.L113
 1757              	.L119:
 820:Generated_Source\PSoC4/BLE_1_ess.c ****         {
 821:Generated_Source\PSoC4/BLE_1_ess.c ****             /* Check if characteristic is enabled. If the pointer to the characteristic
 822:Generated_Source\PSoC4/BLE_1_ess.c ****             * is not "NULL", there is at least one instance of the characteristic in
 823:Generated_Source\PSoC4/BLE_1_ess.c ****             * the ES Service.
 824:Generated_Source\PSoC4/BLE_1_ess.c ****             */
 825:Generated_Source\PSoC4/BLE_1_ess.c ****             if(NULL != cyBle_esss.charInfoAddr[i].charInfoPtr)
 1758              		.loc 1 825 0
 1759 0024 0F23     		movs	r3, #15
 1760 0026 FB18     		adds	r3, r7, r3
 1761 0028 1B78     		ldrb	r3, [r3]
 1762 002a 3B4A     		ldr	r2, .L121+4
 1763 002c 9B00     		lsls	r3, r3, #2
 1764 002e D318     		adds	r3, r2, r3
 1765 0030 0433     		adds	r3, r3, #4
 1766 0032 1B68     		ldr	r3, [r3]
 1767 0034 002B     		cmp	r3, #0
 1768 0036 58D0     		beq	.L114
 826:Generated_Source\PSoC4/BLE_1_ess.c ****             {
 827:Generated_Source\PSoC4/BLE_1_ess.c ****                 for(j = 0u; ((j < cyBle_esssCharInstances[i]) && (exitLoop == 0u)); j++)
 1769              		.loc 1 827 0
 1770 0038 0E23     		movs	r3, #14
 1771 003a FB18     		adds	r3, r7, r3
 1772 003c 0022     		movs	r2, #0
 1773 003e 1A70     		strb	r2, [r3]
 1774 0040 44E0     		b	.L115
 1775              	.L118:
 828:Generated_Source\PSoC4/BLE_1_ess.c ****                 {
 829:Generated_Source\PSoC4/BLE_1_ess.c ****                     essCharInfoPtr = &cyBle_esss.charInfoAddr[i].charInfoPtr[j];
 1776              		.loc 1 829 0
 1777 0042 0F23     		movs	r3, #15
 1778 0044 FB18     		adds	r3, r7, r3
 1779 0046 1B78     		ldrb	r3, [r3]
 1780 0048 334A     		ldr	r2, .L121+4
 1781 004a 9B00     		lsls	r3, r3, #2
 1782 004c D318     		adds	r3, r2, r3
 1783 004e 0433     		adds	r3, r3, #4
 1784 0050 1968     		ldr	r1, [r3]
 1785 0052 0E23     		movs	r3, #14
ARM GAS  C:\Users\megan\AppData\Local\Temp\ccmgjhBj.s 			page 48


 1786 0054 FB18     		adds	r3, r7, r3
 1787 0056 1A78     		ldrb	r2, [r3]
 1788 0058 1300     		movs	r3, r2
 1789 005a 9B00     		lsls	r3, r3, #2
 1790 005c 9B18     		adds	r3, r3, r2
 1791 005e 9B00     		lsls	r3, r3, #2
 1792 0060 CB18     		adds	r3, r1, r3
 1793 0062 BB60     		str	r3, [r7, #8]
 830:Generated_Source\PSoC4/BLE_1_ess.c **** 
 831:Generated_Source\PSoC4/BLE_1_ess.c ****                     /* Need to check following conditions: 1) if requested handle is the handle of
 832:Generated_Source\PSoC4/BLE_1_ess.c ****                     * Characteristic User Description Descriptor; 2) and if there is no active
 833:Generated_Source\PSoC4/BLE_1_ess.c ****                     * requests; 3) or there is an active request but the requested handle is
 834:Generated_Source\PSoC4/BLE_1_ess.c ****                     * different handle. the thord condition means that previous request resulted
 835:Generated_Source\PSoC4/BLE_1_ess.c ****                     * with an error so need to hanle that.
 836:Generated_Source\PSoC4/BLE_1_ess.c ****                     */
 837:Generated_Source\PSoC4/BLE_1_ess.c ****                     if(eventParam->baseAddr[eventParam->currentPrepWriteReqCount - 1u].handleValueP
 1794              		.loc 1 837 0
 1795 0064 7B68     		ldr	r3, [r7, #4]
 1796 0066 5A68     		ldr	r2, [r3, #4]
 1797 0068 7B68     		ldr	r3, [r7, #4]
 1798 006a 1B7A     		ldrb	r3, [r3, #8]
 1799 006c 2B49     		ldr	r1, .L121+8
 1800 006e 8C46     		mov	ip, r1
 1801 0070 6344     		add	r3, r3, ip
 1802 0072 1B01     		lsls	r3, r3, #4
 1803 0074 D318     		adds	r3, r2, r3
 1804 0076 1A89     		ldrh	r2, [r3, #8]
 838:Generated_Source\PSoC4/BLE_1_ess.c ****                         essCharInfoPtr->descrHandle[CYBLE_ESS_CHAR_USER_DESCRIPTION_DESCR])
 1805              		.loc 1 838 0
 1806 0078 BB68     		ldr	r3, [r7, #8]
 1807 007a 1B8A     		ldrh	r3, [r3, #16]
 837:Generated_Source\PSoC4/BLE_1_ess.c ****                         essCharInfoPtr->descrHandle[CYBLE_ESS_CHAR_USER_DESCRIPTION_DESCR])
 1808              		.loc 1 837 0
 1809 007c 9A42     		cmp	r2, r3
 1810 007e 1ED1     		bne	.L116
 839:Generated_Source\PSoC4/BLE_1_ess.c ****                     {
 840:Generated_Source\PSoC4/BLE_1_ess.c ****                         if(cyBle_esssReqHandle == CYBLE_GATT_INVALID_ATTR_HANDLE_VALUE)
 1811              		.loc 1 840 0
 1812 0080 274B     		ldr	r3, .L121+12
 1813 0082 1B88     		ldrh	r3, [r3]
 1814 0084 002B     		cmp	r3, #0
 1815 0086 0ED1     		bne	.L117
 841:Generated_Source\PSoC4/BLE_1_ess.c ****                         {
 842:Generated_Source\PSoC4/BLE_1_ess.c ****                             /* Send Prepare Write Response which identifies acknowledgment for
 843:Generated_Source\PSoC4/BLE_1_ess.c ****                             * long characteristic value write.
 844:Generated_Source\PSoC4/BLE_1_ess.c ****                             */
 845:Generated_Source\PSoC4/BLE_1_ess.c ****                             CyBle_GattsPrepWriteReqSupport(CYBLE_GATTS_PREP_WRITE_SUPPORT);
 1816              		.loc 1 845 0
 1817 0088 0120     		movs	r0, #1
 1818 008a FFF7FEFF 		bl	CyBle_GattsPrepWriteReqSupport
 846:Generated_Source\PSoC4/BLE_1_ess.c **** 
 847:Generated_Source\PSoC4/BLE_1_ess.c ****                             cyBle_esssReqHandle =
 848:Generated_Source\PSoC4/BLE_1_ess.c ****                             eventParam->baseAddr[eventParam->currentPrepWriteReqCount - 1u].handleV
 1819              		.loc 1 848 0
 1820 008e 7B68     		ldr	r3, [r7, #4]
 1821 0090 5A68     		ldr	r2, [r3, #4]
 1822 0092 7B68     		ldr	r3, [r7, #4]
ARM GAS  C:\Users\megan\AppData\Local\Temp\ccmgjhBj.s 			page 49


 1823 0094 1B7A     		ldrb	r3, [r3, #8]
 1824 0096 2149     		ldr	r1, .L121+8
 1825 0098 8C46     		mov	ip, r1
 1826 009a 6344     		add	r3, r3, ip
 1827 009c 1B01     		lsls	r3, r3, #4
 1828 009e D318     		adds	r3, r2, r3
 1829 00a0 1A89     		ldrh	r2, [r3, #8]
 847:Generated_Source\PSoC4/BLE_1_ess.c ****                             eventParam->baseAddr[eventParam->currentPrepWriteReqCount - 1u].handleV
 1830              		.loc 1 847 0
 1831 00a2 1F4B     		ldr	r3, .L121+12
 1832 00a4 1A80     		strh	r2, [r3]
 1833              	.L117:
 849:Generated_Source\PSoC4/BLE_1_ess.c ****                         }
 850:Generated_Source\PSoC4/BLE_1_ess.c ****                         /* Indicate that request was handled */
 851:Generated_Source\PSoC4/BLE_1_ess.c ****                         cyBle_eventHandlerFlag &= (uint8)~CYBLE_CALLBACK;
 1834              		.loc 1 851 0
 1835 00a6 1F4B     		ldr	r3, .L121+16
 1836 00a8 1B78     		ldrb	r3, [r3]
 1837 00aa DBB2     		uxtb	r3, r3
 1838 00ac 0122     		movs	r2, #1
 1839 00ae 9343     		bics	r3, r2
 1840 00b0 DAB2     		uxtb	r2, r3
 1841 00b2 1C4B     		ldr	r3, .L121+16
 1842 00b4 1A70     		strb	r2, [r3]
 852:Generated_Source\PSoC4/BLE_1_ess.c **** 
 853:Generated_Source\PSoC4/BLE_1_ess.c ****                         /* Set the flag to exit the loop */
 854:Generated_Source\PSoC4/BLE_1_ess.c ****                         exitLoop = 1u;
 1843              		.loc 1 854 0
 1844 00b6 0D23     		movs	r3, #13
 1845 00b8 FB18     		adds	r3, r7, r3
 1846 00ba 0122     		movs	r2, #1
 1847 00bc 1A70     		strb	r2, [r3]
 1848              	.L116:
 827:Generated_Source\PSoC4/BLE_1_ess.c ****                 {
 1849              		.loc 1 827 0 discriminator 2
 1850 00be 0E23     		movs	r3, #14
 1851 00c0 FB18     		adds	r3, r7, r3
 1852 00c2 1A78     		ldrb	r2, [r3]
 1853 00c4 0E23     		movs	r3, #14
 1854 00c6 FB18     		adds	r3, r7, r3
 1855 00c8 0132     		adds	r2, r2, #1
 1856 00ca 1A70     		strb	r2, [r3]
 1857              	.L115:
 827:Generated_Source\PSoC4/BLE_1_ess.c ****                 {
 1858              		.loc 1 827 0 is_stmt 0 discriminator 1
 1859 00cc 0F23     		movs	r3, #15
 1860 00ce FB18     		adds	r3, r7, r3
 1861 00d0 1B78     		ldrb	r3, [r3]
 1862 00d2 154A     		ldr	r2, .L121+20
 1863 00d4 D35C     		ldrb	r3, [r2, r3]
 1864 00d6 0E22     		movs	r2, #14
 1865 00d8 BA18     		adds	r2, r7, r2
 1866 00da 1278     		ldrb	r2, [r2]
 1867 00dc 9A42     		cmp	r2, r3
 1868 00de 04D2     		bcs	.L114
 827:Generated_Source\PSoC4/BLE_1_ess.c ****                 {
 1869              		.loc 1 827 0 discriminator 3
ARM GAS  C:\Users\megan\AppData\Local\Temp\ccmgjhBj.s 			page 50


 1870 00e0 0D23     		movs	r3, #13
 1871 00e2 FB18     		adds	r3, r7, r3
 1872 00e4 1B78     		ldrb	r3, [r3]
 1873 00e6 002B     		cmp	r3, #0
 1874 00e8 ABD0     		beq	.L118
 1875              	.L114:
 819:Generated_Source\PSoC4/BLE_1_ess.c ****         {
 1876              		.loc 1 819 0 is_stmt 1 discriminator 2
 1877 00ea 0F23     		movs	r3, #15
 1878 00ec FB18     		adds	r3, r7, r3
 1879 00ee 1A78     		ldrb	r2, [r3]
 1880 00f0 0F23     		movs	r3, #15
 1881 00f2 FB18     		adds	r3, r7, r3
 1882 00f4 0132     		adds	r2, r2, #1
 1883 00f6 1A70     		strb	r2, [r3]
 1884              	.L113:
 819:Generated_Source\PSoC4/BLE_1_ess.c ****         {
 1885              		.loc 1 819 0 is_stmt 0 discriminator 1
 1886 00f8 0F23     		movs	r3, #15
 1887 00fa FB18     		adds	r3, r7, r3
 1888 00fc 1B78     		ldrb	r3, [r3]
 1889 00fe 142B     		cmp	r3, #20
 1890 0100 04D8     		bhi	.L120
 819:Generated_Source\PSoC4/BLE_1_ess.c ****         {
 1891              		.loc 1 819 0 discriminator 3
 1892 0102 0D23     		movs	r3, #13
 1893 0104 FB18     		adds	r3, r7, r3
 1894 0106 1B78     		ldrb	r3, [r3]
 1895 0108 002B     		cmp	r3, #0
 1896 010a 8BD0     		beq	.L119
 1897              	.L120:
 855:Generated_Source\PSoC4/BLE_1_ess.c ****                     }
 856:Generated_Source\PSoC4/BLE_1_ess.c ****                 }
 857:Generated_Source\PSoC4/BLE_1_ess.c ****             }
 858:Generated_Source\PSoC4/BLE_1_ess.c ****         }
 859:Generated_Source\PSoC4/BLE_1_ess.c ****     }
 860:Generated_Source\PSoC4/BLE_1_ess.c **** }
 1898              		.loc 1 860 0 is_stmt 1
 1899 010c C046     		nop
 1900 010e BD46     		mov	sp, r7
 1901 0110 04B0     		add	sp, sp, #16
 1902              		@ sp needed
 1903 0112 80BD     		pop	{r7, pc}
 1904              	.L122:
 1905              		.align	2
 1906              	.L121:
 1907 0114 04000000 		.word	CyBle_EssApplCallback
 1908 0118 00000000 		.word	cyBle_esss
 1909 011c FFFFFF0F 		.word	268435455
 1910 0120 00000000 		.word	cyBle_esssReqHandle
 1911 0124 00000000 		.word	cyBle_eventHandlerFlag
 1912 0128 00000000 		.word	cyBle_esssCharInstances
 1913              		.cfi_endproc
 1914              	.LFE9:
 1915              		.size	CyBle_EsssPrepareWriteRequestEventHandler, .-CyBle_EsssPrepareWriteRequestEventHandler
 1916              		.section	.text.CyBle_EsssExecuteWriteRequestEventHandler,"ax",%progbits
 1917              		.align	2
ARM GAS  C:\Users\megan\AppData\Local\Temp\ccmgjhBj.s 			page 51


 1918              		.global	CyBle_EsssExecuteWriteRequestEventHandler
 1919              		.code	16
 1920              		.thumb_func
 1921              		.type	CyBle_EsssExecuteWriteRequestEventHandler, %function
 1922              	CyBle_EsssExecuteWriteRequestEventHandler:
 1923              	.LFB10:
 861:Generated_Source\PSoC4/BLE_1_ess.c **** 
 862:Generated_Source\PSoC4/BLE_1_ess.c **** 
 863:Generated_Source\PSoC4/BLE_1_ess.c **** /****************************************************************************** 
 864:Generated_Source\PSoC4/BLE_1_ess.c **** * Function Name: CyBle_EsssExecuteWriteRequestEventHandler
 865:Generated_Source\PSoC4/BLE_1_ess.c **** ***************************************************************************//**
 866:Generated_Source\PSoC4/BLE_1_ess.c **** * 
 867:Generated_Source\PSoC4/BLE_1_ess.c **** *  Handles the Execute Write Request Event for the Environmental Sensing Service.
 868:Generated_Source\PSoC4/BLE_1_ess.c **** * 
 869:Generated_Source\PSoC4/BLE_1_ess.c **** *  \param eventParam: The pointer to the data that came with a write request for the
 870:Generated_Source\PSoC4/BLE_1_ess.c **** *              Environmental Sensing Service.
 871:Generated_Source\PSoC4/BLE_1_ess.c **** * 
 872:Generated_Source\PSoC4/BLE_1_ess.c **** ******************************************************************************/
 873:Generated_Source\PSoC4/BLE_1_ess.c **** void CyBle_EsssExecuteWriteRequestEventHandler(CYBLE_GATTS_EXEC_WRITE_REQ_T *eventParam)
 874:Generated_Source\PSoC4/BLE_1_ess.c **** {
 1924              		.loc 1 874 0
 1925              		.cfi_startproc
 1926              		@ args = 0, pretend = 0, frame = 40
 1927              		@ frame_needed = 1, uses_anonymous_args = 0
 1928 0000 80B5     		push	{r7, lr}
 1929              		.cfi_def_cfa_offset 8
 1930              		.cfi_offset 7, -8
 1931              		.cfi_offset 14, -4
 1932 0002 8AB0     		sub	sp, sp, #40
 1933              		.cfi_def_cfa_offset 48
 1934 0004 00AF     		add	r7, sp, #0
 1935              		.cfi_def_cfa_register 7
 1936 0006 7860     		str	r0, [r7, #4]
 875:Generated_Source\PSoC4/BLE_1_ess.c ****     uint8 i;
 876:Generated_Source\PSoC4/BLE_1_ess.c ****     uint8 j;
 877:Generated_Source\PSoC4/BLE_1_ess.c ****     uint8 locCount;
 878:Generated_Source\PSoC4/BLE_1_ess.c ****     uint8 exitLoop = 0u;
 1937              		.loc 1 878 0
 1938 0008 2423     		movs	r3, #36
 1939 000a FB18     		adds	r3, r7, r3
 1940 000c 0022     		movs	r2, #0
 1941 000e 1A70     		strb	r2, [r3]
 879:Generated_Source\PSoC4/BLE_1_ess.c ****     uint16 locLength = 0u;
 1942              		.loc 1 879 0
 1943 0010 2223     		movs	r3, #34
 1944 0012 FB18     		adds	r3, r7, r3
 1945 0014 0022     		movs	r2, #0
 1946 0016 1A80     		strh	r2, [r3]
 880:Generated_Source\PSoC4/BLE_1_ess.c ****     CYBLE_GATT_VALUE_T locDescrValue;
 881:Generated_Source\PSoC4/BLE_1_ess.c ****     CYBLE_ESS_DESCR_VALUE_T wrDescrReqParam;
 882:Generated_Source\PSoC4/BLE_1_ess.c **** 
 883:Generated_Source\PSoC4/BLE_1_ess.c ****     if(NULL != CyBle_EssApplCallback)
 1947              		.loc 1 883 0
 1948 0018 7E4B     		ldr	r3, .L138
 1949 001a 1B68     		ldr	r3, [r3]
 1950 001c 002B     		cmp	r3, #0
 1951 001e 00D1     		bne	.LCB1638
ARM GAS  C:\Users\megan\AppData\Local\Temp\ccmgjhBj.s 			page 52


 1952 0020 F3E0     		b	.L137	@long jump
 1953              	.LCB1638:
 884:Generated_Source\PSoC4/BLE_1_ess.c ****     {
 885:Generated_Source\PSoC4/BLE_1_ess.c ****         for(i = 0u; ((i < ((uint8) CYBLE_ESS_CHAR_COUNT)) && (exitLoop == 0u)); i++)
 1954              		.loc 1 885 0
 1955 0022 2723     		movs	r3, #39
 1956 0024 FB18     		adds	r3, r7, r3
 1957 0026 0022     		movs	r2, #0
 1958 0028 1A70     		strb	r2, [r3]
 1959 002a E3E0     		b	.L125
 1960              	.L136:
 886:Generated_Source\PSoC4/BLE_1_ess.c ****         {
 887:Generated_Source\PSoC4/BLE_1_ess.c ****             /* Check if characteristic is enabled. If the pointer to the characteristic
 888:Generated_Source\PSoC4/BLE_1_ess.c ****             * is not "NULL", there is at least one instance of the characteristic in
 889:Generated_Source\PSoC4/BLE_1_ess.c ****             * the ES Service.
 890:Generated_Source\PSoC4/BLE_1_ess.c ****             */
 891:Generated_Source\PSoC4/BLE_1_ess.c ****             if(NULL != cyBle_esss.charInfoAddr[i].charInfoPtr)
 1961              		.loc 1 891 0
 1962 002c 2723     		movs	r3, #39
 1963 002e FB18     		adds	r3, r7, r3
 1964 0030 1B78     		ldrb	r3, [r3]
 1965 0032 794A     		ldr	r2, .L138+4
 1966 0034 9B00     		lsls	r3, r3, #2
 1967 0036 D318     		adds	r3, r2, r3
 1968 0038 0433     		adds	r3, r3, #4
 1969 003a 1B68     		ldr	r3, [r3]
 1970 003c 002B     		cmp	r3, #0
 1971 003e 00D1     		bne	.LCB1656
 1972 0040 D1E0     		b	.L126	@long jump
 1973              	.LCB1656:
 892:Generated_Source\PSoC4/BLE_1_ess.c ****             {
 893:Generated_Source\PSoC4/BLE_1_ess.c ****                 for(j = 0u; ((j < cyBle_esssCharInstances[i]) && (exitLoop == 0u)); j++)
 1974              		.loc 1 893 0
 1975 0042 2623     		movs	r3, #38
 1976 0044 FB18     		adds	r3, r7, r3
 1977 0046 0022     		movs	r2, #0
 1978 0048 1A70     		strb	r2, [r3]
 1979 004a BCE0     		b	.L127
 1980              	.L135:
 894:Generated_Source\PSoC4/BLE_1_ess.c ****                 {
 895:Generated_Source\PSoC4/BLE_1_ess.c ****                     if((eventParam->baseAddr[0u].handleValuePair.attrHandle == 
 1981              		.loc 1 895 0
 1982 004c 7B68     		ldr	r3, [r7, #4]
 1983 004e 5B68     		ldr	r3, [r3, #4]
 1984 0050 1989     		ldrh	r1, [r3, #8]
 896:Generated_Source\PSoC4/BLE_1_ess.c ****                         cyBle_esss.charInfoAddr[i].charInfoPtr[j].descrHandle[CYBLE_ESS_CHAR_USER_D
 1985              		.loc 1 896 0
 1986 0052 2723     		movs	r3, #39
 1987 0054 FB18     		adds	r3, r7, r3
 1988 0056 1B78     		ldrb	r3, [r3]
 1989 0058 6F4A     		ldr	r2, .L138+4
 1990 005a 9B00     		lsls	r3, r3, #2
 1991 005c D318     		adds	r3, r2, r3
 1992 005e 0433     		adds	r3, r3, #4
 1993 0060 1868     		ldr	r0, [r3]
 1994 0062 2623     		movs	r3, #38
 1995 0064 FB18     		adds	r3, r7, r3
ARM GAS  C:\Users\megan\AppData\Local\Temp\ccmgjhBj.s 			page 53


 1996 0066 1A78     		ldrb	r2, [r3]
 1997 0068 1300     		movs	r3, r2
 1998 006a 9B00     		lsls	r3, r3, #2
 1999 006c 9B18     		adds	r3, r3, r2
 2000 006e 9B00     		lsls	r3, r3, #2
 2001 0070 C318     		adds	r3, r0, r3
 2002 0072 1B8A     		ldrh	r3, [r3, #16]
 895:Generated_Source\PSoC4/BLE_1_ess.c ****                         cyBle_esss.charInfoAddr[i].charInfoPtr[j].descrHandle[CYBLE_ESS_CHAR_USER_D
 2003              		.loc 1 895 0
 2004 0074 9942     		cmp	r1, r3
 2005 0076 00D0     		beq	.LCB1686
 2006 0078 9EE0     		b	.L128	@long jump
 2007              	.LCB1686:
 897:Generated_Source\PSoC4/BLE_1_ess.c ****                             (cyBle_esssReqHandle ==
 898:Generated_Source\PSoC4/BLE_1_ess.c ****                                 eventParam->baseAddr[0u].handleValuePair.attrHandle))
 2008              		.loc 1 898 0
 2009 007a 7B68     		ldr	r3, [r7, #4]
 2010 007c 5B68     		ldr	r3, [r3, #4]
 2011 007e 1A89     		ldrh	r2, [r3, #8]
 897:Generated_Source\PSoC4/BLE_1_ess.c ****                             (cyBle_esssReqHandle ==
 2012              		.loc 1 897 0
 2013 0080 664B     		ldr	r3, .L138+8
 2014 0082 1B88     		ldrh	r3, [r3]
 896:Generated_Source\PSoC4/BLE_1_ess.c ****                             (cyBle_esssReqHandle ==
 2015              		.loc 1 896 0
 2016 0084 9A42     		cmp	r2, r3
 2017 0086 00D0     		beq	.LCB1693
 2018 0088 96E0     		b	.L128	@long jump
 2019              	.LCB1693:
 899:Generated_Source\PSoC4/BLE_1_ess.c ****                     {
 900:Generated_Source\PSoC4/BLE_1_ess.c ****                         /* Check the execWriteFlag before execute or cancel write long operation */
 901:Generated_Source\PSoC4/BLE_1_ess.c ****                         if(eventParam->execWriteFlag == CYBLE_GATT_EXECUTE_WRITE_EXEC_FLAG)
 2020              		.loc 1 901 0
 2021 008a 7B68     		ldr	r3, [r7, #4]
 2022 008c 5B7A     		ldrb	r3, [r3, #9]
 2023 008e 012B     		cmp	r3, #1
 2024 0090 00D0     		beq	.LCB1697
 2025 0092 82E0     		b	.L129	@long jump
 2026              	.LCB1697:
 902:Generated_Source\PSoC4/BLE_1_ess.c ****                         {
 903:Generated_Source\PSoC4/BLE_1_ess.c ****                             for(locCount = 0u; locCount < eventParam->prepWriteReqCount; locCount++
 2027              		.loc 1 903 0
 2028 0094 2523     		movs	r3, #37
 2029 0096 FB18     		adds	r3, r7, r3
 2030 0098 0022     		movs	r2, #0
 2031 009a 1A70     		strb	r2, [r3]
 2032 009c 15E0     		b	.L130
 2033              	.L131:
 904:Generated_Source\PSoC4/BLE_1_ess.c ****                             {
 905:Generated_Source\PSoC4/BLE_1_ess.c ****                                 locLength += eventParam->baseAddr[locCount].handleValuePair.value.l
 2034              		.loc 1 905 0 discriminator 3
 2035 009e 7B68     		ldr	r3, [r7, #4]
 2036 00a0 5A68     		ldr	r2, [r3, #4]
 2037 00a2 2523     		movs	r3, #37
 2038 00a4 FB18     		adds	r3, r7, r3
 2039 00a6 1B78     		ldrb	r3, [r3]
 2040 00a8 1B01     		lsls	r3, r3, #4
ARM GAS  C:\Users\megan\AppData\Local\Temp\ccmgjhBj.s 			page 54


 2041 00aa D318     		adds	r3, r2, r3
 2042 00ac 9988     		ldrh	r1, [r3, #4]
 2043 00ae 2223     		movs	r3, #34
 2044 00b0 FB18     		adds	r3, r7, r3
 2045 00b2 2222     		movs	r2, #34
 2046 00b4 BA18     		adds	r2, r7, r2
 2047 00b6 1288     		ldrh	r2, [r2]
 2048 00b8 8A18     		adds	r2, r1, r2
 2049 00ba 1A80     		strh	r2, [r3]
 903:Generated_Source\PSoC4/BLE_1_ess.c ****                             {
 2050              		.loc 1 903 0 discriminator 3
 2051 00bc 2523     		movs	r3, #37
 2052 00be FB18     		adds	r3, r7, r3
 2053 00c0 1A78     		ldrb	r2, [r3]
 2054 00c2 2523     		movs	r3, #37
 2055 00c4 FB18     		adds	r3, r7, r3
 2056 00c6 0132     		adds	r2, r2, #1
 2057 00c8 1A70     		strb	r2, [r3]
 2058              	.L130:
 903:Generated_Source\PSoC4/BLE_1_ess.c ****                             {
 2059              		.loc 1 903 0 is_stmt 0 discriminator 1
 2060 00ca 7B68     		ldr	r3, [r7, #4]
 2061 00cc 1B7A     		ldrb	r3, [r3, #8]
 2062 00ce 2522     		movs	r2, #37
 2063 00d0 BA18     		adds	r2, r7, r2
 2064 00d2 1278     		ldrb	r2, [r2]
 2065 00d4 9A42     		cmp	r2, r3
 2066 00d6 E2D3     		bcc	.L131
 906:Generated_Source\PSoC4/BLE_1_ess.c ****                             }
 907:Generated_Source\PSoC4/BLE_1_ess.c **** 
 908:Generated_Source\PSoC4/BLE_1_ess.c ****                             if(CYBLE_GATT_DB_ATTR_GET_ATTR_GEN_MAX_LEN(cyBle_esssReqHandle) >= locL
 2067              		.loc 1 908 0 is_stmt 1
 2068 00d8 504B     		ldr	r3, .L138+8
 2069 00da 1B88     		ldrh	r3, [r3]
 2070 00dc 5A1E     		subs	r2, r3, #1
 2071 00de 5049     		ldr	r1, .L138+12
 2072 00e0 1300     		movs	r3, r2
 2073 00e2 9B00     		lsls	r3, r3, #2
 2074 00e4 9B18     		adds	r3, r3, r2
 2075 00e6 9B00     		lsls	r3, r3, #2
 2076 00e8 CB18     		adds	r3, r1, r3
 2077 00ea 0C33     		adds	r3, r3, #12
 2078 00ec 1B88     		ldrh	r3, [r3]
 2079 00ee 2222     		movs	r2, #34
 2080 00f0 BA18     		adds	r2, r7, r2
 2081 00f2 1288     		ldrh	r2, [r2]
 2082 00f4 9A42     		cmp	r2, r3
 2083 00f6 47D8     		bhi	.L132
 909:Generated_Source\PSoC4/BLE_1_ess.c ****                             {
 910:Generated_Source\PSoC4/BLE_1_ess.c ****                                 /* Fill data and pass it to user */
 911:Generated_Source\PSoC4/BLE_1_ess.c ****                                 wrDescrReqParam.connHandle = eventParam->connHandle;
 2084              		.loc 1 911 0
 2085 00f8 0C23     		movs	r3, #12
 2086 00fa FB18     		adds	r3, r7, r3
 2087 00fc 7A68     		ldr	r2, [r7, #4]
 2088 00fe 1288     		ldrh	r2, [r2]
 2089 0100 1A80     		strh	r2, [r3]
ARM GAS  C:\Users\megan\AppData\Local\Temp\ccmgjhBj.s 			page 55


 912:Generated_Source\PSoC4/BLE_1_ess.c ****                                 wrDescrReqParam.charIndex = (CYBLE_ESS_CHAR_INDEX_T) i;
 2090              		.loc 1 912 0
 2091 0102 0C23     		movs	r3, #12
 2092 0104 FB18     		adds	r3, r7, r3
 2093 0106 2722     		movs	r2, #39
 2094 0108 BA18     		adds	r2, r7, r2
 2095 010a 1278     		ldrb	r2, [r2]
 2096 010c 9A70     		strb	r2, [r3, #2]
 913:Generated_Source\PSoC4/BLE_1_ess.c ****                                 wrDescrReqParam.charInstance = j;
 2097              		.loc 1 913 0
 2098 010e 0C23     		movs	r3, #12
 2099 0110 FB18     		adds	r3, r7, r3
 2100 0112 2622     		movs	r2, #38
 2101 0114 BA18     		adds	r2, r7, r2
 2102 0116 1278     		ldrb	r2, [r2]
 2103 0118 DA70     		strb	r2, [r3, #3]
 914:Generated_Source\PSoC4/BLE_1_ess.c ****                                 wrDescrReqParam.gattErrorCode = CYBLE_GATT_ERR_NONE;
 2104              		.loc 1 914 0
 2105 011a 0C23     		movs	r3, #12
 2106 011c FB18     		adds	r3, r7, r3
 2107 011e 0022     		movs	r2, #0
 2108 0120 5A71     		strb	r2, [r3, #5]
 915:Generated_Source\PSoC4/BLE_1_ess.c ****                                 locDescrValue = eventParam->baseAddr[0u].handleValuePair.value;
 2109              		.loc 1 915 0
 2110 0122 7B68     		ldr	r3, [r7, #4]
 2111 0124 5A68     		ldr	r2, [r3, #4]
 2112 0126 1823     		movs	r3, #24
 2113 0128 FB18     		adds	r3, r7, r3
 2114 012a 03CA     		ldmia	r2!, {r0, r1}
 2115 012c 03C3     		stmia	r3!, {r0, r1}
 916:Generated_Source\PSoC4/BLE_1_ess.c ****                                 wrDescrReqParam.value = &locDescrValue;
 2116              		.loc 1 916 0
 2117 012e 0C23     		movs	r3, #12
 2118 0130 FB18     		adds	r3, r7, r3
 2119 0132 1822     		movs	r2, #24
 2120 0134 BA18     		adds	r2, r7, r2
 2121 0136 9A60     		str	r2, [r3, #8]
 917:Generated_Source\PSoC4/BLE_1_ess.c ****                                 wrDescrReqParam.value->len = locLength;
 2122              		.loc 1 917 0
 2123 0138 0C23     		movs	r3, #12
 2124 013a FB18     		adds	r3, r7, r3
 2125 013c 9B68     		ldr	r3, [r3, #8]
 2126 013e 2222     		movs	r2, #34
 2127 0140 BA18     		adds	r2, r7, r2
 2128 0142 1288     		ldrh	r2, [r2]
 2129 0144 9A80     		strh	r2, [r3, #4]
 918:Generated_Source\PSoC4/BLE_1_ess.c ****                                 wrDescrReqParam.descrIndex = CYBLE_ESS_CHAR_USER_DESCRIPTION_DESCR;
 2130              		.loc 1 918 0
 2131 0146 0C23     		movs	r3, #12
 2132 0148 FB18     		adds	r3, r7, r3
 2133 014a 0722     		movs	r2, #7
 2134 014c 1A71     		strb	r2, [r3, #4]
 919:Generated_Source\PSoC4/BLE_1_ess.c **** 
 920:Generated_Source\PSoC4/BLE_1_ess.c ****                                 CyBle_EssApplCallback(CYBLE_EVT_ESSS_DESCR_WRITE, &wrDescrReqParam)
 2135              		.loc 1 920 0
 2136 014e 314B     		ldr	r3, .L138
 2137 0150 1B68     		ldr	r3, [r3]
ARM GAS  C:\Users\megan\AppData\Local\Temp\ccmgjhBj.s 			page 56


 2138 0152 0C22     		movs	r2, #12
 2139 0154 B918     		adds	r1, r7, r2
 2140 0156 8222     		movs	r2, #130
 2141 0158 FF32     		adds	r2, r2, #255
 2142 015a 1000     		movs	r0, r2
 2143 015c 9847     		blx	r3
 921:Generated_Source\PSoC4/BLE_1_ess.c **** 
 922:Generated_Source\PSoC4/BLE_1_ess.c ****                                 if(wrDescrReqParam.gattErrorCode == CYBLE_GATT_ERR_NONE)
 2144              		.loc 1 922 0
 2145 015e 0C23     		movs	r3, #12
 2146 0160 FB18     		adds	r3, r7, r3
 2147 0162 5B79     		ldrb	r3, [r3, #5]
 2148 0164 002B     		cmp	r3, #0
 2149 0166 13D1     		bne	.L134
 923:Generated_Source\PSoC4/BLE_1_ess.c ****                                 {
 924:Generated_Source\PSoC4/BLE_1_ess.c ****                                     CYBLE_GATT_DB_ATTR_SET_ATTR_GEN_LEN(cyBle_esssReqHandle, locLen
 2150              		.loc 1 924 0
 2151 0168 2C4B     		ldr	r3, .L138+8
 2152 016a 1B88     		ldrh	r3, [r3]
 2153 016c 5A1E     		subs	r2, r3, #1
 2154 016e 2C49     		ldr	r1, .L138+12
 2155 0170 1300     		movs	r3, r2
 2156 0172 9B00     		lsls	r3, r3, #2
 2157 0174 9B18     		adds	r3, r3, r2
 2158 0176 9B00     		lsls	r3, r3, #2
 2159 0178 CB18     		adds	r3, r1, r3
 2160 017a 1033     		adds	r3, r3, #16
 2161 017c 1B68     		ldr	r3, [r3]
 2162 017e 2222     		movs	r2, #34
 2163 0180 BA18     		adds	r2, r7, r2
 2164 0182 1288     		ldrh	r2, [r2]
 2165 0184 1A80     		strh	r2, [r3]
 2166 0186 03E0     		b	.L134
 2167              	.L132:
 925:Generated_Source\PSoC4/BLE_1_ess.c ****                                 }
 926:Generated_Source\PSoC4/BLE_1_ess.c ****                             }
 927:Generated_Source\PSoC4/BLE_1_ess.c ****                             else
 928:Generated_Source\PSoC4/BLE_1_ess.c ****                             {
 929:Generated_Source\PSoC4/BLE_1_ess.c ****                                 wrDescrReqParam.gattErrorCode = CYBLE_GATT_ERR_INVALID_ATTRIBUTE_LE
 2168              		.loc 1 929 0
 2169 0188 0C23     		movs	r3, #12
 2170 018a FB18     		adds	r3, r7, r3
 2171 018c 0D22     		movs	r2, #13
 2172 018e 5A71     		strb	r2, [r3, #5]
 2173              	.L134:
 930:Generated_Source\PSoC4/BLE_1_ess.c ****                             }
 931:Generated_Source\PSoC4/BLE_1_ess.c **** 
 932:Generated_Source\PSoC4/BLE_1_ess.c ****                             /* Pass user error code to Stack */
 933:Generated_Source\PSoC4/BLE_1_ess.c ****                             eventParam->gattErrorCode = wrDescrReqParam.gattErrorCode;
 2174              		.loc 1 933 0
 2175 0190 0C23     		movs	r3, #12
 2176 0192 FB18     		adds	r3, r7, r3
 2177 0194 5A79     		ldrb	r2, [r3, #5]
 2178 0196 7B68     		ldr	r3, [r7, #4]
 2179 0198 1A73     		strb	r2, [r3, #12]
 2180              	.L129:
 934:Generated_Source\PSoC4/BLE_1_ess.c ****                         }
ARM GAS  C:\Users\megan\AppData\Local\Temp\ccmgjhBj.s 			page 57


 935:Generated_Source\PSoC4/BLE_1_ess.c **** 
 936:Generated_Source\PSoC4/BLE_1_ess.c ****                         /* Set the flag to exit the loop */
 937:Generated_Source\PSoC4/BLE_1_ess.c ****                         exitLoop = 1u;
 2181              		.loc 1 937 0
 2182 019a 2423     		movs	r3, #36
 2183 019c FB18     		adds	r3, r7, r3
 2184 019e 0122     		movs	r2, #1
 2185 01a0 1A70     		strb	r2, [r3]
 938:Generated_Source\PSoC4/BLE_1_ess.c **** 
 939:Generated_Source\PSoC4/BLE_1_ess.c ****                         /* Indicate that request was handled */
 940:Generated_Source\PSoC4/BLE_1_ess.c ****                         cyBle_eventHandlerFlag &= (uint8)~CYBLE_CALLBACK;
 2186              		.loc 1 940 0
 2187 01a2 204B     		ldr	r3, .L138+16
 2188 01a4 1B78     		ldrb	r3, [r3]
 2189 01a6 DBB2     		uxtb	r3, r3
 2190 01a8 0122     		movs	r2, #1
 2191 01aa 9343     		bics	r3, r2
 2192 01ac DAB2     		uxtb	r2, r3
 2193 01ae 1D4B     		ldr	r3, .L138+16
 2194 01b0 1A70     		strb	r2, [r3]
 941:Generated_Source\PSoC4/BLE_1_ess.c **** 
 942:Generated_Source\PSoC4/BLE_1_ess.c ****                         /* Clear requested handle */
 943:Generated_Source\PSoC4/BLE_1_ess.c ****                         cyBle_esssReqHandle = CYBLE_GATT_INVALID_ATTR_HANDLE_VALUE;
 2195              		.loc 1 943 0
 2196 01b2 1A4B     		ldr	r3, .L138+8
 2197 01b4 0022     		movs	r2, #0
 2198 01b6 1A80     		strh	r2, [r3]
 2199              	.L128:
 893:Generated_Source\PSoC4/BLE_1_ess.c ****                 {
 2200              		.loc 1 893 0 discriminator 2
 2201 01b8 2623     		movs	r3, #38
 2202 01ba FB18     		adds	r3, r7, r3
 2203 01bc 1A78     		ldrb	r2, [r3]
 2204 01be 2623     		movs	r3, #38
 2205 01c0 FB18     		adds	r3, r7, r3
 2206 01c2 0132     		adds	r2, r2, #1
 2207 01c4 1A70     		strb	r2, [r3]
 2208              	.L127:
 893:Generated_Source\PSoC4/BLE_1_ess.c ****                 {
 2209              		.loc 1 893 0 is_stmt 0 discriminator 1
 2210 01c6 2723     		movs	r3, #39
 2211 01c8 FB18     		adds	r3, r7, r3
 2212 01ca 1B78     		ldrb	r3, [r3]
 2213 01cc 164A     		ldr	r2, .L138+20
 2214 01ce D35C     		ldrb	r3, [r2, r3]
 2215 01d0 2622     		movs	r2, #38
 2216 01d2 BA18     		adds	r2, r7, r2
 2217 01d4 1278     		ldrb	r2, [r2]
 2218 01d6 9A42     		cmp	r2, r3
 2219 01d8 05D2     		bcs	.L126
 893:Generated_Source\PSoC4/BLE_1_ess.c ****                 {
 2220              		.loc 1 893 0 discriminator 3
 2221 01da 2423     		movs	r3, #36
 2222 01dc FB18     		adds	r3, r7, r3
 2223 01de 1B78     		ldrb	r3, [r3]
 2224 01e0 002B     		cmp	r3, #0
 2225 01e2 00D1     		bne	.LCB1880
ARM GAS  C:\Users\megan\AppData\Local\Temp\ccmgjhBj.s 			page 58


 2226 01e4 32E7     		b	.L135	@long jump
 2227              	.LCB1880:
 2228              	.L126:
 885:Generated_Source\PSoC4/BLE_1_ess.c ****         {
 2229              		.loc 1 885 0 is_stmt 1 discriminator 2
 2230 01e6 2723     		movs	r3, #39
 2231 01e8 FB18     		adds	r3, r7, r3
 2232 01ea 1A78     		ldrb	r2, [r3]
 2233 01ec 2723     		movs	r3, #39
 2234 01ee FB18     		adds	r3, r7, r3
 2235 01f0 0132     		adds	r2, r2, #1
 2236 01f2 1A70     		strb	r2, [r3]
 2237              	.L125:
 885:Generated_Source\PSoC4/BLE_1_ess.c ****         {
 2238              		.loc 1 885 0 is_stmt 0 discriminator 1
 2239 01f4 2723     		movs	r3, #39
 2240 01f6 FB18     		adds	r3, r7, r3
 2241 01f8 1B78     		ldrb	r3, [r3]
 2242 01fa 142B     		cmp	r3, #20
 2243 01fc 05D8     		bhi	.L137
 885:Generated_Source\PSoC4/BLE_1_ess.c ****         {
 2244              		.loc 1 885 0 discriminator 3
 2245 01fe 2423     		movs	r3, #36
 2246 0200 FB18     		adds	r3, r7, r3
 2247 0202 1B78     		ldrb	r3, [r3]
 2248 0204 002B     		cmp	r3, #0
 2249 0206 00D1     		bne	.LCB1900
 2250 0208 10E7     		b	.L136	@long jump
 2251              	.LCB1900:
 2252              	.L137:
 944:Generated_Source\PSoC4/BLE_1_ess.c ****                     }
 945:Generated_Source\PSoC4/BLE_1_ess.c ****                 }
 946:Generated_Source\PSoC4/BLE_1_ess.c ****             }
 947:Generated_Source\PSoC4/BLE_1_ess.c ****         }
 948:Generated_Source\PSoC4/BLE_1_ess.c ****     }
 949:Generated_Source\PSoC4/BLE_1_ess.c **** }
 2253              		.loc 1 949 0 is_stmt 1
 2254 020a C046     		nop
 2255 020c BD46     		mov	sp, r7
 2256 020e 0AB0     		add	sp, sp, #40
 2257              		@ sp needed
 2258 0210 80BD     		pop	{r7, pc}
 2259              	.L139:
 2260 0212 C046     		.align	2
 2261              	.L138:
 2262 0214 04000000 		.word	CyBle_EssApplCallback
 2263 0218 00000000 		.word	cyBle_esss
 2264 021c 00000000 		.word	cyBle_esssReqHandle
 2265 0220 00000000 		.word	cyBle_gattDB
 2266 0224 00000000 		.word	cyBle_eventHandlerFlag
 2267 0228 00000000 		.word	cyBle_esssCharInstances
 2268              		.cfi_endproc
 2269              	.LFE10:
 2270              		.size	CyBle_EsssExecuteWriteRequestEventHandler, .-CyBle_EsssExecuteWriteRequestEventHandler
 2271              		.section	.text.CyBle_EsssConfirmationEventHandler,"ax",%progbits
 2272              		.align	2
 2273              		.global	CyBle_EsssConfirmationEventHandler
ARM GAS  C:\Users\megan\AppData\Local\Temp\ccmgjhBj.s 			page 59


 2274              		.code	16
 2275              		.thumb_func
 2276              		.type	CyBle_EsssConfirmationEventHandler, %function
 2277              	CyBle_EsssConfirmationEventHandler:
 2278              	.LFB11:
 950:Generated_Source\PSoC4/BLE_1_ess.c **** 
 951:Generated_Source\PSoC4/BLE_1_ess.c **** 
 952:Generated_Source\PSoC4/BLE_1_ess.c **** /******************************************************************************
 953:Generated_Source\PSoC4/BLE_1_ess.c **** * Function Name: CyBle_EsssConfirmationEventHandler
 954:Generated_Source\PSoC4/BLE_1_ess.c **** ***************************************************************************//**
 955:Generated_Source\PSoC4/BLE_1_ess.c **** * 
 956:Generated_Source\PSoC4/BLE_1_ess.c **** *  Handles a Value Confirmation request event from the BLE stack.
 957:Generated_Source\PSoC4/BLE_1_ess.c **** * 
 958:Generated_Source\PSoC4/BLE_1_ess.c **** *  eventParam - The pointer to a structure of type CYBLE_CONN_HANDLE_T.
 959:Generated_Source\PSoC4/BLE_1_ess.c **** *  
 960:Generated_Source\PSoC4/BLE_1_ess.c **** ******************************************************************************/
 961:Generated_Source\PSoC4/BLE_1_ess.c **** void CyBle_EsssConfirmationEventHandler(const CYBLE_CONN_HANDLE_T *eventParam)
 962:Generated_Source\PSoC4/BLE_1_ess.c **** {
 2279              		.loc 1 962 0
 2280              		.cfi_startproc
 2281              		@ args = 0, pretend = 0, frame = 16
 2282              		@ frame_needed = 1, uses_anonymous_args = 0
 2283 0000 80B5     		push	{r7, lr}
 2284              		.cfi_def_cfa_offset 8
 2285              		.cfi_offset 7, -8
 2286              		.cfi_offset 14, -4
 2287 0002 84B0     		sub	sp, sp, #16
 2288              		.cfi_def_cfa_offset 24
 2289 0004 00AF     		add	r7, sp, #0
 2290              		.cfi_def_cfa_register 7
 2291 0006 7860     		str	r0, [r7, #4]
 963:Generated_Source\PSoC4/BLE_1_ess.c ****     CYBLE_ESS_CHAR_VALUE_T locCharValue;
 964:Generated_Source\PSoC4/BLE_1_ess.c **** 
 965:Generated_Source\PSoC4/BLE_1_ess.c ****     if((NULL != CyBle_EssApplCallback) && (CYBLE_GATT_INVALID_ATTR_HANDLE_VALUE != cyBle_esssReqHan
 2292              		.loc 1 965 0
 2293 0008 1A4B     		ldr	r3, .L143
 2294 000a 1B68     		ldr	r3, [r3]
 2295 000c 002B     		cmp	r3, #0
 2296 000e 2DD0     		beq	.L142
 2297              		.loc 1 965 0 is_stmt 0 discriminator 1
 2298 0010 194B     		ldr	r3, .L143+4
 2299 0012 1B88     		ldrh	r3, [r3]
 2300 0014 002B     		cmp	r3, #0
 2301 0016 29D0     		beq	.L142
 966:Generated_Source\PSoC4/BLE_1_ess.c ****     {
 967:Generated_Source\PSoC4/BLE_1_ess.c ****         /* Only Descriptor Value Change Characteristic has Indication property.
 968:Generated_Source\PSoC4/BLE_1_ess.c ****         * Check if the requested handle is the handle of Descriptor Value Change
 969:Generated_Source\PSoC4/BLE_1_ess.c ****         * handle.
 970:Generated_Source\PSoC4/BLE_1_ess.c ****         */
 971:Generated_Source\PSoC4/BLE_1_ess.c ****         if(cyBle_esssReqHandle ==
 972:Generated_Source\PSoC4/BLE_1_ess.c ****             cyBle_esss.charInfoAddr[CYBLE_ESS_DESCRIPTOR_VALUE_CHANGED].charInfoPtr[0u].charHandle)
 2302              		.loc 1 972 0 is_stmt 1
 2303 0018 184B     		ldr	r3, .L143+8
 2304 001a 1A88     		ldrh	r2, [r3]
 971:Generated_Source\PSoC4/BLE_1_ess.c ****             cyBle_esss.charInfoAddr[CYBLE_ESS_DESCRIPTOR_VALUE_CHANGED].charInfoPtr[0u].charHandle)
 2305              		.loc 1 971 0
 2306 001c 164B     		ldr	r3, .L143+4
ARM GAS  C:\Users\megan\AppData\Local\Temp\ccmgjhBj.s 			page 60


 2307 001e 1B88     		ldrh	r3, [r3]
 2308 0020 9A42     		cmp	r2, r3
 2309 0022 23D1     		bne	.L142
 973:Generated_Source\PSoC4/BLE_1_ess.c ****         {
 974:Generated_Source\PSoC4/BLE_1_ess.c ****             /* Fill in event data and inform Application about
 975:Generated_Source\PSoC4/BLE_1_ess.c ****             * successfully confirmed indication.
 976:Generated_Source\PSoC4/BLE_1_ess.c ****             */
 977:Generated_Source\PSoC4/BLE_1_ess.c ****             locCharValue.connHandle = *eventParam;
 2310              		.loc 1 977 0
 2311 0024 0823     		movs	r3, #8
 2312 0026 FA18     		adds	r2, r7, r3
 2313 0028 7B68     		ldr	r3, [r7, #4]
 2314 002a 1000     		movs	r0, r2
 2315 002c 1900     		movs	r1, r3
 2316 002e 0223     		movs	r3, #2
 2317 0030 1A00     		movs	r2, r3
 2318 0032 FFF7FEFF 		bl	memcpy
 978:Generated_Source\PSoC4/BLE_1_ess.c ****             locCharValue.charIndex = CYBLE_ESS_DESCRIPTOR_VALUE_CHANGED;
 2319              		.loc 1 978 0
 2320 0036 0823     		movs	r3, #8
 2321 0038 FB18     		adds	r3, r7, r3
 2322 003a 0022     		movs	r2, #0
 2323 003c 9A70     		strb	r2, [r3, #2]
 979:Generated_Source\PSoC4/BLE_1_ess.c ****             locCharValue.value = NULL;
 2324              		.loc 1 979 0
 2325 003e 0823     		movs	r3, #8
 2326 0040 FB18     		adds	r3, r7, r3
 2327 0042 0022     		movs	r2, #0
 2328 0044 5A60     		str	r2, [r3, #4]
 980:Generated_Source\PSoC4/BLE_1_ess.c **** 
 981:Generated_Source\PSoC4/BLE_1_ess.c ****             cyBle_eventHandlerFlag &= (uint8)~CYBLE_CALLBACK;
 2329              		.loc 1 981 0
 2330 0046 0E4B     		ldr	r3, .L143+12
 2331 0048 1B78     		ldrb	r3, [r3]
 2332 004a DBB2     		uxtb	r3, r3
 2333 004c 0122     		movs	r2, #1
 2334 004e 9343     		bics	r3, r2
 2335 0050 DAB2     		uxtb	r2, r3
 2336 0052 0B4B     		ldr	r3, .L143+12
 2337 0054 1A70     		strb	r2, [r3]
 982:Generated_Source\PSoC4/BLE_1_ess.c ****             cyBle_esssReqHandle = CYBLE_GATT_INVALID_ATTR_HANDLE_VALUE;
 2338              		.loc 1 982 0
 2339 0056 084B     		ldr	r3, .L143+4
 2340 0058 0022     		movs	r2, #0
 2341 005a 1A80     		strh	r2, [r3]
 983:Generated_Source\PSoC4/BLE_1_ess.c ****             CyBle_EssApplCallback((uint32)CYBLE_EVT_ESSS_INDICATION_CONFIRMATION, &locCharValue);
 2342              		.loc 1 983 0
 2343 005c 054B     		ldr	r3, .L143
 2344 005e 1B68     		ldr	r3, [r3]
 2345 0060 0822     		movs	r2, #8
 2346 0062 B918     		adds	r1, r7, r2
 2347 0064 8022     		movs	r2, #128
 2348 0066 FF32     		adds	r2, r2, #255
 2349 0068 1000     		movs	r0, r2
 2350 006a 9847     		blx	r3
 2351              	.L142:
 984:Generated_Source\PSoC4/BLE_1_ess.c ****         }
ARM GAS  C:\Users\megan\AppData\Local\Temp\ccmgjhBj.s 			page 61


 985:Generated_Source\PSoC4/BLE_1_ess.c ****     }
 986:Generated_Source\PSoC4/BLE_1_ess.c **** }
 2352              		.loc 1 986 0
 2353 006c C046     		nop
 2354 006e BD46     		mov	sp, r7
 2355 0070 04B0     		add	sp, sp, #16
 2356              		@ sp needed
 2357 0072 80BD     		pop	{r7, pc}
 2358              	.L144:
 2359              		.align	2
 2360              	.L143:
 2361 0074 04000000 		.word	CyBle_EssApplCallback
 2362 0078 00000000 		.word	cyBle_esssReqHandle
 2363 007c 00000000 		.word	esssCharIdx0
 2364 0080 00000000 		.word	cyBle_eventHandlerFlag
 2365              		.cfi_endproc
 2366              	.LFE11:
 2367              		.size	CyBle_EsssConfirmationEventHandler, .-CyBle_EsssConfirmationEventHandler
 2368              		.section	.text.CyBle_EsssSetChangeIndex,"ax",%progbits
 2369              		.align	2
 2370              		.global	CyBle_EsssSetChangeIndex
 2371              		.code	16
 2372              		.thumb_func
 2373              		.type	CyBle_EsssSetChangeIndex, %function
 2374              	CyBle_EsssSetChangeIndex:
 2375              	.LFB12:
 987:Generated_Source\PSoC4/BLE_1_ess.c **** 
 988:Generated_Source\PSoC4/BLE_1_ess.c **** 
 989:Generated_Source\PSoC4/BLE_1_ess.c **** #if(CYBLE_GAP_ROLE_PERIPHERAL)
 990:Generated_Source\PSoC4/BLE_1_ess.c **** 
 991:Generated_Source\PSoC4/BLE_1_ess.c **** /******************************************************************************
 992:Generated_Source\PSoC4/BLE_1_ess.c **** * Function Name: CyBle_EsssSetChangeIndex
 993:Generated_Source\PSoC4/BLE_1_ess.c **** ***************************************************************************//**
 994:Generated_Source\PSoC4/BLE_1_ess.c **** * 
 995:Generated_Source\PSoC4/BLE_1_ess.c **** *  Performs write operation of two-byte pseudo-random change index to the
 996:Generated_Source\PSoC4/BLE_1_ess.c **** *  advertisement packet. The "Service Data" field should be selected in the
 997:Generated_Source\PSoC4/BLE_1_ess.c **** *  component customizer GUI and contain a two-byte initial change index value
 998:Generated_Source\PSoC4/BLE_1_ess.c **** *  and in opposite case the function will always return
 999:Generated_Source\PSoC4/BLE_1_ess.c **** *  "CYBLE_ERROR_INVALID_OPERATION".
1000:Generated_Source\PSoC4/BLE_1_ess.c **** *    
1001:Generated_Source\PSoC4/BLE_1_ess.c **** *  This API must be called when API CyBle_GetBleSsState() returns
1002:Generated_Source\PSoC4/BLE_1_ess.c **** *  CYBLE_BLESS_STATE_EVENT_CLOSE state.
1003:Generated_Source\PSoC4/BLE_1_ess.c **** * 
1004:Generated_Source\PSoC4/BLE_1_ess.c **** *  \param essIndex: A two-byte pseudo-random change index to be written to the
1005:Generated_Source\PSoC4/BLE_1_ess.c **** *            advertisement data.
1006:Generated_Source\PSoC4/BLE_1_ess.c **** * 
1007:Generated_Source\PSoC4/BLE_1_ess.c **** * \return
1008:Generated_Source\PSoC4/BLE_1_ess.c **** *  A return value is of type CYBLE_API_RESULT_T.
1009:Generated_Source\PSoC4/BLE_1_ess.c **** *  * CYBLE_ERROR_OK - The request handled successfully.
1010:Generated_Source\PSoC4/BLE_1_ess.c **** *  * CYBLE_ERROR_INVALID_PARAMETER - On NULL pointer, Data length in input 
1011:Generated_Source\PSoC4/BLE_1_ess.c **** *        parameter exceeds 31 bytes. 
1012:Generated_Source\PSoC4/BLE_1_ess.c **** *  * CYBLE_ERROR_INVALID_OPERATION - The change index is not present in the 
1013:Generated_Source\PSoC4/BLE_1_ess.c **** *       advertisement data or its length is not equal to two bytes or ADV 
1014:Generated_Source\PSoC4/BLE_1_ess.c **** *       Event is not closed, BLESS is active or ADV is not enabled.
1015:Generated_Source\PSoC4/BLE_1_ess.c **** * 
1016:Generated_Source\PSoC4/BLE_1_ess.c **** ******************************************************************************/
1017:Generated_Source\PSoC4/BLE_1_ess.c **** CYBLE_API_RESULT_T CyBle_EsssSetChangeIndex(uint16 essIndex)
ARM GAS  C:\Users\megan\AppData\Local\Temp\ccmgjhBj.s 			page 62


1018:Generated_Source\PSoC4/BLE_1_ess.c **** {
 2376              		.loc 1 1018 0
 2377              		.cfi_startproc
 2378              		@ args = 0, pretend = 0, frame = 48
 2379              		@ frame_needed = 1, uses_anonymous_args = 0
 2380 0000 90B5     		push	{r4, r7, lr}
 2381              		.cfi_def_cfa_offset 12
 2382              		.cfi_offset 4, -12
 2383              		.cfi_offset 7, -8
 2384              		.cfi_offset 14, -4
 2385 0002 8DB0     		sub	sp, sp, #52
 2386              		.cfi_def_cfa_offset 64
 2387 0004 00AF     		add	r7, sp, #0
 2388              		.cfi_def_cfa_register 7
 2389 0006 0200     		movs	r2, r0
 2390 0008 BB1D     		adds	r3, r7, #6
 2391 000a 1A80     		strh	r2, [r3]
1019:Generated_Source\PSoC4/BLE_1_ess.c ****     uint8 flag = 0u;
 2392              		.loc 1 1019 0
 2393 000c 2F23     		movs	r3, #47
 2394 000e FB18     		adds	r3, r7, r3
 2395 0010 0022     		movs	r2, #0
 2396 0012 1A70     		strb	r2, [r3]
1020:Generated_Source\PSoC4/BLE_1_ess.c ****     uint8 adLength = 0u;
 2397              		.loc 1 1020 0
 2398 0014 2E23     		movs	r3, #46
 2399 0016 FB18     		adds	r3, r7, r3
 2400 0018 0022     		movs	r2, #0
 2401 001a 1A70     		strb	r2, [r3]
1021:Generated_Source\PSoC4/BLE_1_ess.c ****     uint8 byteCounter = 0u;
 2402              		.loc 1 1021 0
 2403 001c 2D23     		movs	r3, #45
 2404 001e FB18     		adds	r3, r7, r3
 2405 0020 0022     		movs	r2, #0
 2406 0022 1A70     		strb	r2, [r3]
1022:Generated_Source\PSoC4/BLE_1_ess.c ****     CYBLE_API_RESULT_T apiResult = CYBLE_ERROR_INVALID_OPERATION;
 2407              		.loc 1 1022 0
 2408 0024 2A23     		movs	r3, #42
 2409 0026 FB18     		adds	r3, r7, r3
 2410 0028 0222     		movs	r2, #2
 2411 002a 1A80     		strh	r2, [r3]
1023:Generated_Source\PSoC4/BLE_1_ess.c ****     CYBLE_GAPP_DISC_DATA_T esssAdvertisementData;
1024:Generated_Source\PSoC4/BLE_1_ess.c **** 
1025:Generated_Source\PSoC4/BLE_1_ess.c ****     while((byteCounter < cyBle_discoveryData.advDataLen) && (flag == 0u))
 2412              		.loc 1 1025 0
 2413 002c 4AE0     		b	.L146
 2414              	.L153:
1026:Generated_Source\PSoC4/BLE_1_ess.c ****     {
1027:Generated_Source\PSoC4/BLE_1_ess.c ****         adLength = cyBle_discoveryData.advData[byteCounter];
 2415              		.loc 1 1027 0
 2416 002e 2D23     		movs	r3, #45
 2417 0030 FB18     		adds	r3, r7, r3
 2418 0032 1A78     		ldrb	r2, [r3]
 2419 0034 2E23     		movs	r3, #46
 2420 0036 FB18     		adds	r3, r7, r3
 2421 0038 4849     		ldr	r1, .L157
 2422 003a 8A5C     		ldrb	r2, [r1, r2]
ARM GAS  C:\Users\megan\AppData\Local\Temp\ccmgjhBj.s 			page 63


 2423 003c 1A70     		strb	r2, [r3]
1028:Generated_Source\PSoC4/BLE_1_ess.c **** 
1029:Generated_Source\PSoC4/BLE_1_ess.c ****         if(0u != adLength)
 2424              		.loc 1 1029 0
 2425 003e 2E23     		movs	r3, #46
 2426 0040 FB18     		adds	r3, r7, r3
 2427 0042 1B78     		ldrb	r3, [r3]
 2428 0044 002B     		cmp	r3, #0
 2429 0046 4AD0     		beq	.L156
1030:Generated_Source\PSoC4/BLE_1_ess.c ****         {
1031:Generated_Source\PSoC4/BLE_1_ess.c ****             /* Increment byte counter so that it points to AD type field */
1032:Generated_Source\PSoC4/BLE_1_ess.c ****             byteCounter++;
 2430              		.loc 1 1032 0
 2431 0048 2D23     		movs	r3, #45
 2432 004a FB18     		adds	r3, r7, r3
 2433 004c 1A78     		ldrb	r2, [r3]
 2434 004e 2D23     		movs	r3, #45
 2435 0050 FB18     		adds	r3, r7, r3
 2436 0052 0132     		adds	r2, r2, #1
 2437 0054 1A70     		strb	r2, [r3]
1033:Generated_Source\PSoC4/BLE_1_ess.c ****             
1034:Generated_Source\PSoC4/BLE_1_ess.c ****             if(cyBle_discoveryData.advData[byteCounter] == CYBLE_ESS_SERVICE_DATA_AD_TYPE)
 2438              		.loc 1 1034 0
 2439 0056 2D23     		movs	r3, #45
 2440 0058 FB18     		adds	r3, r7, r3
 2441 005a 1B78     		ldrb	r3, [r3]
 2442 005c 3F4A     		ldr	r2, .L157
 2443 005e D35C     		ldrb	r3, [r2, r3]
 2444 0060 162B     		cmp	r3, #22
 2445 0062 25D1     		bne	.L148
1035:Generated_Source\PSoC4/BLE_1_ess.c ****             {
1036:Generated_Source\PSoC4/BLE_1_ess.c ****                 /* Increment byte counter to point to service UUID */
1037:Generated_Source\PSoC4/BLE_1_ess.c ****                 byteCounter++;
 2446              		.loc 1 1037 0
 2447 0064 2D23     		movs	r3, #45
 2448 0066 FB18     		adds	r3, r7, r3
 2449 0068 1A78     		ldrb	r2, [r3]
 2450 006a 2D23     		movs	r3, #45
 2451 006c FB18     		adds	r3, r7, r3
 2452 006e 0132     		adds	r2, r2, #1
 2453 0070 1A70     		strb	r2, [r3]
1038:Generated_Source\PSoC4/BLE_1_ess.c **** 
1039:Generated_Source\PSoC4/BLE_1_ess.c ****                 /* Check if UUID is ESS UUID */
1040:Generated_Source\PSoC4/BLE_1_ess.c ****                 if(CyBle_Get16ByPtr(&cyBle_discoveryData.advData[byteCounter]) ==
 2454              		.loc 1 1040 0
 2455 0072 2D23     		movs	r3, #45
 2456 0074 FB18     		adds	r3, r7, r3
 2457 0076 1A78     		ldrb	r2, [r3]
 2458 0078 384B     		ldr	r3, .L157
 2459 007a D318     		adds	r3, r2, r3
 2460 007c 1800     		movs	r0, r3
 2461 007e FFF7FEFF 		bl	CyBle_Get16ByPtr
 2462 0082 0300     		movs	r3, r0
 2463 0084 1A00     		movs	r2, r3
 2464 0086 364B     		ldr	r3, .L157+4
 2465 0088 9A42     		cmp	r2, r3
 2466 008a 04D1     		bne	.L149
ARM GAS  C:\Users\megan\AppData\Local\Temp\ccmgjhBj.s 			page 64


1041:Generated_Source\PSoC4/BLE_1_ess.c ****                     CYBLE_UUID_ENVIRONMENTAL_SENSING_SERVICE)
1042:Generated_Source\PSoC4/BLE_1_ess.c ****                 {
1043:Generated_Source\PSoC4/BLE_1_ess.c ****                     /* Start of a "Service Data" AD type for ESS was found. Set flag and exit the l
1044:Generated_Source\PSoC4/BLE_1_ess.c ****                     flag = 1u;
 2467              		.loc 1 1044 0
 2468 008c 2F23     		movs	r3, #47
 2469 008e FB18     		adds	r3, r7, r3
 2470 0090 0122     		movs	r2, #1
 2471 0092 1A70     		strb	r2, [r3]
 2472 0094 16E0     		b	.L146
 2473              	.L149:
1045:Generated_Source\PSoC4/BLE_1_ess.c ****                 }
1046:Generated_Source\PSoC4/BLE_1_ess.c ****                 else
1047:Generated_Source\PSoC4/BLE_1_ess.c ****                 {
1048:Generated_Source\PSoC4/BLE_1_ess.c ****                     byteCounter += (adLength - 1u);
 2474              		.loc 1 1048 0
 2475 0096 2D23     		movs	r3, #45
 2476 0098 FA18     		adds	r2, r7, r3
 2477 009a 2E23     		movs	r3, #46
 2478 009c FB18     		adds	r3, r7, r3
 2479 009e 1278     		ldrb	r2, [r2]
 2480 00a0 1B78     		ldrb	r3, [r3]
 2481 00a2 D318     		adds	r3, r2, r3
 2482 00a4 DAB2     		uxtb	r2, r3
 2483 00a6 2D23     		movs	r3, #45
 2484 00a8 FB18     		adds	r3, r7, r3
 2485 00aa 013A     		subs	r2, r2, #1
 2486 00ac 1A70     		strb	r2, [r3]
 2487 00ae 09E0     		b	.L146
 2488              	.L148:
1049:Generated_Source\PSoC4/BLE_1_ess.c ****                 }
1050:Generated_Source\PSoC4/BLE_1_ess.c ****             }
1051:Generated_Source\PSoC4/BLE_1_ess.c ****             else
1052:Generated_Source\PSoC4/BLE_1_ess.c ****             {
1053:Generated_Source\PSoC4/BLE_1_ess.c ****                 byteCounter += adLength;
 2489              		.loc 1 1053 0
 2490 00b0 2D23     		movs	r3, #45
 2491 00b2 FB18     		adds	r3, r7, r3
 2492 00b4 2D22     		movs	r2, #45
 2493 00b6 B918     		adds	r1, r7, r2
 2494 00b8 2E22     		movs	r2, #46
 2495 00ba BA18     		adds	r2, r7, r2
 2496 00bc 0978     		ldrb	r1, [r1]
 2497 00be 1278     		ldrb	r2, [r2]
 2498 00c0 8A18     		adds	r2, r1, r2
 2499 00c2 1A70     		strb	r2, [r3]
 2500              	.L146:
1025:Generated_Source\PSoC4/BLE_1_ess.c ****     {
 2501              		.loc 1 1025 0
 2502 00c4 254B     		ldr	r3, .L157
 2503 00c6 DB7F     		ldrb	r3, [r3, #31]
 2504 00c8 2D22     		movs	r2, #45
 2505 00ca BA18     		adds	r2, r7, r2
 2506 00cc 1278     		ldrb	r2, [r2]
 2507 00ce 9A42     		cmp	r2, r3
 2508 00d0 06D2     		bcs	.L152
1025:Generated_Source\PSoC4/BLE_1_ess.c ****     {
ARM GAS  C:\Users\megan\AppData\Local\Temp\ccmgjhBj.s 			page 65


 2509              		.loc 1 1025 0 is_stmt 0 discriminator 1
 2510 00d2 2F23     		movs	r3, #47
 2511 00d4 FB18     		adds	r3, r7, r3
 2512 00d6 1B78     		ldrb	r3, [r3]
 2513 00d8 002B     		cmp	r3, #0
 2514 00da A8D0     		beq	.L153
 2515 00dc 00E0     		b	.L152
 2516              	.L156:
1054:Generated_Source\PSoC4/BLE_1_ess.c ****             }
1055:Generated_Source\PSoC4/BLE_1_ess.c ****         }
1056:Generated_Source\PSoC4/BLE_1_ess.c ****         else
1057:Generated_Source\PSoC4/BLE_1_ess.c ****         {
1058:Generated_Source\PSoC4/BLE_1_ess.c ****             /* End of advertisement data structure was encountered so exit loop. */
1059:Generated_Source\PSoC4/BLE_1_ess.c ****             break;
 2517              		.loc 1 1059 0 is_stmt 1
 2518 00de C046     		nop
 2519              	.L152:
1060:Generated_Source\PSoC4/BLE_1_ess.c ****         }
1061:Generated_Source\PSoC4/BLE_1_ess.c ****     }
1062:Generated_Source\PSoC4/BLE_1_ess.c **** 
1063:Generated_Source\PSoC4/BLE_1_ess.c ****     if(0u != flag)
 2520              		.loc 1 1063 0
 2521 00e0 2F23     		movs	r3, #47
 2522 00e2 FB18     		adds	r3, r7, r3
 2523 00e4 1B78     		ldrb	r3, [r3]
 2524 00e6 002B     		cmp	r3, #0
 2525 00e8 31D0     		beq	.L154
1064:Generated_Source\PSoC4/BLE_1_ess.c ****     {
1065:Generated_Source\PSoC4/BLE_1_ess.c ****         /* Check if length is proper */
1066:Generated_Source\PSoC4/BLE_1_ess.c ****         if(adLength == CYBLE_ESS_SERVICE_DATA_LENGTH)
 2526              		.loc 1 1066 0
 2527 00ea 2E23     		movs	r3, #46
 2528 00ec FB18     		adds	r3, r7, r3
 2529 00ee 1B78     		ldrb	r3, [r3]
 2530 00f0 052B     		cmp	r3, #5
 2531 00f2 2CD1     		bne	.L154
1067:Generated_Source\PSoC4/BLE_1_ess.c ****         {
1068:Generated_Source\PSoC4/BLE_1_ess.c ****             /* Increment byte counter so that it points to change index value */
1069:Generated_Source\PSoC4/BLE_1_ess.c ****             byteCounter+=2u;
 2532              		.loc 1 1069 0
 2533 00f4 2D23     		movs	r3, #45
 2534 00f6 FB18     		adds	r3, r7, r3
 2535 00f8 2D22     		movs	r2, #45
 2536 00fa BA18     		adds	r2, r7, r2
 2537 00fc 1278     		ldrb	r2, [r2]
 2538 00fe 0232     		adds	r2, r2, #2
 2539 0100 1A70     		strb	r2, [r3]
1070:Generated_Source\PSoC4/BLE_1_ess.c ****             CyBle_Set16ByPtr(&cyBle_discoveryData.advData[byteCounter], essIndex);
 2540              		.loc 1 1070 0
 2541 0102 2D23     		movs	r3, #45
 2542 0104 FB18     		adds	r3, r7, r3
 2543 0106 1A78     		ldrb	r2, [r3]
 2544 0108 144B     		ldr	r3, .L157
 2545 010a D218     		adds	r2, r2, r3
 2546 010c BB1D     		adds	r3, r7, #6
 2547 010e 1B88     		ldrh	r3, [r3]
 2548 0110 1900     		movs	r1, r3
ARM GAS  C:\Users\megan\AppData\Local\Temp\ccmgjhBj.s 			page 66


 2549 0112 1000     		movs	r0, r2
 2550 0114 FFF7FEFF 		bl	CyBle_Set16ByPtr
1071:Generated_Source\PSoC4/BLE_1_ess.c **** 
1072:Generated_Source\PSoC4/BLE_1_ess.c ****             apiResult = CYBLE_ERROR_OK;
 2551              		.loc 1 1072 0
 2552 0118 2A23     		movs	r3, #42
 2553 011a FB18     		adds	r3, r7, r3
 2554 011c 0022     		movs	r2, #0
 2555 011e 1A80     		strh	r2, [r3]
1073:Generated_Source\PSoC4/BLE_1_ess.c **** 
1074:Generated_Source\PSoC4/BLE_1_ess.c ****             if(CyBle_GetState() == CYBLE_STATE_ADVERTISING)
 2556              		.loc 1 1074 0
 2557 0120 104B     		ldr	r3, .L157+8
 2558 0122 1B78     		ldrb	r3, [r3]
 2559 0124 032B     		cmp	r3, #3
 2560 0126 12D1     		bne	.L154
1075:Generated_Source\PSoC4/BLE_1_ess.c ****             {
1076:Generated_Source\PSoC4/BLE_1_ess.c ****                 /* The Stack stores the pointer to the advertisement data so
1077:Generated_Source\PSoC4/BLE_1_ess.c ****                 * need to have a different location with the advertisemt data when
1078:Generated_Source\PSoC4/BLE_1_ess.c ****                 * device in the advertisement mode.
1079:Generated_Source\PSoC4/BLE_1_ess.c ****                 */
1080:Generated_Source\PSoC4/BLE_1_ess.c ****                 (void) memcpy((void *) &esssAdvertisementData, (void *) &cyBle_discoveryData,
 2561              		.loc 1 1080 0
 2562 0128 0823     		movs	r3, #8
 2563 012a FA18     		adds	r2, r7, r3
 2564 012c 0B4B     		ldr	r3, .L157
 2565 012e 1000     		movs	r0, r2
 2566 0130 1900     		movs	r1, r3
 2567 0132 2023     		movs	r3, #32
 2568 0134 1A00     		movs	r2, r3
 2569 0136 FFF7FEFF 		bl	memcpy
1081:Generated_Source\PSoC4/BLE_1_ess.c ****                     sizeof(CYBLE_GAPP_DISC_DATA_T));
1082:Generated_Source\PSoC4/BLE_1_ess.c ****                 apiResult = CyBle_GapUpdateAdvData(&esssAdvertisementData, NULL);
 2570              		.loc 1 1082 0
 2571 013a 2A23     		movs	r3, #42
 2572 013c FC18     		adds	r4, r7, r3
 2573 013e 0823     		movs	r3, #8
 2574 0140 FB18     		adds	r3, r7, r3
 2575 0142 0021     		movs	r1, #0
 2576 0144 1800     		movs	r0, r3
 2577 0146 FFF7FEFF 		bl	CyBle_GapUpdateAdvData
 2578 014a 0300     		movs	r3, r0
 2579 014c 2380     		strh	r3, [r4]
 2580              	.L154:
1083:Generated_Source\PSoC4/BLE_1_ess.c ****             }
1084:Generated_Source\PSoC4/BLE_1_ess.c ****         }
1085:Generated_Source\PSoC4/BLE_1_ess.c ****     }
1086:Generated_Source\PSoC4/BLE_1_ess.c **** 
1087:Generated_Source\PSoC4/BLE_1_ess.c ****     return (apiResult);
 2581              		.loc 1 1087 0
 2582 014e 2A23     		movs	r3, #42
 2583 0150 FB18     		adds	r3, r7, r3
 2584 0152 1B88     		ldrh	r3, [r3]
1088:Generated_Source\PSoC4/BLE_1_ess.c **** }
 2585              		.loc 1 1088 0
 2586 0154 1800     		movs	r0, r3
 2587 0156 BD46     		mov	sp, r7
ARM GAS  C:\Users\megan\AppData\Local\Temp\ccmgjhBj.s 			page 67


 2588 0158 0DB0     		add	sp, sp, #52
 2589              		@ sp needed
 2590 015a 90BD     		pop	{r4, r7, pc}
 2591              	.L158:
 2592              		.align	2
 2593              	.L157:
 2594 015c 00000000 		.word	cyBle_discoveryData
 2595 0160 1A180000 		.word	6170
 2596 0164 00000000 		.word	cyBle_state
 2597              		.cfi_endproc
 2598              	.LFE12:
 2599              		.size	CyBle_EsssSetChangeIndex, .-CyBle_EsssSetChangeIndex
 2600              		.section	.text.CyBle_EsssSetCharacteristicValue,"ax",%progbits
 2601              		.align	2
 2602              		.global	CyBle_EsssSetCharacteristicValue
 2603              		.code	16
 2604              		.thumb_func
 2605              		.type	CyBle_EsssSetCharacteristicValue, %function
 2606              	CyBle_EsssSetCharacteristicValue:
 2607              	.LFB13:
1089:Generated_Source\PSoC4/BLE_1_ess.c **** 
1090:Generated_Source\PSoC4/BLE_1_ess.c **** #endif /* (CYBLE_GAP_ROLE_PERIPHERAL) */
1091:Generated_Source\PSoC4/BLE_1_ess.c **** 
1092:Generated_Source\PSoC4/BLE_1_ess.c **** 
1093:Generated_Source\PSoC4/BLE_1_ess.c **** /******************************************************************************
1094:Generated_Source\PSoC4/BLE_1_ess.c **** * Function Name: CyBle_EsssSetCharacteristicValue
1095:Generated_Source\PSoC4/BLE_1_ess.c **** ***************************************************************************//**
1096:Generated_Source\PSoC4/BLE_1_ess.c **** * 
1097:Generated_Source\PSoC4/BLE_1_ess.c **** *  Sets the characteristic value of the service in the local database.
1098:Generated_Source\PSoC4/BLE_1_ess.c **** * 
1099:Generated_Source\PSoC4/BLE_1_ess.c **** *  \param charIndex: The index of the service characteristic. Starts with zero.
1100:Generated_Source\PSoC4/BLE_1_ess.c **** *  \param charInstance: The instance number of the characteristic specified by
1101:Generated_Source\PSoC4/BLE_1_ess.c **** *                "charIndex".
1102:Generated_Source\PSoC4/BLE_1_ess.c **** *  \param attrSize: The size (in Bytes) of the characteristic value attribute.
1103:Generated_Source\PSoC4/BLE_1_ess.c **** *  \param attrValue: The pointer to the characteristic value data that should be
1104:Generated_Source\PSoC4/BLE_1_ess.c **** *             stored in the GATT database.
1105:Generated_Source\PSoC4/BLE_1_ess.c **** * 
1106:Generated_Source\PSoC4/BLE_1_ess.c **** * \return
1107:Generated_Source\PSoC4/BLE_1_ess.c **** *  A return value is of type CYBLE_API_RESULT_T.
1108:Generated_Source\PSoC4/BLE_1_ess.c **** *  * CYBLE_ERROR_OK - The request handled successfully.
1109:Generated_Source\PSoC4/BLE_1_ess.c **** *  * CYBLE_ERROR_INVALID_PARAMETER - Validation of the input parameter failed.
1110:Generated_Source\PSoC4/BLE_1_ess.c **** *  * CYBLE_ERROR_GATT_DB_INVALID_ATTR_HANDLE - An optional characteristic is
1111:Generated_Source\PSoC4/BLE_1_ess.c **** *                                               absent.
1112:Generated_Source\PSoC4/BLE_1_ess.c **** *
1113:Generated_Source\PSoC4/BLE_1_ess.c **** ******************************************************************************/
1114:Generated_Source\PSoC4/BLE_1_ess.c **** CYBLE_API_RESULT_T CyBle_EsssSetCharacteristicValue(CYBLE_ESS_CHAR_INDEX_T charIndex,
1115:Generated_Source\PSoC4/BLE_1_ess.c ****     uint8 charInstance, uint8 attrSize, uint8 *attrValue)
1116:Generated_Source\PSoC4/BLE_1_ess.c **** {
 2608              		.loc 1 1116 0
 2609              		.cfi_startproc
 2610              		@ args = 0, pretend = 0, frame = 24
 2611              		@ frame_needed = 1, uses_anonymous_args = 0
 2612 0000 90B5     		push	{r4, r7, lr}
 2613              		.cfi_def_cfa_offset 12
 2614              		.cfi_offset 4, -12
 2615              		.cfi_offset 7, -8
 2616              		.cfi_offset 14, -4
ARM GAS  C:\Users\megan\AppData\Local\Temp\ccmgjhBj.s 			page 68


 2617 0002 87B0     		sub	sp, sp, #28
 2618              		.cfi_def_cfa_offset 40
 2619 0004 00AF     		add	r7, sp, #0
 2620              		.cfi_def_cfa_register 7
 2621 0006 0400     		movs	r4, r0
 2622 0008 0800     		movs	r0, r1
 2623 000a 1100     		movs	r1, r2
 2624 000c 3B60     		str	r3, [r7]
 2625 000e FB1D     		adds	r3, r7, #7
 2626 0010 221C     		adds	r2, r4, #0
 2627 0012 1A70     		strb	r2, [r3]
 2628 0014 BB1D     		adds	r3, r7, #6
 2629 0016 021C     		adds	r2, r0, #0
 2630 0018 1A70     		strb	r2, [r3]
 2631 001a 7B1D     		adds	r3, r7, #5
 2632 001c 0A1C     		adds	r2, r1, #0
 2633 001e 1A70     		strb	r2, [r3]
1117:Generated_Source\PSoC4/BLE_1_ess.c ****     CYBLE_API_RESULT_T apiResult = CYBLE_ERROR_INVALID_PARAMETER;
 2634              		.loc 1 1117 0
 2635 0020 1623     		movs	r3, #22
 2636 0022 FB18     		adds	r3, r7, r3
 2637 0024 0122     		movs	r2, #1
 2638 0026 1A80     		strh	r2, [r3]
1118:Generated_Source\PSoC4/BLE_1_ess.c **** 
1119:Generated_Source\PSoC4/BLE_1_ess.c ****     /* Validate range of ESS characteristics */
1120:Generated_Source\PSoC4/BLE_1_ess.c ****     if(charIndex < CYBLE_ESS_CHAR_COUNT)
 2639              		.loc 1 1120 0
 2640 0028 FB1D     		adds	r3, r7, #7
 2641 002a 1B78     		ldrb	r3, [r3]
 2642 002c 142B     		cmp	r3, #20
 2643 002e 51D8     		bhi	.L160
1121:Generated_Source\PSoC4/BLE_1_ess.c ****     {
1122:Generated_Source\PSoC4/BLE_1_ess.c ****         /* Check if requested characteristic is present in Service.
1123:Generated_Source\PSoC4/BLE_1_ess.c ****         * There are three conditions which should be checked: 1) The pointer to
1124:Generated_Source\PSoC4/BLE_1_ess.c ****         * "CYBLE_ESSS_CHAR_T" is not NULL, 2) The handle of the characteristic is
1125:Generated_Source\PSoC4/BLE_1_ess.c ****         * a valid handle, 3) The requested instance is a valid characteristic
1126:Generated_Source\PSoC4/BLE_1_ess.c ****         * instance.
1127:Generated_Source\PSoC4/BLE_1_ess.c ****         */
1128:Generated_Source\PSoC4/BLE_1_ess.c ****         if((NULL != cyBle_esss.charInfoAddr[charIndex].charInfoPtr) &&
 2644              		.loc 1 1128 0
 2645 0030 FB1D     		adds	r3, r7, #7
 2646 0032 1B78     		ldrb	r3, [r3]
 2647 0034 2B4A     		ldr	r2, .L165
 2648 0036 9B00     		lsls	r3, r3, #2
 2649 0038 D318     		adds	r3, r2, r3
 2650 003a 0433     		adds	r3, r3, #4
 2651 003c 1B68     		ldr	r3, [r3]
 2652 003e 002B     		cmp	r3, #0
 2653 0040 42D0     		beq	.L161
1129:Generated_Source\PSoC4/BLE_1_ess.c ****             (CYBLE_GATT_INVALID_ATTR_HANDLE_VALUE !=
1130:Generated_Source\PSoC4/BLE_1_ess.c ****                 cyBle_esss.charInfoAddr[charIndex].charInfoPtr[charInstance].charHandle) &&
 2654              		.loc 1 1130 0 discriminator 1
 2655 0042 FB1D     		adds	r3, r7, #7
 2656 0044 1B78     		ldrb	r3, [r3]
 2657 0046 274A     		ldr	r2, .L165
 2658 0048 9B00     		lsls	r3, r3, #2
 2659 004a D318     		adds	r3, r2, r3
ARM GAS  C:\Users\megan\AppData\Local\Temp\ccmgjhBj.s 			page 69


 2660 004c 0433     		adds	r3, r3, #4
 2661 004e 1968     		ldr	r1, [r3]
 2662 0050 BB1D     		adds	r3, r7, #6
 2663 0052 1A78     		ldrb	r2, [r3]
 2664 0054 1300     		movs	r3, r2
 2665 0056 9B00     		lsls	r3, r3, #2
 2666 0058 9B18     		adds	r3, r3, r2
 2667 005a 9B00     		lsls	r3, r3, #2
 2668 005c CB18     		adds	r3, r1, r3
 2669 005e 1B88     		ldrh	r3, [r3]
1128:Generated_Source\PSoC4/BLE_1_ess.c ****             (CYBLE_GATT_INVALID_ATTR_HANDLE_VALUE !=
 2670              		.loc 1 1128 0 discriminator 1
 2671 0060 002B     		cmp	r3, #0
 2672 0062 31D0     		beq	.L161
1131:Generated_Source\PSoC4/BLE_1_ess.c ****                     (cyBle_esssCharInstances[charIndex] > charInstance))
 2673              		.loc 1 1131 0
 2674 0064 FB1D     		adds	r3, r7, #7
 2675 0066 1B78     		ldrb	r3, [r3]
 2676 0068 1F4A     		ldr	r2, .L165+4
 2677 006a D35C     		ldrb	r3, [r2, r3]
1130:Generated_Source\PSoC4/BLE_1_ess.c ****                     (cyBle_esssCharInstances[charIndex] > charInstance))
 2678              		.loc 1 1130 0
 2679 006c BA1D     		adds	r2, r7, #6
 2680 006e 1278     		ldrb	r2, [r2]
 2681 0070 9A42     		cmp	r2, r3
 2682 0072 29D2     		bcs	.L161
 2683              	.LBB2:
1132:Generated_Source\PSoC4/BLE_1_ess.c ****         {
1133:Generated_Source\PSoC4/BLE_1_ess.c ****             CYBLE_GATT_HANDLE_VALUE_PAIR_T locHandleValuePair;
1134:Generated_Source\PSoC4/BLE_1_ess.c **** 
1135:Generated_Source\PSoC4/BLE_1_ess.c ****             locHandleValuePair.attrHandle =
1136:Generated_Source\PSoC4/BLE_1_ess.c ****                 cyBle_esss.charInfoAddr[charIndex].charInfoPtr[charInstance].charHandle;
 2684              		.loc 1 1136 0
 2685 0074 FB1D     		adds	r3, r7, #7
 2686 0076 1B78     		ldrb	r3, [r3]
 2687 0078 1A4A     		ldr	r2, .L165
 2688 007a 9B00     		lsls	r3, r3, #2
 2689 007c D318     		adds	r3, r2, r3
 2690 007e 0433     		adds	r3, r3, #4
 2691 0080 1968     		ldr	r1, [r3]
 2692 0082 BB1D     		adds	r3, r7, #6
 2693 0084 1A78     		ldrb	r2, [r3]
 2694 0086 1300     		movs	r3, r2
 2695 0088 9B00     		lsls	r3, r3, #2
 2696 008a 9B18     		adds	r3, r3, r2
 2697 008c 9B00     		lsls	r3, r3, #2
 2698 008e CB18     		adds	r3, r1, r3
 2699 0090 1A88     		ldrh	r2, [r3]
1135:Generated_Source\PSoC4/BLE_1_ess.c ****                 cyBle_esss.charInfoAddr[charIndex].charInfoPtr[charInstance].charHandle;
 2700              		.loc 1 1135 0
 2701 0092 0823     		movs	r3, #8
 2702 0094 FB18     		adds	r3, r7, r3
 2703 0096 1A81     		strh	r2, [r3, #8]
1137:Generated_Source\PSoC4/BLE_1_ess.c ****             locHandleValuePair.value.len = attrSize;
 2704              		.loc 1 1137 0
 2705 0098 7B1D     		adds	r3, r7, #5
 2706 009a 1B78     		ldrb	r3, [r3]
ARM GAS  C:\Users\megan\AppData\Local\Temp\ccmgjhBj.s 			page 70


 2707 009c 9AB2     		uxth	r2, r3
 2708 009e 0823     		movs	r3, #8
 2709 00a0 FB18     		adds	r3, r7, r3
 2710 00a2 9A80     		strh	r2, [r3, #4]
1138:Generated_Source\PSoC4/BLE_1_ess.c ****             locHandleValuePair.value.val = attrValue;
 2711              		.loc 1 1138 0
 2712 00a4 0823     		movs	r3, #8
 2713 00a6 FB18     		adds	r3, r7, r3
 2714 00a8 3A68     		ldr	r2, [r7]
 2715 00aa 1A60     		str	r2, [r3]
1139:Generated_Source\PSoC4/BLE_1_ess.c **** 
1140:Generated_Source\PSoC4/BLE_1_ess.c ****             /* Store data in database */
1141:Generated_Source\PSoC4/BLE_1_ess.c ****             if(CyBle_GattsWriteAttributeValue(&locHandleValuePair, 0u, NULL, CYBLE_GATT_DB_LOCALLY_
 2716              		.loc 1 1141 0
 2717 00ac 0823     		movs	r3, #8
 2718 00ae F818     		adds	r0, r7, r3
 2719 00b0 0023     		movs	r3, #0
 2720 00b2 0022     		movs	r2, #0
 2721 00b4 0021     		movs	r1, #0
 2722 00b6 FFF7FEFF 		bl	CyBle_GattsWriteAttributeValue
 2723 00ba 031E     		subs	r3, r0, #0
 2724 00bc 09D1     		bne	.L164
1142:Generated_Source\PSoC4/BLE_1_ess.c ****                 CYBLE_GATT_ERR_NONE)
1143:Generated_Source\PSoC4/BLE_1_ess.c ****             {
1144:Generated_Source\PSoC4/BLE_1_ess.c ****                 apiResult = CYBLE_ERROR_OK;
 2725              		.loc 1 1144 0
 2726 00be 1623     		movs	r3, #22
 2727 00c0 FB18     		adds	r3, r7, r3
 2728 00c2 0022     		movs	r2, #0
 2729 00c4 1A80     		strh	r2, [r3]
 2730              	.LBE2:
1132:Generated_Source\PSoC4/BLE_1_ess.c ****             CYBLE_GATT_HANDLE_VALUE_PAIR_T locHandleValuePair;
 2731              		.loc 1 1132 0
 2732 00c6 04E0     		b	.L164
 2733              	.L161:
1145:Generated_Source\PSoC4/BLE_1_ess.c ****             }
1146:Generated_Source\PSoC4/BLE_1_ess.c ****         }
1147:Generated_Source\PSoC4/BLE_1_ess.c ****         else
1148:Generated_Source\PSoC4/BLE_1_ess.c ****         {
1149:Generated_Source\PSoC4/BLE_1_ess.c ****             apiResult = CYBLE_ERROR_GATT_DB_INVALID_ATTR_HANDLE;
 2734              		.loc 1 1149 0
 2735 00c8 1623     		movs	r3, #22
 2736 00ca FB18     		adds	r3, r7, r3
 2737 00cc 1322     		movs	r2, #19
 2738 00ce 1A80     		strh	r2, [r3]
 2739 00d0 00E0     		b	.L160
 2740              	.L164:
1132:Generated_Source\PSoC4/BLE_1_ess.c ****             CYBLE_GATT_HANDLE_VALUE_PAIR_T locHandleValuePair;
 2741              		.loc 1 1132 0
 2742 00d2 C046     		nop
 2743              	.L160:
1150:Generated_Source\PSoC4/BLE_1_ess.c ****         }
1151:Generated_Source\PSoC4/BLE_1_ess.c ****     }
1152:Generated_Source\PSoC4/BLE_1_ess.c **** 
1153:Generated_Source\PSoC4/BLE_1_ess.c ****     return (apiResult);
 2744              		.loc 1 1153 0
 2745 00d4 1623     		movs	r3, #22
ARM GAS  C:\Users\megan\AppData\Local\Temp\ccmgjhBj.s 			page 71


 2746 00d6 FB18     		adds	r3, r7, r3
 2747 00d8 1B88     		ldrh	r3, [r3]
1154:Generated_Source\PSoC4/BLE_1_ess.c **** }
 2748              		.loc 1 1154 0
 2749 00da 1800     		movs	r0, r3
 2750 00dc BD46     		mov	sp, r7
 2751 00de 07B0     		add	sp, sp, #28
 2752              		@ sp needed
 2753 00e0 90BD     		pop	{r4, r7, pc}
 2754              	.L166:
 2755 00e2 C046     		.align	2
 2756              	.L165:
 2757 00e4 00000000 		.word	cyBle_esss
 2758 00e8 00000000 		.word	cyBle_esssCharInstances
 2759              		.cfi_endproc
 2760              	.LFE13:
 2761              		.size	CyBle_EsssSetCharacteristicValue, .-CyBle_EsssSetCharacteristicValue
 2762              		.section	.text.CyBle_EsssGetCharacteristicValue,"ax",%progbits
 2763              		.align	2
 2764              		.global	CyBle_EsssGetCharacteristicValue
 2765              		.code	16
 2766              		.thumb_func
 2767              		.type	CyBle_EsssGetCharacteristicValue, %function
 2768              	CyBle_EsssGetCharacteristicValue:
 2769              	.LFB14:
1155:Generated_Source\PSoC4/BLE_1_ess.c **** 
1156:Generated_Source\PSoC4/BLE_1_ess.c **** 
1157:Generated_Source\PSoC4/BLE_1_ess.c **** /******************************************************************************
1158:Generated_Source\PSoC4/BLE_1_ess.c **** * Function Name: CyBle_EsssGetCharacteristicValue
1159:Generated_Source\PSoC4/BLE_1_ess.c **** ***************************************************************************//**
1160:Generated_Source\PSoC4/BLE_1_ess.c **** * 
1161:Generated_Source\PSoC4/BLE_1_ess.c **** *  Gets the characteristic value of the service, which is a value identified by
1162:Generated_Source\PSoC4/BLE_1_ess.c **** *  charIndex.
1163:Generated_Source\PSoC4/BLE_1_ess.c **** * 
1164:Generated_Source\PSoC4/BLE_1_ess.c **** *  \param charIndex: The index of the service characteristic. Starts with zero.
1165:Generated_Source\PSoC4/BLE_1_ess.c **** *  \param charInstance: The instance number of the characteristic specified by
1166:Generated_Source\PSoC4/BLE_1_ess.c **** *                "charIndex".
1167:Generated_Source\PSoC4/BLE_1_ess.c **** *  \param attrSize: The size of the characteristic value attribute.
1168:Generated_Source\PSoC4/BLE_1_ess.c **** *  \param attrValue: The pointer to the location where characteristic value data
1169:Generated_Source\PSoC4/BLE_1_ess.c **** *             should be stored.
1170:Generated_Source\PSoC4/BLE_1_ess.c **** * 
1171:Generated_Source\PSoC4/BLE_1_ess.c **** * \return
1172:Generated_Source\PSoC4/BLE_1_ess.c **** *  A return value is of type CYBLE_API_RESULT_T.
1173:Generated_Source\PSoC4/BLE_1_ess.c **** *  * CYBLE_ERROR_OK - The request handled successfully
1174:Generated_Source\PSoC4/BLE_1_ess.c **** *  * CYBLE_ERROR_INVALID_PARAMETER - Validation of the input parameter failed
1175:Generated_Source\PSoC4/BLE_1_ess.c **** *  * CYBLE_ERROR_GATT_DB_INVALID_ATTR_HANDLE - An optional characteristic is
1176:Generated_Source\PSoC4/BLE_1_ess.c **** *                                               absent.
1177:Generated_Source\PSoC4/BLE_1_ess.c **** *
1178:Generated_Source\PSoC4/BLE_1_ess.c **** ******************************************************************************/
1179:Generated_Source\PSoC4/BLE_1_ess.c **** CYBLE_API_RESULT_T CyBle_EsssGetCharacteristicValue(CYBLE_ESS_CHAR_INDEX_T charIndex,
1180:Generated_Source\PSoC4/BLE_1_ess.c ****     uint8 charInstance, uint8 attrSize, uint8 *attrValue)
1181:Generated_Source\PSoC4/BLE_1_ess.c **** {
 2770              		.loc 1 1181 0
 2771              		.cfi_startproc
 2772              		@ args = 0, pretend = 0, frame = 24
 2773              		@ frame_needed = 1, uses_anonymous_args = 0
 2774 0000 90B5     		push	{r4, r7, lr}
ARM GAS  C:\Users\megan\AppData\Local\Temp\ccmgjhBj.s 			page 72


 2775              		.cfi_def_cfa_offset 12
 2776              		.cfi_offset 4, -12
 2777              		.cfi_offset 7, -8
 2778              		.cfi_offset 14, -4
 2779 0002 87B0     		sub	sp, sp, #28
 2780              		.cfi_def_cfa_offset 40
 2781 0004 00AF     		add	r7, sp, #0
 2782              		.cfi_def_cfa_register 7
 2783 0006 0400     		movs	r4, r0
 2784 0008 0800     		movs	r0, r1
 2785 000a 1100     		movs	r1, r2
 2786 000c 3B60     		str	r3, [r7]
 2787 000e FB1D     		adds	r3, r7, #7
 2788 0010 221C     		adds	r2, r4, #0
 2789 0012 1A70     		strb	r2, [r3]
 2790 0014 BB1D     		adds	r3, r7, #6
 2791 0016 021C     		adds	r2, r0, #0
 2792 0018 1A70     		strb	r2, [r3]
 2793 001a 7B1D     		adds	r3, r7, #5
 2794 001c 0A1C     		adds	r2, r1, #0
 2795 001e 1A70     		strb	r2, [r3]
1182:Generated_Source\PSoC4/BLE_1_ess.c ****     CYBLE_API_RESULT_T apiResult = CYBLE_ERROR_INVALID_PARAMETER;
 2796              		.loc 1 1182 0
 2797 0020 1623     		movs	r3, #22
 2798 0022 FB18     		adds	r3, r7, r3
 2799 0024 0122     		movs	r2, #1
 2800 0026 1A80     		strh	r2, [r3]
1183:Generated_Source\PSoC4/BLE_1_ess.c **** 
1184:Generated_Source\PSoC4/BLE_1_ess.c ****     if(charIndex < CYBLE_ESS_CHAR_COUNT)
 2801              		.loc 1 1184 0
 2802 0028 FB1D     		adds	r3, r7, #7
 2803 002a 1B78     		ldrb	r3, [r3]
 2804 002c 142B     		cmp	r3, #20
 2805 002e 6DD8     		bhi	.L168
1185:Generated_Source\PSoC4/BLE_1_ess.c ****     {
1186:Generated_Source\PSoC4/BLE_1_ess.c ****         /* Check if requested characteristic is present in Service. There are three
1187:Generated_Source\PSoC4/BLE_1_ess.c ****         * conditions to be checked: 1) The pointer to "CYBLE_ESSS_CHAR_T" record in
1188:Generated_Source\PSoC4/BLE_1_ess.c ****         * the cyBle_esss struct is not NULL, 2) The handle of the characteristic is a 
1189:Generated_Source\PSoC4/BLE_1_ess.c ****         * valid handle, 3) The requested instance is a valid characteristic instance.
1190:Generated_Source\PSoC4/BLE_1_ess.c ****         */
1191:Generated_Source\PSoC4/BLE_1_ess.c ****         if((NULL != cyBle_esss.charInfoAddr[charIndex].charInfoPtr) &&
 2806              		.loc 1 1191 0
 2807 0030 FB1D     		adds	r3, r7, #7
 2808 0032 1B78     		ldrb	r3, [r3]
 2809 0034 394A     		ldr	r2, .L173
 2810 0036 9B00     		lsls	r3, r3, #2
 2811 0038 D318     		adds	r3, r2, r3
 2812 003a 0433     		adds	r3, r3, #4
 2813 003c 1B68     		ldr	r3, [r3]
 2814 003e 002B     		cmp	r3, #0
 2815 0040 5ED0     		beq	.L169
1192:Generated_Source\PSoC4/BLE_1_ess.c ****             (CYBLE_GATT_INVALID_ATTR_HANDLE_VALUE !=
1193:Generated_Source\PSoC4/BLE_1_ess.c ****                 cyBle_esss.charInfoAddr[charIndex].charInfoPtr[charInstance].charHandle) &&
 2816              		.loc 1 1193 0 discriminator 1
 2817 0042 FB1D     		adds	r3, r7, #7
 2818 0044 1B78     		ldrb	r3, [r3]
 2819 0046 354A     		ldr	r2, .L173
ARM GAS  C:\Users\megan\AppData\Local\Temp\ccmgjhBj.s 			page 73


 2820 0048 9B00     		lsls	r3, r3, #2
 2821 004a D318     		adds	r3, r2, r3
 2822 004c 0433     		adds	r3, r3, #4
 2823 004e 1968     		ldr	r1, [r3]
 2824 0050 BB1D     		adds	r3, r7, #6
 2825 0052 1A78     		ldrb	r2, [r3]
 2826 0054 1300     		movs	r3, r2
 2827 0056 9B00     		lsls	r3, r3, #2
 2828 0058 9B18     		adds	r3, r3, r2
 2829 005a 9B00     		lsls	r3, r3, #2
 2830 005c CB18     		adds	r3, r1, r3
 2831 005e 1B88     		ldrh	r3, [r3]
1191:Generated_Source\PSoC4/BLE_1_ess.c ****             (CYBLE_GATT_INVALID_ATTR_HANDLE_VALUE !=
 2832              		.loc 1 1191 0 discriminator 1
 2833 0060 002B     		cmp	r3, #0
 2834 0062 4DD0     		beq	.L169
1194:Generated_Source\PSoC4/BLE_1_ess.c ****                     (cyBle_esssCharInstances[charIndex] > charInstance))
 2835              		.loc 1 1194 0
 2836 0064 FB1D     		adds	r3, r7, #7
 2837 0066 1B78     		ldrb	r3, [r3]
 2838 0068 2D4A     		ldr	r2, .L173+4
 2839 006a D35C     		ldrb	r3, [r2, r3]
1193:Generated_Source\PSoC4/BLE_1_ess.c ****                     (cyBle_esssCharInstances[charIndex] > charInstance))
 2840              		.loc 1 1193 0
 2841 006c BA1D     		adds	r2, r7, #6
 2842 006e 1278     		ldrb	r2, [r2]
 2843 0070 9A42     		cmp	r2, r3
 2844 0072 45D2     		bcs	.L169
 2845              	.LBB3:
1195:Generated_Source\PSoC4/BLE_1_ess.c ****         {
1196:Generated_Source\PSoC4/BLE_1_ess.c ****             CYBLE_GATT_HANDLE_VALUE_PAIR_T locHandleValuePair;
1197:Generated_Source\PSoC4/BLE_1_ess.c **** 
1198:Generated_Source\PSoC4/BLE_1_ess.c ****             locHandleValuePair.attrHandle = cyBle_esss.charInfoAddr[charIndex].charInfoPtr[charInst
 2846              		.loc 1 1198 0
 2847 0074 FB1D     		adds	r3, r7, #7
 2848 0076 1B78     		ldrb	r3, [r3]
 2849 0078 284A     		ldr	r2, .L173
 2850 007a 9B00     		lsls	r3, r3, #2
 2851 007c D318     		adds	r3, r2, r3
 2852 007e 0433     		adds	r3, r3, #4
 2853 0080 1968     		ldr	r1, [r3]
 2854 0082 BB1D     		adds	r3, r7, #6
 2855 0084 1A78     		ldrb	r2, [r3]
 2856 0086 1300     		movs	r3, r2
 2857 0088 9B00     		lsls	r3, r3, #2
 2858 008a 9B18     		adds	r3, r3, r2
 2859 008c 9B00     		lsls	r3, r3, #2
 2860 008e CB18     		adds	r3, r1, r3
 2861 0090 1A88     		ldrh	r2, [r3]
 2862 0092 0823     		movs	r3, #8
 2863 0094 FB18     		adds	r3, r7, r3
 2864 0096 1A81     		strh	r2, [r3, #8]
1199:Generated_Source\PSoC4/BLE_1_ess.c ****             locHandleValuePair.value.len = attrSize;
 2865              		.loc 1 1199 0
 2866 0098 7B1D     		adds	r3, r7, #5
 2867 009a 1B78     		ldrb	r3, [r3]
 2868 009c 9AB2     		uxth	r2, r3
ARM GAS  C:\Users\megan\AppData\Local\Temp\ccmgjhBj.s 			page 74


 2869 009e 0823     		movs	r3, #8
 2870 00a0 FB18     		adds	r3, r7, r3
 2871 00a2 9A80     		strh	r2, [r3, #4]
1200:Generated_Source\PSoC4/BLE_1_ess.c ****             locHandleValuePair.value.val = attrValue;
 2872              		.loc 1 1200 0
 2873 00a4 0823     		movs	r3, #8
 2874 00a6 FB18     		adds	r3, r7, r3
 2875 00a8 3A68     		ldr	r2, [r7]
 2876 00aa 1A60     		str	r2, [r3]
1201:Generated_Source\PSoC4/BLE_1_ess.c **** 
1202:Generated_Source\PSoC4/BLE_1_ess.c ****             /* Read characteristic value from database */
1203:Generated_Source\PSoC4/BLE_1_ess.c ****             if(CyBle_GattsReadAttributeValue(&locHandleValuePair, NULL, CYBLE_GATT_DB_LOCALLY_INITI
 2877              		.loc 1 1203 0
 2878 00ac 0823     		movs	r3, #8
 2879 00ae FB18     		adds	r3, r7, r3
 2880 00b0 0022     		movs	r2, #0
 2881 00b2 0021     		movs	r1, #0
 2882 00b4 1800     		movs	r0, r3
 2883 00b6 FFF7FEFF 		bl	CyBle_GattsReadAttributeValue
 2884 00ba 031E     		subs	r3, r0, #0
 2885 00bc 25D1     		bne	.L172
1204:Generated_Source\PSoC4/BLE_1_ess.c ****                 CYBLE_GATT_ERR_NONE)
1205:Generated_Source\PSoC4/BLE_1_ess.c ****             {
1206:Generated_Source\PSoC4/BLE_1_ess.c ****                 apiResult = CYBLE_ERROR_OK;
 2886              		.loc 1 1206 0
 2887 00be 1623     		movs	r3, #22
 2888 00c0 FB18     		adds	r3, r7, r3
 2889 00c2 0022     		movs	r2, #0
 2890 00c4 1A80     		strh	r2, [r3]
1207:Generated_Source\PSoC4/BLE_1_ess.c ****                 
1208:Generated_Source\PSoC4/BLE_1_ess.c ****             /* Set new length of the descriptor value */
1209:Generated_Source\PSoC4/BLE_1_ess.c ****             CYBLE_GATT_DB_ATTR_SET_ATTR_GEN_LEN(cyBle_esss.charInfoAddr[charIndex].charInfoPtr[char
 2891              		.loc 1 1209 0
 2892 00c6 FB1D     		adds	r3, r7, #7
 2893 00c8 1B78     		ldrb	r3, [r3]
 2894 00ca 144A     		ldr	r2, .L173
 2895 00cc 9B00     		lsls	r3, r3, #2
 2896 00ce D318     		adds	r3, r2, r3
 2897 00d0 0433     		adds	r3, r3, #4
 2898 00d2 1968     		ldr	r1, [r3]
 2899 00d4 BB1D     		adds	r3, r7, #6
 2900 00d6 1A78     		ldrb	r2, [r3]
 2901 00d8 1300     		movs	r3, r2
 2902 00da 9B00     		lsls	r3, r3, #2
 2903 00dc 9B18     		adds	r3, r3, r2
 2904 00de 9B00     		lsls	r3, r3, #2
 2905 00e0 CB18     		adds	r3, r1, r3
 2906 00e2 1B88     		ldrh	r3, [r3]
 2907 00e4 5A1E     		subs	r2, r3, #1
 2908 00e6 0F49     		ldr	r1, .L173+8
 2909 00e8 1300     		movs	r3, r2
 2910 00ea 9B00     		lsls	r3, r3, #2
 2911 00ec 9B18     		adds	r3, r3, r2
 2912 00ee 9B00     		lsls	r3, r3, #2
 2913 00f0 CB18     		adds	r3, r1, r3
 2914 00f2 1033     		adds	r3, r3, #16
 2915 00f4 1B68     		ldr	r3, [r3]
ARM GAS  C:\Users\megan\AppData\Local\Temp\ccmgjhBj.s 			page 75


 2916 00f6 7A1D     		adds	r2, r7, #5
 2917 00f8 1278     		ldrb	r2, [r2]
 2918 00fa 92B2     		uxth	r2, r2
 2919 00fc 1A80     		strh	r2, [r3]
 2920              	.LBE3:
1195:Generated_Source\PSoC4/BLE_1_ess.c ****             CYBLE_GATT_HANDLE_VALUE_PAIR_T locHandleValuePair;
 2921              		.loc 1 1195 0
 2922 00fe 04E0     		b	.L172
 2923              	.L169:
1210:Generated_Source\PSoC4/BLE_1_ess.c ****                                                 attrSize);
1211:Generated_Source\PSoC4/BLE_1_ess.c ****             }
1212:Generated_Source\PSoC4/BLE_1_ess.c ****         }
1213:Generated_Source\PSoC4/BLE_1_ess.c ****         else
1214:Generated_Source\PSoC4/BLE_1_ess.c ****         {
1215:Generated_Source\PSoC4/BLE_1_ess.c ****             apiResult = CYBLE_ERROR_GATT_DB_INVALID_ATTR_HANDLE;
 2924              		.loc 1 1215 0
 2925 0100 1623     		movs	r3, #22
 2926 0102 FB18     		adds	r3, r7, r3
 2927 0104 1322     		movs	r2, #19
 2928 0106 1A80     		strh	r2, [r3]
 2929 0108 00E0     		b	.L168
 2930              	.L172:
1195:Generated_Source\PSoC4/BLE_1_ess.c ****             CYBLE_GATT_HANDLE_VALUE_PAIR_T locHandleValuePair;
 2931              		.loc 1 1195 0
 2932 010a C046     		nop
 2933              	.L168:
1216:Generated_Source\PSoC4/BLE_1_ess.c ****         }
1217:Generated_Source\PSoC4/BLE_1_ess.c ****     }
1218:Generated_Source\PSoC4/BLE_1_ess.c **** 
1219:Generated_Source\PSoC4/BLE_1_ess.c ****     return (apiResult);
 2934              		.loc 1 1219 0
 2935 010c 1623     		movs	r3, #22
 2936 010e FB18     		adds	r3, r7, r3
 2937 0110 1B88     		ldrh	r3, [r3]
1220:Generated_Source\PSoC4/BLE_1_ess.c **** }
 2938              		.loc 1 1220 0
 2939 0112 1800     		movs	r0, r3
 2940 0114 BD46     		mov	sp, r7
 2941 0116 07B0     		add	sp, sp, #28
 2942              		@ sp needed
 2943 0118 90BD     		pop	{r4, r7, pc}
 2944              	.L174:
 2945 011a C046     		.align	2
 2946              	.L173:
 2947 011c 00000000 		.word	cyBle_esss
 2948 0120 00000000 		.word	cyBle_esssCharInstances
 2949 0124 00000000 		.word	cyBle_gattDB
 2950              		.cfi_endproc
 2951              	.LFE14:
 2952              		.size	CyBle_EsssGetCharacteristicValue, .-CyBle_EsssGetCharacteristicValue
 2953              		.section	.text.CyBle_EsssSetCharacteristicDescriptor,"ax",%progbits
 2954              		.align	2
 2955              		.global	CyBle_EsssSetCharacteristicDescriptor
 2956              		.code	16
 2957              		.thumb_func
 2958              		.type	CyBle_EsssSetCharacteristicDescriptor, %function
 2959              	CyBle_EsssSetCharacteristicDescriptor:
ARM GAS  C:\Users\megan\AppData\Local\Temp\ccmgjhBj.s 			page 76


 2960              	.LFB15:
1221:Generated_Source\PSoC4/BLE_1_ess.c **** 
1222:Generated_Source\PSoC4/BLE_1_ess.c **** 
1223:Generated_Source\PSoC4/BLE_1_ess.c **** /******************************************************************************
1224:Generated_Source\PSoC4/BLE_1_ess.c **** * Function Name: CyBle_EsssSetCharacteristicDescriptor
1225:Generated_Source\PSoC4/BLE_1_ess.c **** ***************************************************************************//**
1226:Generated_Source\PSoC4/BLE_1_ess.c **** * 
1227:Generated_Source\PSoC4/BLE_1_ess.c **** *  Sets the characteristic descriptor of the specified characteristic.
1228:Generated_Source\PSoC4/BLE_1_ess.c **** * 
1229:Generated_Source\PSoC4/BLE_1_ess.c **** *  \param charIndex: The index of the service characteristic.
1230:Generated_Source\PSoC4/BLE_1_ess.c **** *  \param charInstance: The instance number of the characteristic specified by
1231:Generated_Source\PSoC4/BLE_1_ess.c **** *                "charIndex".
1232:Generated_Source\PSoC4/BLE_1_ess.c **** *  \param descrIndex: The index of the service characteristic descriptor of type 
1233:Generated_Source\PSoC4/BLE_1_ess.c **** *              CYBLE_ESS_DESCR_INDEX_T. 
1234:Generated_Source\PSoC4/BLE_1_ess.c **** *  \param attrSize: The size of the characteristic descriptor attribute.
1235:Generated_Source\PSoC4/BLE_1_ess.c **** *  \param attrValue: The pointer to the descriptor value data to 
1236:Generated_Source\PSoC4/BLE_1_ess.c **** *             be stored in the GATT database.
1237:Generated_Source\PSoC4/BLE_1_ess.c **** * 
1238:Generated_Source\PSoC4/BLE_1_ess.c **** * \return
1239:Generated_Source\PSoC4/BLE_1_ess.c **** *  A return value is of type CYBLE_API_RESULT_T.
1240:Generated_Source\PSoC4/BLE_1_ess.c **** *  * CYBLE_ERROR_OK - The request handled successfully.
1241:Generated_Source\PSoC4/BLE_1_ess.c **** *  * CYBLE_ERROR_INVALID_PARAMETER - Validation of the input parameter failed.
1242:Generated_Source\PSoC4/BLE_1_ess.c **** *  * CYBLE_ERROR_GATT_DB_INVALID_ATTR_HANDLE - An optional characteristic is
1243:Generated_Source\PSoC4/BLE_1_ess.c **** *                                               absent.
1244:Generated_Source\PSoC4/BLE_1_ess.c **** *
1245:Generated_Source\PSoC4/BLE_1_ess.c **** ******************************************************************************/
1246:Generated_Source\PSoC4/BLE_1_ess.c **** CYBLE_API_RESULT_T CyBle_EsssSetCharacteristicDescriptor(CYBLE_ESS_CHAR_INDEX_T charIndex,
1247:Generated_Source\PSoC4/BLE_1_ess.c ****     uint8 charInstance, CYBLE_ESS_DESCR_INDEX_T descrIndex, uint16 attrSize, uint8 *attrValue)
1248:Generated_Source\PSoC4/BLE_1_ess.c **** {
 2961              		.loc 1 1248 0
 2962              		.cfi_startproc
 2963              		@ args = 4, pretend = 0, frame = 24
 2964              		@ frame_needed = 1, uses_anonymous_args = 0
 2965 0000 B0B5     		push	{r4, r5, r7, lr}
 2966              		.cfi_def_cfa_offset 16
 2967              		.cfi_offset 4, -16
 2968              		.cfi_offset 5, -12
 2969              		.cfi_offset 7, -8
 2970              		.cfi_offset 14, -4
 2971 0002 86B0     		sub	sp, sp, #24
 2972              		.cfi_def_cfa_offset 40
 2973 0004 00AF     		add	r7, sp, #0
 2974              		.cfi_def_cfa_register 7
 2975 0006 0500     		movs	r5, r0
 2976 0008 0C00     		movs	r4, r1
 2977 000a 1000     		movs	r0, r2
 2978 000c 1900     		movs	r1, r3
 2979 000e FB1D     		adds	r3, r7, #7
 2980 0010 2A1C     		adds	r2, r5, #0
 2981 0012 1A70     		strb	r2, [r3]
 2982 0014 BB1D     		adds	r3, r7, #6
 2983 0016 221C     		adds	r2, r4, #0
 2984 0018 1A70     		strb	r2, [r3]
 2985 001a 7B1D     		adds	r3, r7, #5
 2986 001c 021C     		adds	r2, r0, #0
 2987 001e 1A70     		strb	r2, [r3]
 2988 0020 BB1C     		adds	r3, r7, #2
ARM GAS  C:\Users\megan\AppData\Local\Temp\ccmgjhBj.s 			page 77


 2989 0022 0A1C     		adds	r2, r1, #0
 2990 0024 1A80     		strh	r2, [r3]
1249:Generated_Source\PSoC4/BLE_1_ess.c ****     CYBLE_API_RESULT_T apiResult = CYBLE_ERROR_INVALID_PARAMETER;
 2991              		.loc 1 1249 0
 2992 0026 1623     		movs	r3, #22
 2993 0028 FB18     		adds	r3, r7, r3
 2994 002a 0122     		movs	r2, #1
 2995 002c 1A80     		strh	r2, [r3]
1250:Generated_Source\PSoC4/BLE_1_ess.c **** 
1251:Generated_Source\PSoC4/BLE_1_ess.c ****     if((charIndex < CYBLE_ESS_CHAR_COUNT) && (cyBle_esssCharInstances[charIndex] > charInstance) &&
 2996              		.loc 1 1251 0
 2997 002e FB1D     		adds	r3, r7, #7
 2998 0030 1B78     		ldrb	r3, [r3]
 2999 0032 142B     		cmp	r3, #20
 3000 0034 00D9     		bls	.LCB2582
 3001 0036 92E0     		b	.L176	@long jump
 3002              	.LCB2582:
 3003              		.loc 1 1251 0 is_stmt 0 discriminator 1
 3004 0038 FB1D     		adds	r3, r7, #7
 3005 003a 1B78     		ldrb	r3, [r3]
 3006 003c 4B4A     		ldr	r2, .L181
 3007 003e D35C     		ldrb	r3, [r2, r3]
 3008 0040 BA1D     		adds	r2, r7, #6
 3009 0042 1278     		ldrb	r2, [r2]
 3010 0044 9A42     		cmp	r2, r3
 3011 0046 00D3     		bcc	.LCB2590
 3012 0048 89E0     		b	.L176	@long jump
 3013              	.LCB2590:
 3014              		.loc 1 1251 0 discriminator 2
 3015 004a 7B1D     		adds	r3, r7, #5
 3016 004c 1B78     		ldrb	r3, [r3]
 3017 004e 082B     		cmp	r3, #8
 3018 0050 00D9     		bls	.LCB2594
 3019 0052 84E0     		b	.L176	@long jump
 3020              	.LCB2594:
1252:Generated_Source\PSoC4/BLE_1_ess.c ****         (CYBLE_ESS_DESCR_COUNT > descrIndex))
1253:Generated_Source\PSoC4/BLE_1_ess.c ****     {
1254:Generated_Source\PSoC4/BLE_1_ess.c ****         /* Check if requested descriptor is present in Service.
1255:Generated_Source\PSoC4/BLE_1_ess.c ****         * There are three conditions to be checked: 1) The pointer to
1256:Generated_Source\PSoC4/BLE_1_ess.c ****         * "CYBLE_ESSS_CHAR_T" is not NULL, 2) The handle of the characteristic is
1257:Generated_Source\PSoC4/BLE_1_ess.c ****         * a valid handle, 3) The handle of the descriptor is a valid handle.
1258:Generated_Source\PSoC4/BLE_1_ess.c ****         */
1259:Generated_Source\PSoC4/BLE_1_ess.c ****         if((NULL != cyBle_esss.charInfoAddr[charIndex].charInfoPtr) &&
 3021              		.loc 1 1259 0 is_stmt 1
 3022 0054 FB1D     		adds	r3, r7, #7
 3023 0056 1B78     		ldrb	r3, [r3]
 3024 0058 454A     		ldr	r2, .L181+4
 3025 005a 9B00     		lsls	r3, r3, #2
 3026 005c D318     		adds	r3, r2, r3
 3027 005e 0433     		adds	r3, r3, #4
 3028 0060 1B68     		ldr	r3, [r3]
 3029 0062 002B     		cmp	r3, #0
 3030 0064 00D1     		bne	.LCB2603
 3031 0066 74E0     		b	.L177	@long jump
 3032              	.LCB2603:
1260:Generated_Source\PSoC4/BLE_1_ess.c ****             (CYBLE_GATT_INVALID_ATTR_HANDLE_VALUE !=
1261:Generated_Source\PSoC4/BLE_1_ess.c ****                 cyBle_esss.charInfoAddr[charIndex].charInfoPtr[charInstance].charHandle) &&
ARM GAS  C:\Users\megan\AppData\Local\Temp\ccmgjhBj.s 			page 78


 3033              		.loc 1 1261 0 discriminator 1
 3034 0068 FB1D     		adds	r3, r7, #7
 3035 006a 1B78     		ldrb	r3, [r3]
 3036 006c 404A     		ldr	r2, .L181+4
 3037 006e 9B00     		lsls	r3, r3, #2
 3038 0070 D318     		adds	r3, r2, r3
 3039 0072 0433     		adds	r3, r3, #4
 3040 0074 1968     		ldr	r1, [r3]
 3041 0076 BB1D     		adds	r3, r7, #6
 3042 0078 1A78     		ldrb	r2, [r3]
 3043 007a 1300     		movs	r3, r2
 3044 007c 9B00     		lsls	r3, r3, #2
 3045 007e 9B18     		adds	r3, r3, r2
 3046 0080 9B00     		lsls	r3, r3, #2
 3047 0082 CB18     		adds	r3, r1, r3
 3048 0084 1B88     		ldrh	r3, [r3]
1259:Generated_Source\PSoC4/BLE_1_ess.c ****             (CYBLE_GATT_INVALID_ATTR_HANDLE_VALUE !=
 3049              		.loc 1 1259 0 discriminator 1
 3050 0086 002B     		cmp	r3, #0
 3051 0088 63D0     		beq	.L177
1262:Generated_Source\PSoC4/BLE_1_ess.c ****                     (CYBLE_GATT_INVALID_ATTR_HANDLE_VALUE !=
1263:Generated_Source\PSoC4/BLE_1_ess.c ****                         cyBle_esss.charInfoAddr[charIndex].charInfoPtr[charInstance].descrHandle[de
 3052              		.loc 1 1263 0
 3053 008a FB1D     		adds	r3, r7, #7
 3054 008c 1B78     		ldrb	r3, [r3]
 3055 008e 384A     		ldr	r2, .L181+4
 3056 0090 9B00     		lsls	r3, r3, #2
 3057 0092 D318     		adds	r3, r2, r3
 3058 0094 0433     		adds	r3, r3, #4
 3059 0096 1968     		ldr	r1, [r3]
 3060 0098 BB1D     		adds	r3, r7, #6
 3061 009a 1A78     		ldrb	r2, [r3]
 3062 009c 1300     		movs	r3, r2
 3063 009e 9B00     		lsls	r3, r3, #2
 3064 00a0 9B18     		adds	r3, r3, r2
 3065 00a2 9B00     		lsls	r3, r3, #2
 3066 00a4 CA18     		adds	r2, r1, r3
 3067 00a6 7B1D     		adds	r3, r7, #5
 3068 00a8 1B78     		ldrb	r3, [r3]
 3069 00aa 5B00     		lsls	r3, r3, #1
 3070 00ac D318     		adds	r3, r2, r3
 3071 00ae 0233     		adds	r3, r3, #2
 3072 00b0 1B88     		ldrh	r3, [r3]
1261:Generated_Source\PSoC4/BLE_1_ess.c ****                     (CYBLE_GATT_INVALID_ATTR_HANDLE_VALUE !=
 3073              		.loc 1 1261 0
 3074 00b2 002B     		cmp	r3, #0
 3075 00b4 4DD0     		beq	.L177
 3076              	.LBB4:
1264:Generated_Source\PSoC4/BLE_1_ess.c ****         {
1265:Generated_Source\PSoC4/BLE_1_ess.c ****             CYBLE_GATT_HANDLE_VALUE_PAIR_T locHandleValuePair;
1266:Generated_Source\PSoC4/BLE_1_ess.c **** 
1267:Generated_Source\PSoC4/BLE_1_ess.c ****             locHandleValuePair.attrHandle =
1268:Generated_Source\PSoC4/BLE_1_ess.c ****                 cyBle_esss.charInfoAddr[charIndex].charInfoPtr[charInstance].descrHandle[descrIndex
 3077              		.loc 1 1268 0
 3078 00b6 FB1D     		adds	r3, r7, #7
 3079 00b8 1B78     		ldrb	r3, [r3]
 3080 00ba 2D4A     		ldr	r2, .L181+4
ARM GAS  C:\Users\megan\AppData\Local\Temp\ccmgjhBj.s 			page 79


 3081 00bc 9B00     		lsls	r3, r3, #2
 3082 00be D318     		adds	r3, r2, r3
 3083 00c0 0433     		adds	r3, r3, #4
 3084 00c2 1968     		ldr	r1, [r3]
 3085 00c4 BB1D     		adds	r3, r7, #6
 3086 00c6 1A78     		ldrb	r2, [r3]
 3087 00c8 1300     		movs	r3, r2
 3088 00ca 9B00     		lsls	r3, r3, #2
 3089 00cc 9B18     		adds	r3, r3, r2
 3090 00ce 9B00     		lsls	r3, r3, #2
 3091 00d0 CA18     		adds	r2, r1, r3
 3092 00d2 7B1D     		adds	r3, r7, #5
 3093 00d4 1B78     		ldrb	r3, [r3]
 3094 00d6 5B00     		lsls	r3, r3, #1
 3095 00d8 D318     		adds	r3, r2, r3
 3096 00da 0233     		adds	r3, r3, #2
 3097 00dc 1A88     		ldrh	r2, [r3]
1267:Generated_Source\PSoC4/BLE_1_ess.c ****                 cyBle_esss.charInfoAddr[charIndex].charInfoPtr[charInstance].descrHandle[descrIndex
 3098              		.loc 1 1267 0
 3099 00de 0823     		movs	r3, #8
 3100 00e0 FB18     		adds	r3, r7, r3
 3101 00e2 1A81     		strh	r2, [r3, #8]
1269:Generated_Source\PSoC4/BLE_1_ess.c ****             locHandleValuePair.value.len = attrSize;
 3102              		.loc 1 1269 0
 3103 00e4 0823     		movs	r3, #8
 3104 00e6 FB18     		adds	r3, r7, r3
 3105 00e8 BA1C     		adds	r2, r7, #2
 3106 00ea 1288     		ldrh	r2, [r2]
 3107 00ec 9A80     		strh	r2, [r3, #4]
1270:Generated_Source\PSoC4/BLE_1_ess.c ****             locHandleValuePair.value.val = attrValue;
 3108              		.loc 1 1270 0
 3109 00ee 0823     		movs	r3, #8
 3110 00f0 FB18     		adds	r3, r7, r3
 3111 00f2 BA6A     		ldr	r2, [r7, #40]
 3112 00f4 1A60     		str	r2, [r3]
1271:Generated_Source\PSoC4/BLE_1_ess.c ****                         
1272:Generated_Source\PSoC4/BLE_1_ess.c ****             /* Read characteristic value from database */
1273:Generated_Source\PSoC4/BLE_1_ess.c ****             if(CyBle_GattsWriteAttributeValue(&locHandleValuePair, 0u, NULL, CYBLE_GATT_DB_LOCALLY_
 3113              		.loc 1 1273 0
 3114 00f6 0823     		movs	r3, #8
 3115 00f8 F818     		adds	r0, r7, r3
 3116 00fa 0023     		movs	r3, #0
 3117 00fc 0022     		movs	r2, #0
 3118 00fe 0021     		movs	r1, #0
 3119 0100 FFF7FEFF 		bl	CyBle_GattsWriteAttributeValue
 3120 0104 031E     		subs	r3, r0, #0
 3121 0106 29D1     		bne	.L180
1274:Generated_Source\PSoC4/BLE_1_ess.c ****                 CYBLE_GATT_ERR_NONE)
1275:Generated_Source\PSoC4/BLE_1_ess.c ****             {
1276:Generated_Source\PSoC4/BLE_1_ess.c ****                 apiResult = CYBLE_ERROR_OK;
 3122              		.loc 1 1276 0
 3123 0108 1623     		movs	r3, #22
 3124 010a FB18     		adds	r3, r7, r3
 3125 010c 0022     		movs	r2, #0
 3126 010e 1A80     		strh	r2, [r3]
1277:Generated_Source\PSoC4/BLE_1_ess.c ****                 
1278:Generated_Source\PSoC4/BLE_1_ess.c ****                 /* Set new length of the descriptor value */
ARM GAS  C:\Users\megan\AppData\Local\Temp\ccmgjhBj.s 			page 80


1279:Generated_Source\PSoC4/BLE_1_ess.c ****                 CYBLE_GATT_DB_ATTR_SET_ATTR_GEN_LEN(cyBle_esss.charInfoAddr[charIndex].charInfoPtr[
 3127              		.loc 1 1279 0
 3128 0110 FB1D     		adds	r3, r7, #7
 3129 0112 1B78     		ldrb	r3, [r3]
 3130 0114 164A     		ldr	r2, .L181+4
 3131 0116 9B00     		lsls	r3, r3, #2
 3132 0118 D318     		adds	r3, r2, r3
 3133 011a 0433     		adds	r3, r3, #4
 3134 011c 1968     		ldr	r1, [r3]
 3135 011e BB1D     		adds	r3, r7, #6
 3136 0120 1A78     		ldrb	r2, [r3]
 3137 0122 1300     		movs	r3, r2
 3138 0124 9B00     		lsls	r3, r3, #2
 3139 0126 9B18     		adds	r3, r3, r2
 3140 0128 9B00     		lsls	r3, r3, #2
 3141 012a CA18     		adds	r2, r1, r3
 3142 012c 7B1D     		adds	r3, r7, #5
 3143 012e 1B78     		ldrb	r3, [r3]
 3144 0130 5B00     		lsls	r3, r3, #1
 3145 0132 D318     		adds	r3, r2, r3
 3146 0134 0233     		adds	r3, r3, #2
 3147 0136 1B88     		ldrh	r3, [r3]
 3148 0138 5A1E     		subs	r2, r3, #1
 3149 013a 0E49     		ldr	r1, .L181+8
 3150 013c 1300     		movs	r3, r2
 3151 013e 9B00     		lsls	r3, r3, #2
 3152 0140 9B18     		adds	r3, r3, r2
 3153 0142 9B00     		lsls	r3, r3, #2
 3154 0144 CB18     		adds	r3, r1, r3
 3155 0146 1033     		adds	r3, r3, #16
 3156 0148 1B68     		ldr	r3, [r3]
 3157 014a BA1C     		adds	r2, r7, #2
 3158 014c 1288     		ldrh	r2, [r2]
 3159 014e 1A80     		strh	r2, [r3]
 3160              	.LBE4:
1264:Generated_Source\PSoC4/BLE_1_ess.c ****             CYBLE_GATT_HANDLE_VALUE_PAIR_T locHandleValuePair;
 3161              		.loc 1 1264 0
 3162 0150 04E0     		b	.L180
 3163              	.L177:
1280:Generated_Source\PSoC4/BLE_1_ess.c ****                                                     descrHandle[descrIndex],
1281:Generated_Source\PSoC4/BLE_1_ess.c ****                                                     attrSize);
1282:Generated_Source\PSoC4/BLE_1_ess.c ****             }
1283:Generated_Source\PSoC4/BLE_1_ess.c ****         }
1284:Generated_Source\PSoC4/BLE_1_ess.c ****         else
1285:Generated_Source\PSoC4/BLE_1_ess.c ****         {
1286:Generated_Source\PSoC4/BLE_1_ess.c ****             apiResult = CYBLE_ERROR_GATT_DB_INVALID_ATTR_HANDLE;
 3164              		.loc 1 1286 0
 3165 0152 1623     		movs	r3, #22
 3166 0154 FB18     		adds	r3, r7, r3
 3167 0156 1322     		movs	r2, #19
 3168 0158 1A80     		strh	r2, [r3]
 3169 015a 00E0     		b	.L176
 3170              	.L180:
1264:Generated_Source\PSoC4/BLE_1_ess.c ****             CYBLE_GATT_HANDLE_VALUE_PAIR_T locHandleValuePair;
 3171              		.loc 1 1264 0
 3172 015c C046     		nop
 3173              	.L176:
ARM GAS  C:\Users\megan\AppData\Local\Temp\ccmgjhBj.s 			page 81


1287:Generated_Source\PSoC4/BLE_1_ess.c ****         }
1288:Generated_Source\PSoC4/BLE_1_ess.c ****     }
1289:Generated_Source\PSoC4/BLE_1_ess.c ****     return (apiResult);
 3174              		.loc 1 1289 0
 3175 015e 1623     		movs	r3, #22
 3176 0160 FB18     		adds	r3, r7, r3
 3177 0162 1B88     		ldrh	r3, [r3]
1290:Generated_Source\PSoC4/BLE_1_ess.c **** }
 3178              		.loc 1 1290 0
 3179 0164 1800     		movs	r0, r3
 3180 0166 BD46     		mov	sp, r7
 3181 0168 06B0     		add	sp, sp, #24
 3182              		@ sp needed
 3183 016a B0BD     		pop	{r4, r5, r7, pc}
 3184              	.L182:
 3185              		.align	2
 3186              	.L181:
 3187 016c 00000000 		.word	cyBle_esssCharInstances
 3188 0170 00000000 		.word	cyBle_esss
 3189 0174 00000000 		.word	cyBle_gattDB
 3190              		.cfi_endproc
 3191              	.LFE15:
 3192              		.size	CyBle_EsssSetCharacteristicDescriptor, .-CyBle_EsssSetCharacteristicDescriptor
 3193              		.section	.text.CyBle_EsssGetCharacteristicDescriptor,"ax",%progbits
 3194              		.align	2
 3195              		.global	CyBle_EsssGetCharacteristicDescriptor
 3196              		.code	16
 3197              		.thumb_func
 3198              		.type	CyBle_EsssGetCharacteristicDescriptor, %function
 3199              	CyBle_EsssGetCharacteristicDescriptor:
 3200              	.LFB16:
1291:Generated_Source\PSoC4/BLE_1_ess.c **** 
1292:Generated_Source\PSoC4/BLE_1_ess.c **** 
1293:Generated_Source\PSoC4/BLE_1_ess.c **** /******************************************************************************
1294:Generated_Source\PSoC4/BLE_1_ess.c **** * Function Name: CyBle_EsssGetCharacteristicDescriptor
1295:Generated_Source\PSoC4/BLE_1_ess.c **** ***************************************************************************//**
1296:Generated_Source\PSoC4/BLE_1_ess.c **** * 
1297:Generated_Source\PSoC4/BLE_1_ess.c **** *  Gets the characteristic descriptor of the specified characteristic.
1298:Generated_Source\PSoC4/BLE_1_ess.c **** * 
1299:Generated_Source\PSoC4/BLE_1_ess.c **** *  \param charIndex: The index of the service characteristic. Starts with zero.
1300:Generated_Source\PSoC4/BLE_1_ess.c **** *  \param charInstance: The instance number of the characteristic specified by
1301:Generated_Source\PSoC4/BLE_1_ess.c **** *                "charIndex".
1302:Generated_Source\PSoC4/BLE_1_ess.c **** *  \param descrIndex: The index of the service characteristic descriptor of type 
1303:Generated_Source\PSoC4/BLE_1_ess.c **** *              CYBLE_ESS_DESCR_INDEX_T. 
1304:Generated_Source\PSoC4/BLE_1_ess.c **** *  \param attrSize: The size of the characteristic descriptor attribute.
1305:Generated_Source\PSoC4/BLE_1_ess.c **** *  \param attrValue: The pointer to the location where characteristic descriptor
1306:Generated_Source\PSoC4/BLE_1_ess.c **** *              value data should be stored.
1307:Generated_Source\PSoC4/BLE_1_ess.c **** * 
1308:Generated_Source\PSoC4/BLE_1_ess.c **** * \return
1309:Generated_Source\PSoC4/BLE_1_ess.c **** *  A return value is of type CYBLE_API_RESULT_T.
1310:Generated_Source\PSoC4/BLE_1_ess.c **** *  * CYBLE_ERROR_OK - The request handled successfully
1311:Generated_Source\PSoC4/BLE_1_ess.c **** *  * CYBLE_ERROR_INVALID_PARAMETER - Validation of the input parameter failed
1312:Generated_Source\PSoC4/BLE_1_ess.c **** *  * CYBLE_ERROR_GATT_DB_INVALID_ATTR_HANDLE - An optional characteristic is
1313:Generated_Source\PSoC4/BLE_1_ess.c **** *                                               absent.
1314:Generated_Source\PSoC4/BLE_1_ess.c **** *
1315:Generated_Source\PSoC4/BLE_1_ess.c **** ******************************************************************************/
1316:Generated_Source\PSoC4/BLE_1_ess.c **** CYBLE_API_RESULT_T CyBle_EsssGetCharacteristicDescriptor(CYBLE_ESS_CHAR_INDEX_T charIndex,
ARM GAS  C:\Users\megan\AppData\Local\Temp\ccmgjhBj.s 			page 82


1317:Generated_Source\PSoC4/BLE_1_ess.c ****     uint8 charInstance, CYBLE_ESS_DESCR_INDEX_T descrIndex, uint16 attrSize, uint8 *attrValue)
1318:Generated_Source\PSoC4/BLE_1_ess.c **** {
 3201              		.loc 1 1318 0
 3202              		.cfi_startproc
 3203              		@ args = 4, pretend = 0, frame = 24
 3204              		@ frame_needed = 1, uses_anonymous_args = 0
 3205 0000 B0B5     		push	{r4, r5, r7, lr}
 3206              		.cfi_def_cfa_offset 16
 3207              		.cfi_offset 4, -16
 3208              		.cfi_offset 5, -12
 3209              		.cfi_offset 7, -8
 3210              		.cfi_offset 14, -4
 3211 0002 86B0     		sub	sp, sp, #24
 3212              		.cfi_def_cfa_offset 40
 3213 0004 00AF     		add	r7, sp, #0
 3214              		.cfi_def_cfa_register 7
 3215 0006 0500     		movs	r5, r0
 3216 0008 0C00     		movs	r4, r1
