ARM GAS  C:\Users\megan\AppData\Local\Temp\ccmgjhBj.s 			page 1


   1              		.syntax unified
   2              		.cpu cortex-m0
   3              		.fpu softvfp
   4              		.eabi_attribute 20, 1
   5              		.eabi_attribute 21, 1
   6              		.eabi_attribute 23, 3
   7              		.eabi_attribute 24, 1
   8              		.eabi_attribute 25, 1
   9              		.eabi_attribute 26, 1
  10              		.eabi_attribute 30, 6
  11              		.eabi_attribute 34, 0
  12              		.eabi_attribute 18, 4
  13              		.thumb
  14              		.syntax unified
  15              		.file	"BLE_1_ess.c"
  16              		.text
  17              	.Ltext0:
  18              		.cfi_sections	.debug_frame
  19              		.data
  20              		.align	2
  21              		.type	esssCharIdx0, %object
  22              		.size	esssCharIdx0, 20
  23              	esssCharIdx0:
  24 0000 1200     		.short	18
  25 0002 1300     		.short	19
  26 0004 0000     		.short	0
  27 0006 0000     		.short	0
  28 0008 0000     		.short	0
  29 000a 0000     		.short	0
  30 000c 0000     		.short	0
  31 000e 0000     		.short	0
  32 0010 0000     		.short	0
  33 0012 0000     		.short	0
  34              		.align	2
  35              		.type	esssCharIdx12, %object
  36              		.size	esssCharIdx12, 20
  37              	esssCharIdx12:
  38 0014 1500     		.short	21
  39 0016 0000     		.short	0
  40 0018 0000     		.short	0
  41 001a 1600     		.short	22
  42 001c 1700     		.short	23
  43 001e 0000     		.short	0
  44 0020 0000     		.short	0
  45 0022 0000     		.short	0
  46 0024 1800     		.short	24
  47 0026 1900     		.short	25
  48              		.global	cyBle_esssCharInstances
  49              		.align	2
  50              		.type	cyBle_esssCharInstances, %object
  51              		.size	cyBle_esssCharInstances, 21
  52              	cyBle_esssCharInstances:
  53 0028 01       		.byte	1
  54 0029 00       		.byte	0
  55 002a 00       		.byte	0
  56 002b 00       		.byte	0
  57 002c 00       		.byte	0
ARM GAS  C:\Users\megan\AppData\Local\Temp\ccmgjhBj.s 			page 2


  58 002d 00       		.byte	0
  59 002e 00       		.byte	0
  60 002f 00       		.byte	0
  61 0030 00       		.byte	0
  62 0031 00       		.byte	0
  63 0032 00       		.byte	0
  64 0033 00       		.byte	0
  65 0034 01       		.byte	1
  66 0035 00       		.byte	0
  67 0036 00       		.byte	0
  68 0037 00       		.byte	0
  69 0038 00       		.byte	0
  70 0039 00       		.byte	0
  71 003a 00       		.byte	0
  72 003b 00       		.byte	0
  73 003c 00       		.byte	0
  74              		.global	cyBle_esss
  75              		.section	.rodata
  76              		.align	2
  77              		.type	cyBle_esss, %object
  78              		.size	cyBle_esss, 88
  79              	cyBle_esss:
  80 0000 1000     		.short	16
  81 0002 0000     		.space	2
  82 0004 00000000 		.word	esssCharIdx0
  83 0008 00000000 		.word	0
  84 000c 00000000 		.word	0
  85 0010 00000000 		.word	0
  86 0014 00000000 		.word	0
  87 0018 00000000 		.word	0
  88 001c 00000000 		.word	0
  89 0020 00000000 		.word	0
  90 0024 00000000 		.word	0
  91 0028 00000000 		.word	0
  92 002c 00000000 		.word	0
  93 0030 00000000 		.word	0
  94 0034 14000000 		.word	esssCharIdx12
  95 0038 00000000 		.word	0
  96 003c 00000000 		.word	0
  97 0040 00000000 		.word	0
  98 0044 00000000 		.word	0
  99 0048 00000000 		.word	0
 100 004c 00000000 		.word	0
 101 0050 00000000 		.word	0
 102 0054 00000000 		.word	0
 103              		.bss
 104              		.align	1
 105              	cyBle_esssReqHandle:
 106 0000 0000     		.space	2
 107 0002 0000     		.align	2
 108              	CyBle_EssApplCallback:
 109 0004 00000000 		.space	4
 110              		.section	.text.CyBle_EssInit,"ax",%progbits
 111              		.align	2
 112              		.global	CyBle_EssInit
 113              		.code	16
 114              		.thumb_func
ARM GAS  C:\Users\megan\AppData\Local\Temp\ccmgjhBj.s 			page 3


 115              		.type	CyBle_EssInit, %function
 116              	CyBle_EssInit:
 117              	.LFB2:
 118              		.file 1 "Generated_Source\\PSoC4\\BLE_1_ess.c"
   1:Generated_Source\PSoC4/BLE_1_ess.c **** /***************************************************************************//**
   2:Generated_Source\PSoC4/BLE_1_ess.c **** * \file CYBLE_ess.c
   3:Generated_Source\PSoC4/BLE_1_ess.c **** * \version 3.30
   4:Generated_Source\PSoC4/BLE_1_ess.c **** * 
   5:Generated_Source\PSoC4/BLE_1_ess.c **** * \brief
   6:Generated_Source\PSoC4/BLE_1_ess.c **** *  Contains the source code for Environmental Sensing Service.
   7:Generated_Source\PSoC4/BLE_1_ess.c **** * 
   8:Generated_Source\PSoC4/BLE_1_ess.c **** ********************************************************************************
   9:Generated_Source\PSoC4/BLE_1_ess.c **** * \copyright
  10:Generated_Source\PSoC4/BLE_1_ess.c **** * Copyright 2014-2016, Cypress Semiconductor Corporation.  All rights reserved.
  11:Generated_Source\PSoC4/BLE_1_ess.c **** * You may use this file only in accordance with the license, terms, conditions,
  12:Generated_Source\PSoC4/BLE_1_ess.c **** * disclaimers, and limitations in the end user license agreement accompanying
  13:Generated_Source\PSoC4/BLE_1_ess.c **** * the software package with which this file was provided.
  14:Generated_Source\PSoC4/BLE_1_ess.c **** *******************************************************************************/
  15:Generated_Source\PSoC4/BLE_1_ess.c **** 
  16:Generated_Source\PSoC4/BLE_1_ess.c **** #include "BLE_1_eventHandler.h"
  17:Generated_Source\PSoC4/BLE_1_ess.c **** 
  18:Generated_Source\PSoC4/BLE_1_ess.c **** 
  19:Generated_Source\PSoC4/BLE_1_ess.c **** #ifdef CYBLE_ESS_SERVER
  20:Generated_Source\PSoC4/BLE_1_ess.c **** /* Generated code */
  21:Generated_Source\PSoC4/BLE_1_ess.c **** /* Descriptor Value Changed characteristic data */
  22:Generated_Source\PSoC4/BLE_1_ess.c **** static CYBLE_ESSS_CHAR_T esssCharIdx0[0x01u] = {
  23:Generated_Source\PSoC4/BLE_1_ess.c ****     {
  24:Generated_Source\PSoC4/BLE_1_ess.c ****         0x0012u, /* Handle of the Descriptor Value Changed characteristic */ 
  25:Generated_Source\PSoC4/BLE_1_ess.c ****         
  26:Generated_Source\PSoC4/BLE_1_ess.c ****             /* Array of Descriptors handles */
  27:Generated_Source\PSoC4/BLE_1_ess.c ****             {
  28:Generated_Source\PSoC4/BLE_1_ess.c ****                 0x0013u, /* Handle of the Client Characteristic Configuration descriptor */ 
  29:Generated_Source\PSoC4/BLE_1_ess.c ****                 CYBLE_GATT_INVALID_ATTR_HANDLE_VALUE, /* Handle of the Characteristic Extended Prop
  30:Generated_Source\PSoC4/BLE_1_ess.c ****                 CYBLE_GATT_INVALID_ATTR_HANDLE_VALUE, 
  31:Generated_Source\PSoC4/BLE_1_ess.c ****                 CYBLE_GATT_INVALID_ATTR_HANDLE_VALUE, 
  32:Generated_Source\PSoC4/BLE_1_ess.c ****                 CYBLE_GATT_INVALID_ATTR_HANDLE_VALUE, 
  33:Generated_Source\PSoC4/BLE_1_ess.c ****                 CYBLE_GATT_INVALID_ATTR_HANDLE_VALUE, 
  34:Generated_Source\PSoC4/BLE_1_ess.c ****                 CYBLE_GATT_INVALID_ATTR_HANDLE_VALUE, 
  35:Generated_Source\PSoC4/BLE_1_ess.c ****                 CYBLE_GATT_INVALID_ATTR_HANDLE_VALUE, 
  36:Generated_Source\PSoC4/BLE_1_ess.c ****                 CYBLE_GATT_INVALID_ATTR_HANDLE_VALUE, 
  37:Generated_Source\PSoC4/BLE_1_ess.c ****             }, 
  38:Generated_Source\PSoC4/BLE_1_ess.c ****     },
  39:Generated_Source\PSoC4/BLE_1_ess.c **** };
  40:Generated_Source\PSoC4/BLE_1_ess.c **** 
  41:Generated_Source\PSoC4/BLE_1_ess.c **** /* Temperature characteristic data */
  42:Generated_Source\PSoC4/BLE_1_ess.c **** static CYBLE_ESSS_CHAR_T esssCharIdx12[0x01u] = {
  43:Generated_Source\PSoC4/BLE_1_ess.c ****     {
  44:Generated_Source\PSoC4/BLE_1_ess.c ****         0x0015u, /* Handle of the Temperature characteristic */ 
  45:Generated_Source\PSoC4/BLE_1_ess.c ****         
  46:Generated_Source\PSoC4/BLE_1_ess.c ****             /* Array of Descriptors handles */
  47:Generated_Source\PSoC4/BLE_1_ess.c ****             {
  48:Generated_Source\PSoC4/BLE_1_ess.c ****                 CYBLE_GATT_INVALID_ATTR_HANDLE_VALUE, /* Handle of the Client Characteristic Config
  49:Generated_Source\PSoC4/BLE_1_ess.c ****                 CYBLE_GATT_INVALID_ATTR_HANDLE_VALUE, /* Handle of the Characteristic Extended Prop
  50:Generated_Source\PSoC4/BLE_1_ess.c ****                 0x0016u, /* Handle of the ES Measurement descriptor */ 
  51:Generated_Source\PSoC4/BLE_1_ess.c ****                 0x0017u, /* Handle of the ES Trigger Setting descriptor */ 
  52:Generated_Source\PSoC4/BLE_1_ess.c ****                 CYBLE_GATT_INVALID_ATTR_HANDLE_VALUE, /* Handle of the ES Trigger Setting 2 descrip
  53:Generated_Source\PSoC4/BLE_1_ess.c ****                 CYBLE_GATT_INVALID_ATTR_HANDLE_VALUE, /* Handle of the ES Trigger Setting 3 descrip
ARM GAS  C:\Users\megan\AppData\Local\Temp\ccmgjhBj.s 			page 4


  54:Generated_Source\PSoC4/BLE_1_ess.c ****                 CYBLE_GATT_INVALID_ATTR_HANDLE_VALUE, /* Handle of the ES Configuration descriptor 
  55:Generated_Source\PSoC4/BLE_1_ess.c ****                 0x0018u, /* Handle of the Characteristic User Description descriptor */ 
  56:Generated_Source\PSoC4/BLE_1_ess.c ****                 0x0019u, /* Handle of the Valid Range descriptor */ 
  57:Generated_Source\PSoC4/BLE_1_ess.c ****             }, 
  58:Generated_Source\PSoC4/BLE_1_ess.c ****     },
  59:Generated_Source\PSoC4/BLE_1_ess.c **** };
  60:Generated_Source\PSoC4/BLE_1_ess.c **** 
  61:Generated_Source\PSoC4/BLE_1_ess.c **** /* Number of ESS characteristics instances */
  62:Generated_Source\PSoC4/BLE_1_ess.c **** uint8 cyBle_esssCharInstances[0x15u] = {
  63:Generated_Source\PSoC4/BLE_1_ess.c ****     0x01u, 0x00u, 0x00u, 0x00u, 0x00u, 0x00u, 0x00u, 0x00u, 0x00u, 0x00u, 0x00u, 0x00u, 0x01u, 0x00
  64:Generated_Source\PSoC4/BLE_1_ess.c ****     0x00u, 0x00u, 0x00u, 0x00u, 0x00u
  65:Generated_Source\PSoC4/BLE_1_ess.c **** };
  66:Generated_Source\PSoC4/BLE_1_ess.c **** 
  67:Generated_Source\PSoC4/BLE_1_ess.c **** const CYBLE_ESSS_T cyBle_esss =
  68:Generated_Source\PSoC4/BLE_1_ess.c **** {
  69:Generated_Source\PSoC4/BLE_1_ess.c ****     0x0010u,    /* Handle of the ESS service */
  70:Generated_Source\PSoC4/BLE_1_ess.c ****     {
  71:Generated_Source\PSoC4/BLE_1_ess.c ****         {
  72:Generated_Source\PSoC4/BLE_1_ess.c ****             &esssCharIdx0[0], /* Handle of the Descriptor Value Changed characteristic */ 
  73:Generated_Source\PSoC4/BLE_1_ess.c ****         }, 
  74:Generated_Source\PSoC4/BLE_1_ess.c ****         {
  75:Generated_Source\PSoC4/BLE_1_ess.c ****             NULL, /* Handle of the Apparent Wind Direction characteristic */ 
  76:Generated_Source\PSoC4/BLE_1_ess.c ****         }, 
  77:Generated_Source\PSoC4/BLE_1_ess.c ****         {
  78:Generated_Source\PSoC4/BLE_1_ess.c ****             NULL, /* Handle of the Apparent Wind Speed characteristic */ 
  79:Generated_Source\PSoC4/BLE_1_ess.c ****         }, 
  80:Generated_Source\PSoC4/BLE_1_ess.c ****         {
  81:Generated_Source\PSoC4/BLE_1_ess.c ****             NULL, /* Handle of the Dew Point characteristic */ 
  82:Generated_Source\PSoC4/BLE_1_ess.c ****         }, 
  83:Generated_Source\PSoC4/BLE_1_ess.c ****         {
  84:Generated_Source\PSoC4/BLE_1_ess.c ****             NULL, /* Handle of the Elevation characteristic */ 
  85:Generated_Source\PSoC4/BLE_1_ess.c ****         }, 
  86:Generated_Source\PSoC4/BLE_1_ess.c ****         {
  87:Generated_Source\PSoC4/BLE_1_ess.c ****             NULL, /* Handle of the Gust Factor characteristic */ 
  88:Generated_Source\PSoC4/BLE_1_ess.c ****         }, 
  89:Generated_Source\PSoC4/BLE_1_ess.c ****         {
  90:Generated_Source\PSoC4/BLE_1_ess.c ****             NULL, /* Handle of the Heat Index characteristic */ 
  91:Generated_Source\PSoC4/BLE_1_ess.c ****         }, 
  92:Generated_Source\PSoC4/BLE_1_ess.c ****         {
  93:Generated_Source\PSoC4/BLE_1_ess.c ****             NULL, /* Handle of the Humidity characteristic */ 
  94:Generated_Source\PSoC4/BLE_1_ess.c ****         }, 
  95:Generated_Source\PSoC4/BLE_1_ess.c ****         {
  96:Generated_Source\PSoC4/BLE_1_ess.c ****             NULL, /* Handle of the Irradiance characteristic */ 
  97:Generated_Source\PSoC4/BLE_1_ess.c ****         }, 
  98:Generated_Source\PSoC4/BLE_1_ess.c ****         {
  99:Generated_Source\PSoC4/BLE_1_ess.c ****             NULL, /* Handle of the Pollen Concentration characteristic */ 
 100:Generated_Source\PSoC4/BLE_1_ess.c ****         }, 
 101:Generated_Source\PSoC4/BLE_1_ess.c ****         {
 102:Generated_Source\PSoC4/BLE_1_ess.c ****             NULL, /* Handle of the Rainfall characteristic */ 
 103:Generated_Source\PSoC4/BLE_1_ess.c ****         }, 
 104:Generated_Source\PSoC4/BLE_1_ess.c ****         {
 105:Generated_Source\PSoC4/BLE_1_ess.c ****             NULL, /* Handle of the Pressure characteristic */ 
 106:Generated_Source\PSoC4/BLE_1_ess.c ****         }, 
 107:Generated_Source\PSoC4/BLE_1_ess.c ****         {
 108:Generated_Source\PSoC4/BLE_1_ess.c ****             &esssCharIdx12[0], /* Handle of the Temperature characteristic */ 
 109:Generated_Source\PSoC4/BLE_1_ess.c ****         }, 
 110:Generated_Source\PSoC4/BLE_1_ess.c ****         {
ARM GAS  C:\Users\megan\AppData\Local\Temp\ccmgjhBj.s 			page 5


 111:Generated_Source\PSoC4/BLE_1_ess.c ****             NULL, /* Handle of the True Wind Direction characteristic */ 
 112:Generated_Source\PSoC4/BLE_1_ess.c ****         }, 
 113:Generated_Source\PSoC4/BLE_1_ess.c ****         {
 114:Generated_Source\PSoC4/BLE_1_ess.c ****             NULL, /* Handle of the True Wind Speed characteristic */ 
 115:Generated_Source\PSoC4/BLE_1_ess.c ****         }, 
 116:Generated_Source\PSoC4/BLE_1_ess.c ****         {
 117:Generated_Source\PSoC4/BLE_1_ess.c ****             NULL, /* Handle of the UV Index characteristic */ 
 118:Generated_Source\PSoC4/BLE_1_ess.c ****         }, 
 119:Generated_Source\PSoC4/BLE_1_ess.c ****         {
 120:Generated_Source\PSoC4/BLE_1_ess.c ****             NULL, /* Handle of the Wind Chill characteristic */ 
 121:Generated_Source\PSoC4/BLE_1_ess.c ****         }, 
 122:Generated_Source\PSoC4/BLE_1_ess.c ****         {
 123:Generated_Source\PSoC4/BLE_1_ess.c ****             NULL, /* Handle of the Barometric Pressure Trend characteristic */ 
 124:Generated_Source\PSoC4/BLE_1_ess.c ****         }, 
 125:Generated_Source\PSoC4/BLE_1_ess.c ****         {
 126:Generated_Source\PSoC4/BLE_1_ess.c ****             NULL, /* Handle of the Magnetic Declination characteristic */ 
 127:Generated_Source\PSoC4/BLE_1_ess.c ****         }, 
 128:Generated_Source\PSoC4/BLE_1_ess.c ****         {
 129:Generated_Source\PSoC4/BLE_1_ess.c ****             NULL, /* Handle of the Magnetic Flux Density - 2D characteristic */ 
 130:Generated_Source\PSoC4/BLE_1_ess.c ****         }, 
 131:Generated_Source\PSoC4/BLE_1_ess.c ****         {
 132:Generated_Source\PSoC4/BLE_1_ess.c ****             NULL, /* Handle of the Magnetic Flux Density - 3D characteristic */ 
 133:Generated_Source\PSoC4/BLE_1_ess.c ****         }, 
 134:Generated_Source\PSoC4/BLE_1_ess.c ****     },
 135:Generated_Source\PSoC4/BLE_1_ess.c **** };
 136:Generated_Source\PSoC4/BLE_1_ess.c **** 
 137:Generated_Source\PSoC4/BLE_1_ess.c **** /* End of generated code */
 138:Generated_Source\PSoC4/BLE_1_ess.c **** 
 139:Generated_Source\PSoC4/BLE_1_ess.c **** static CYBLE_GATT_DB_ATTR_HANDLE_T cyBle_esssReqHandle;
 140:Generated_Source\PSoC4/BLE_1_ess.c **** #endif /* CYBLE_ESS_SERVER */
 141:Generated_Source\PSoC4/BLE_1_ess.c **** 
 142:Generated_Source\PSoC4/BLE_1_ess.c **** #ifdef CYBLE_ESS_CLIENT
 143:Generated_Source\PSoC4/BLE_1_ess.c **** /* Generated code */
 144:Generated_Source\PSoC4/BLE_1_ess.c **** 
 145:Generated_Source\PSoC4/BLE_1_ess.c **** /* End of generated code */
 146:Generated_Source\PSoC4/BLE_1_ess.c **** 
 147:Generated_Source\PSoC4/BLE_1_ess.c **** static CYBLE_GATT_DB_ATTR_HANDLE_T cyBle_esscReqHandle;
 148:Generated_Source\PSoC4/BLE_1_ess.c **** 
 149:Generated_Source\PSoC4/BLE_1_ess.c **** /* Read Long Descriptors variables */
 150:Generated_Source\PSoC4/BLE_1_ess.c **** static uint8 * cyBle_esscRdLongBuffPtr = NULL;
 151:Generated_Source\PSoC4/BLE_1_ess.c **** static uint8 cyBle_esscRdLongBuffLen = 0u;
 152:Generated_Source\PSoC4/BLE_1_ess.c **** static uint8 cyBle_esscCurrLen = 0u;
 153:Generated_Source\PSoC4/BLE_1_ess.c **** 
 154:Generated_Source\PSoC4/BLE_1_ess.c **** uint8 cyBle_esscActiveCharIndex = 0u;
 155:Generated_Source\PSoC4/BLE_1_ess.c **** uint8 cyBle_esscActiveCharInstance = 0u;
 156:Generated_Source\PSoC4/BLE_1_ess.c **** uint8 cyBle_esscPrevCharInstIndex;
 157:Generated_Source\PSoC4/BLE_1_ess.c **** 
 158:Generated_Source\PSoC4/BLE_1_ess.c **** #endif /* (CYBLE_ESS_CLIENT) */
 159:Generated_Source\PSoC4/BLE_1_ess.c **** 
 160:Generated_Source\PSoC4/BLE_1_ess.c **** static CYBLE_CALLBACK_T CyBle_EssApplCallback = NULL;
 161:Generated_Source\PSoC4/BLE_1_ess.c **** 
 162:Generated_Source\PSoC4/BLE_1_ess.c **** 
 163:Generated_Source\PSoC4/BLE_1_ess.c **** /******************************************************************************
 164:Generated_Source\PSoC4/BLE_1_ess.c **** * Function Name: CyBle_EssInit
 165:Generated_Source\PSoC4/BLE_1_ess.c **** ***************************************************************************//**
 166:Generated_Source\PSoC4/BLE_1_ess.c **** * 
 167:Generated_Source\PSoC4/BLE_1_ess.c **** *  This function initializes the Environmental Sensing Service.
ARM GAS  C:\Users\megan\AppData\Local\Temp\ccmgjhBj.s 			page 6


 168:Generated_Source\PSoC4/BLE_1_ess.c **** * 
 169:Generated_Source\PSoC4/BLE_1_ess.c **** ******************************************************************************/
 170:Generated_Source\PSoC4/BLE_1_ess.c **** void CyBle_EssInit(void)
 171:Generated_Source\PSoC4/BLE_1_ess.c **** {
 119              		.loc 1 171 0
 120              		.cfi_startproc
 121              		@ args = 0, pretend = 0, frame = 0
 122              		@ frame_needed = 1, uses_anonymous_args = 0
 123 0000 80B5     		push	{r7, lr}
 124              		.cfi_def_cfa_offset 8
 125              		.cfi_offset 7, -8
 126              		.cfi_offset 14, -4
 127 0002 00AF     		add	r7, sp, #0
 128              		.cfi_def_cfa_register 7
 172:Generated_Source\PSoC4/BLE_1_ess.c **** #ifdef CYBLE_ESS_SERVER
 173:Generated_Source\PSoC4/BLE_1_ess.c **** 
 174:Generated_Source\PSoC4/BLE_1_ess.c ****     cyBle_esssReqHandle = CYBLE_GATT_INVALID_ATTR_HANDLE_VALUE;
 129              		.loc 1 174 0
 130 0004 024B     		ldr	r3, .L2
 131 0006 0022     		movs	r2, #0
 132 0008 1A80     		strh	r2, [r3]
 175:Generated_Source\PSoC4/BLE_1_ess.c **** 
 176:Generated_Source\PSoC4/BLE_1_ess.c **** #endif /* CYBLE_ESS_SERVER */
 177:Generated_Source\PSoC4/BLE_1_ess.c **** 
 178:Generated_Source\PSoC4/BLE_1_ess.c **** #ifdef CYBLE_ESS_CLIENT
 179:Generated_Source\PSoC4/BLE_1_ess.c **** 
 180:Generated_Source\PSoC4/BLE_1_ess.c ****     cyBle_esscActiveCharIndex = 0u;
 181:Generated_Source\PSoC4/BLE_1_ess.c ****     cyBle_esscActiveCharInstance = 0u;
 182:Generated_Source\PSoC4/BLE_1_ess.c ****     cyBle_esscPrevCharInstIndex = 0u;
 183:Generated_Source\PSoC4/BLE_1_ess.c **** 
 184:Generated_Source\PSoC4/BLE_1_ess.c ****     cyBle_esscRdLongBuffPtr = NULL;
 185:Generated_Source\PSoC4/BLE_1_ess.c ****     cyBle_esscRdLongBuffLen = 0u;
 186:Generated_Source\PSoC4/BLE_1_ess.c ****     cyBle_esscCurrLen = 0u;
 187:Generated_Source\PSoC4/BLE_1_ess.c **** 
 188:Generated_Source\PSoC4/BLE_1_ess.c ****     CyBle_EssClearClientDiscInfo();
 189:Generated_Source\PSoC4/BLE_1_ess.c **** 
 190:Generated_Source\PSoC4/BLE_1_ess.c ****     cyBle_esscReqHandle = CYBLE_GATT_INVALID_ATTR_HANDLE_VALUE;
 191:Generated_Source\PSoC4/BLE_1_ess.c **** 
 192:Generated_Source\PSoC4/BLE_1_ess.c **** #endif /* CYBLE_ESS_CLIENT */
 193:Generated_Source\PSoC4/BLE_1_ess.c **** }
 133              		.loc 1 193 0
 134 000a C046     		nop
 135 000c BD46     		mov	sp, r7
 136              		@ sp needed
 137 000e 80BD     		pop	{r7, pc}
 138              	.L3:
 139              		.align	2
 140              	.L2:
 141 0010 00000000 		.word	cyBle_esssReqHandle
 142              		.cfi_endproc
 143              	.LFE2:
 144              		.size	CyBle_EssInit, .-CyBle_EssInit
 145              		.section	.text.CyBle_EssRegisterAttrCallback,"ax",%progbits
 146              		.align	2
 147              		.global	CyBle_EssRegisterAttrCallback
 148              		.code	16
 149              		.thumb_func
ARM GAS  C:\Users\megan\AppData\Local\Temp\ccmgjhBj.s 			page 7


 150              		.type	CyBle_EssRegisterAttrCallback, %function
 151              	CyBle_EssRegisterAttrCallback:
 152              	.LFB3:
 194:Generated_Source\PSoC4/BLE_1_ess.c **** 
 195:Generated_Source\PSoC4/BLE_1_ess.c **** 
 196:Generated_Source\PSoC4/BLE_1_ess.c **** /******************************************************************************
 197:Generated_Source\PSoC4/BLE_1_ess.c **** * Function Name: CyBle_EssRegisterAttrCallback
 198:Generated_Source\PSoC4/BLE_1_ess.c **** ***************************************************************************//**
 199:Generated_Source\PSoC4/BLE_1_ess.c **** * 
 200:Generated_Source\PSoC4/BLE_1_ess.c **** *  Registers a callback function for service specific attribute operations.
 201:Generated_Source\PSoC4/BLE_1_ess.c **** *  Service specific write requests from peer device will not be handled with
 202:Generated_Source\PSoC4/BLE_1_ess.c **** *  unregistered callback function.
 203:Generated_Source\PSoC4/BLE_1_ess.c **** * 
 204:Generated_Source\PSoC4/BLE_1_ess.c **** *  \param callbackFunc:  An application layer event callback function to receive
 205:Generated_Source\PSoC4/BLE_1_ess.c **** *                 events from the BLE Component. The definition of
 206:Generated_Source\PSoC4/BLE_1_ess.c **** *                 CYBLE_CALLBACK_T for ESS Service is:\n
 207:Generated_Source\PSoC4/BLE_1_ess.c **** *                 typedef void (* CYBLE_CALLBACK_T) (uint32 eventCode,
 208:Generated_Source\PSoC4/BLE_1_ess.c **** *                                                    void *eventParam)
 209:Generated_Source\PSoC4/BLE_1_ess.c **** *                 * eventCode:  Indicates the event that triggered this callback
 210:Generated_Source\PSoC4/BLE_1_ess.c **** *                   (e.g. CYBLE_EVT_ESSS_NOTIFICATION_ENABLED).
 211:Generated_Source\PSoC4/BLE_1_ess.c **** *                 * eventParam: Contains the parameters corresponding to the
 212:Generated_Source\PSoC4/BLE_1_ess.c **** *                   current event. (e.g. Pointer to CYBLE_ESS_CHAR_VALUE_T
 213:Generated_Source\PSoC4/BLE_1_ess.c **** *                   structure that contains details of the characteristic
 214:Generated_Source\PSoC4/BLE_1_ess.c **** *                   for which the notification enabled event was triggered).
 215:Generated_Source\PSoC4/BLE_1_ess.c **** * 
 216:Generated_Source\PSoC4/BLE_1_ess.c **** ******************************************************************************/
 217:Generated_Source\PSoC4/BLE_1_ess.c **** void CyBle_EssRegisterAttrCallback(CYBLE_CALLBACK_T callbackFunc)
 218:Generated_Source\PSoC4/BLE_1_ess.c **** {
 153              		.loc 1 218 0
 154              		.cfi_startproc
 155              		@ args = 0, pretend = 0, frame = 8
 156              		@ frame_needed = 1, uses_anonymous_args = 0
 157 0000 80B5     		push	{r7, lr}
 158              		.cfi_def_cfa_offset 8
 159              		.cfi_offset 7, -8
 160              		.cfi_offset 14, -4
 161 0002 82B0     		sub	sp, sp, #8
 162              		.cfi_def_cfa_offset 16
 163 0004 00AF     		add	r7, sp, #0
 164              		.cfi_def_cfa_register 7
 165 0006 7860     		str	r0, [r7, #4]
 219:Generated_Source\PSoC4/BLE_1_ess.c ****     CyBle_EssApplCallback = callbackFunc;
 166              		.loc 1 219 0
 167 0008 034B     		ldr	r3, .L5
 168 000a 7A68     		ldr	r2, [r7, #4]
 169 000c 1A60     		str	r2, [r3]
 220:Generated_Source\PSoC4/BLE_1_ess.c **** }
 170              		.loc 1 220 0
 171 000e C046     		nop
 172 0010 BD46     		mov	sp, r7
 173 0012 02B0     		add	sp, sp, #8
 174              		@ sp needed
 175 0014 80BD     		pop	{r7, pc}
 176              	.L6:
 177 0016 C046     		.align	2
 178              	.L5:
 179 0018 04000000 		.word	CyBle_EssApplCallback
ARM GAS  C:\Users\megan\AppData\Local\Temp\ccmgjhBj.s 			page 8


 180              		.cfi_endproc
 181              	.LFE3:
 182              		.size	CyBle_EssRegisterAttrCallback, .-CyBle_EssRegisterAttrCallback
 183              		.section	.text.CyBle_EssGet24ByPtr,"ax",%progbits
 184              		.align	2
 185              		.global	CyBle_EssGet24ByPtr
 186              		.code	16
 187              		.thumb_func
 188              		.type	CyBle_EssGet24ByPtr, %function
 189              	CyBle_EssGet24ByPtr:
 190              	.LFB4:
 221:Generated_Source\PSoC4/BLE_1_ess.c **** 
 222:Generated_Source\PSoC4/BLE_1_ess.c **** 
 223:Generated_Source\PSoC4/BLE_1_ess.c **** #ifdef CYBLE_ESS_SERVER
 224:Generated_Source\PSoC4/BLE_1_ess.c **** 
 225:Generated_Source\PSoC4/BLE_1_ess.c **** /******************************************************************************
 226:Generated_Source\PSoC4/BLE_1_ess.c **** * Function Name: CyBle_EssGet24ByPtr
 227:Generated_Source\PSoC4/BLE_1_ess.c **** ***************************************************************************//**
 228:Generated_Source\PSoC4/BLE_1_ess.c **** * 
 229:Generated_Source\PSoC4/BLE_1_ess.c **** *  Returns a three-bytes value by using a pointer to the LSB. The value is
 230:Generated_Source\PSoC4/BLE_1_ess.c **** *  returned as uint32.
 231:Generated_Source\PSoC4/BLE_1_ess.c **** * 
 232:Generated_Source\PSoC4/BLE_1_ess.c **** *  \param ptr: The pointer to the LSB of three-byte data (little-endian).
 233:Generated_Source\PSoC4/BLE_1_ess.c **** * 
 234:Generated_Source\PSoC4/BLE_1_ess.c **** * \return
 235:Generated_Source\PSoC4/BLE_1_ess.c **** *  uint32 value: Three-byte data.
 236:Generated_Source\PSoC4/BLE_1_ess.c **** * 
 237:Generated_Source\PSoC4/BLE_1_ess.c **** ******************************************************************************/
 238:Generated_Source\PSoC4/BLE_1_ess.c **** uint32 CyBle_EssGet24ByPtr(const uint8 ptr[])
 239:Generated_Source\PSoC4/BLE_1_ess.c **** {
 191              		.loc 1 239 0
 192              		.cfi_startproc
 193              		@ args = 0, pretend = 0, frame = 8
 194              		@ frame_needed = 1, uses_anonymous_args = 0
 195 0000 80B5     		push	{r7, lr}
 196              		.cfi_def_cfa_offset 8
 197              		.cfi_offset 7, -8
 198              		.cfi_offset 14, -4
 199 0002 82B0     		sub	sp, sp, #8
 200              		.cfi_def_cfa_offset 16
 201 0004 00AF     		add	r7, sp, #0
 202              		.cfi_def_cfa_register 7
 203 0006 7860     		str	r0, [r7, #4]
 240:Generated_Source\PSoC4/BLE_1_ess.c ****     return (((uint32) ptr[0u]) | ((uint32)(((uint32) ptr[1u]) << 8u)) | ((uint32)((uint32) ptr[2u])
 204              		.loc 1 240 0
 205 0008 7B68     		ldr	r3, [r7, #4]
 206 000a 1B78     		ldrb	r3, [r3]
 207 000c 1A00     		movs	r2, r3
 208 000e 7B68     		ldr	r3, [r7, #4]
 209 0010 0133     		adds	r3, r3, #1
 210 0012 1B78     		ldrb	r3, [r3]
 211 0014 1B02     		lsls	r3, r3, #8
 212 0016 1A43     		orrs	r2, r3
 213 0018 7B68     		ldr	r3, [r7, #4]
 214 001a 0233     		adds	r3, r3, #2
 215 001c 1B78     		ldrb	r3, [r3]
 216 001e 1B04     		lsls	r3, r3, #16
ARM GAS  C:\Users\megan\AppData\Local\Temp\ccmgjhBj.s 			page 9


 217 0020 1343     		orrs	r3, r2
 241:Generated_Source\PSoC4/BLE_1_ess.c **** }
 218              		.loc 1 241 0
 219 0022 1800     		movs	r0, r3
 220 0024 BD46     		mov	sp, r7
 221 0026 02B0     		add	sp, sp, #8
 222              		@ sp needed
 223 0028 80BD     		pop	{r7, pc}
 224              		.cfi_endproc
 225              	.LFE4:
 226              		.size	CyBle_EssGet24ByPtr, .-CyBle_EssGet24ByPtr
 227 002a C046     		.section	.text.CyBle_EssGet32ByPtr,"ax",%progbits
 228              		.align	2
 229              		.global	CyBle_EssGet32ByPtr
 230              		.code	16
 231              		.thumb_func
 232              		.type	CyBle_EssGet32ByPtr, %function
 233              	CyBle_EssGet32ByPtr:
 234              	.LFB5:
 242:Generated_Source\PSoC4/BLE_1_ess.c **** 
 243:Generated_Source\PSoC4/BLE_1_ess.c **** 
 244:Generated_Source\PSoC4/BLE_1_ess.c **** /******************************************************************************
 245:Generated_Source\PSoC4/BLE_1_ess.c **** * Function Name: CyBle_EssGet32ByPtr
 246:Generated_Source\PSoC4/BLE_1_ess.c **** ***************************************************************************//**
 247:Generated_Source\PSoC4/BLE_1_ess.c **** * 
 248:Generated_Source\PSoC4/BLE_1_ess.c **** *  Returns a four-byte value by using a pointer to the LSB.
 249:Generated_Source\PSoC4/BLE_1_ess.c **** * 
 250:Generated_Source\PSoC4/BLE_1_ess.c **** *  \param ptr: The pointer to the LSB of four-byte data (little-endian).
 251:Generated_Source\PSoC4/BLE_1_ess.c **** * 
 252:Generated_Source\PSoC4/BLE_1_ess.c **** * \return
 253:Generated_Source\PSoC4/BLE_1_ess.c **** *  uint32 value: Four-byte data.
 254:Generated_Source\PSoC4/BLE_1_ess.c **** * 
 255:Generated_Source\PSoC4/BLE_1_ess.c **** ******************************************************************************/
 256:Generated_Source\PSoC4/BLE_1_ess.c **** uint32 CyBle_EssGet32ByPtr(const uint8 ptr[])
 257:Generated_Source\PSoC4/BLE_1_ess.c **** {
 235              		.loc 1 257 0
 236              		.cfi_startproc
 237              		@ args = 0, pretend = 0, frame = 8
 238              		@ frame_needed = 1, uses_anonymous_args = 0
 239 0000 80B5     		push	{r7, lr}
 240              		.cfi_def_cfa_offset 8
 241              		.cfi_offset 7, -8
 242              		.cfi_offset 14, -4
 243 0002 82B0     		sub	sp, sp, #8
 244              		.cfi_def_cfa_offset 16
 245 0004 00AF     		add	r7, sp, #0
 246              		.cfi_def_cfa_register 7
 247 0006 7860     		str	r0, [r7, #4]
 258:Generated_Source\PSoC4/BLE_1_ess.c ****     return (((uint32) ptr[0u]) | ((uint32) (((uint32) ptr[1u]) << 8u)) | ((uint32)((uint32) ptr[2u]
 248              		.loc 1 258 0
 249 0008 7B68     		ldr	r3, [r7, #4]
 250 000a 1B78     		ldrb	r3, [r3]
 251 000c 1A00     		movs	r2, r3
 252 000e 7B68     		ldr	r3, [r7, #4]
 253 0010 0133     		adds	r3, r3, #1
 254 0012 1B78     		ldrb	r3, [r3]
 255 0014 1B02     		lsls	r3, r3, #8
ARM GAS  C:\Users\megan\AppData\Local\Temp\ccmgjhBj.s 			page 10


 256 0016 1A43     		orrs	r2, r3
 257 0018 7B68     		ldr	r3, [r7, #4]
 258 001a 0233     		adds	r3, r3, #2
 259 001c 1B78     		ldrb	r3, [r3]
 260 001e 1B04     		lsls	r3, r3, #16
 261 0020 1A43     		orrs	r2, r3
 259:Generated_Source\PSoC4/BLE_1_ess.c ****         ((uint32)((uint32) ptr[3u]) << 24u));
 262              		.loc 1 259 0
 263 0022 7B68     		ldr	r3, [r7, #4]
 264 0024 0333     		adds	r3, r3, #3
 265 0026 1B78     		ldrb	r3, [r3]
 266 0028 1B06     		lsls	r3, r3, #24
 258:Generated_Source\PSoC4/BLE_1_ess.c ****     return (((uint32) ptr[0u]) | ((uint32) (((uint32) ptr[1u]) << 8u)) | ((uint32)((uint32) ptr[2u]
 267              		.loc 1 258 0
 268 002a 1343     		orrs	r3, r2
 260:Generated_Source\PSoC4/BLE_1_ess.c **** }
 269              		.loc 1 260 0
 270 002c 1800     		movs	r0, r3
 271 002e BD46     		mov	sp, r7
 272 0030 02B0     		add	sp, sp, #8
 273              		@ sp needed
 274 0032 80BD     		pop	{r7, pc}
 275              		.cfi_endproc
 276              	.LFE5:
 277              		.size	CyBle_EssGet32ByPtr, .-CyBle_EssGet32ByPtr
 278              		.section	.text.CyBle_EsssCheckIfInRange,"ax",%progbits
 279              		.align	2
 280              		.global	CyBle_EsssCheckIfInRange
 281              		.code	16
 282              		.thumb_func
 283              		.type	CyBle_EsssCheckIfInRange, %function
 284              	CyBle_EsssCheckIfInRange:
 285              	.LFB6:
 261:Generated_Source\PSoC4/BLE_1_ess.c **** 
 262:Generated_Source\PSoC4/BLE_1_ess.c **** 
 263:Generated_Source\PSoC4/BLE_1_ess.c **** /******************************************************************************
 264:Generated_Source\PSoC4/BLE_1_ess.c **** * Function Name: CyBle_EsssCheckIfInRange
 265:Generated_Source\PSoC4/BLE_1_ess.c **** ***************************************************************************//**
 266:Generated_Source\PSoC4/BLE_1_ess.c **** * 
 267:Generated_Source\PSoC4/BLE_1_ess.c **** *  Checks if the "value" is in the range of "min" and "max". As the ESS
 268:Generated_Source\PSoC4/BLE_1_ess.c **** *  characteristics operate with signed or unsigned value types and the value in
 269:Generated_Source\PSoC4/BLE_1_ess.c **** *  the GATT database are stored in unsigned variables. Need to clearly identify
 270:Generated_Source\PSoC4/BLE_1_ess.c **** *  the signedness of each "value", "min" and "max". After that the values can
 271:Generated_Source\PSoC4/BLE_1_ess.c **** *  be properly compared. The signedness of each parameter is encoded in "state"
 272:Generated_Source\PSoC4/BLE_1_ess.c **** *  and has the following meaning:
 273:Generated_Source\PSoC4/BLE_1_ess.c **** *     State 0: All three are positive (all three are of unsigned type)
 274:Generated_Source\PSoC4/BLE_1_ess.c **** *     State 1: Min - positive, Max - positive, Value - negative
 275:Generated_Source\PSoC4/BLE_1_ess.c **** *     State 2: Min - positive, Max - negative, Value - positive
 276:Generated_Source\PSoC4/BLE_1_ess.c **** *     State 3: Min - positive, Max - negative, Value - negative
 277:Generated_Source\PSoC4/BLE_1_ess.c **** *     State 4: Min - negative, Max - positive, Value - positive
 278:Generated_Source\PSoC4/BLE_1_ess.c **** *     State 5: Min - negative, Max - positive, Value - negative
 279:Generated_Source\PSoC4/BLE_1_ess.c **** *     State 6: Min - negative, Max - negative, Value - positive
 280:Generated_Source\PSoC4/BLE_1_ess.c **** *     State 7: All three are negative
 281:Generated_Source\PSoC4/BLE_1_ess.c **** * 
 282:Generated_Source\PSoC4/BLE_1_ess.c **** *  min - Minimum inclusive limit.
 283:Generated_Source\PSoC4/BLE_1_ess.c **** *  max - Minimum inclusive limit.
 284:Generated_Source\PSoC4/BLE_1_ess.c **** *  value - The value to be checked if it is in the range.
ARM GAS  C:\Users\megan\AppData\Local\Temp\ccmgjhBj.s 			page 11


 285:Generated_Source\PSoC4/BLE_1_ess.c **** *  state - The state as shown above.
 286:Generated_Source\PSoC4/BLE_1_ess.c **** * 
 287:Generated_Source\PSoC4/BLE_1_ess.c **** * \return
 288:Generated_Source\PSoC4/BLE_1_ess.c **** *  A return value is of type CYBLE_GATT_ERR_CODE_T.
 289:Generated_Source\PSoC4/BLE_1_ess.c **** *   * CYBLE_GATT_ERR_NONE - "value" is in the range.
 290:Generated_Source\PSoC4/BLE_1_ess.c **** *   * CYBLE_GATT_ERR_OUT_OF_RANGE - "value" is not in the range.
 291:Generated_Source\PSoC4/BLE_1_ess.c **** * 
 292:Generated_Source\PSoC4/BLE_1_ess.c **** ******************************************************************************/
 293:Generated_Source\PSoC4/BLE_1_ess.c **** CYBLE_GATT_ERR_CODE_T CyBle_EsssCheckIfInRange(uint32 min, uint32 max, uint32 value, uint8 state)
 294:Generated_Source\PSoC4/BLE_1_ess.c **** {
 286              		.loc 1 294 0
 287              		.cfi_startproc
 288              		@ args = 0, pretend = 0, frame = 24
 289              		@ frame_needed = 1, uses_anonymous_args = 0
 290 0000 80B5     		push	{r7, lr}
 291              		.cfi_def_cfa_offset 8
 292              		.cfi_offset 7, -8
 293              		.cfi_offset 14, -4
 294 0002 86B0     		sub	sp, sp, #24
 295              		.cfi_def_cfa_offset 32
 296 0004 00AF     		add	r7, sp, #0
 297              		.cfi_def_cfa_register 7
 298 0006 F860     		str	r0, [r7, #12]
 299 0008 B960     		str	r1, [r7, #8]
 300 000a 7A60     		str	r2, [r7, #4]
 301 000c 1A00     		movs	r2, r3
 302 000e FB1C     		adds	r3, r7, #3
 303 0010 1A70     		strb	r2, [r3]
 295:Generated_Source\PSoC4/BLE_1_ess.c ****     CYBLE_GATT_ERR_CODE_T gattErr = CYBLE_GATT_ERR_NONE;
 304              		.loc 1 295 0
 305 0012 1723     		movs	r3, #23
 306 0014 FB18     		adds	r3, r7, r3
 307 0016 0022     		movs	r2, #0
 308 0018 1A70     		strb	r2, [r3]
 296:Generated_Source\PSoC4/BLE_1_ess.c **** 
 297:Generated_Source\PSoC4/BLE_1_ess.c ****     switch(state)
 309              		.loc 1 297 0
 310 001a FB1C     		adds	r3, r7, #3
 311 001c 1B78     		ldrb	r3, [r3]
 312 001e 072B     		cmp	r3, #7
 313 0020 35D8     		bhi	.L12
 314 0022 9A00     		lsls	r2, r3, #2
 315 0024 234B     		ldr	r3, .L31
 316 0026 D318     		adds	r3, r2, r3
 317 0028 1B68     		ldr	r3, [r3]
 318 002a 9F46     		mov	pc, r3
 319              		.section	.rodata
 320              		.align	2
 321              	.L14:
 322 0058 2C000000 		.word	.L13
 323 005c 46000000 		.word	.L15
 324 0060 8E000000 		.word	.L12
 325 0064 8E000000 		.word	.L12
 326 0068 50000000 		.word	.L16
 327 006c 62000000 		.word	.L17
 328 0070 46000000 		.word	.L15
 329 0074 74000000 		.word	.L18
ARM GAS  C:\Users\megan\AppData\Local\Temp\ccmgjhBj.s 			page 12


 330              		.section	.text.CyBle_EsssCheckIfInRange
 331              	.L13:
 298:Generated_Source\PSoC4/BLE_1_ess.c ****     {
 299:Generated_Source\PSoC4/BLE_1_ess.c ****         /* All values are positive */
 300:Generated_Source\PSoC4/BLE_1_ess.c ****         case CYBLE_ESS_STATE_0:
 301:Generated_Source\PSoC4/BLE_1_ess.c ****             if((min > value) || (max < value))
 332              		.loc 1 301 0
 333 002c FA68     		ldr	r2, [r7, #12]
 334 002e 7B68     		ldr	r3, [r7, #4]
 335 0030 9A42     		cmp	r2, r3
 336 0032 03D8     		bhi	.L19
 337              		.loc 1 301 0 is_stmt 0 discriminator 1
 338 0034 BA68     		ldr	r2, [r7, #8]
 339 0036 7B68     		ldr	r3, [r7, #4]
 340 0038 9A42     		cmp	r2, r3
 341 003a 2DD2     		bcs	.L27
 342              	.L19:
 302:Generated_Source\PSoC4/BLE_1_ess.c ****             {
 303:Generated_Source\PSoC4/BLE_1_ess.c ****                 gattErr = CYBLE_GATT_ERR_OUT_OF_RANGE;
 343              		.loc 1 303 0 is_stmt 1
 344 003c 1723     		movs	r3, #23
 345 003e FB18     		adds	r3, r7, r3
 346 0040 FF22     		movs	r2, #255
 347 0042 1A70     		strb	r2, [r3]
 304:Generated_Source\PSoC4/BLE_1_ess.c ****             }
 305:Generated_Source\PSoC4/BLE_1_ess.c ****             break;
 348              		.loc 1 305 0
 349 0044 28E0     		b	.L27
 350              	.L15:
 306:Generated_Source\PSoC4/BLE_1_ess.c **** 
 307:Generated_Source\PSoC4/BLE_1_ess.c ****         /* "Not in range" cases. Min and Max are negative and value is positive or
 308:Generated_Source\PSoC4/BLE_1_ess.c ****         * vice versa.
 309:Generated_Source\PSoC4/BLE_1_ess.c ****         */
 310:Generated_Source\PSoC4/BLE_1_ess.c ****         case CYBLE_ESS_STATE_1:
 311:Generated_Source\PSoC4/BLE_1_ess.c ****         case CYBLE_ESS_STATE_6:
 312:Generated_Source\PSoC4/BLE_1_ess.c ****             gattErr = CYBLE_GATT_ERR_OUT_OF_RANGE;
 351              		.loc 1 312 0
 352 0046 1723     		movs	r3, #23
 353 0048 FB18     		adds	r3, r7, r3
 354 004a FF22     		movs	r2, #255
 355 004c 1A70     		strb	r2, [r3]
 313:Generated_Source\PSoC4/BLE_1_ess.c ****             break;
 356              		.loc 1 313 0
 357 004e 2AE0     		b	.L21
 358              	.L16:
 314:Generated_Source\PSoC4/BLE_1_ess.c **** 
 315:Generated_Source\PSoC4/BLE_1_ess.c ****         /* Min is negative, Max and value are positive */
 316:Generated_Source\PSoC4/BLE_1_ess.c ****         case CYBLE_ESS_STATE_4:
 317:Generated_Source\PSoC4/BLE_1_ess.c ****             if(max < value)
 359              		.loc 1 317 0
 360 0050 BA68     		ldr	r2, [r7, #8]
 361 0052 7B68     		ldr	r3, [r7, #4]
 362 0054 9A42     		cmp	r2, r3
 363 0056 21D2     		bcs	.L28
 318:Generated_Source\PSoC4/BLE_1_ess.c ****             {
 319:Generated_Source\PSoC4/BLE_1_ess.c ****                 gattErr = CYBLE_GATT_ERR_OUT_OF_RANGE;
 364              		.loc 1 319 0
ARM GAS  C:\Users\megan\AppData\Local\Temp\ccmgjhBj.s 			page 13


 365 0058 1723     		movs	r3, #23
 366 005a FB18     		adds	r3, r7, r3
 367 005c FF22     		movs	r2, #255
 368 005e 1A70     		strb	r2, [r3]
 320:Generated_Source\PSoC4/BLE_1_ess.c ****             }
 321:Generated_Source\PSoC4/BLE_1_ess.c ****             break;
 369              		.loc 1 321 0
 370 0060 1CE0     		b	.L28
 371              	.L17:
 322:Generated_Source\PSoC4/BLE_1_ess.c **** 
 323:Generated_Source\PSoC4/BLE_1_ess.c ****         /* Max is positive, Min and value are negative */
 324:Generated_Source\PSoC4/BLE_1_ess.c ****         case CYBLE_ESS_STATE_5:
 325:Generated_Source\PSoC4/BLE_1_ess.c ****             if(min > value)
 372              		.loc 1 325 0
 373 0062 FA68     		ldr	r2, [r7, #12]
 374 0064 7B68     		ldr	r3, [r7, #4]
 375 0066 9A42     		cmp	r2, r3
 376 0068 1AD9     		bls	.L29
 326:Generated_Source\PSoC4/BLE_1_ess.c ****             {
 327:Generated_Source\PSoC4/BLE_1_ess.c ****                 gattErr = CYBLE_GATT_ERR_OUT_OF_RANGE;
 377              		.loc 1 327 0
 378 006a 1723     		movs	r3, #23
 379 006c FB18     		adds	r3, r7, r3
 380 006e FF22     		movs	r2, #255
 381 0070 1A70     		strb	r2, [r3]
 328:Generated_Source\PSoC4/BLE_1_ess.c ****             }
 329:Generated_Source\PSoC4/BLE_1_ess.c ****             break;
 382              		.loc 1 329 0
 383 0072 15E0     		b	.L29
 384              	.L18:
 330:Generated_Source\PSoC4/BLE_1_ess.c **** 
 331:Generated_Source\PSoC4/BLE_1_ess.c ****         /* All values are negative */
 332:Generated_Source\PSoC4/BLE_1_ess.c ****         case CYBLE_ESS_STATE_7:
 333:Generated_Source\PSoC4/BLE_1_ess.c ****             if((min > value) || (max < value))
 385              		.loc 1 333 0
 386 0074 FA68     		ldr	r2, [r7, #12]
 387 0076 7B68     		ldr	r3, [r7, #4]
 388 0078 9A42     		cmp	r2, r3
 389 007a 03D8     		bhi	.L24
 390              		.loc 1 333 0 is_stmt 0 discriminator 1
 391 007c BA68     		ldr	r2, [r7, #8]
 392 007e 7B68     		ldr	r3, [r7, #4]
 393 0080 9A42     		cmp	r2, r3
 394 0082 0FD2     		bcs	.L30
 395              	.L24:
 334:Generated_Source\PSoC4/BLE_1_ess.c ****             {
 335:Generated_Source\PSoC4/BLE_1_ess.c ****                 gattErr = CYBLE_GATT_ERR_OUT_OF_RANGE;
 396              		.loc 1 335 0 is_stmt 1
 397 0084 1723     		movs	r3, #23
 398 0086 FB18     		adds	r3, r7, r3
 399 0088 FF22     		movs	r2, #255
 400 008a 1A70     		strb	r2, [r3]
 336:Generated_Source\PSoC4/BLE_1_ess.c ****             }
 337:Generated_Source\PSoC4/BLE_1_ess.c ****             break;
 401              		.loc 1 337 0
 402 008c 0AE0     		b	.L30
 403              	.L12:
ARM GAS  C:\Users\megan\AppData\Local\Temp\ccmgjhBj.s 			page 14


 338:Generated_Source\PSoC4/BLE_1_ess.c **** 
 339:Generated_Source\PSoC4/BLE_1_ess.c ****         /* Invalid cases. Handled by customizer. */
 340:Generated_Source\PSoC4/BLE_1_ess.c ****         case CYBLE_ESS_STATE_2:
 341:Generated_Source\PSoC4/BLE_1_ess.c ****         case CYBLE_ESS_STATE_3:
 342:Generated_Source\PSoC4/BLE_1_ess.c ****         default:
 343:Generated_Source\PSoC4/BLE_1_ess.c ****             gattErr = CYBLE_GATT_ERR_OUT_OF_RANGE;
 404              		.loc 1 343 0
 405 008e 1723     		movs	r3, #23
 406 0090 FB18     		adds	r3, r7, r3
 407 0092 FF22     		movs	r2, #255
 408 0094 1A70     		strb	r2, [r3]
 344:Generated_Source\PSoC4/BLE_1_ess.c ****             break;
 409              		.loc 1 344 0
 410 0096 06E0     		b	.L21
 411              	.L27:
 305:Generated_Source\PSoC4/BLE_1_ess.c **** 
 412              		.loc 1 305 0
 413 0098 C046     		nop
 414 009a 04E0     		b	.L21
 415              	.L28:
 321:Generated_Source\PSoC4/BLE_1_ess.c **** 
 416              		.loc 1 321 0
 417 009c C046     		nop
 418 009e 02E0     		b	.L21
 419              	.L29:
 329:Generated_Source\PSoC4/BLE_1_ess.c **** 
 420              		.loc 1 329 0
 421 00a0 C046     		nop
 422 00a2 00E0     		b	.L21
 423              	.L30:
 337:Generated_Source\PSoC4/BLE_1_ess.c **** 
 424              		.loc 1 337 0
 425 00a4 C046     		nop
 426              	.L21:
 345:Generated_Source\PSoC4/BLE_1_ess.c ****     }
 346:Generated_Source\PSoC4/BLE_1_ess.c **** 
 347:Generated_Source\PSoC4/BLE_1_ess.c ****     return (gattErr);
 427              		.loc 1 347 0
 428 00a6 1723     		movs	r3, #23
 429 00a8 FB18     		adds	r3, r7, r3
 430 00aa 1B78     		ldrb	r3, [r3]
 348:Generated_Source\PSoC4/BLE_1_ess.c **** }
 431              		.loc 1 348 0
 432 00ac 1800     		movs	r0, r3
 433 00ae BD46     		mov	sp, r7
 434 00b0 06B0     		add	sp, sp, #24
 435              		@ sp needed
 436 00b2 80BD     		pop	{r7, pc}
 437              	.L32:
 438              		.align	2
 439              	.L31:
 440 00b4 58000000 		.word	.L14
 441              		.cfi_endproc
 442              	.LFE6:
 443              		.size	CyBle_EsssCheckIfInRange, .-CyBle_EsssCheckIfInRange
 444              		.section	.text.CyBle_EssHandleRangeCheck,"ax",%progbits
 445              		.align	2
ARM GAS  C:\Users\megan\AppData\Local\Temp\ccmgjhBj.s 			page 15


 446              		.global	CyBle_EssHandleRangeCheck
 447              		.code	16
 448              		.thumb_func
 449              		.type	CyBle_EssHandleRangeCheck, %function
 450              	CyBle_EssHandleRangeCheck:
 451              	.LFB7:
 349:Generated_Source\PSoC4/BLE_1_ess.c **** 
 350:Generated_Source\PSoC4/BLE_1_ess.c **** 
 351:Generated_Source\PSoC4/BLE_1_ess.c **** /******************************************************************************
 352:Generated_Source\PSoC4/BLE_1_ess.c **** * Function Name: CyBle_EssHandleRangeCheck
 353:Generated_Source\PSoC4/BLE_1_ess.c **** ***************************************************************************//**
 354:Generated_Source\PSoC4/BLE_1_ess.c **** * 
 355:Generated_Source\PSoC4/BLE_1_ess.c **** *  Performs an extraction of the characteristic value ranges then compares it to
 356:Generated_Source\PSoC4/BLE_1_ess.c **** *  the value received from the client and returns a result of the comparison.
 357:Generated_Source\PSoC4/BLE_1_ess.c **** * 
 358:Generated_Source\PSoC4/BLE_1_ess.c **** *  \param charIndex: The index of the service characteristic. Starts with zero.
 359:Generated_Source\PSoC4/BLE_1_ess.c **** *  \param charInstance: The instance number of the characteristic specified by
 360:Generated_Source\PSoC4/BLE_1_ess.c **** *                "charIndex".
 361:Generated_Source\PSoC4/BLE_1_ess.c **** *  \param length: The length of a buffer to store the main and may ranges. Can be 2,4,6
 362:Generated_Source\PSoC4/BLE_1_ess.c **** *          or 8 bytes.
 363:Generated_Source\PSoC4/BLE_1_ess.c **** *  \param type: Identifies the type of the value pointed by "pValue" (0 - the value
 364:Generated_Source\PSoC4/BLE_1_ess.c **** *        is of unsigned type, 1 - the value is of signed type).
 365:Generated_Source\PSoC4/BLE_1_ess.c **** *  \param pValue: The pointer to the value to be validated if it is in the range.
 366:Generated_Source\PSoC4/BLE_1_ess.c **** * 
 367:Generated_Source\PSoC4/BLE_1_ess.c **** * 
 368:Generated_Source\PSoC4/BLE_1_ess.c **** * \return
 369:Generated_Source\PSoC4/BLE_1_ess.c **** *  A return value is of type CYBLE_GATT_ERR_CODE_T.
 370:Generated_Source\PSoC4/BLE_1_ess.c **** *   * CYBLE_GATT_ERR_NONE - The value stored in "pValue" is in ranges specified
 371:Generated_Source\PSoC4/BLE_1_ess.c **** *                           by Valid Range Descriptor of the characteristic 
 372:Generated_Source\PSoC4/BLE_1_ess.c **** *                           addressed by "charIndex" and "charInstance".
 373:Generated_Source\PSoC4/BLE_1_ess.c **** *   * CYBLE_GATT_ERR_UNLIKELY_ERROR - Failed to read Valid Range Descriptor 
 374:Generated_Source\PSoC4/BLE_1_ess.c **** *                                     value.
 375:Generated_Source\PSoC4/BLE_1_ess.c **** *   * CYBLE_GATT_ERR_OUT_OF_RANGE - The value stored in "pValue" is not in the
 376:Generated_Source\PSoC4/BLE_1_ess.c **** *                                   valid ranges.
 377:Generated_Source\PSoC4/BLE_1_ess.c **** * 
 378:Generated_Source\PSoC4/BLE_1_ess.c **** ******************************************************************************/
 379:Generated_Source\PSoC4/BLE_1_ess.c **** CYBLE_GATT_ERR_CODE_T CyBle_EssHandleRangeCheck(CYBLE_ESS_CHAR_INDEX_T charIndex, uint8 charInstanc
 380:Generated_Source\PSoC4/BLE_1_ess.c ****     uint8 type, const uint8 pValue[])
 381:Generated_Source\PSoC4/BLE_1_ess.c **** {
 452              		.loc 1 381 0
 453              		.cfi_startproc
 454              		@ args = 4, pretend = 0, frame = 40
 455              		@ frame_needed = 1, uses_anonymous_args = 0
 456 0000 B0B5     		push	{r4, r5, r7, lr}
 457              		.cfi_def_cfa_offset 16
 458              		.cfi_offset 4, -16
 459              		.cfi_offset 5, -12
 460              		.cfi_offset 7, -8
 461              		.cfi_offset 14, -4
 462 0002 8CB0     		sub	sp, sp, #48
 463              		.cfi_def_cfa_offset 64
 464 0004 02AF     		add	r7, sp, #8
 465              		.cfi_def_cfa 7, 56
 466 0006 0500     		movs	r5, r0
 467 0008 0C00     		movs	r4, r1
 468 000a 1000     		movs	r0, r2
 469 000c 1900     		movs	r1, r3
ARM GAS  C:\Users\megan\AppData\Local\Temp\ccmgjhBj.s 			page 16


 470 000e FB1D     		adds	r3, r7, #7
 471 0010 2A1C     		adds	r2, r5, #0
 472 0012 1A70     		strb	r2, [r3]
 473 0014 BB1D     		adds	r3, r7, #6
 474 0016 221C     		adds	r2, r4, #0
 475 0018 1A70     		strb	r2, [r3]
 476 001a 3B1D     		adds	r3, r7, #4
 477 001c 021C     		adds	r2, r0, #0
 478 001e 1A80     		strh	r2, [r3]
 479 0020 FB1C     		adds	r3, r7, #3
 480 0022 0A1C     		adds	r2, r1, #0
 481 0024 1A70     		strb	r2, [r3]
 382:Generated_Source\PSoC4/BLE_1_ess.c ****     uint8  state = 0u;
 482              		.loc 1 382 0
 483 0026 2723     		movs	r3, #39
 484 0028 FB18     		adds	r3, r7, r3
 485 002a 0022     		movs	r2, #0
 486 002c 1A70     		strb	r2, [r3]
 383:Generated_Source\PSoC4/BLE_1_ess.c ****     uint8  skipSignCheck = 0u;
 487              		.loc 1 383 0
 488 002e 2623     		movs	r3, #38
 489 0030 FB18     		adds	r3, r7, r3
 490 0032 0022     		movs	r2, #0
 491 0034 1A70     		strb	r2, [r3]
 384:Generated_Source\PSoC4/BLE_1_ess.c ****     uint8  tmpBuff[8u];
 385:Generated_Source\PSoC4/BLE_1_ess.c ****     uint32 maxLimit = 0u;
 492              		.loc 1 385 0
 493 0036 0023     		movs	r3, #0
 494 0038 3B62     		str	r3, [r7, #32]
 386:Generated_Source\PSoC4/BLE_1_ess.c ****     uint32 minLimit = 0u;
 495              		.loc 1 386 0
 496 003a 0023     		movs	r3, #0
 497 003c FB61     		str	r3, [r7, #28]
 387:Generated_Source\PSoC4/BLE_1_ess.c ****     uint32 operand = 0u;
 498              		.loc 1 387 0
 499 003e 0023     		movs	r3, #0
 500 0040 BB61     		str	r3, [r7, #24]
 388:Generated_Source\PSoC4/BLE_1_ess.c ****     uint32 u32Sign = 0u;
 501              		.loc 1 388 0
 502 0042 0023     		movs	r3, #0
 503 0044 7B61     		str	r3, [r7, #20]
 389:Generated_Source\PSoC4/BLE_1_ess.c ****     CYBLE_GATT_ERR_CODE_T apiResult = CYBLE_GATT_ERR_UNLIKELY_ERROR;
 504              		.loc 1 389 0
 505 0046 1323     		movs	r3, #19
 506 0048 FB18     		adds	r3, r7, r3
 507 004a 0E22     		movs	r2, #14
 508 004c 1A70     		strb	r2, [r3]
 390:Generated_Source\PSoC4/BLE_1_ess.c ****     
 391:Generated_Source\PSoC4/BLE_1_ess.c ****     if(CyBle_EsssGetCharacteristicDescriptor(charIndex, charInstance, CYBLE_ESS_VRD, length, tmpBuf
 509              		.loc 1 391 0
 510 004e 3B1D     		adds	r3, r7, #4
 511 0050 1A88     		ldrh	r2, [r3]
 512 0052 BB1D     		adds	r3, r7, #6
 513 0054 1978     		ldrb	r1, [r3]
 514 0056 FB1D     		adds	r3, r7, #7
 515 0058 1878     		ldrb	r0, [r3]
 516 005a 0823     		movs	r3, #8
ARM GAS  C:\Users\megan\AppData\Local\Temp\ccmgjhBj.s 			page 17


 517 005c FB18     		adds	r3, r7, r3
 518 005e 0093     		str	r3, [sp]
 519 0060 1300     		movs	r3, r2
 520 0062 0822     		movs	r2, #8
 521 0064 FFF7FEFF 		bl	CyBle_EsssGetCharacteristicDescriptor
 522 0068 031E     		subs	r3, r0, #0
 523 006a 00D0     		beq	.LCB356
 524 006c AFE0     		b	.L34	@long jump
 525              	.LCB356:
 392:Generated_Source\PSoC4/BLE_1_ess.c ****     {
 393:Generated_Source\PSoC4/BLE_1_ess.c ****         switch(length)
 526              		.loc 1 393 0
 527 006e 3B1D     		adds	r3, r7, #4
 528 0070 1B88     		ldrh	r3, [r3]
 529 0072 042B     		cmp	r3, #4
 530 0074 16D0     		beq	.L36
 531 0076 02DC     		bgt	.L37
 532 0078 022B     		cmp	r3, #2
 533 007a 05D0     		beq	.L38
 534 007c 5AE0     		b	.L35
 535              	.L37:
 536 007e 062B     		cmp	r3, #6
 537 0080 29D0     		beq	.L39
 538 0082 082B     		cmp	r3, #8
 539 0084 40D0     		beq	.L40
 540 0086 55E0     		b	.L35
 541              	.L38:
 394:Generated_Source\PSoC4/BLE_1_ess.c ****         {
 395:Generated_Source\PSoC4/BLE_1_ess.c ****             case CYBLE_ESS_2BYTES_LENGTH:
 396:Generated_Source\PSoC4/BLE_1_ess.c ****                 operand =  (uint32)(pValue[0u]);
 542              		.loc 1 396 0
 543 0088 BB6B     		ldr	r3, [r7, #56]
 544 008a 1B78     		ldrb	r3, [r3]
 545 008c BB61     		str	r3, [r7, #24]
 397:Generated_Source\PSoC4/BLE_1_ess.c ****                 minLimit = (uint32)(tmpBuff[0u]);
 546              		.loc 1 397 0
 547 008e 0823     		movs	r3, #8
 548 0090 FB18     		adds	r3, r7, r3
 549 0092 1B78     		ldrb	r3, [r3]
 550 0094 FB61     		str	r3, [r7, #28]
 398:Generated_Source\PSoC4/BLE_1_ess.c ****                 maxLimit = (uint32)(tmpBuff[1u]);
 551              		.loc 1 398 0
 552 0096 0823     		movs	r3, #8
 553 0098 FB18     		adds	r3, r7, r3
 554 009a 5B78     		ldrb	r3, [r3, #1]
 555 009c 3B62     		str	r3, [r7, #32]
 399:Generated_Source\PSoC4/BLE_1_ess.c ****                 u32Sign = CYBLE_ESS_U8_SIGN_BIT;
 556              		.loc 1 399 0
 557 009e 8023     		movs	r3, #128
 558 00a0 7B61     		str	r3, [r7, #20]
 400:Generated_Source\PSoC4/BLE_1_ess.c ****                 break;
 559              		.loc 1 400 0
 560 00a2 4CE0     		b	.L41
 561              	.L36:
 401:Generated_Source\PSoC4/BLE_1_ess.c ****             case CYBLE_ESS_4BYTES_LENGTH:
 402:Generated_Source\PSoC4/BLE_1_ess.c ****                 operand =  (uint32) CyBle_EssGet16ByPtr(&pValue[0u]);
 562              		.loc 1 402 0
ARM GAS  C:\Users\megan\AppData\Local\Temp\ccmgjhBj.s 			page 18


 563 00a4 BB6B     		ldr	r3, [r7, #56]
 564 00a6 1800     		movs	r0, r3
 565 00a8 FFF7FEFF 		bl	CyBle_Get16ByPtr
 566 00ac 0300     		movs	r3, r0
 567 00ae BB61     		str	r3, [r7, #24]
 403:Generated_Source\PSoC4/BLE_1_ess.c ****                 minLimit = (uint32) CyBle_EssGet16ByPtr(&tmpBuff[0u]);
 568              		.loc 1 403 0
 569 00b0 0823     		movs	r3, #8
 570 00b2 FB18     		adds	r3, r7, r3
 571 00b4 1800     		movs	r0, r3
 572 00b6 FFF7FEFF 		bl	CyBle_Get16ByPtr
 573 00ba 0300     		movs	r3, r0
 574 00bc FB61     		str	r3, [r7, #28]
 404:Generated_Source\PSoC4/BLE_1_ess.c ****                 maxLimit = (uint32) CyBle_EssGet16ByPtr(&tmpBuff[2u]);
 575              		.loc 1 404 0
 576 00be 0823     		movs	r3, #8
 577 00c0 FB18     		adds	r3, r7, r3
 578 00c2 0233     		adds	r3, r3, #2
 579 00c4 1800     		movs	r0, r3
 580 00c6 FFF7FEFF 		bl	CyBle_Get16ByPtr
 581 00ca 0300     		movs	r3, r0
 582 00cc 3B62     		str	r3, [r7, #32]
 405:Generated_Source\PSoC4/BLE_1_ess.c ****                 u32Sign = CYBLE_ESS_U16_SIGN_BIT;
 583              		.loc 1 405 0
 584 00ce 8023     		movs	r3, #128
 585 00d0 1B02     		lsls	r3, r3, #8
 586 00d2 7B61     		str	r3, [r7, #20]
 406:Generated_Source\PSoC4/BLE_1_ess.c ****                 break;
 587              		.loc 1 406 0
 588 00d4 33E0     		b	.L41
 589              	.L39:
 407:Generated_Source\PSoC4/BLE_1_ess.c ****             case CYBLE_ESS_6BYTES_LENGTH:
 408:Generated_Source\PSoC4/BLE_1_ess.c ****                 operand =  (uint32) CyBle_EssGet24ByPtr(&pValue[0u]);
 590              		.loc 1 408 0
 591 00d6 BB6B     		ldr	r3, [r7, #56]
 592 00d8 1800     		movs	r0, r3
 593 00da FFF7FEFF 		bl	CyBle_EssGet24ByPtr
 594 00de 0300     		movs	r3, r0
 595 00e0 BB61     		str	r3, [r7, #24]
 409:Generated_Source\PSoC4/BLE_1_ess.c ****                 minLimit = (uint32) CyBle_EssGet24ByPtr(&tmpBuff[0u]);
 596              		.loc 1 409 0
 597 00e2 0823     		movs	r3, #8
 598 00e4 FB18     		adds	r3, r7, r3
 599 00e6 1800     		movs	r0, r3
 600 00e8 FFF7FEFF 		bl	CyBle_EssGet24ByPtr
 601 00ec 0300     		movs	r3, r0
 602 00ee FB61     		str	r3, [r7, #28]
 410:Generated_Source\PSoC4/BLE_1_ess.c ****                 maxLimit = (uint32) CyBle_EssGet24ByPtr(&tmpBuff[3u]);
 603              		.loc 1 410 0
 604 00f0 0823     		movs	r3, #8
 605 00f2 FB18     		adds	r3, r7, r3
 606 00f4 0333     		adds	r3, r3, #3
 607 00f6 1800     		movs	r0, r3
 608 00f8 FFF7FEFF 		bl	CyBle_EssGet24ByPtr
 609 00fc 0300     		movs	r3, r0
 610 00fe 3B62     		str	r3, [r7, #32]
 411:Generated_Source\PSoC4/BLE_1_ess.c ****                 u32Sign = CYBLE_ESS_U24_SIGN_BIT;
ARM GAS  C:\Users\megan\AppData\Local\Temp\ccmgjhBj.s 			page 19


 611              		.loc 1 411 0
 612 0100 8023     		movs	r3, #128
 613 0102 1B04     		lsls	r3, r3, #16
 614 0104 7B61     		str	r3, [r7, #20]
 412:Generated_Source\PSoC4/BLE_1_ess.c ****                 break;
 615              		.loc 1 412 0
 616 0106 1AE0     		b	.L41
 617              	.L40:
 413:Generated_Source\PSoC4/BLE_1_ess.c ****             case CYBLE_ESS_8BYTES_LENGTH:
 414:Generated_Source\PSoC4/BLE_1_ess.c ****                 operand =  (uint32) CyBle_EssGet32ByPtr(&pValue[0u]);
 618              		.loc 1 414 0
 619 0108 BB6B     		ldr	r3, [r7, #56]
 620 010a 1800     		movs	r0, r3
 621 010c FFF7FEFF 		bl	CyBle_EssGet32ByPtr
 622 0110 0300     		movs	r3, r0
 623 0112 BB61     		str	r3, [r7, #24]
 415:Generated_Source\PSoC4/BLE_1_ess.c ****                 minLimit = (uint32) CyBle_EssGet32ByPtr(&tmpBuff[0u]);
 624              		.loc 1 415 0
 625 0114 0823     		movs	r3, #8
 626 0116 FB18     		adds	r3, r7, r3
 627 0118 1800     		movs	r0, r3
 628 011a FFF7FEFF 		bl	CyBle_EssGet32ByPtr
 629 011e 0300     		movs	r3, r0
 630 0120 FB61     		str	r3, [r7, #28]
 416:Generated_Source\PSoC4/BLE_1_ess.c ****                 maxLimit = (uint32) CyBle_EssGet32ByPtr(&tmpBuff[4u]);
 631              		.loc 1 416 0
 632 0122 0823     		movs	r3, #8
 633 0124 FB18     		adds	r3, r7, r3
 634 0126 0433     		adds	r3, r3, #4
 635 0128 1800     		movs	r0, r3
 636 012a FFF7FEFF 		bl	CyBle_EssGet32ByPtr
 637 012e 0300     		movs	r3, r0
 638 0130 3B62     		str	r3, [r7, #32]
 417:Generated_Source\PSoC4/BLE_1_ess.c ****                 break;
 639              		.loc 1 417 0
 640 0132 04E0     		b	.L41
 641              	.L35:
 418:Generated_Source\PSoC4/BLE_1_ess.c **** 
 419:Generated_Source\PSoC4/BLE_1_ess.c ****             default:
 420:Generated_Source\PSoC4/BLE_1_ess.c ****                 skipSignCheck = 1u;
 642              		.loc 1 420 0
 643 0134 2623     		movs	r3, #38
 644 0136 FB18     		adds	r3, r7, r3
 645 0138 0122     		movs	r2, #1
 646 013a 1A70     		strb	r2, [r3]
 421:Generated_Source\PSoC4/BLE_1_ess.c ****                 break;
 647              		.loc 1 421 0
 648 013c C046     		nop
 649              	.L41:
 422:Generated_Source\PSoC4/BLE_1_ess.c ****         }
 423:Generated_Source\PSoC4/BLE_1_ess.c **** 
 424:Generated_Source\PSoC4/BLE_1_ess.c ****         if(skipSignCheck == 0u)
 650              		.loc 1 424 0
 651 013e 2623     		movs	r3, #38
 652 0140 FB18     		adds	r3, r7, r3
 653 0142 1B78     		ldrb	r3, [r3]
 654 0144 002B     		cmp	r3, #0
ARM GAS  C:\Users\megan\AppData\Local\Temp\ccmgjhBj.s 			page 20


 655 0146 36D1     		bne	.L42
 425:Generated_Source\PSoC4/BLE_1_ess.c ****         {
 426:Generated_Source\PSoC4/BLE_1_ess.c ****             if(type != CYBLE_ESS_UNSIGNED_TYPE)
 656              		.loc 1 426 0
 657 0148 FB1C     		adds	r3, r7, #3
 658 014a 1B78     		ldrb	r3, [r3]
 659 014c 002B     		cmp	r3, #0
 660 014e 2ED0     		beq	.L43
 427:Generated_Source\PSoC4/BLE_1_ess.c ****             {
 428:Generated_Source\PSoC4/BLE_1_ess.c ****                 state = CYBLE_ESS_IS_NEGATIVE(minLimit, u32Sign) << 1u;
 661              		.loc 1 428 0
 662 0150 FB69     		ldr	r3, [r7, #28]
 663 0152 7A69     		ldr	r2, [r7, #20]
 664 0154 1A40     		ands	r2, r3
 665 0156 7B69     		ldr	r3, [r7, #20]
 666 0158 9A42     		cmp	r2, r3
 667 015a 01D1     		bne	.L44
 668              		.loc 1 428 0 is_stmt 0 discriminator 1
 669 015c 0222     		movs	r2, #2
 670 015e 00E0     		b	.L45
 671              	.L44:
 672              		.loc 1 428 0 discriminator 2
 673 0160 0022     		movs	r2, #0
 674              	.L45:
 675              		.loc 1 428 0 discriminator 4
 676 0162 2723     		movs	r3, #39
 677 0164 FB18     		adds	r3, r7, r3
 678 0166 1A70     		strb	r2, [r3]
 429:Generated_Source\PSoC4/BLE_1_ess.c ****                 state = (state | CYBLE_ESS_IS_NEGATIVE(maxLimit, u32Sign)) << 1u;
 679              		.loc 1 429 0 is_stmt 1 discriminator 4
 680 0168 3B6A     		ldr	r3, [r7, #32]
 681 016a 7A69     		ldr	r2, [r7, #20]
 682 016c 1A40     		ands	r2, r3
 683 016e 7B69     		ldr	r3, [r7, #20]
 684 0170 9A42     		cmp	r2, r3
 685 0172 01D1     		bne	.L46
 686              		.loc 1 429 0 is_stmt 0 discriminator 1
 687 0174 0123     		movs	r3, #1
 688 0176 00E0     		b	.L47
 689              	.L46:
 690              		.loc 1 429 0 discriminator 2
 691 0178 0023     		movs	r3, #0
 692              	.L47:
 693              		.loc 1 429 0 discriminator 4
 694 017a 2722     		movs	r2, #39
 695 017c BA18     		adds	r2, r7, r2
 696 017e 1278     		ldrb	r2, [r2]
 697 0180 1343     		orrs	r3, r2
 698 0182 DBB2     		uxtb	r3, r3
 699 0184 2722     		movs	r2, #39
 700 0186 BA18     		adds	r2, r7, r2
 701 0188 DB18     		adds	r3, r3, r3
 702 018a 1370     		strb	r3, [r2]
 430:Generated_Source\PSoC4/BLE_1_ess.c ****                 state |= CYBLE_ESS_IS_NEGATIVE(operand, u32Sign);
 703              		.loc 1 430 0 is_stmt 1 discriminator 4
 704 018c BB69     		ldr	r3, [r7, #24]
 705 018e 7A69     		ldr	r2, [r7, #20]
ARM GAS  C:\Users\megan\AppData\Local\Temp\ccmgjhBj.s 			page 21


 706 0190 1A40     		ands	r2, r3
 707 0192 7B69     		ldr	r3, [r7, #20]
 708 0194 9A42     		cmp	r2, r3
 709 0196 01D1     		bne	.L48
 710              		.loc 1 430 0 is_stmt 0 discriminator 1
 711 0198 0123     		movs	r3, #1
 712 019a 00E0     		b	.L49
 713              	.L48:
 714              		.loc 1 430 0 discriminator 2
 715 019c 0023     		movs	r3, #0
 716              	.L49:
 717              		.loc 1 430 0 discriminator 4
 718 019e 2722     		movs	r2, #39
 719 01a0 BA18     		adds	r2, r7, r2
 720 01a2 2721     		movs	r1, #39
 721 01a4 7918     		adds	r1, r7, r1
 722 01a6 0978     		ldrb	r1, [r1]
 723 01a8 0B43     		orrs	r3, r1
 724 01aa 1370     		strb	r3, [r2]
 725 01ac 03E0     		b	.L42
 726              	.L43:
 431:Generated_Source\PSoC4/BLE_1_ess.c ****             }
 432:Generated_Source\PSoC4/BLE_1_ess.c ****             else
 433:Generated_Source\PSoC4/BLE_1_ess.c ****             {
 434:Generated_Source\PSoC4/BLE_1_ess.c ****                 state = 0u;
 727              		.loc 1 434 0 is_stmt 1
 728 01ae 2723     		movs	r3, #39
 729 01b0 FB18     		adds	r3, r7, r3
 730 01b2 0022     		movs	r2, #0
 731 01b4 1A70     		strb	r2, [r3]
 732              	.L42:
 435:Generated_Source\PSoC4/BLE_1_ess.c ****             }
 436:Generated_Source\PSoC4/BLE_1_ess.c ****         }
 437:Generated_Source\PSoC4/BLE_1_ess.c **** 
 438:Generated_Source\PSoC4/BLE_1_ess.c ****         /* Compare the operand to the limits with respect to the state
 439:Generated_Source\PSoC4/BLE_1_ess.c ****         * and return the results. 
 440:Generated_Source\PSoC4/BLE_1_ess.c ****         */
 441:Generated_Source\PSoC4/BLE_1_ess.c ****         apiResult = CyBle_EsssCheckIfInRange(minLimit, maxLimit, operand, state);
 733              		.loc 1 441 0
 734 01b6 1323     		movs	r3, #19
 735 01b8 FC18     		adds	r4, r7, r3
 736 01ba 2723     		movs	r3, #39
 737 01bc FB18     		adds	r3, r7, r3
 738 01be 1B78     		ldrb	r3, [r3]
 739 01c0 BA69     		ldr	r2, [r7, #24]
 740 01c2 396A     		ldr	r1, [r7, #32]
 741 01c4 F869     		ldr	r0, [r7, #28]
 742 01c6 FFF7FEFF 		bl	CyBle_EsssCheckIfInRange
 743 01ca 0300     		movs	r3, r0
 744 01cc 2370     		strb	r3, [r4]
 745              	.L34:
 442:Generated_Source\PSoC4/BLE_1_ess.c ****     }
 443:Generated_Source\PSoC4/BLE_1_ess.c **** 
 444:Generated_Source\PSoC4/BLE_1_ess.c ****     return(apiResult);
 746              		.loc 1 444 0
 747 01ce 1323     		movs	r3, #19
 748 01d0 FB18     		adds	r3, r7, r3
ARM GAS  C:\Users\megan\AppData\Local\Temp\ccmgjhBj.s 			page 22


 749 01d2 1B78     		ldrb	r3, [r3]
 445:Generated_Source\PSoC4/BLE_1_ess.c **** }
 750              		.loc 1 445 0
 751 01d4 1800     		movs	r0, r3
 752 01d6 BD46     		mov	sp, r7
 753 01d8 0AB0     		add	sp, sp, #40
 754              		@ sp needed
 755 01da B0BD     		pop	{r4, r5, r7, pc}
 756              		.cfi_endproc
 757              	.LFE7:
 758              		.size	CyBle_EssHandleRangeCheck, .-CyBle_EssHandleRangeCheck
 759              		.section	.text.CyBle_EsssWriteEventHandler,"ax",%progbits
 760              		.align	2
 761              		.global	CyBle_EsssWriteEventHandler
 762              		.code	16
 763              		.thumb_func
 764              		.type	CyBle_EsssWriteEventHandler, %function
 765              	CyBle_EsssWriteEventHandler:
 766              	.LFB8:
 446:Generated_Source\PSoC4/BLE_1_ess.c **** 
 447:Generated_Source\PSoC4/BLE_1_ess.c **** 
 448:Generated_Source\PSoC4/BLE_1_ess.c **** /******************************************************************************
 449:Generated_Source\PSoC4/BLE_1_ess.c **** * Function Name: CyBle_EsssWriteEventHandler
 450:Generated_Source\PSoC4/BLE_1_ess.c **** ***************************************************************************//**
 451:Generated_Source\PSoC4/BLE_1_ess.c **** * 
 452:Generated_Source\PSoC4/BLE_1_ess.c **** *  Handles a Write Request event for Environmental Sensing Service.
 453:Generated_Source\PSoC4/BLE_1_ess.c **** * 
 454:Generated_Source\PSoC4/BLE_1_ess.c **** *  \param eventParam: The pointer to the data structure specified by an event.
 455:Generated_Source\PSoC4/BLE_1_ess.c **** * 
 456:Generated_Source\PSoC4/BLE_1_ess.c **** * \return
 457:Generated_Source\PSoC4/BLE_1_ess.c **** *  A return value is of type CYBLE_GATT_ERR_CODE_T.
 458:Generated_Source\PSoC4/BLE_1_ess.c **** *   * CYBLE_GATT_ERR_NONE - Write is successful.
 459:Generated_Source\PSoC4/BLE_1_ess.c **** *   * CYBLE_GATT_ERR_REQUEST_NOT_SUPPORTED - Request is not supported.
 460:Generated_Source\PSoC4/BLE_1_ess.c **** *   * CYBLE_GATT_ERR_INVALID_HANDLE - 'handleValuePair.attrHandle' is not valid.
 461:Generated_Source\PSoC4/BLE_1_ess.c **** *   * CYBLE_GATT_ERR_WRITE_NOT_PERMITTED - Write operation is not permitted on
 462:Generated_Source\PSoC4/BLE_1_ess.c **** *                                          this attribute.
 463:Generated_Source\PSoC4/BLE_1_ess.c **** *   * CYBLE_GATT_ERR_INVALID_OFFSET - the offset value is invalid.
 464:Generated_Source\PSoC4/BLE_1_ess.c **** *   * CYBLE_GATT_ERR_UNLIKELY_ERROR - Some other error occurred.
 465:Generated_Source\PSoC4/BLE_1_ess.c **** *   * CYBLE_GATT_ERR_CONDITION_NOT_SUPPORTED - The condition in ES Trigger Settings
 466:Generated_Source\PSoC4/BLE_1_ess.c **** *                                              Descriptor is not supported.
 467:Generated_Source\PSoC4/BLE_1_ess.c **** *   * CYBLE_GATT_ERR_WRITE_REQ_REJECTED - A write request was rejected.
 468:Generated_Source\PSoC4/BLE_1_ess.c **** * 
 469:Generated_Source\PSoC4/BLE_1_ess.c **** ******************************************************************************/
 470:Generated_Source\PSoC4/BLE_1_ess.c **** CYBLE_GATT_ERR_CODE_T CyBle_EsssWriteEventHandler(CYBLE_GATTS_WRITE_REQ_PARAM_T *eventParam)
 471:Generated_Source\PSoC4/BLE_1_ess.c **** {
 767              		.loc 1 471 0
 768              		.cfi_startproc
 769              		@ args = 0, pretend = 0, frame = 40
 770              		@ frame_needed = 1, uses_anonymous_args = 0
 771 0000 90B5     		push	{r4, r7, lr}
 772              		.cfi_def_cfa_offset 12
 773              		.cfi_offset 4, -12
 774              		.cfi_offset 7, -8
 775              		.cfi_offset 14, -4
 776 0002 8DB0     		sub	sp, sp, #52
 777              		.cfi_def_cfa_offset 64
 778 0004 02AF     		add	r7, sp, #8
ARM GAS  C:\Users\megan\AppData\Local\Temp\ccmgjhBj.s 			page 23


 779              		.cfi_def_cfa 7, 56
 780 0006 7860     		str	r0, [r7, #4]
 472:Generated_Source\PSoC4/BLE_1_ess.c ****     uint8 i;
 473:Generated_Source\PSoC4/BLE_1_ess.c ****     uint8 j;
 474:Generated_Source\PSoC4/BLE_1_ess.c ****     uint32 event = (uint32) CYBLE_EVT_ESSS_DESCR_WRITE;
 781              		.loc 1 474 0
 782 0008 8223     		movs	r3, #130
 783 000a FF33     		adds	r3, r3, #255
 784 000c 3B62     		str	r3, [r7, #32]
 475:Generated_Source\PSoC4/BLE_1_ess.c ****     uint8 foundItem = 0u;
 785              		.loc 1 475 0
 786 000e 1F23     		movs	r3, #31
 787 0010 FB18     		adds	r3, r7, r3
 788 0012 0022     		movs	r2, #0
 789 0014 1A70     		strb	r2, [r3]
 476:Generated_Source\PSoC4/BLE_1_ess.c ****     CYBLE_ESSS_CHAR_T *essCharInfoPtr;
 477:Generated_Source\PSoC4/BLE_1_ess.c ****     CYBLE_ESS_DESCR_VALUE_T wrDescrReqParam;
 478:Generated_Source\PSoC4/BLE_1_ess.c ****     CYBLE_GATT_DB_ATTR_HANDLE_T tmpHandle;
 479:Generated_Source\PSoC4/BLE_1_ess.c ****     CYBLE_GATT_ERR_CODE_T gattErr = CYBLE_GATT_ERR_NONE;
 790              		.loc 1 479 0
 791 0016 1E23     		movs	r3, #30
 792 0018 FB18     		adds	r3, r7, r3
 793 001a 0022     		movs	r2, #0
 794 001c 1A70     		strb	r2, [r3]
 480:Generated_Source\PSoC4/BLE_1_ess.c **** 
 481:Generated_Source\PSoC4/BLE_1_ess.c ****     tmpHandle = eventParam->handleValPair.attrHandle;
 795              		.loc 1 481 0
 796 001e 1C23     		movs	r3, #28
 797 0020 FB18     		adds	r3, r7, r3
 798 0022 7A68     		ldr	r2, [r7, #4]
 799 0024 9289     		ldrh	r2, [r2, #12]
 800 0026 1A80     		strh	r2, [r3]
 482:Generated_Source\PSoC4/BLE_1_ess.c **** 
 483:Generated_Source\PSoC4/BLE_1_ess.c ****     if(NULL != CyBle_EssApplCallback)
 801              		.loc 1 483 0
 802 0028 CF4B     		ldr	r3, .L107
 803 002a 1B68     		ldr	r3, [r3]
 804 002c 002B     		cmp	r3, #0
 805 002e 00D1     		bne	.LCB615
 806 0030 B0E2     		b	.L52	@long jump
 807              	.LCB615:
 484:Generated_Source\PSoC4/BLE_1_ess.c ****     {
 485:Generated_Source\PSoC4/BLE_1_ess.c ****         wrDescrReqParam.descrIndex = CYBLE_ESS_DESCR_COUNT;
 808              		.loc 1 485 0
 809 0032 0C23     		movs	r3, #12
 810 0034 FB18     		adds	r3, r7, r3
 811 0036 0922     		movs	r2, #9
 812 0038 1A71     		strb	r2, [r3, #4]
 486:Generated_Source\PSoC4/BLE_1_ess.c ****         
 487:Generated_Source\PSoC4/BLE_1_ess.c ****         /* Go through all possible Service characteristics.
 488:Generated_Source\PSoC4/BLE_1_ess.c ****         * Exit the handler in following conditions:
 489:Generated_Source\PSoC4/BLE_1_ess.c ****         * 1) No more characteristic left;
 490:Generated_Source\PSoC4/BLE_1_ess.c ****         * 2) Characteristic or descriptor was successfully written;
 491:Generated_Source\PSoC4/BLE_1_ess.c ****         * 3) Error occurred while writing characteristic or descriptor.
 492:Generated_Source\PSoC4/BLE_1_ess.c ****         */
 493:Generated_Source\PSoC4/BLE_1_ess.c ****         for(i = 0u; ((i < ((uint8) CYBLE_ESS_CHAR_COUNT)) && (foundItem == 0u) && (gattErr == CYBLE
 813              		.loc 1 493 0
ARM GAS  C:\Users\megan\AppData\Local\Temp\ccmgjhBj.s 			page 24


 814 003a 2723     		movs	r3, #39
 815 003c FB18     		adds	r3, r7, r3
 816 003e 0022     		movs	r2, #0
 817 0040 1A70     		strb	r2, [r3]
 818 0042 97E2     		b	.L53
 819              	.L100:
 494:Generated_Source\PSoC4/BLE_1_ess.c ****             i++)
 495:Generated_Source\PSoC4/BLE_1_ess.c ****         {
 496:Generated_Source\PSoC4/BLE_1_ess.c ****             /* Check if characteristic is enabled. If the pointer to the characteristic
 497:Generated_Source\PSoC4/BLE_1_ess.c ****             * is not "NULL", there is at least one instance of the characteristic in
 498:Generated_Source\PSoC4/BLE_1_ess.c ****             * the ES Service.
 499:Generated_Source\PSoC4/BLE_1_ess.c ****             */
 500:Generated_Source\PSoC4/BLE_1_ess.c ****             if(NULL != cyBle_esss.charInfoAddr[i].charInfoPtr)
 820              		.loc 1 500 0
 821 0044 2723     		movs	r3, #39
 822 0046 FB18     		adds	r3, r7, r3
 823 0048 1B78     		ldrb	r3, [r3]
 824 004a C84A     		ldr	r2, .L107+4
 825 004c 9B00     		lsls	r3, r3, #2
 826 004e D318     		adds	r3, r2, r3
 827 0050 0433     		adds	r3, r3, #4
 828 0052 1B68     		ldr	r3, [r3]
 829 0054 002B     		cmp	r3, #0
 830 0056 00D1     		bne	.LCB637
 831 0058 85E2     		b	.L54	@long jump
 832              	.LCB637:
 501:Generated_Source\PSoC4/BLE_1_ess.c ****             {
 502:Generated_Source\PSoC4/BLE_1_ess.c ****                 for(j = 0u; j < cyBle_esssCharInstances[i]; j++)
 833              		.loc 1 502 0
 834 005a 2623     		movs	r3, #38
 835 005c FB18     		adds	r3, r7, r3
 836 005e 0022     		movs	r2, #0
 837 0060 1A70     		strb	r2, [r3]
 838 0062 75E2     		b	.L55
 839              	.L99:
 503:Generated_Source\PSoC4/BLE_1_ess.c ****                 {
 504:Generated_Source\PSoC4/BLE_1_ess.c ****                     essCharInfoPtr = &cyBle_esss.charInfoAddr[i].charInfoPtr[j];
 840              		.loc 1 504 0
 841 0064 2723     		movs	r3, #39
 842 0066 FB18     		adds	r3, r7, r3
 843 0068 1B78     		ldrb	r3, [r3]
 844 006a C04A     		ldr	r2, .L107+4
 845 006c 9B00     		lsls	r3, r3, #2
 846 006e D318     		adds	r3, r2, r3
 847 0070 0433     		adds	r3, r3, #4
 848 0072 1968     		ldr	r1, [r3]
 849 0074 2623     		movs	r3, #38
 850 0076 FB18     		adds	r3, r7, r3
 851 0078 1A78     		ldrb	r2, [r3]
 852 007a 1300     		movs	r3, r2
 853 007c 9B00     		lsls	r3, r3, #2
 854 007e 9B18     		adds	r3, r3, r2
 855 0080 9B00     		lsls	r3, r3, #2
 856 0082 CB18     		adds	r3, r1, r3
 857 0084 BB61     		str	r3, [r7, #24]
 505:Generated_Source\PSoC4/BLE_1_ess.c **** 
 506:Generated_Source\PSoC4/BLE_1_ess.c ****                     /* Client Characteristic Configuration Descriptor Write Request handling */
ARM GAS  C:\Users\megan\AppData\Local\Temp\ccmgjhBj.s 			page 25


 507:Generated_Source\PSoC4/BLE_1_ess.c ****                     if(tmpHandle == essCharInfoPtr->descrHandle[CYBLE_ESS_CCCD])
 858              		.loc 1 507 0
 859 0086 BB69     		ldr	r3, [r7, #24]
 860 0088 5B88     		ldrh	r3, [r3, #2]
 861 008a 1C22     		movs	r2, #28
 862 008c BA18     		adds	r2, r7, r2
 863 008e 1288     		ldrh	r2, [r2]
 864 0090 9A42     		cmp	r2, r3
 865 0092 00D0     		beq	.LCB669
 866 0094 79E0     		b	.L56	@long jump
 867              	.LCB669:
 508:Generated_Source\PSoC4/BLE_1_ess.c ****                     {
 509:Generated_Source\PSoC4/BLE_1_ess.c ****                         /* Verify that optional notification property is enabled for characteristic
 510:Generated_Source\PSoC4/BLE_1_ess.c ****                         if(CYBLE_IS_NOTIFICATION_SUPPORTED(essCharInfoPtr->charHandle))
 868              		.loc 1 510 0
 869 0096 BB69     		ldr	r3, [r7, #24]
 870 0098 1B88     		ldrh	r3, [r3]
 871 009a 5A1E     		subs	r2, r3, #1
 872 009c B449     		ldr	r1, .L107+8
 873 009e 1300     		movs	r3, r2
 874 00a0 9B00     		lsls	r3, r3, #2
 875 00a2 9B18     		adds	r3, r3, r2
 876 00a4 9B00     		lsls	r3, r3, #2
 877 00a6 CB18     		adds	r3, r1, r3
 878 00a8 0433     		adds	r3, r3, #4
 879 00aa 1A68     		ldr	r2, [r3]
 880 00ac 8023     		movs	r3, #128
 881 00ae 5B03     		lsls	r3, r3, #13
 882 00b0 1340     		ands	r3, r2
 883 00b2 2BD0     		beq	.L57
 511:Generated_Source\PSoC4/BLE_1_ess.c ****                         {
 512:Generated_Source\PSoC4/BLE_1_ess.c ****                             if(CYBLE_IS_NOTIFICATION_ENABLED_IN_PTR(eventParam->handleValPair.value
 884              		.loc 1 512 0
 885 00b4 7B68     		ldr	r3, [r7, #4]
 886 00b6 5B68     		ldr	r3, [r3, #4]
 887 00b8 1800     		movs	r0, r3
 888 00ba FFF7FEFF 		bl	CyBle_Get16ByPtr
 889 00be 0300     		movs	r3, r0
 890 00c0 1A00     		movs	r2, r3
 891 00c2 0123     		movs	r3, #1
 892 00c4 1340     		ands	r3, r2
 893 00c6 9BB2     		uxth	r3, r3
 894 00c8 002B     		cmp	r3, #0
 895 00ca 03D0     		beq	.L58
 513:Generated_Source\PSoC4/BLE_1_ess.c ****                             {
 514:Generated_Source\PSoC4/BLE_1_ess.c ****                                 event = (uint32)CYBLE_EVT_ESSS_NOTIFICATION_ENABLED;
 896              		.loc 1 514 0
 897 00cc 7C23     		movs	r3, #124
 898 00ce FF33     		adds	r3, r3, #255
 899 00d0 3B62     		str	r3, [r7, #32]
 900 00d2 02E0     		b	.L59
 901              	.L58:
 515:Generated_Source\PSoC4/BLE_1_ess.c ****                             }
 516:Generated_Source\PSoC4/BLE_1_ess.c ****                             else
 517:Generated_Source\PSoC4/BLE_1_ess.c ****                             {
 518:Generated_Source\PSoC4/BLE_1_ess.c ****                                 event = (uint32)CYBLE_EVT_ESSS_NOTIFICATION_DISABLED;
 902              		.loc 1 518 0
ARM GAS  C:\Users\megan\AppData\Local\Temp\ccmgjhBj.s 			page 26


 903 00d4 BE23     		movs	r3, #190
 904 00d6 5B00     		lsls	r3, r3, #1
 905 00d8 3B62     		str	r3, [r7, #32]
 906              	.L59:
 519:Generated_Source\PSoC4/BLE_1_ess.c ****                             }
 520:Generated_Source\PSoC4/BLE_1_ess.c **** 
 521:Generated_Source\PSoC4/BLE_1_ess.c ****                             /* Value is NULL for descriptors */
 522:Generated_Source\PSoC4/BLE_1_ess.c ****                             wrDescrReqParam.value = NULL;
 907              		.loc 1 522 0
 908 00da 0C23     		movs	r3, #12
 909 00dc FB18     		adds	r3, r7, r3
 910 00de 0022     		movs	r2, #0
 911 00e0 9A60     		str	r2, [r3, #8]
 523:Generated_Source\PSoC4/BLE_1_ess.c ****                             wrDescrReqParam.descrIndex = CYBLE_ESS_CCCD;
 912              		.loc 1 523 0
 913 00e2 0C23     		movs	r3, #12
 914 00e4 FB18     		adds	r3, r7, r3
 915 00e6 0022     		movs	r2, #0
 916 00e8 1A71     		strb	r2, [r3, #4]
 524:Generated_Source\PSoC4/BLE_1_ess.c ****                             foundItem = CYBLE_ESS_DESCRIPTOR_ITEM;
 917              		.loc 1 524 0
 918 00ea 1F23     		movs	r3, #31
 919 00ec FB18     		adds	r3, r7, r3
 920 00ee 0222     		movs	r2, #2
 921 00f0 1A70     		strb	r2, [r3]
 525:Generated_Source\PSoC4/BLE_1_ess.c **** 
 526:Generated_Source\PSoC4/BLE_1_ess.c ****                         #if((CYBLE_GAP_ROLE_PERIPHERAL || CYBLE_GAP_ROLE_CENTRAL) && \
 527:Generated_Source\PSoC4/BLE_1_ess.c ****                             (CYBLE_BONDING_REQUIREMENT == CYBLE_BONDING_YES))
 528:Generated_Source\PSoC4/BLE_1_ess.c ****                             /* Set flag to store bonding data to flash */
 529:Generated_Source\PSoC4/BLE_1_ess.c ****                             if(cyBle_peerBonding == CYBLE_GAP_BONDING)
 922              		.loc 1 529 0
 923 00f2 A04B     		ldr	r3, .L107+12
 924 00f4 1B78     		ldrb	r3, [r3]
 925 00f6 012B     		cmp	r3, #1
 926 00f8 00D0     		beq	.LCB724
 927 00fa 95E0     		b	.L66	@long jump
 928              	.LCB724:
 530:Generated_Source\PSoC4/BLE_1_ess.c ****                             {
 531:Generated_Source\PSoC4/BLE_1_ess.c ****                                 cyBle_pendingFlashWrite |= CYBLE_PENDING_CCCD_FLASH_WRITE_BIT;
 929              		.loc 1 531 0
 930 00fc 9E4B     		ldr	r3, .L107+16
 931 00fe 1B78     		ldrb	r3, [r3]
 932 0100 0222     		movs	r2, #2
 933 0102 1343     		orrs	r3, r2
 934 0104 DAB2     		uxtb	r2, r3
 935 0106 9C4B     		ldr	r3, .L107+16
 936 0108 1A70     		strb	r2, [r3]
 937 010a 8DE0     		b	.L66
 938              	.L57:
 532:Generated_Source\PSoC4/BLE_1_ess.c ****                             }
 533:Generated_Source\PSoC4/BLE_1_ess.c ****                         #endif /* (CYBLE_BONDING_REQUIREMENT == CYBLE_BONDING_YES) */
 534:Generated_Source\PSoC4/BLE_1_ess.c ****                         }
 535:Generated_Source\PSoC4/BLE_1_ess.c ****                         else if(CYBLE_IS_INDICATION_SUPPORTED(essCharInfoPtr->charHandle))
 939              		.loc 1 535 0
 940 010c BB69     		ldr	r3, [r7, #24]
 941 010e 1B88     		ldrh	r3, [r3]
 942 0110 5A1E     		subs	r2, r3, #1
ARM GAS  C:\Users\megan\AppData\Local\Temp\ccmgjhBj.s 			page 27


 943 0112 9749     		ldr	r1, .L107+8
 944 0114 1300     		movs	r3, r2
 945 0116 9B00     		lsls	r3, r3, #2
 946 0118 9B18     		adds	r3, r3, r2
 947 011a 9B00     		lsls	r3, r3, #2
 948 011c CB18     		adds	r3, r1, r3
 949 011e 0433     		adds	r3, r3, #4
 950 0120 1A68     		ldr	r2, [r3]
 951 0122 8023     		movs	r3, #128
 952 0124 9B03     		lsls	r3, r3, #14
 953 0126 1340     		ands	r3, r2
 954 0128 2AD0     		beq	.L62
 536:Generated_Source\PSoC4/BLE_1_ess.c ****                         {
 537:Generated_Source\PSoC4/BLE_1_ess.c ****                             if(CYBLE_IS_INDICATION_ENABLED_IN_PTR(eventParam->handleValPair.value.v
 955              		.loc 1 537 0
 956 012a 7B68     		ldr	r3, [r7, #4]
 957 012c 5B68     		ldr	r3, [r3, #4]
 958 012e 1800     		movs	r0, r3
 959 0130 FFF7FEFF 		bl	CyBle_Get16ByPtr
 960 0134 0300     		movs	r3, r0
 961 0136 1A00     		movs	r2, r3
 962 0138 0223     		movs	r3, #2
 963 013a 1340     		ands	r3, r2
 964 013c 9BB2     		uxth	r3, r3
 965 013e 002B     		cmp	r3, #0
 966 0140 03D0     		beq	.L63
 538:Generated_Source\PSoC4/BLE_1_ess.c ****                             {
 539:Generated_Source\PSoC4/BLE_1_ess.c ****                                 event = (uint32)CYBLE_EVT_ESSS_INDICATION_ENABLED;
 967              		.loc 1 539 0
 968 0142 7E23     		movs	r3, #126
 969 0144 FF33     		adds	r3, r3, #255
 970 0146 3B62     		str	r3, [r7, #32]
 971 0148 02E0     		b	.L64
 972              	.L63:
 540:Generated_Source\PSoC4/BLE_1_ess.c ****                             }
 541:Generated_Source\PSoC4/BLE_1_ess.c ****                             else
 542:Generated_Source\PSoC4/BLE_1_ess.c ****                             {
 543:Generated_Source\PSoC4/BLE_1_ess.c ****                                 event = (uint32)CYBLE_EVT_ESSS_INDICATION_DISABLED;
 973              		.loc 1 543 0
 974 014a BF23     		movs	r3, #191
 975 014c 5B00     		lsls	r3, r3, #1
 976 014e 3B62     		str	r3, [r7, #32]
 977              	.L64:
 544:Generated_Source\PSoC4/BLE_1_ess.c ****                             }
 545:Generated_Source\PSoC4/BLE_1_ess.c **** 
 546:Generated_Source\PSoC4/BLE_1_ess.c ****                             /* Value is NULL for descriptors */
 547:Generated_Source\PSoC4/BLE_1_ess.c ****                             wrDescrReqParam.value = NULL;
 978              		.loc 1 547 0
 979 0150 0C23     		movs	r3, #12
 980 0152 FB18     		adds	r3, r7, r3
 981 0154 0022     		movs	r2, #0
 982 0156 9A60     		str	r2, [r3, #8]
 548:Generated_Source\PSoC4/BLE_1_ess.c ****                             wrDescrReqParam.descrIndex = CYBLE_ESS_CCCD;
 983              		.loc 1 548 0
 984 0158 0C23     		movs	r3, #12
 985 015a FB18     		adds	r3, r7, r3
 986 015c 0022     		movs	r2, #0
ARM GAS  C:\Users\megan\AppData\Local\Temp\ccmgjhBj.s 			page 28


 987 015e 1A71     		strb	r2, [r3, #4]
 549:Generated_Source\PSoC4/BLE_1_ess.c ****                             foundItem = CYBLE_ESS_DESCRIPTOR_ITEM;
 988              		.loc 1 549 0
 989 0160 1F23     		movs	r3, #31
 990 0162 FB18     		adds	r3, r7, r3
 991 0164 0222     		movs	r2, #2
 992 0166 1A70     		strb	r2, [r3]
 550:Generated_Source\PSoC4/BLE_1_ess.c **** 
 551:Generated_Source\PSoC4/BLE_1_ess.c ****                         #if((CYBLE_GAP_ROLE_PERIPHERAL || CYBLE_GAP_ROLE_CENTRAL) && \
 552:Generated_Source\PSoC4/BLE_1_ess.c ****                             (CYBLE_BONDING_REQUIREMENT == CYBLE_BONDING_YES))
 553:Generated_Source\PSoC4/BLE_1_ess.c ****                             /* Set flag to store bonding data to flash */
 554:Generated_Source\PSoC4/BLE_1_ess.c ****                             if(cyBle_peerBonding == CYBLE_GAP_BONDING)
 993              		.loc 1 554 0
 994 0168 824B     		ldr	r3, .L107+12
 995 016a 1B78     		ldrb	r3, [r3]
 996 016c 012B     		cmp	r3, #1
 997 016e 5BD1     		bne	.L66
 555:Generated_Source\PSoC4/BLE_1_ess.c ****                             {
 556:Generated_Source\PSoC4/BLE_1_ess.c ****                                 cyBle_pendingFlashWrite |= CYBLE_PENDING_CCCD_FLASH_WRITE_BIT;
 998              		.loc 1 556 0
 999 0170 814B     		ldr	r3, .L107+16
 1000 0172 1B78     		ldrb	r3, [r3]
 1001 0174 0222     		movs	r2, #2
 1002 0176 1343     		orrs	r3, r2
 1003 0178 DAB2     		uxtb	r2, r3
 1004 017a 7F4B     		ldr	r3, .L107+16
 1005 017c 1A70     		strb	r2, [r3]
 1006 017e 53E0     		b	.L66
 1007              	.L62:
 557:Generated_Source\PSoC4/BLE_1_ess.c ****                             }
 558:Generated_Source\PSoC4/BLE_1_ess.c ****                         #endif /* (CYBLE_BONDING_REQUIREMENT == CYBLE_BONDING_YES) */
 559:Generated_Source\PSoC4/BLE_1_ess.c ****                         }
 560:Generated_Source\PSoC4/BLE_1_ess.c ****                         else
 561:Generated_Source\PSoC4/BLE_1_ess.c ****                         {
 562:Generated_Source\PSoC4/BLE_1_ess.c ****                             gattErr = (CYBLE_GATT_ERR_CODE_T) CYBLE_GATT_ERR_WRITE_REQ_REJECTED;
 1008              		.loc 1 562 0
 1009 0180 1E23     		movs	r3, #30
 1010 0182 FB18     		adds	r3, r7, r3
 1011 0184 8022     		movs	r2, #128
 1012 0186 1A70     		strb	r2, [r3]
 1013 0188 4EE0     		b	.L66
 1014              	.L56:
 563:Generated_Source\PSoC4/BLE_1_ess.c ****                         }
 564:Generated_Source\PSoC4/BLE_1_ess.c ****                     }
 565:Generated_Source\PSoC4/BLE_1_ess.c ****                     else if(tmpHandle == essCharInfoPtr->descrHandle[CYBLE_ESS_ES_TRIGGER_SETTINGS_
 1015              		.loc 1 565 0
 1016 018a BB69     		ldr	r3, [r7, #24]
 1017 018c 1B89     		ldrh	r3, [r3, #8]
 1018 018e 1C22     		movs	r2, #28
 1019 0190 BA18     		adds	r2, r7, r2
 1020 0192 1288     		ldrh	r2, [r2]
 1021 0194 9A42     		cmp	r2, r3
 1022 0196 08D1     		bne	.L67
 566:Generated_Source\PSoC4/BLE_1_ess.c ****                     {
 567:Generated_Source\PSoC4/BLE_1_ess.c ****                         wrDescrReqParam.descrIndex = CYBLE_ESS_ES_TRIGGER_SETTINGS_DESCR1;
 1023              		.loc 1 567 0
 1024 0198 0C23     		movs	r3, #12
ARM GAS  C:\Users\megan\AppData\Local\Temp\ccmgjhBj.s 			page 29


 1025 019a FB18     		adds	r3, r7, r3
 1026 019c 0322     		movs	r2, #3
 1027 019e 1A71     		strb	r2, [r3, #4]
 568:Generated_Source\PSoC4/BLE_1_ess.c ****                         foundItem = CYBLE_ESS_DESCRIPTOR_ITEM;
 1028              		.loc 1 568 0
 1029 01a0 1F23     		movs	r3, #31
 1030 01a2 FB18     		adds	r3, r7, r3
 1031 01a4 0222     		movs	r2, #2
 1032 01a6 1A70     		strb	r2, [r3]
 1033 01a8 3EE0     		b	.L66
 1034              	.L67:
 569:Generated_Source\PSoC4/BLE_1_ess.c ****                     }
 570:Generated_Source\PSoC4/BLE_1_ess.c ****                     else if(tmpHandle == essCharInfoPtr->descrHandle[CYBLE_ESS_ES_TRIGGER_SETTINGS_
 1035              		.loc 1 570 0
 1036 01aa BB69     		ldr	r3, [r7, #24]
 1037 01ac 5B89     		ldrh	r3, [r3, #10]
 1038 01ae 1C22     		movs	r2, #28
 1039 01b0 BA18     		adds	r2, r7, r2
 1040 01b2 1288     		ldrh	r2, [r2]
 1041 01b4 9A42     		cmp	r2, r3
 1042 01b6 08D1     		bne	.L68
 571:Generated_Source\PSoC4/BLE_1_ess.c ****                     {
 572:Generated_Source\PSoC4/BLE_1_ess.c ****                         wrDescrReqParam.descrIndex = CYBLE_ESS_ES_TRIGGER_SETTINGS_DESCR2;
 1043              		.loc 1 572 0
 1044 01b8 0C23     		movs	r3, #12
 1045 01ba FB18     		adds	r3, r7, r3
 1046 01bc 0422     		movs	r2, #4
 1047 01be 1A71     		strb	r2, [r3, #4]
 573:Generated_Source\PSoC4/BLE_1_ess.c ****                         foundItem = CYBLE_ESS_DESCRIPTOR_ITEM;
 1048              		.loc 1 573 0
 1049 01c0 1F23     		movs	r3, #31
 1050 01c2 FB18     		adds	r3, r7, r3
 1051 01c4 0222     		movs	r2, #2
 1052 01c6 1A70     		strb	r2, [r3]
 1053 01c8 2EE0     		b	.L66
 1054              	.L68:
 574:Generated_Source\PSoC4/BLE_1_ess.c ****                     }
 575:Generated_Source\PSoC4/BLE_1_ess.c ****                     else if(tmpHandle == essCharInfoPtr->descrHandle[CYBLE_ESS_ES_TRIGGER_SETTINGS_
 1055              		.loc 1 575 0
 1056 01ca BB69     		ldr	r3, [r7, #24]
 1057 01cc 9B89     		ldrh	r3, [r3, #12]
 1058 01ce 1C22     		movs	r2, #28
 1059 01d0 BA18     		adds	r2, r7, r2
 1060 01d2 1288     		ldrh	r2, [r2]
 1061 01d4 9A42     		cmp	r2, r3
 1062 01d6 08D1     		bne	.L69
 576:Generated_Source\PSoC4/BLE_1_ess.c ****                     {
 577:Generated_Source\PSoC4/BLE_1_ess.c ****                         wrDescrReqParam.descrIndex = CYBLE_ESS_ES_TRIGGER_SETTINGS_DESCR3;
 1063              		.loc 1 577 0
 1064 01d8 0C23     		movs	r3, #12
 1065 01da FB18     		adds	r3, r7, r3
 1066 01dc 0522     		movs	r2, #5
 1067 01de 1A71     		strb	r2, [r3, #4]
 578:Generated_Source\PSoC4/BLE_1_ess.c ****                         foundItem = CYBLE_ESS_DESCRIPTOR_ITEM;
 1068              		.loc 1 578 0
 1069 01e0 1F23     		movs	r3, #31
 1070 01e2 FB18     		adds	r3, r7, r3
ARM GAS  C:\Users\megan\AppData\Local\Temp\ccmgjhBj.s 			page 30


 1071 01e4 0222     		movs	r2, #2
 1072 01e6 1A70     		strb	r2, [r3]
 1073 01e8 1EE0     		b	.L66
 1074              	.L69:
 579:Generated_Source\PSoC4/BLE_1_ess.c ****                     }
 580:Generated_Source\PSoC4/BLE_1_ess.c ****                     else if(tmpHandle == essCharInfoPtr->descrHandle[CYBLE_ESS_ES_CONFIG_DESCR])
 1075              		.loc 1 580 0
 1076 01ea BB69     		ldr	r3, [r7, #24]
 1077 01ec DB89     		ldrh	r3, [r3, #14]
 1078 01ee 1C22     		movs	r2, #28
 1079 01f0 BA18     		adds	r2, r7, r2
 1080 01f2 1288     		ldrh	r2, [r2]
 1081 01f4 9A42     		cmp	r2, r3
 1082 01f6 08D1     		bne	.L70
 581:Generated_Source\PSoC4/BLE_1_ess.c ****                     {
 582:Generated_Source\PSoC4/BLE_1_ess.c ****                         wrDescrReqParam.descrIndex = CYBLE_ESS_ES_CONFIG_DESCR;
 1083              		.loc 1 582 0
 1084 01f8 0C23     		movs	r3, #12
 1085 01fa FB18     		adds	r3, r7, r3
 1086 01fc 0622     		movs	r2, #6
 1087 01fe 1A71     		strb	r2, [r3, #4]
 583:Generated_Source\PSoC4/BLE_1_ess.c ****                         foundItem = CYBLE_ESS_DESCRIPTOR_ITEM;
 1088              		.loc 1 583 0
 1089 0200 1F23     		movs	r3, #31
 1090 0202 FB18     		adds	r3, r7, r3
 1091 0204 0222     		movs	r2, #2
 1092 0206 1A70     		strb	r2, [r3]
 1093 0208 0EE0     		b	.L66
 1094              	.L70:
 584:Generated_Source\PSoC4/BLE_1_ess.c ****                     }
 585:Generated_Source\PSoC4/BLE_1_ess.c ****                     else if(tmpHandle == essCharInfoPtr->descrHandle[CYBLE_ESS_CHAR_USER_DESCRIPTIO
 1095              		.loc 1 585 0
 1096 020a BB69     		ldr	r3, [r7, #24]
 1097 020c 1B8A     		ldrh	r3, [r3, #16]
 1098 020e 1C22     		movs	r2, #28
 1099 0210 BA18     		adds	r2, r7, r2
 1100 0212 1288     		ldrh	r2, [r2]
 1101 0214 9A42     		cmp	r2, r3
 1102 0216 07D1     		bne	.L66
 586:Generated_Source\PSoC4/BLE_1_ess.c ****                     {
 587:Generated_Source\PSoC4/BLE_1_ess.c ****                         wrDescrReqParam.descrIndex = CYBLE_ESS_CHAR_USER_DESCRIPTION_DESCR;
 1103              		.loc 1 587 0
 1104 0218 0C23     		movs	r3, #12
 1105 021a FB18     		adds	r3, r7, r3
 1106 021c 0722     		movs	r2, #7
 1107 021e 1A71     		strb	r2, [r3, #4]
 588:Generated_Source\PSoC4/BLE_1_ess.c ****                         foundItem = CYBLE_ESS_DESCRIPTOR_ITEM;
 1108              		.loc 1 588 0
 1109 0220 1F23     		movs	r3, #31
 1110 0222 FB18     		adds	r3, r7, r3
 1111 0224 0222     		movs	r2, #2
 1112 0226 1A70     		strb	r2, [r3]
 1113              	.L66:
 589:Generated_Source\PSoC4/BLE_1_ess.c ****                     }
 590:Generated_Source\PSoC4/BLE_1_ess.c ****                     else
 591:Generated_Source\PSoC4/BLE_1_ess.c ****                     {
 592:Generated_Source\PSoC4/BLE_1_ess.c ****                         /* No handle match was found */
ARM GAS  C:\Users\megan\AppData\Local\Temp\ccmgjhBj.s 			page 31


 593:Generated_Source\PSoC4/BLE_1_ess.c ****                     }
 594:Generated_Source\PSoC4/BLE_1_ess.c **** 
 595:Generated_Source\PSoC4/BLE_1_ess.c ****                     /* Verify if requested handle was found and successfully handled */
 596:Generated_Source\PSoC4/BLE_1_ess.c ****                     if((gattErr == CYBLE_GATT_ERR_NONE) && (0u != foundItem))
 1114              		.loc 1 596 0
 1115 0228 1E23     		movs	r3, #30
 1116 022a FB18     		adds	r3, r7, r3
 1117 022c 1B78     		ldrb	r3, [r3]
 1118 022e 002B     		cmp	r3, #0
 1119 0230 00D0     		beq	.LCB907
 1120 0232 86E1     		b	.L71	@long jump
 1121              	.LCB907:
 1122              		.loc 1 596 0 is_stmt 0 discriminator 1
 1123 0234 1F23     		movs	r3, #31
 1124 0236 FB18     		adds	r3, r7, r3
 1125 0238 1B78     		ldrb	r3, [r3]
 1126 023a 002B     		cmp	r3, #0
 1127 023c 00D1     		bne	.LCB912
 1128 023e 80E1     		b	.L71	@long jump
 1129              	.LCB912:
 597:Generated_Source\PSoC4/BLE_1_ess.c ****                     {
 598:Generated_Source\PSoC4/BLE_1_ess.c ****                         switch(wrDescrReqParam.descrIndex)
 1130              		.loc 1 598 0 is_stmt 1
 1131 0240 0C23     		movs	r3, #12
 1132 0242 FB18     		adds	r3, r7, r3
 1133 0244 1B79     		ldrb	r3, [r3, #4]
 1134 0246 062B     		cmp	r3, #6
 1135 0248 00D1     		bne	.LCB917
 1136 024a F6E0     		b	.L73	@long jump
 1137              	.LCB917:
 1138 024c 03DC     		bgt	.L74
 1139 024e 032B     		cmp	r3, #3
 1140 0250 00DA     		bge	.LCB921
 1141 0252 1FE1     		b	.L104	@long jump
 1142              	.LCB921:
 1143 0254 03E0     		b	.L103
 1144              	.L74:
 1145 0256 072B     		cmp	r3, #7
 1146 0258 00D1     		bne	.LCB927
 1147 025a F8E0     		b	.L76	@long jump
 1148              	.LCB927:
 599:Generated_Source\PSoC4/BLE_1_ess.c ****                         {
 600:Generated_Source\PSoC4/BLE_1_ess.c ****                         case CYBLE_ESS_ES_TRIGGER_SETTINGS_DESCR1:
 601:Generated_Source\PSoC4/BLE_1_ess.c ****                         case CYBLE_ESS_ES_TRIGGER_SETTINGS_DESCR2:
 602:Generated_Source\PSoC4/BLE_1_ess.c ****                         case CYBLE_ESS_ES_TRIGGER_SETTINGS_DESCR3:
 603:Generated_Source\PSoC4/BLE_1_ess.c ****                             if(eventParam->handleValPair.value.val[0u] > CYBLE_ESS_TRIG_WHILE_EQUAL
 604:Generated_Source\PSoC4/BLE_1_ess.c ****                             {
 605:Generated_Source\PSoC4/BLE_1_ess.c ****                                 /* Trigger condition is not supported */
 606:Generated_Source\PSoC4/BLE_1_ess.c ****                                 gattErr = (CYBLE_GATT_ERR_CODE_T) CYBLE_GATT_ERR_CONDITION_NOT_SUPP
 607:Generated_Source\PSoC4/BLE_1_ess.c ****                             }
 608:Generated_Source\PSoC4/BLE_1_ess.c ****                             /* If Valid Range Descriptor for the characteristic is present, then
 609:Generated_Source\PSoC4/BLE_1_ess.c ****                             * check the characteristic value range. The ranges should be properly
 610:Generated_Source\PSoC4/BLE_1_ess.c ****                             * set in the server or otherwise the server will constantly return an
 611:Generated_Source\PSoC4/BLE_1_ess.c ****                             * "Out of range" error.
 612:Generated_Source\PSoC4/BLE_1_ess.c ****                             */
 613:Generated_Source\PSoC4/BLE_1_ess.c ****                             else if((CYBLE_GATT_INVALID_ATTR_HANDLE_VALUE !=
 614:Generated_Source\PSoC4/BLE_1_ess.c ****                                 essCharInfoPtr->descrHandle[CYBLE_ESS_VRD]) &&
ARM GAS  C:\Users\megan\AppData\Local\Temp\ccmgjhBj.s 			page 32


 615:Generated_Source\PSoC4/BLE_1_ess.c ****                                     (eventParam->handleValPair.value.len > 1u)&& 
 616:Generated_Source\PSoC4/BLE_1_ess.c ****                                         (eventParam->handleValPair.value.val[0u] >= CYBLE_ESS_TRIG_
 617:Generated_Source\PSoC4/BLE_1_ess.c ****                             {
 618:Generated_Source\PSoC4/BLE_1_ess.c ****                                 /* The following "switch" groups characteristics are based on their
 619:Generated_Source\PSoC4/BLE_1_ess.c ****                                 * type.
 620:Generated_Source\PSoC4/BLE_1_ess.c ****                                 */
 621:Generated_Source\PSoC4/BLE_1_ess.c ****                                 switch((CYBLE_ESS_CHAR_INDEX_T) i)
 622:Generated_Source\PSoC4/BLE_1_ess.c ****                                 {
 623:Generated_Source\PSoC4/BLE_1_ess.c ****                                     /* uint8 */
 624:Generated_Source\PSoC4/BLE_1_ess.c ****                                     case CYBLE_ESS_BAROMETRIC_PRESSURE_TREND:
 625:Generated_Source\PSoC4/BLE_1_ess.c ****                                     case CYBLE_ESS_GUST_FACTOR:
 626:Generated_Source\PSoC4/BLE_1_ess.c ****                                     case CYBLE_ESS_UV_INDEX:
 627:Generated_Source\PSoC4/BLE_1_ess.c ****                                         gattErr = CyBle_EssHandleRangeCheck((CYBLE_ESS_CHAR_INDEX_T
 628:Generated_Source\PSoC4/BLE_1_ess.c ****                                             CYBLE_ESS_2BYTES_LENGTH, CYBLE_ESS_UNSIGNED_TYPE,
 629:Generated_Source\PSoC4/BLE_1_ess.c ****                                                 &eventParam->handleValPair.value.val[1u]);
 630:Generated_Source\PSoC4/BLE_1_ess.c ****                                         break;
 631:Generated_Source\PSoC4/BLE_1_ess.c **** 
 632:Generated_Source\PSoC4/BLE_1_ess.c ****                                     /* uint16 */
 633:Generated_Source\PSoC4/BLE_1_ess.c ****                                     case CYBLE_ESS_APPARENT_WIND_DIR:
 634:Generated_Source\PSoC4/BLE_1_ess.c ****                                     case CYBLE_ESS_APPARENT_WIND_SPEED:
 635:Generated_Source\PSoC4/BLE_1_ess.c ****                                     case CYBLE_ESS_HUMIDITY:
 636:Generated_Source\PSoC4/BLE_1_ess.c ****                                     case CYBLE_ESS_IRRADIANCE:
 637:Generated_Source\PSoC4/BLE_1_ess.c ****                                     case CYBLE_ESS_MAGNETIC_DECLINATION:
 638:Generated_Source\PSoC4/BLE_1_ess.c ****                                     case CYBLE_ESS_RAINFALL:
 639:Generated_Source\PSoC4/BLE_1_ess.c ****                                     case CYBLE_ESS_TRUE_WIND_DIR:
 640:Generated_Source\PSoC4/BLE_1_ess.c ****                                     case CYBLE_ESS_TRUE_WIND_SPEED:
 641:Generated_Source\PSoC4/BLE_1_ess.c ****                                         gattErr = CyBle_EssHandleRangeCheck((CYBLE_ESS_CHAR_INDEX_T
 642:Generated_Source\PSoC4/BLE_1_ess.c ****                                             CYBLE_ESS_4BYTES_LENGTH, CYBLE_ESS_UNSIGNED_TYPE,
 643:Generated_Source\PSoC4/BLE_1_ess.c ****                                                 &eventParam->handleValPair.value.val[1u]);
 644:Generated_Source\PSoC4/BLE_1_ess.c ****                                         break;
 645:Generated_Source\PSoC4/BLE_1_ess.c **** 
 646:Generated_Source\PSoC4/BLE_1_ess.c ****                                     /* uint24 */
 647:Generated_Source\PSoC4/BLE_1_ess.c ****                                     case CYBLE_ESS_POLLEN_CONCENTRATION:
 648:Generated_Source\PSoC4/BLE_1_ess.c ****                                         gattErr = CyBle_EssHandleRangeCheck((CYBLE_ESS_CHAR_INDEX_T
 649:Generated_Source\PSoC4/BLE_1_ess.c ****                                             CYBLE_ESS_6BYTES_LENGTH, CYBLE_ESS_UNSIGNED_TYPE,
 650:Generated_Source\PSoC4/BLE_1_ess.c ****                                                 &eventParam->handleValPair.value.val[1u]);
 651:Generated_Source\PSoC4/BLE_1_ess.c ****                                         break;
 652:Generated_Source\PSoC4/BLE_1_ess.c **** 
 653:Generated_Source\PSoC4/BLE_1_ess.c ****                                     /* uint32 */
 654:Generated_Source\PSoC4/BLE_1_ess.c ****                                     case CYBLE_ESS_PRESSURE:
 655:Generated_Source\PSoC4/BLE_1_ess.c ****                                         gattErr = CyBle_EssHandleRangeCheck((CYBLE_ESS_CHAR_INDEX_T
 656:Generated_Source\PSoC4/BLE_1_ess.c ****                                             CYBLE_ESS_8BYTES_LENGTH, CYBLE_ESS_UNSIGNED_TYPE,
 657:Generated_Source\PSoC4/BLE_1_ess.c ****                                                 &eventParam->handleValPair.value.val[1u]);
 658:Generated_Source\PSoC4/BLE_1_ess.c ****                                         break;
 659:Generated_Source\PSoC4/BLE_1_ess.c **** 
 660:Generated_Source\PSoC4/BLE_1_ess.c ****                                     /* int8 */
 661:Generated_Source\PSoC4/BLE_1_ess.c ****                                     case CYBLE_ESS_DEW_POINT:
 662:Generated_Source\PSoC4/BLE_1_ess.c ****                                     case CYBLE_ESS_HEAT_INDEX:
 663:Generated_Source\PSoC4/BLE_1_ess.c ****                                     case CYBLE_ESS_WIND_CHILL:
 664:Generated_Source\PSoC4/BLE_1_ess.c ****                                         gattErr = CyBle_EssHandleRangeCheck((CYBLE_ESS_CHAR_INDEX_T
 665:Generated_Source\PSoC4/BLE_1_ess.c ****                                             CYBLE_ESS_2BYTES_LENGTH, CYBLE_ESS_SIGNED_TYPE,
 666:Generated_Source\PSoC4/BLE_1_ess.c ****                                                 &eventParam->handleValPair.value.val[1u]);
 667:Generated_Source\PSoC4/BLE_1_ess.c ****                                         break;
 668:Generated_Source\PSoC4/BLE_1_ess.c **** 
 669:Generated_Source\PSoC4/BLE_1_ess.c ****                                     /* int16 */
 670:Generated_Source\PSoC4/BLE_1_ess.c ****                                     case CYBLE_ESS_TEMPERATURE:
 671:Generated_Source\PSoC4/BLE_1_ess.c ****                                         gattErr = CyBle_EssHandleRangeCheck((CYBLE_ESS_CHAR_INDEX_T
ARM GAS  C:\Users\megan\AppData\Local\Temp\ccmgjhBj.s 			page 33


 672:Generated_Source\PSoC4/BLE_1_ess.c ****                                             CYBLE_ESS_4BYTES_LENGTH, CYBLE_ESS_SIGNED_TYPE,
 673:Generated_Source\PSoC4/BLE_1_ess.c ****                                                 &eventParam->handleValPair.value.val[1u]);
 674:Generated_Source\PSoC4/BLE_1_ess.c ****                                         break;
 675:Generated_Source\PSoC4/BLE_1_ess.c **** 
 676:Generated_Source\PSoC4/BLE_1_ess.c ****                                     /* int24 */
 677:Generated_Source\PSoC4/BLE_1_ess.c ****                                     case CYBLE_ESS_ELEVATION:
 678:Generated_Source\PSoC4/BLE_1_ess.c ****                                         gattErr = CyBle_EssHandleRangeCheck((CYBLE_ESS_CHAR_INDEX_T
 679:Generated_Source\PSoC4/BLE_1_ess.c ****                                             CYBLE_ESS_6BYTES_LENGTH, CYBLE_ESS_SIGNED_TYPE,
 680:Generated_Source\PSoC4/BLE_1_ess.c ****                                                 &eventParam->handleValPair.value.val[1u]);
 681:Generated_Source\PSoC4/BLE_1_ess.c ****                                         break;
 682:Generated_Source\PSoC4/BLE_1_ess.c **** 
 683:Generated_Source\PSoC4/BLE_1_ess.c ****                                     case CYBLE_ESS_MAGNETIC_FLUX_DENSITY_2D:
 684:Generated_Source\PSoC4/BLE_1_ess.c ****                                         /* No validation required */
 685:Generated_Source\PSoC4/BLE_1_ess.c ****                                         break;
 686:Generated_Source\PSoC4/BLE_1_ess.c **** 
 687:Generated_Source\PSoC4/BLE_1_ess.c ****                                     case CYBLE_ESS_MAGNETIC_FLUX_DENSITY_3D:
 688:Generated_Source\PSoC4/BLE_1_ess.c ****                                         /* No validation required */
 689:Generated_Source\PSoC4/BLE_1_ess.c ****                                         break;
 690:Generated_Source\PSoC4/BLE_1_ess.c **** 
 691:Generated_Source\PSoC4/BLE_1_ess.c ****                                     default:
 692:Generated_Source\PSoC4/BLE_1_ess.c ****                                         /* Invalid characteristic */
 693:Generated_Source\PSoC4/BLE_1_ess.c ****                                         gattErr = CYBLE_GATT_ERR_UNLIKELY_ERROR;
 694:Generated_Source\PSoC4/BLE_1_ess.c ****                                         break;
 695:Generated_Source\PSoC4/BLE_1_ess.c ****                                 }
 696:Generated_Source\PSoC4/BLE_1_ess.c ****                             }
 697:Generated_Source\PSoC4/BLE_1_ess.c ****                             else /* No error */
 698:Generated_Source\PSoC4/BLE_1_ess.c ****                             {
 699:Generated_Source\PSoC4/BLE_1_ess.c ****                                 if(CYBLE_GATT_DB_ATTR_GET_ATTR_GEN_MAX_LEN(
 700:Generated_Source\PSoC4/BLE_1_ess.c ****                                     essCharInfoPtr->descrHandle[wrDescrReqParam.descrIndex]) >=
 701:Generated_Source\PSoC4/BLE_1_ess.c ****                                         eventParam->handleValPair.value.len)
 702:Generated_Source\PSoC4/BLE_1_ess.c ****                                 {
 703:Generated_Source\PSoC4/BLE_1_ess.c ****                                     /* Set new length of the descriptor value */
 704:Generated_Source\PSoC4/BLE_1_ess.c ****                                     CYBLE_GATT_DB_ATTR_SET_ATTR_GEN_LEN(
 705:Generated_Source\PSoC4/BLE_1_ess.c ****                                         essCharInfoPtr->descrHandle[wrDescrReqParam.descrIndex],
 706:Generated_Source\PSoC4/BLE_1_ess.c ****                                             eventParam->handleValPair.value.len);
 707:Generated_Source\PSoC4/BLE_1_ess.c ****                                 }
 708:Generated_Source\PSoC4/BLE_1_ess.c ****                                 else
 709:Generated_Source\PSoC4/BLE_1_ess.c ****                                 {
 710:Generated_Source\PSoC4/BLE_1_ess.c ****                                     gattErr = CYBLE_GATT_ERR_INVALID_ATTRIBUTE_LEN;
 711:Generated_Source\PSoC4/BLE_1_ess.c ****                                 }
 712:Generated_Source\PSoC4/BLE_1_ess.c ****                             }
 713:Generated_Source\PSoC4/BLE_1_ess.c ****                             break;
 714:Generated_Source\PSoC4/BLE_1_ess.c ****                         case CYBLE_ESS_ES_CONFIG_DESCR:
 715:Generated_Source\PSoC4/BLE_1_ess.c ****                             if(eventParam->handleValPair.value.val[0u] > CYBLE_ESS_CONF_BOOLEAN_OR)
 716:Generated_Source\PSoC4/BLE_1_ess.c ****                             {
 717:Generated_Source\PSoC4/BLE_1_ess.c ****                                 /* Trigger Logic value is not supported */
 718:Generated_Source\PSoC4/BLE_1_ess.c ****                                 gattErr = (CYBLE_GATT_ERR_CODE_T) CYBLE_GATT_ERR_WRITE_REQ_REJECTED
 719:Generated_Source\PSoC4/BLE_1_ess.c ****                             }
 720:Generated_Source\PSoC4/BLE_1_ess.c ****                             break;
 721:Generated_Source\PSoC4/BLE_1_ess.c ****                         case CYBLE_ESS_CHAR_USER_DESCRIPTION_DESCR:
 722:Generated_Source\PSoC4/BLE_1_ess.c ****                             /* The ESS spec. states are the following: "The Server may also choose 
 723:Generated_Source\PSoC4/BLE_1_ess.c ****                             * a write request to the Characteristic User Description if it determin
 724:Generated_Source\PSoC4/BLE_1_ess.c ****                             * the contents of the new value are unsuitable, such as a string contai
 725:Generated_Source\PSoC4/BLE_1_ess.c ****                             * characters in a language that the implementation does not support."
 726:Generated_Source\PSoC4/BLE_1_ess.c ****                             * This validation is omitted in the current version of the service.
 727:Generated_Source\PSoC4/BLE_1_ess.c ****                             */
 728:Generated_Source\PSoC4/BLE_1_ess.c **** 
ARM GAS  C:\Users\megan\AppData\Local\Temp\ccmgjhBj.s 			page 34


 729:Generated_Source\PSoC4/BLE_1_ess.c ****                             if(CYBLE_GATT_DB_ATTR_GET_ATTR_GEN_MAX_LEN(
 730:Generated_Source\PSoC4/BLE_1_ess.c ****                                 essCharInfoPtr->descrHandle[CYBLE_ESS_CHAR_USER_DESCRIPTION_DESCR])
 731:Generated_Source\PSoC4/BLE_1_ess.c ****                                     eventParam->handleValPair.value.len)
 732:Generated_Source\PSoC4/BLE_1_ess.c ****                             {
 733:Generated_Source\PSoC4/BLE_1_ess.c ****                                 /* Set new length of the descriptor value */
 734:Generated_Source\PSoC4/BLE_1_ess.c ****                                 CYBLE_GATT_DB_ATTR_SET_ATTR_GEN_LEN(
 735:Generated_Source\PSoC4/BLE_1_ess.c ****                                     essCharInfoPtr->descrHandle[CYBLE_ESS_CHAR_USER_DESCRIPTION_DES
 736:Generated_Source\PSoC4/BLE_1_ess.c ****                                         eventParam->handleValPair.value.len);
 737:Generated_Source\PSoC4/BLE_1_ess.c ****                             }
 738:Generated_Source\PSoC4/BLE_1_ess.c ****                             else
 739:Generated_Source\PSoC4/BLE_1_ess.c ****                             {
 740:Generated_Source\PSoC4/BLE_1_ess.c ****                                 gattErr = CYBLE_GATT_ERR_INVALID_ATTRIBUTE_LEN;
 741:Generated_Source\PSoC4/BLE_1_ess.c ****                             }
 742:Generated_Source\PSoC4/BLE_1_ess.c ****                             break;
 743:Generated_Source\PSoC4/BLE_1_ess.c ****                         default:
 744:Generated_Source\PSoC4/BLE_1_ess.c ****                             break;
 1149              		.loc 1 744 0
 1150 025c 1AE1     		b	.L104
 1151              	.L103:
 603:Generated_Source\PSoC4/BLE_1_ess.c ****                             {
 1152              		.loc 1 603 0
 1153 025e 7B68     		ldr	r3, [r7, #4]
 1154 0260 5B68     		ldr	r3, [r3, #4]
 1155 0262 1B78     		ldrb	r3, [r3]
 1156 0264 092B     		cmp	r3, #9
 1157 0266 04D9     		bls	.L77
 606:Generated_Source\PSoC4/BLE_1_ess.c ****                             }
 1158              		.loc 1 606 0
 1159 0268 1E23     		movs	r3, #30
 1160 026a FB18     		adds	r3, r7, r3
 1161 026c 8122     		movs	r2, #129
 1162 026e 1A70     		strb	r2, [r3]
 713:Generated_Source\PSoC4/BLE_1_ess.c ****                         case CYBLE_ESS_ES_CONFIG_DESCR:
 1163              		.loc 1 713 0
 1164 0270 13E1     		b	.L93
 1165              	.L77:
 614:Generated_Source\PSoC4/BLE_1_ess.c ****                                     (eventParam->handleValPair.value.len > 1u)&& 
 1166              		.loc 1 614 0
 1167 0272 BB69     		ldr	r3, [r7, #24]
 1168 0274 5B8A     		ldrh	r3, [r3, #18]
 613:Generated_Source\PSoC4/BLE_1_ess.c ****                                 essCharInfoPtr->descrHandle[CYBLE_ESS_VRD]) &&
 1169              		.loc 1 613 0
 1170 0276 002B     		cmp	r3, #0
 1171 0278 00D1     		bne	.LCB948
 1172 027a AFE0     		b	.L79	@long jump
 1173              	.LCB948:
 615:Generated_Source\PSoC4/BLE_1_ess.c ****                                         (eventParam->handleValPair.value.val[0u] >= CYBLE_ESS_TRIG_
 1174              		.loc 1 615 0
 1175 027c 7B68     		ldr	r3, [r7, #4]
 1176 027e 1B89     		ldrh	r3, [r3, #8]
 614:Generated_Source\PSoC4/BLE_1_ess.c ****                                     (eventParam->handleValPair.value.len > 1u)&& 
 1177              		.loc 1 614 0
 1178 0280 012B     		cmp	r3, #1
 1179 0282 00D8     		bhi	.LCB952
 1180 0284 AAE0     		b	.L79	@long jump
 1181              	.LCB952:
 616:Generated_Source\PSoC4/BLE_1_ess.c ****                             {
ARM GAS  C:\Users\megan\AppData\Local\Temp\ccmgjhBj.s 			page 35


 1182              		.loc 1 616 0
 1183 0286 7B68     		ldr	r3, [r7, #4]
 1184 0288 5B68     		ldr	r3, [r3, #4]
 1185 028a 1B78     		ldrb	r3, [r3]
 615:Generated_Source\PSoC4/BLE_1_ess.c ****                                         (eventParam->handleValPair.value.val[0u] >= CYBLE_ESS_TRIG_
 1186              		.loc 1 615 0
 1187 028c 032B     		cmp	r3, #3
 1188 028e 00D8     		bhi	.LCB957
 1189 0290 A4E0     		b	.L79	@long jump
 1190              	.LCB957:
 621:Generated_Source\PSoC4/BLE_1_ess.c ****                                 {
 1191              		.loc 1 621 0
 1192 0292 2723     		movs	r3, #39
 1193 0294 FB18     		adds	r3, r7, r3
 1194 0296 1B78     		ldrb	r3, [r3]
 1195 0298 142B     		cmp	r3, #20
 1196 029a 00D9     		bls	.LCB962
 1197 029c 96E0     		b	.L80	@long jump
 1198              	.LCB962:
 1199 029e 9A00     		lsls	r2, r3, #2
 1200 02a0 364B     		ldr	r3, .L107+20
 1201 02a2 D318     		adds	r3, r2, r3
 1202 02a4 1B68     		ldr	r3, [r3]
 1203 02a6 9F46     		mov	pc, r3
 1204              		.section	.rodata
 1205              		.align	2
 1206              	.L82:
 1207 0078 CC030000 		.word	.L80
 1208 007c CE020000 		.word	.L81
 1209 0080 CE020000 		.word	.L81
 1210 0084 40030000 		.word	.L83
 1211 0088 A6030000 		.word	.L84
 1212 008c A8020000 		.word	.L85
 1213 0090 40030000 		.word	.L83
 1214 0094 CE020000 		.word	.L81
 1215 0098 CE020000 		.word	.L81
 1216 009c F4020000 		.word	.L86
 1217 00a0 CE020000 		.word	.L81
 1218 00a4 1A030000 		.word	.L87
 1219 00a8 80030000 		.word	.L88
 1220 00ac CE020000 		.word	.L81
 1221 00b0 CE020000 		.word	.L81
 1222 00b4 A8020000 		.word	.L85
 1223 00b8 40030000 		.word	.L83
 1224 00bc A8020000 		.word	.L85
 1225 00c0 CE020000 		.word	.L81
 1226 00c4 D6030000 		.word	.L105
 1227 00c8 D6030000 		.word	.L105
 1228              		.section	.text.CyBle_EsssWriteEventHandler
 1229              	.L85:
 629:Generated_Source\PSoC4/BLE_1_ess.c ****                                         break;
 1230              		.loc 1 629 0
 1231 02a8 7B68     		ldr	r3, [r7, #4]
 1232 02aa 5B68     		ldr	r3, [r3, #4]
 627:Generated_Source\PSoC4/BLE_1_ess.c ****                                             CYBLE_ESS_2BYTES_LENGTH, CYBLE_ESS_UNSIGNED_TYPE,
 1233              		.loc 1 627 0
 1234 02ac 0133     		adds	r3, r3, #1
ARM GAS  C:\Users\megan\AppData\Local\Temp\ccmgjhBj.s 			page 36


 1235 02ae 1E22     		movs	r2, #30
 1236 02b0 BC18     		adds	r4, r7, r2
 1237 02b2 2622     		movs	r2, #38
 1238 02b4 BA18     		adds	r2, r7, r2
 1239 02b6 1178     		ldrb	r1, [r2]
 1240 02b8 2722     		movs	r2, #39
 1241 02ba BA18     		adds	r2, r7, r2
 1242 02bc 1078     		ldrb	r0, [r2]
 1243 02be 0093     		str	r3, [sp]
 1244 02c0 0023     		movs	r3, #0
 1245 02c2 0222     		movs	r2, #2
 1246 02c4 FFF7FEFF 		bl	CyBle_EssHandleRangeCheck
 1247 02c8 0300     		movs	r3, r0
 1248 02ca 2370     		strb	r3, [r4]
 630:Generated_Source\PSoC4/BLE_1_ess.c **** 
 1249              		.loc 1 630 0
 1250 02cc 84E0     		b	.L91
 1251              	.L81:
 643:Generated_Source\PSoC4/BLE_1_ess.c ****                                         break;
 1252              		.loc 1 643 0
 1253 02ce 7B68     		ldr	r3, [r7, #4]
 1254 02d0 5B68     		ldr	r3, [r3, #4]
 641:Generated_Source\PSoC4/BLE_1_ess.c ****                                             CYBLE_ESS_4BYTES_LENGTH, CYBLE_ESS_UNSIGNED_TYPE,
 1255              		.loc 1 641 0
 1256 02d2 0133     		adds	r3, r3, #1
 1257 02d4 1E22     		movs	r2, #30
 1258 02d6 BC18     		adds	r4, r7, r2
 1259 02d8 2622     		movs	r2, #38
 1260 02da BA18     		adds	r2, r7, r2
 1261 02dc 1178     		ldrb	r1, [r2]
 1262 02de 2722     		movs	r2, #39
 1263 02e0 BA18     		adds	r2, r7, r2
 1264 02e2 1078     		ldrb	r0, [r2]
 1265 02e4 0093     		str	r3, [sp]
 1266 02e6 0023     		movs	r3, #0
 1267 02e8 0422     		movs	r2, #4
 1268 02ea FFF7FEFF 		bl	CyBle_EssHandleRangeCheck
 1269 02ee 0300     		movs	r3, r0
 1270 02f0 2370     		strb	r3, [r4]
 644:Generated_Source\PSoC4/BLE_1_ess.c **** 
 1271              		.loc 1 644 0
 1272 02f2 71E0     		b	.L91
 1273              	.L86:
 650:Generated_Source\PSoC4/BLE_1_ess.c ****                                         break;
 1274              		.loc 1 650 0
 1275 02f4 7B68     		ldr	r3, [r7, #4]
 1276 02f6 5B68     		ldr	r3, [r3, #4]
 648:Generated_Source\PSoC4/BLE_1_ess.c ****                                             CYBLE_ESS_6BYTES_LENGTH, CYBLE_ESS_UNSIGNED_TYPE,
 1277              		.loc 1 648 0
 1278 02f8 0133     		adds	r3, r3, #1
 1279 02fa 1E22     		movs	r2, #30
 1280 02fc BC18     		adds	r4, r7, r2
 1281 02fe 2622     		movs	r2, #38
 1282 0300 BA18     		adds	r2, r7, r2
 1283 0302 1178     		ldrb	r1, [r2]
 1284 0304 2722     		movs	r2, #39
 1285 0306 BA18     		adds	r2, r7, r2
ARM GAS  C:\Users\megan\AppData\Local\Temp\ccmgjhBj.s 			page 37


 1286 0308 1078     		ldrb	r0, [r2]
 1287 030a 0093     		str	r3, [sp]
 1288 030c 0023     		movs	r3, #0
 1289 030e 0622     		movs	r2, #6
 1290 0310 FFF7FEFF 		bl	CyBle_EssHandleRangeCheck
 1291 0314 0300     		movs	r3, r0
 1292 0316 2370     		strb	r3, [r4]
 651:Generated_Source\PSoC4/BLE_1_ess.c **** 
 1293              		.loc 1 651 0
 1294 0318 5EE0     		b	.L91
 1295              	.L87:
 657:Generated_Source\PSoC4/BLE_1_ess.c ****                                         break;
 1296              		.loc 1 657 0
 1297 031a 7B68     		ldr	r3, [r7, #4]
 1298 031c 5B68     		ldr	r3, [r3, #4]
 655:Generated_Source\PSoC4/BLE_1_ess.c ****                                             CYBLE_ESS_8BYTES_LENGTH, CYBLE_ESS_UNSIGNED_TYPE,
 1299              		.loc 1 655 0
 1300 031e 0133     		adds	r3, r3, #1
 1301 0320 1E22     		movs	r2, #30
 1302 0322 BC18     		adds	r4, r7, r2
 1303 0324 2622     		movs	r2, #38
 1304 0326 BA18     		adds	r2, r7, r2
 1305 0328 1178     		ldrb	r1, [r2]
 1306 032a 2722     		movs	r2, #39
 1307 032c BA18     		adds	r2, r7, r2
 1308 032e 1078     		ldrb	r0, [r2]
 1309 0330 0093     		str	r3, [sp]
 1310 0332 0023     		movs	r3, #0
 1311 0334 0822     		movs	r2, #8
 1312 0336 FFF7FEFF 		bl	CyBle_EssHandleRangeCheck
 1313 033a 0300     		movs	r3, r0
 1314 033c 2370     		strb	r3, [r4]
 658:Generated_Source\PSoC4/BLE_1_ess.c **** 
 1315              		.loc 1 658 0
 1316 033e 4BE0     		b	.L91
 1317              	.L83:
 666:Generated_Source\PSoC4/BLE_1_ess.c ****                                         break;
 1318              		.loc 1 666 0
 1319 0340 7B68     		ldr	r3, [r7, #4]
 1320 0342 5B68     		ldr	r3, [r3, #4]
 664:Generated_Source\PSoC4/BLE_1_ess.c ****                                             CYBLE_ESS_2BYTES_LENGTH, CYBLE_ESS_SIGNED_TYPE,
 1321              		.loc 1 664 0
 1322 0344 0133     		adds	r3, r3, #1
 1323 0346 1E22     		movs	r2, #30
 1324 0348 BC18     		adds	r4, r7, r2
 1325 034a 2622     		movs	r2, #38
 1326 034c BA18     		adds	r2, r7, r2
 1327 034e 1178     		ldrb	r1, [r2]
 1328 0350 2722     		movs	r2, #39
 1329 0352 BA18     		adds	r2, r7, r2
 1330 0354 1078     		ldrb	r0, [r2]
 1331 0356 0093     		str	r3, [sp]
 1332 0358 0123     		movs	r3, #1
 1333 035a 0222     		movs	r2, #2
 1334 035c FFF7FEFF 		bl	CyBle_EssHandleRangeCheck
 1335 0360 0300     		movs	r3, r0
 1336 0362 2370     		strb	r3, [r4]
ARM GAS  C:\Users\megan\AppData\Local\Temp\ccmgjhBj.s 			page 38


 667:Generated_Source\PSoC4/BLE_1_ess.c **** 
 1337              		.loc 1 667 0
 1338 0364 38E0     		b	.L91
 1339              	.L108:
 1340 0366 C046     		.align	2
 1341              	.L107:
 1342 0368 04000000 		.word	CyBle_EssApplCallback
 1343 036c 00000000 		.word	cyBle_esss
 1344 0370 00000000 		.word	cyBle_gattDB
 1345 0374 00000000 		.word	cyBle_peerBonding
 1346 0378 00000000 		.word	cyBle_pendingFlashWrite
 1347 037c 78000000 		.word	.L82
 1348              	.L88:
 673:Generated_Source\PSoC4/BLE_1_ess.c ****                                         break;
 1349              		.loc 1 673 0
 1350 0380 7B68     		ldr	r3, [r7, #4]
 1351 0382 5B68     		ldr	r3, [r3, #4]
 671:Generated_Source\PSoC4/BLE_1_ess.c ****                                             CYBLE_ESS_4BYTES_LENGTH, CYBLE_ESS_SIGNED_TYPE,
 1352              		.loc 1 671 0
 1353 0384 0133     		adds	r3, r3, #1
 1354 0386 1E22     		movs	r2, #30
 1355 0388 BC18     		adds	r4, r7, r2
 1356 038a 2622     		movs	r2, #38
 1357 038c BA18     		adds	r2, r7, r2
 1358 038e 1178     		ldrb	r1, [r2]
 1359 0390 2722     		movs	r2, #39
 1360 0392 BA18     		adds	r2, r7, r2
 1361 0394 1078     		ldrb	r0, [r2]
 1362 0396 0093     		str	r3, [sp]
 1363 0398 0123     		movs	r3, #1
 1364 039a 0422     		movs	r2, #4
 1365 039c FFF7FEFF 		bl	CyBle_EssHandleRangeCheck
 1366 03a0 0300     		movs	r3, r0
 1367 03a2 2370     		strb	r3, [r4]
 674:Generated_Source\PSoC4/BLE_1_ess.c **** 
 1368              		.loc 1 674 0
 1369 03a4 18E0     		b	.L91
 1370              	.L84:
 680:Generated_Source\PSoC4/BLE_1_ess.c ****                                         break;
 1371              		.loc 1 680 0
 1372 03a6 7B68     		ldr	r3, [r7, #4]
 1373 03a8 5B68     		ldr	r3, [r3, #4]
 678:Generated_Source\PSoC4/BLE_1_ess.c ****                                             CYBLE_ESS_6BYTES_LENGTH, CYBLE_ESS_SIGNED_TYPE,
 1374              		.loc 1 678 0
 1375 03aa 0133     		adds	r3, r3, #1
 1376 03ac 1E22     		movs	r2, #30
 1377 03ae BC18     		adds	r4, r7, r2
 1378 03b0 2622     		movs	r2, #38
 1379 03b2 BA18     		adds	r2, r7, r2
 1380 03b4 1178     		ldrb	r1, [r2]
 1381 03b6 2722     		movs	r2, #39
 1382 03b8 BA18     		adds	r2, r7, r2
 1383 03ba 1078     		ldrb	r0, [r2]
 1384 03bc 0093     		str	r3, [sp]
 1385 03be 0123     		movs	r3, #1
 1386 03c0 0622     		movs	r2, #6
 1387 03c2 FFF7FEFF 		bl	CyBle_EssHandleRangeCheck
ARM GAS  C:\Users\megan\AppData\Local\Temp\ccmgjhBj.s 			page 39


 1388 03c6 0300     		movs	r3, r0
 1389 03c8 2370     		strb	r3, [r4]
 681:Generated_Source\PSoC4/BLE_1_ess.c **** 
 1390              		.loc 1 681 0
 1391 03ca 05E0     		b	.L91
 1392              	.L80:
 693:Generated_Source\PSoC4/BLE_1_ess.c ****                                         break;
 1393              		.loc 1 693 0
 1394 03cc 1E23     		movs	r3, #30
 1395 03ce FB18     		adds	r3, r7, r3
 1396 03d0 0E22     		movs	r2, #14
 1397 03d2 1A70     		strb	r2, [r3]
 694:Generated_Source\PSoC4/BLE_1_ess.c ****                                 }
 1398              		.loc 1 694 0
 1399 03d4 00E0     		b	.L91
 1400              	.L105:
 685:Generated_Source\PSoC4/BLE_1_ess.c **** 
 1401              		.loc 1 685 0
 1402 03d6 C046     		nop
 1403              	.L91:
 696:Generated_Source\PSoC4/BLE_1_ess.c ****                             else /* No error */
 1404              		.loc 1 696 0 discriminator 3
 1405 03d8 C046     		nop
 713:Generated_Source\PSoC4/BLE_1_ess.c ****                         case CYBLE_ESS_ES_CONFIG_DESCR:
 1406              		.loc 1 713 0 discriminator 3
 1407 03da 5EE0     		b	.L93
 1408              	.L79:
 699:Generated_Source\PSoC4/BLE_1_ess.c ****                                     essCharInfoPtr->descrHandle[wrDescrReqParam.descrIndex]) >=
 1409              		.loc 1 699 0
 1410 03dc 0C23     		movs	r3, #12
 1411 03de FB18     		adds	r3, r7, r3
 1412 03e0 1B79     		ldrb	r3, [r3, #4]
 1413 03e2 BA69     		ldr	r2, [r7, #24]
 1414 03e4 5B00     		lsls	r3, r3, #1
 1415 03e6 D318     		adds	r3, r2, r3
 1416 03e8 0233     		adds	r3, r3, #2
 1417 03ea 1B88     		ldrh	r3, [r3]
 1418 03ec 5A1E     		subs	r2, r3, #1
 1419 03ee 7349     		ldr	r1, .L109
 1420 03f0 1300     		movs	r3, r2
 1421 03f2 9B00     		lsls	r3, r3, #2
 1422 03f4 9B18     		adds	r3, r3, r2
 1423 03f6 9B00     		lsls	r3, r3, #2
 1424 03f8 CB18     		adds	r3, r1, r3
 1425 03fa 0C33     		adds	r3, r3, #12
 1426 03fc 1A88     		ldrh	r2, [r3]
 701:Generated_Source\PSoC4/BLE_1_ess.c ****                                 {
 1427              		.loc 1 701 0
 1428 03fe 7B68     		ldr	r3, [r7, #4]
 1429 0400 1B89     		ldrh	r3, [r3, #8]
 699:Generated_Source\PSoC4/BLE_1_ess.c ****                                     essCharInfoPtr->descrHandle[wrDescrReqParam.descrIndex]) >=
 1430              		.loc 1 699 0
 1431 0402 9A42     		cmp	r2, r3
 1432 0404 14D3     		bcc	.L92
 704:Generated_Source\PSoC4/BLE_1_ess.c ****                                         essCharInfoPtr->descrHandle[wrDescrReqParam.descrIndex],
 1433              		.loc 1 704 0
 1434 0406 0C23     		movs	r3, #12
ARM GAS  C:\Users\megan\AppData\Local\Temp\ccmgjhBj.s 			page 40


 1435 0408 FB18     		adds	r3, r7, r3
 1436 040a 1B79     		ldrb	r3, [r3, #4]
 1437 040c BA69     		ldr	r2, [r7, #24]
 1438 040e 5B00     		lsls	r3, r3, #1
 1439 0410 D318     		adds	r3, r2, r3
 1440 0412 0233     		adds	r3, r3, #2
 1441 0414 1B88     		ldrh	r3, [r3]
 1442 0416 5A1E     		subs	r2, r3, #1
 1443 0418 6849     		ldr	r1, .L109
 1444 041a 1300     		movs	r3, r2
 1445 041c 9B00     		lsls	r3, r3, #2
 1446 041e 9B18     		adds	r3, r3, r2
 1447 0420 9B00     		lsls	r3, r3, #2
 1448 0422 CB18     		adds	r3, r1, r3
 1449 0424 1033     		adds	r3, r3, #16
 1450 0426 1B68     		ldr	r3, [r3]
 1451 0428 7A68     		ldr	r2, [r7, #4]
 1452 042a 1289     		ldrh	r2, [r2, #8]
 1453 042c 1A80     		strh	r2, [r3]
 713:Generated_Source\PSoC4/BLE_1_ess.c ****                         case CYBLE_ESS_ES_CONFIG_DESCR:
 1454              		.loc 1 713 0
 1455 042e 34E0     		b	.L93
 1456              	.L92:
 710:Generated_Source\PSoC4/BLE_1_ess.c ****                                 }
 1457              		.loc 1 710 0
 1458 0430 1E23     		movs	r3, #30
 1459 0432 FB18     		adds	r3, r7, r3
 1460 0434 0D22     		movs	r2, #13
 1461 0436 1A70     		strb	r2, [r3]
 713:Generated_Source\PSoC4/BLE_1_ess.c ****                         case CYBLE_ESS_ES_CONFIG_DESCR:
 1462              		.loc 1 713 0
 1463 0438 2FE0     		b	.L93
 1464              	.L73:
 715:Generated_Source\PSoC4/BLE_1_ess.c ****                             {
 1465              		.loc 1 715 0
 1466 043a 7B68     		ldr	r3, [r7, #4]
 1467 043c 5B68     		ldr	r3, [r3, #4]
 1468 043e 1B78     		ldrb	r3, [r3]
 1469 0440 012B     		cmp	r3, #1
 1470 0442 29D9     		bls	.L106
 718:Generated_Source\PSoC4/BLE_1_ess.c ****                             }
 1471              		.loc 1 718 0
 1472 0444 1E23     		movs	r3, #30
 1473 0446 FB18     		adds	r3, r7, r3
 1474 0448 8022     		movs	r2, #128
 1475 044a 1A70     		strb	r2, [r3]
 720:Generated_Source\PSoC4/BLE_1_ess.c ****                         case CYBLE_ESS_CHAR_USER_DESCRIPTION_DESCR:
 1476              		.loc 1 720 0
 1477 044c 24E0     		b	.L106
 1478              	.L76:
 729:Generated_Source\PSoC4/BLE_1_ess.c ****                                 essCharInfoPtr->descrHandle[CYBLE_ESS_CHAR_USER_DESCRIPTION_DESCR])
 1479              		.loc 1 729 0
 1480 044e BB69     		ldr	r3, [r7, #24]
 1481 0450 1B8A     		ldrh	r3, [r3, #16]
 1482 0452 5A1E     		subs	r2, r3, #1
 1483 0454 5949     		ldr	r1, .L109
 1484 0456 1300     		movs	r3, r2
ARM GAS  C:\Users\megan\AppData\Local\Temp\ccmgjhBj.s 			page 41


 1485 0458 9B00     		lsls	r3, r3, #2
 1486 045a 9B18     		adds	r3, r3, r2
 1487 045c 9B00     		lsls	r3, r3, #2
 1488 045e CB18     		adds	r3, r1, r3
 1489 0460 0C33     		adds	r3, r3, #12
 1490 0462 1A88     		ldrh	r2, [r3]
 731:Generated_Source\PSoC4/BLE_1_ess.c ****                             {
 1491              		.loc 1 731 0
 1492 0464 7B68     		ldr	r3, [r7, #4]
 1493 0466 1B89     		ldrh	r3, [r3, #8]
 729:Generated_Source\PSoC4/BLE_1_ess.c ****                                 essCharInfoPtr->descrHandle[CYBLE_ESS_CHAR_USER_DESCRIPTION_DESCR])
 1494              		.loc 1 729 0
 1495 0468 9A42     		cmp	r2, r3
 1496 046a 0ED3     		bcc	.L95
 734:Generated_Source\PSoC4/BLE_1_ess.c ****                                     essCharInfoPtr->descrHandle[CYBLE_ESS_CHAR_USER_DESCRIPTION_DES
 1497              		.loc 1 734 0
 1498 046c BB69     		ldr	r3, [r7, #24]
 1499 046e 1B8A     		ldrh	r3, [r3, #16]
 1500 0470 5A1E     		subs	r2, r3, #1
 1501 0472 5249     		ldr	r1, .L109
 1502 0474 1300     		movs	r3, r2
 1503 0476 9B00     		lsls	r3, r3, #2
 1504 0478 9B18     		adds	r3, r3, r2
 1505 047a 9B00     		lsls	r3, r3, #2
 1506 047c CB18     		adds	r3, r1, r3
 1507 047e 1033     		adds	r3, r3, #16
 1508 0480 1B68     		ldr	r3, [r3]
 1509 0482 7A68     		ldr	r2, [r7, #4]
 1510 0484 1289     		ldrh	r2, [r2, #8]
 1511 0486 1A80     		strh	r2, [r3]
 742:Generated_Source\PSoC4/BLE_1_ess.c ****                         default:
 1512              		.loc 1 742 0
 1513 0488 07E0     		b	.L93
 1514              	.L95:
 740:Generated_Source\PSoC4/BLE_1_ess.c ****                             }
 1515              		.loc 1 740 0
 1516 048a 1E23     		movs	r3, #30
 1517 048c FB18     		adds	r3, r7, r3
 1518 048e 0D22     		movs	r2, #13
 1519 0490 1A70     		strb	r2, [r3]
 742:Generated_Source\PSoC4/BLE_1_ess.c ****                         default:
 1520              		.loc 1 742 0
 1521 0492 02E0     		b	.L93
 1522              	.L104:
 1523              		.loc 1 744 0
 1524 0494 C046     		nop
 1525 0496 00E0     		b	.L93
 1526              	.L106:
 720:Generated_Source\PSoC4/BLE_1_ess.c ****                         case CYBLE_ESS_CHAR_USER_DESCRIPTION_DESCR:
 1527              		.loc 1 720 0
 1528 0498 C046     		nop
 1529              	.L93:
 745:Generated_Source\PSoC4/BLE_1_ess.c ****                         }
 746:Generated_Source\PSoC4/BLE_1_ess.c ****                         
 747:Generated_Source\PSoC4/BLE_1_ess.c ****                         /* Check is there no error conditions happen yet */
 748:Generated_Source\PSoC4/BLE_1_ess.c ****                         if(gattErr == CYBLE_GATT_ERR_NONE)
 1530              		.loc 1 748 0
ARM GAS  C:\Users\megan\AppData\Local\Temp\ccmgjhBj.s 			page 42


 1531 049a 1E23     		movs	r3, #30
 1532 049c FB18     		adds	r3, r7, r3
 1533 049e 1B78     		ldrb	r3, [r3]
 1534 04a0 002B     		cmp	r3, #0
 1535 04a2 45D1     		bne	.L97
 749:Generated_Source\PSoC4/BLE_1_ess.c ****                         {
 750:Generated_Source\PSoC4/BLE_1_ess.c ****                             gattErr = CyBle_GattDbCheckPermission(eventParam->handleValPair.attrHan
 1536              		.loc 1 750 0
 1537 04a4 7B68     		ldr	r3, [r7, #4]
 1538 04a6 9B89     		ldrh	r3, [r3, #12]
 1539 04a8 7968     		ldr	r1, [r7, #4]
 1540 04aa 1E22     		movs	r2, #30
 1541 04ac BC18     		adds	r4, r7, r2
 1542 04ae 4222     		movs	r2, #66
 1543 04b0 1800     		movs	r0, r3
 1544 04b2 FFF7FEFF 		bl	CyBle_GattDbCheckPermission
 1545 04b6 0300     		movs	r3, r0
 1546 04b8 2370     		strb	r3, [r4]
 751:Generated_Source\PSoC4/BLE_1_ess.c ****                                                                   &eventParam->connHandle,
 752:Generated_Source\PSoC4/BLE_1_ess.c ****                                                                   CYBLE_GATT_DB_WRITE | CYBLE_GATT_
 753:Generated_Source\PSoC4/BLE_1_ess.c ****                             
 754:Generated_Source\PSoC4/BLE_1_ess.c ****                             if(gattErr == CYBLE_GATT_ERR_NONE)
 1547              		.loc 1 754 0
 1548 04ba 1E23     		movs	r3, #30
 1549 04bc FB18     		adds	r3, r7, r3
 1550 04be 1B78     		ldrb	r3, [r3]
 1551 04c0 002B     		cmp	r3, #0
 1552 04c2 35D1     		bne	.L97
 755:Generated_Source\PSoC4/BLE_1_ess.c ****                             {
 756:Generated_Source\PSoC4/BLE_1_ess.c ****                                 /* Fill data and pass it to user */
 757:Generated_Source\PSoC4/BLE_1_ess.c ****                                 wrDescrReqParam.connHandle = eventParam->connHandle;
 1553              		.loc 1 757 0
 1554 04c4 0C23     		movs	r3, #12
 1555 04c6 FB18     		adds	r3, r7, r3
 1556 04c8 7A68     		ldr	r2, [r7, #4]
 1557 04ca 1288     		ldrh	r2, [r2]
 1558 04cc 1A80     		strh	r2, [r3]
 758:Generated_Source\PSoC4/BLE_1_ess.c ****                                 wrDescrReqParam.charIndex = (CYBLE_ESS_CHAR_INDEX_T) i;
 1559              		.loc 1 758 0
 1560 04ce 0C23     		movs	r3, #12
 1561 04d0 FB18     		adds	r3, r7, r3
 1562 04d2 2722     		movs	r2, #39
 1563 04d4 BA18     		adds	r2, r7, r2
 1564 04d6 1278     		ldrb	r2, [r2]
 1565 04d8 9A70     		strb	r2, [r3, #2]
 759:Generated_Source\PSoC4/BLE_1_ess.c ****                                 wrDescrReqParam.charInstance = j;
 1566              		.loc 1 759 0
 1567 04da 0C23     		movs	r3, #12
 1568 04dc FB18     		adds	r3, r7, r3
 1569 04de 2622     		movs	r2, #38
 1570 04e0 BA18     		adds	r2, r7, r2
 1571 04e2 1278     		ldrb	r2, [r2]
 1572 04e4 DA70     		strb	r2, [r3, #3]
 760:Generated_Source\PSoC4/BLE_1_ess.c ****                                 wrDescrReqParam.gattErrorCode = CYBLE_GATT_ERR_NONE;
 1573              		.loc 1 760 0
 1574 04e6 0C23     		movs	r3, #12
 1575 04e8 FB18     		adds	r3, r7, r3
ARM GAS  C:\Users\megan\AppData\Local\Temp\ccmgjhBj.s 			page 43


 1576 04ea 0022     		movs	r2, #0
 1577 04ec 5A71     		strb	r2, [r3, #5]
 761:Generated_Source\PSoC4/BLE_1_ess.c **** 
 762:Generated_Source\PSoC4/BLE_1_ess.c ****                                 if(wrDescrReqParam.descrIndex != CYBLE_ESS_CCCD)
 1578              		.loc 1 762 0
 1579 04ee 0C23     		movs	r3, #12
 1580 04f0 FB18     		adds	r3, r7, r3
 1581 04f2 1B79     		ldrb	r3, [r3, #4]
 1582 04f4 002B     		cmp	r3, #0
 1583 04f6 04D0     		beq	.L98
 763:Generated_Source\PSoC4/BLE_1_ess.c ****                                 {
 764:Generated_Source\PSoC4/BLE_1_ess.c ****                                     /* Check if descriptor index is not CCCD index as "event" and
 765:Generated_Source\PSoC4/BLE_1_ess.c ****                                     * "wrDescrReqParam.value" parameters for CCCD were handled
 766:Generated_Source\PSoC4/BLE_1_ess.c ****                                     * above.
 767:Generated_Source\PSoC4/BLE_1_ess.c ****                                     */
 768:Generated_Source\PSoC4/BLE_1_ess.c ****                                     wrDescrReqParam.value = &eventParam->handleValPair.value;
 1584              		.loc 1 768 0
 1585 04f8 7B68     		ldr	r3, [r7, #4]
 1586 04fa 1A1D     		adds	r2, r3, #4
 1587 04fc 0C23     		movs	r3, #12
 1588 04fe FB18     		adds	r3, r7, r3
 1589 0500 9A60     		str	r2, [r3, #8]
 1590              	.L98:
 769:Generated_Source\PSoC4/BLE_1_ess.c ****                                 }
 770:Generated_Source\PSoC4/BLE_1_ess.c **** 
 771:Generated_Source\PSoC4/BLE_1_ess.c ****                                 CyBle_EssApplCallback(event, &wrDescrReqParam);
 1591              		.loc 1 771 0
 1592 0502 2F4B     		ldr	r3, .L109+4
 1593 0504 1B68     		ldr	r3, [r3]
 1594 0506 0C22     		movs	r2, #12
 1595 0508 B918     		adds	r1, r7, r2
 1596 050a 3A6A     		ldr	r2, [r7, #32]
 1597 050c 1000     		movs	r0, r2
 1598 050e 9847     		blx	r3
 772:Generated_Source\PSoC4/BLE_1_ess.c **** 
 773:Generated_Source\PSoC4/BLE_1_ess.c ****                                 if(wrDescrReqParam.gattErrorCode == CYBLE_GATT_ERR_NONE)
 1599              		.loc 1 773 0
 1600 0510 0C23     		movs	r3, #12
 1601 0512 FB18     		adds	r3, r7, r3
 1602 0514 5B79     		ldrb	r3, [r3, #5]
 1603 0516 002B     		cmp	r3, #0
 1604 0518 0AD1     		bne	.L97
 774:Generated_Source\PSoC4/BLE_1_ess.c ****                                 {
 775:Generated_Source\PSoC4/BLE_1_ess.c ****                                     /* Write value to GATT database */
 776:Generated_Source\PSoC4/BLE_1_ess.c ****                                     gattErr = CyBle_GattsWriteAttributeValue(&eventParam->handleVal
 1605              		.loc 1 776 0
 1606 051a 7B68     		ldr	r3, [r7, #4]
 1607 051c 181D     		adds	r0, r3, #4
 1608 051e 7A68     		ldr	r2, [r7, #4]
 1609 0520 1E23     		movs	r3, #30
 1610 0522 FC18     		adds	r4, r7, r3
 1611 0524 4023     		movs	r3, #64
 1612 0526 0021     		movs	r1, #0
 1613 0528 FFF7FEFF 		bl	CyBle_GattsWriteAttributeValue
 1614 052c 0300     		movs	r3, r0
 1615 052e 2370     		strb	r3, [r4]
 1616              	.L97:
ARM GAS  C:\Users\megan\AppData\Local\Temp\ccmgjhBj.s 			page 44


 777:Generated_Source\PSoC4/BLE_1_ess.c ****                                         &eventParam->connHandle, CYBLE_GATT_DB_PEER_INITIATED);
 778:Generated_Source\PSoC4/BLE_1_ess.c ****                                 }
 779:Generated_Source\PSoC4/BLE_1_ess.c ****                             }
 780:Generated_Source\PSoC4/BLE_1_ess.c ****                         }
 781:Generated_Source\PSoC4/BLE_1_ess.c **** 
 782:Generated_Source\PSoC4/BLE_1_ess.c ****                         cyBle_eventHandlerFlag &= (uint8)~CYBLE_CALLBACK;
 1617              		.loc 1 782 0
 1618 0530 244B     		ldr	r3, .L109+8
 1619 0532 1B78     		ldrb	r3, [r3]
 1620 0534 DBB2     		uxtb	r3, r3
 1621 0536 0122     		movs	r2, #1
 1622 0538 9343     		bics	r3, r2
 1623 053a DAB2     		uxtb	r2, r3
 1624 053c 214B     		ldr	r3, .L109+8
 1625 053e 1A70     		strb	r2, [r3]
 783:Generated_Source\PSoC4/BLE_1_ess.c ****                         break;
 1626              		.loc 1 783 0
 1627 0540 11E0     		b	.L54
 1628              	.L71:
 502:Generated_Source\PSoC4/BLE_1_ess.c ****                 {
 1629              		.loc 1 502 0 discriminator 2
 1630 0542 2623     		movs	r3, #38
 1631 0544 FB18     		adds	r3, r7, r3
 1632 0546 1A78     		ldrb	r2, [r3]
 1633 0548 2623     		movs	r3, #38
 1634 054a FB18     		adds	r3, r7, r3
 1635 054c 0132     		adds	r2, r2, #1
 1636 054e 1A70     		strb	r2, [r3]
 1637              	.L55:
 502:Generated_Source\PSoC4/BLE_1_ess.c ****                 {
 1638              		.loc 1 502 0 is_stmt 0 discriminator 1
 1639 0550 2723     		movs	r3, #39
 1640 0552 FB18     		adds	r3, r7, r3
 1641 0554 1B78     		ldrb	r3, [r3]
 1642 0556 1C4A     		ldr	r2, .L109+12
 1643 0558 D35C     		ldrb	r3, [r2, r3]
 1644 055a 2622     		movs	r2, #38
 1645 055c BA18     		adds	r2, r7, r2
 1646 055e 1278     		ldrb	r2, [r2]
 1647 0560 9A42     		cmp	r2, r3
 1648 0562 00D2     		bcs	.LCB1370
 1649 0564 7EE5     		b	.L99	@long jump
 1650              	.LCB1370:
 1651              	.L54:
 494:Generated_Source\PSoC4/BLE_1_ess.c ****         {
 1652              		.loc 1 494 0 is_stmt 1
 1653 0566 2723     		movs	r3, #39
 1654 0568 FB18     		adds	r3, r7, r3
 1655 056a 1A78     		ldrb	r2, [r3]
 1656 056c 2723     		movs	r3, #39
 1657 056e FB18     		adds	r3, r7, r3
 1658 0570 0132     		adds	r2, r2, #1
 1659 0572 1A70     		strb	r2, [r3]
 1660              	.L53:
 493:Generated_Source\PSoC4/BLE_1_ess.c ****             i++)
 1661              		.loc 1 493 0 discriminator 1
 1662 0574 2723     		movs	r3, #39
ARM GAS  C:\Users\megan\AppData\Local\Temp\ccmgjhBj.s 			page 45


 1663 0576 FB18     		adds	r3, r7, r3
 1664 0578 1B78     		ldrb	r3, [r3]
 1665 057a 142B     		cmp	r3, #20
 1666 057c 0AD8     		bhi	.L52
 493:Generated_Source\PSoC4/BLE_1_ess.c ****             i++)
 1667              		.loc 1 493 0 is_stmt 0 discriminator 2
 1668 057e 1F23     		movs	r3, #31
 1669 0580 FB18     		adds	r3, r7, r3
 1670 0582 1B78     		ldrb	r3, [r3]
 1671 0584 002B     		cmp	r3, #0
 1672 0586 05D1     		bne	.L52
 493:Generated_Source\PSoC4/BLE_1_ess.c ****             i++)
 1673              		.loc 1 493 0 discriminator 3
 1674 0588 1E23     		movs	r3, #30
 1675 058a FB18     		adds	r3, r7, r3
 1676 058c 1B78     		ldrb	r3, [r3]
 1677 058e 002B     		cmp	r3, #0
 1678 0590 00D1     		bne	.LCB1395
 1679 0592 57E5     		b	.L100	@long jump
 1680              	.LCB1395:
 1681              	.L52:
 784:Generated_Source\PSoC4/BLE_1_ess.c ****                     }
 785:Generated_Source\PSoC4/BLE_1_ess.c ****                 }
 786:Generated_Source\PSoC4/BLE_1_ess.c ****             }
 787:Generated_Source\PSoC4/BLE_1_ess.c ****         }
 788:Generated_Source\PSoC4/BLE_1_ess.c ****     }
 789:Generated_Source\PSoC4/BLE_1_ess.c **** 
 790:Generated_Source\PSoC4/BLE_1_ess.c ****     if(CYBLE_GATT_ERR_NONE != gattErr)
 1682              		.loc 1 790 0 is_stmt 1
 1683 0594 1E23     		movs	r3, #30
 1684 0596 FB18     		adds	r3, r7, r3
 1685 0598 1B78     		ldrb	r3, [r3]
 1686 059a 002B     		cmp	r3, #0
 1687 059c 07D0     		beq	.L101
 791:Generated_Source\PSoC4/BLE_1_ess.c ****     {
 792:Generated_Source\PSoC4/BLE_1_ess.c ****         /* Indicate that request was handled */
 793:Generated_Source\PSoC4/BLE_1_ess.c ****         cyBle_eventHandlerFlag &= (uint8)~CYBLE_CALLBACK;
 1688              		.loc 1 793 0
 1689 059e 094B     		ldr	r3, .L109+8
 1690 05a0 1B78     		ldrb	r3, [r3]
 1691 05a2 DBB2     		uxtb	r3, r3
 1692 05a4 0122     		movs	r2, #1
 1693 05a6 9343     		bics	r3, r2
 1694 05a8 DAB2     		uxtb	r2, r3
 1695 05aa 064B     		ldr	r3, .L109+8
 1696 05ac 1A70     		strb	r2, [r3]
 1697              	.L101:
 794:Generated_Source\PSoC4/BLE_1_ess.c ****     }
 795:Generated_Source\PSoC4/BLE_1_ess.c **** 
 796:Generated_Source\PSoC4/BLE_1_ess.c ****     return (gattErr);
 1698              		.loc 1 796 0
 1699 05ae 1E23     		movs	r3, #30
 1700 05b0 FB18     		adds	r3, r7, r3
 1701 05b2 1B78     		ldrb	r3, [r3]
 797:Generated_Source\PSoC4/BLE_1_ess.c **** }
 1702              		.loc 1 797 0
 1703 05b4 1800     		movs	r0, r3
ARM GAS  C:\Users\megan\AppData\Local\Temp\ccmgjhBj.s 			page 46


 1704 05b6 BD46     		mov	sp, r7
 1705 05b8 0BB0     		add	sp, sp, #44
 1706              		@ sp needed
 1707 05ba 90BD     		pop	{r4, r7, pc}
 1708              	.L110:
 1709              		.align	2
 1710              	.L109:
 1711 05bc 00000000 		.word	cyBle_gattDB
 1712 05c0 04000000 		.word	CyBle_EssApplCallback
 1713 05c4 00000000 		.word	cyBle_eventHandlerFlag
 1714 05c8 00000000 		.word	cyBle_esssCharInstances
 1715              		.cfi_endproc
 1716              	.LFE8:
 1717              		.size	CyBle_EsssWriteEventHandler, .-CyBle_EsssWriteEventHandler
 1718              		.section	.text.CyBle_EsssPrepareWriteRequestEventHandler,"ax",%progbits
 1719              		.align	2
 1720              		.global	CyBle_EsssPrepareWriteRequestEventHandler
 1721              		.code	16
 1722              		.thumb_func
 1723              		.type	CyBle_EsssPrepareWriteRequestEventHandler, %function
 1724              	CyBle_EsssPrepareWriteRequestEventHandler:
 1725              	.LFB9:
 798:Generated_Source\PSoC4/BLE_1_ess.c **** 
 799:Generated_Source\PSoC4/BLE_1_ess.c **** 
 800:Generated_Source\PSoC4/BLE_1_ess.c **** /****************************************************************************** 
 801:Generated_Source\PSoC4/BLE_1_ess.c **** * Function Name: CyBle_EsssPrepareWriteRequestEventHandler
 802:Generated_Source\PSoC4/BLE_1_ess.c **** ***************************************************************************//**
 803:Generated_Source\PSoC4/BLE_1_ess.c **** * 
 804:Generated_Source\PSoC4/BLE_1_ess.c **** *  Handles the Write Request Event for the Environmental Sensing Service.
 805:Generated_Source\PSoC4/BLE_1_ess.c **** * 
 806:Generated_Source\PSoC4/BLE_1_ess.c **** *  \param eventParam: The pointer to the data that received with a prepare write
 807:Generated_Source\PSoC4/BLE_1_ess.c **** *               request event for the  Environmental Sensing Service.
 808:Generated_Source\PSoC4/BLE_1_ess.c **** * 
 809:Generated_Source\PSoC4/BLE_1_ess.c **** ******************************************************************************/
 810:Generated_Source\PSoC4/BLE_1_ess.c **** void CyBle_EsssPrepareWriteRequestEventHandler(const CYBLE_GATTS_PREP_WRITE_REQ_PARAM_T *eventParam
 811:Generated_Source\PSoC4/BLE_1_ess.c **** {
 1726              		.loc 1 811 0
 1727              		.cfi_startproc
 1728              		@ args = 0, pretend = 0, frame = 16
 1729              		@ frame_needed = 1, uses_anonymous_args = 0
 1730 0000 80B5     		push	{r7, lr}
 1731              		.cfi_def_cfa_offset 8
 1732              		.cfi_offset 7, -8
 1733              		.cfi_offset 14, -4
 1734 0002 84B0     		sub	sp, sp, #16
 1735              		.cfi_def_cfa_offset 24
 1736 0004 00AF     		add	r7, sp, #0
 1737              		.cfi_def_cfa_register 7
 1738 0006 7860     		str	r0, [r7, #4]
 812:Generated_Source\PSoC4/BLE_1_ess.c ****     uint8 i;
 813:Generated_Source\PSoC4/BLE_1_ess.c ****     uint8 j;
 814:Generated_Source\PSoC4/BLE_1_ess.c ****     uint8 exitLoop = 0u;
 1739              		.loc 1 814 0
 1740 0008 0D23     		movs	r3, #13
 1741 000a FB18     		adds	r3, r7, r3
 1742 000c 0022     		movs	r2, #0
 1743 000e 1A70     		strb	r2, [r3]
ARM GAS  C:\Users\megan\AppData\Local\Temp\ccmgjhBj.s 			page 47


 815:Generated_Source\PSoC4/BLE_1_ess.c ****     CYBLE_ESSS_CHAR_T *essCharInfoPtr;
 816:Generated_Source\PSoC4/BLE_1_ess.c **** 
 817:Generated_Source\PSoC4/BLE_1_ess.c ****     if(NULL != CyBle_EssApplCallback)
 1744              		.loc 1 817 0
 1745 0010 404B     		ldr	r3, .L121
 1746 0012 1B68     		ldr	r3, [r3]
 1747 0014 002B     		cmp	r3, #0
 1748 0016 00D1     		bne	.LCB1456
 1749 0018 78E0     		b	.L120	@long jump
 1750              	.LCB1456:
 818:Generated_Source\PSoC4/BLE_1_ess.c ****     {
 819:Generated_Source\PSoC4/BLE_1_ess.c ****         for(i = 0u; ((i < ((uint8) CYBLE_ESS_CHAR_COUNT)) && (exitLoop == 0u)); i++)
 1751              		.loc 1 819 0
 1752 001a 0F23     		movs	r3, #15
 1753 001c FB18     		adds	r3, r7, r3
 1754 001e 0022     		movs	r2, #0
 1755 0020 1A70     		strb	r2, [r3]
 1756 0022 69E0     		b	.L113
 1757              	.L119:
 820:Generated_Source\PSoC4/BLE_1_ess.c ****         {
 821:Generated_Source\PSoC4/BLE_1_ess.c ****             /* Check if characteristic is enabled. If the pointer to the characteristic
 822:Generated_Source\PSoC4/BLE_1_ess.c ****             * is not "NULL", there is at least one instance of the characteristic in
 823:Generated_Source\PSoC4/BLE_1_ess.c ****             * the ES Service.
 824:Generated_Source\PSoC4/BLE_1_ess.c ****             */
 825:Generated_Source\PSoC4/BLE_1_ess.c ****             if(NULL != cyBle_esss.charInfoAddr[i].charInfoPtr)
 1758              		.loc 1 825 0
 1759 0024 0F23     		movs	r3, #15
 1760 0026 FB18     		adds	r3, r7, r3
 1761 0028 1B78     		ldrb	r3, [r3]
 1762 002a 3B4A     		ldr	r2, .L121+4
 1763 002c 9B00     		lsls	r3, r3, #2
 1764 002e D318     		adds	r3, r2, r3
 1765 0030 0433     		adds	r3, r3, #4
 1766 0032 1B68     		ldr	r3, [r3]
 1767 0034 002B     		cmp	r3, #0
 1768 0036 58D0     		beq	.L114
 826:Generated_Source\PSoC4/BLE_1_ess.c ****             {
 827:Generated_Source\PSoC4/BLE_1_ess.c ****                 for(j = 0u; ((j < cyBle_esssCharInstances[i]) && (exitLoop == 0u)); j++)
 1769              		.loc 1 827 0
 1770 0038 0E23     		movs	r3, #14
 1771 003a FB18     		adds	r3, r7, r3
 1772 003c 0022     		movs	r2, #0
 1773 003e 1A70     		strb	r2, [r3]
 1774 0040 44E0     		b	.L115
 1775              	.L118:
 828:Generated_Source\PSoC4/BLE_1_ess.c ****                 {
 829:Generated_Source\PSoC4/BLE_1_ess.c ****                     essCharInfoPtr = &cyBle_esss.charInfoAddr[i].charInfoPtr[j];
 1776              		.loc 1 829 0
 1777 0042 0F23     		movs	r3, #15
 1778 0044 FB18     		adds	r3, r7, r3
 1779 0046 1B78     		ldrb	r3, [r3]
 1780 0048 334A     		ldr	r2, .L121+4
 1781 004a 9B00     		lsls	r3, r3, #2
 1782 004c D318     		adds	r3, r2, r3
 1783 004e 0433     		adds	r3, r3, #4
 1784 0050 1968     		ldr	r1, [r3]
 1785 0052 0E23     		movs	r3, #14
ARM GAS  C:\Users\megan\AppData\Local\Temp\ccmgjhBj.s 			page 48


 1786 0054 FB18     		adds	r3, r7, r3
 1787 0056 1A78     		ldrb	r2, [r3]
 1788 0058 1300     		movs	r3, r2
 1789 005a 9B00     		lsls	r3, r3, #2
 1790 005c 9B18     		adds	r3, r3, r2
 1791 005e 9B00     		lsls	r3, r3, #2
 1792 0060 CB18     		adds	r3, r1, r3
 1793 0062 BB60     		str	r3, [r7, #8]
 830:Generated_Source\PSoC4/BLE_1_ess.c **** 
 831:Generated_Source\PSoC4/BLE_1_ess.c ****                     /* Need to check following conditions: 1) if requested handle is the handle of
 832:Generated_Source\PSoC4/BLE_1_ess.c ****                     * Characteristic User Description Descriptor; 2) and if there is no active
 833:Generated_Source\PSoC4/BLE_1_ess.c ****                     * requests; 3) or there is an active request but the requested handle is
 834:Generated_Source\PSoC4/BLE_1_ess.c ****                     * different handle. the thord condition means that previous request resulted
 835:Generated_Source\PSoC4/BLE_1_ess.c ****                     * with an error so need to hanle that.
 836:Generated_Source\PSoC4/BLE_1_ess.c ****                     */
 837:Generated_Source\PSoC4/BLE_1_ess.c ****                     if(eventParam->baseAddr[eventParam->currentPrepWriteReqCount - 1u].handleValueP
 1794              		.loc 1 837 0
 1795 0064 7B68     		ldr	r3, [r7, #4]
 1796 0066 5A68     		ldr	r2, [r3, #4]
 1797 0068 7B68     		ldr	r3, [r7, #4]
 1798 006a 1B7A     		ldrb	r3, [r3, #8]
 1799 006c 2B49     		ldr	r1, .L121+8
 1800 006e 8C46     		mov	ip, r1
 1801 0070 6344     		add	r3, r3, ip
 1802 0072 1B01     		lsls	r3, r3, #4
 1803 0074 D318     		adds	r3, r2, r3
 1804 0076 1A89     		ldrh	r2, [r3, #8]
 838:Generated_Source\PSoC4/BLE_1_ess.c ****                         essCharInfoPtr->descrHandle[CYBLE_ESS_CHAR_USER_DESCRIPTION_DESCR])
 1805              		.loc 1 838 0
 1806 0078 BB68     		ldr	r3, [r7, #8]
 1807 007a 1B8A     		ldrh	r3, [r3, #16]
 837:Generated_Source\PSoC4/BLE_1_ess.c ****                         essCharInfoPtr->descrHandle[CYBLE_ESS_CHAR_USER_DESCRIPTION_DESCR])
 1808              		.loc 1 837 0
 1809 007c 9A42     		cmp	r2, r3
 1810 007e 1ED1     		bne	.L116
 839:Generated_Source\PSoC4/BLE_1_ess.c ****                     {
 840:Generated_Source\PSoC4/BLE_1_ess.c ****                         if(cyBle_esssReqHandle == CYBLE_GATT_INVALID_ATTR_HANDLE_VALUE)
 1811              		.loc 1 840 0
 1812 0080 274B     		ldr	r3, .L121+12
 1813 0082 1B88     		ldrh	r3, [r3]
 1814 0084 002B     		cmp	r3, #0
 1815 0086 0ED1     		bne	.L117
 841:Generated_Source\PSoC4/BLE_1_ess.c ****                         {
 842:Generated_Source\PSoC4/BLE_1_ess.c ****                             /* Send Prepare Write Response which identifies acknowledgment for
 843:Generated_Source\PSoC4/BLE_1_ess.c ****                             * long characteristic value write.
 844:Generated_Source\PSoC4/BLE_1_ess.c ****                             */
 845:Generated_Source\PSoC4/BLE_1_ess.c ****                             CyBle_GattsPrepWriteReqSupport(CYBLE_GATTS_PREP_WRITE_SUPPORT);
 1816              		.loc 1 845 0
 1817 0088 0120     		movs	r0, #1
 1818 008a FFF7FEFF 		bl	CyBle_GattsPrepWriteReqSupport
 846:Generated_Source\PSoC4/BLE_1_ess.c **** 
 847:Generated_Source\PSoC4/BLE_1_ess.c ****                             cyBle_esssReqHandle =
 848:Generated_Source\PSoC4/BLE_1_ess.c ****                             eventParam->baseAddr[eventParam->currentPrepWriteReqCount - 1u].handleV
 1819              		.loc 1 848 0
 1820 008e 7B68     		ldr	r3, [r7, #4]
 1821 0090 5A68     		ldr	r2, [r3, #4]
 1822 0092 7B68     		ldr	r3, [r7, #4]
ARM GAS  C:\Users\megan\AppData\Local\Temp\ccmgjhBj.s 			page 49


 1823 0094 1B7A     		ldrb	r3, [r3, #8]
 1824 0096 2149     		ldr	r1, .L121+8
 1825 0098 8C46     		mov	ip, r1
 1826 009a 6344     		add	r3, r3, ip
 1827 009c 1B01     		lsls	r3, r3, #4
 1828 009e D318     		adds	r3, r2, r3
 1829 00a0 1A89     		ldrh	r2, [r3, #8]
 847:Generated_Source\PSoC4/BLE_1_ess.c ****                             eventParam->baseAddr[eventParam->currentPrepWriteReqCount - 1u].handleV
 1830              		.loc 1 847 0
 1831 00a2 1F4B     		ldr	r3, .L121+12
 1832 00a4 1A80     		strh	r2, [r3]
 1833              	.L117:
 849:Generated_Source\PSoC4/BLE_1_ess.c ****                         }
 850:Generated_Source\PSoC4/BLE_1_ess.c ****                         /* Indicate that request was handled */
 851:Generated_Source\PSoC4/BLE_1_ess.c ****                         cyBle_eventHandlerFlag &= (uint8)~CYBLE_CALLBACK;
 1834              		.loc 1 851 0
 1835 00a6 1F4B     		ldr	r3, .L121+16
 1836 00a8 1B78     		ldrb	r3, [r3]
 1837 00aa DBB2     		uxtb	r3, r3
 1838 00ac 0122     		movs	r2, #1
 1839 00ae 9343     		bics	r3, r2
 1840 00b0 DAB2     		uxtb	r2, r3
 1841 00b2 1C4B     		ldr	r3, .L121+16
 1842 00b4 1A70     		strb	r2, [r3]
 852:Generated_Source\PSoC4/BLE_1_ess.c **** 
 853:Generated_Source\PSoC4/BLE_1_ess.c ****                         /* Set the flag to exit the loop */
 854:Generated_Source\PSoC4/BLE_1_ess.c ****                         exitLoop = 1u;
 1843              		.loc 1 854 0
 1844 00b6 0D23     		movs	r3, #13
 1845 00b8 FB18     		adds	r3, r7, r3
 1846 00ba 0122     		movs	r2, #1
 1847 00bc 1A70     		strb	r2, [r3]
 1848              	.L116:
 827:Generated_Source\PSoC4/BLE_1_ess.c ****                 {
 1849              		.loc 1 827 0 discriminator 2
 1850 00be 0E23     		movs	r3, #14
 1851 00c0 FB18     		adds	r3, r7, r3
 1852 00c2 1A78     		ldrb	r2, [r3]
 1853 00c4 0E23     		movs	r3, #14
 1854 00c6 FB18     		adds	r3, r7, r3
 1855 00c8 0132     		adds	r2, r2, #1
 1856 00ca 1A70     		strb	r2, [r3]
 1857              	.L115:
 827:Generated_Source\PSoC4/BLE_1_ess.c ****                 {
 1858              		.loc 1 827 0 is_stmt 0 discriminator 1
 1859 00cc 0F23     		movs	r3, #15
 1860 00ce FB18     		adds	r3, r7, r3
 1861 00d0 1B78     		ldrb	r3, [r3]
 1862 00d2 154A     		ldr	r2, .L121+20
 1863 00d4 D35C     		ldrb	r3, [r2, r3]
 1864 00d6 0E22     		movs	r2, #14
 1865 00d8 BA18     		adds	r2, r7, r2
 1866 00da 1278     		ldrb	r2, [r2]
 1867 00dc 9A42     		cmp	r2, r3
 1868 00de 04D2     		bcs	.L114
 827:Generated_Source\PSoC4/BLE_1_ess.c ****                 {
 1869              		.loc 1 827 0 discriminator 3
ARM GAS  C:\Users\megan\AppData\Local\Temp\ccmgjhBj.s 			page 50


 1870 00e0 0D23     		movs	r3, #13
 1871 00e2 FB18     		adds	r3, r7, r3
 1872 00e4 1B78     		ldrb	r3, [r3]
 1873 00e6 002B     		cmp	r3, #0
 1874 00e8 ABD0     		beq	.L118
 1875              	.L114:
 819:Generated_Source\PSoC4/BLE_1_ess.c ****         {
 1876              		.loc 1 819 0 is_stmt 1 discriminator 2
 1877 00ea 0F23     		movs	r3, #15
 1878 00ec FB18     		adds	r3, r7, r3
 1879 00ee 1A78     		ldrb	r2, [r3]
 1880 00f0 0F23     		movs	r3, #15
 1881 00f2 FB18     		adds	r3, r7, r3
 1882 00f4 0132     		adds	r2, r2, #1
 1883 00f6 1A70     		strb	r2, [r3]
 1884              	.L113:
 819:Generated_Source\PSoC4/BLE_1_ess.c ****         {
 1885              		.loc 1 819 0 is_stmt 0 discriminator 1
 1886 00f8 0F23     		movs	r3, #15
 1887 00fa FB18     		adds	r3, r7, r3
 1888 00fc 1B78     		ldrb	r3, [r3]
 1889 00fe 142B     		cmp	r3, #20
 1890 0100 04D8     		bhi	.L120
 819:Generated_Source\PSoC4/BLE_1_ess.c ****         {
 1891              		.loc 1 819 0 discriminator 3
 1892 0102 0D23     		movs	r3, #13
 1893 0104 FB18     		adds	r3, r7, r3
 1894 0106 1B78     		ldrb	r3, [r3]
 1895 0108 002B     		cmp	r3, #0
 1896 010a 8BD0     		beq	.L119
 1897              	.L120:
 855:Generated_Source\PSoC4/BLE_1_ess.c ****                     }
 856:Generated_Source\PSoC4/BLE_1_ess.c ****                 }
 857:Generated_Source\PSoC4/BLE_1_ess.c ****             }
 858:Generated_Source\PSoC4/BLE_1_ess.c ****         }
 859:Generated_Source\PSoC4/BLE_1_ess.c ****     }
 860:Generated_Source\PSoC4/BLE_1_ess.c **** }
 1898              		.loc 1 860 0 is_stmt 1
 1899 010c C046     		nop
 1900 010e BD46     		mov	sp, r7
 1901 0110 04B0     		add	sp, sp, #16
 1902              		@ sp needed
 1903 0112 80BD     		pop	{r7, pc}
 1904              	.L122:
 1905              		.align	2
 1906              	.L121:
 1907 0114 04000000 		.word	CyBle_EssApplCallback
 1908 0118 00000000 		.word	cyBle_esss
 1909 011c FFFFFF0F 		.word	268435455
 1910 0120 00000000 		.word	cyBle_esssReqHandle
 1911 0124 00000000 		.word	cyBle_eventHandlerFlag
 1912 0128 00000000 		.word	cyBle_esssCharInstances
 1913              		.cfi_endproc
 1914              	.LFE9:
 1915              		.size	CyBle_EsssPrepareWriteRequestEventHandler, .-CyBle_EsssPrepareWriteRequestEventHandler
 1916              		.section	.text.CyBle_EsssExecuteWriteRequestEventHandler,"ax",%progbits
 1917              		.align	2
ARM GAS  C:\Users\megan\AppData\Local\Temp\ccmgjhBj.s 			page 51


 1918              		.global	CyBle_EsssExecuteWriteRequestEventHandler
 1919              		.code	16
 1920              		.thumb_func
 1921              		.type	CyBle_EsssExecuteWriteRequestEventHandler, %function
 1922              	CyBle_EsssExecuteWriteRequestEventHandler:
 1923              	.LFB10:
 861:Generated_Source\PSoC4/BLE_1_ess.c **** 
 862:Generated_Source\PSoC4/BLE_1_ess.c **** 
 863:Generated_Source\PSoC4/BLE_1_ess.c **** /****************************************************************************** 
 864:Generated_Source\PSoC4/BLE_1_ess.c **** * Function Name: CyBle_EsssExecuteWriteRequestEventHandler
 865:Generated_Source\PSoC4/BLE_1_ess.c **** ***************************************************************************//**
 866:Generated_Source\PSoC4/BLE_1_ess.c **** * 
 867:Generated_Source\PSoC4/BLE_1_ess.c **** *  Handles the Execute Write Request Event for the Environmental Sensing Service.
 868:Generated_Source\PSoC4/BLE_1_ess.c **** * 
 869:Generated_Source\PSoC4/BLE_1_ess.c **** *  \param eventParam: The pointer to the data that came with a write request for the
 870:Generated_Source\PSoC4/BLE_1_ess.c **** *              Environmental Sensing Service.
 871:Generated_Source\PSoC4/BLE_1_ess.c **** * 
 872:Generated_Source\PSoC4/BLE_1_ess.c **** ******************************************************************************/
 873:Generated_Source\PSoC4/BLE_1_ess.c **** void CyBle_EsssExecuteWriteRequestEventHandler(CYBLE_GATTS_EXEC_WRITE_REQ_T *eventParam)
 874:Generated_Source\PSoC4/BLE_1_ess.c **** {
 1924              		.loc 1 874 0
 1925              		.cfi_startproc
 1926              		@ args = 0, pretend = 0, frame = 40
 1927              		@ frame_needed = 1, uses_anonymous_args = 0
 1928 0000 80B5     		push	{r7, lr}
 1929              		.cfi_def_cfa_offset 8
 1930              		.cfi_offset 7, -8
 1931              		.cfi_offset 14, -4
 1932 0002 8AB0     		sub	sp, sp, #40
 1933              		.cfi_def_cfa_offset 48
 1934 0004 00AF     		add	r7, sp, #0
 1935              		.cfi_def_cfa_register 7
 1936 0006 7860     		str	r0, [r7, #4]
 875:Generated_Source\PSoC4/BLE_1_ess.c ****     uint8 i;
 876:Generated_Source\PSoC4/BLE_1_ess.c ****     uint8 j;
 877:Generated_Source\PSoC4/BLE_1_ess.c ****     uint8 locCount;
 878:Generated_Source\PSoC4/BLE_1_ess.c ****     uint8 exitLoop = 0u;
 1937              		.loc 1 878 0
 1938 0008 2423     		movs	r3, #36
 1939 000a FB18     		adds	r3, r7, r3
 1940 000c 0022     		movs	r2, #0
 1941 000e 1A70     		strb	r2, [r3]
 879:Generated_Source\PSoC4/BLE_1_ess.c ****     uint16 locLength = 0u;
 1942              		.loc 1 879 0
 1943 0010 2223     		movs	r3, #34
 1944 0012 FB18     		adds	r3, r7, r3
 1945 0014 0022     		movs	r2, #0
 1946 0016 1A80     		strh	r2, [r3]
 880:Generated_Source\PSoC4/BLE_1_ess.c ****     CYBLE_GATT_VALUE_T locDescrValue;
 881:Generated_Source\PSoC4/BLE_1_ess.c ****     CYBLE_ESS_DESCR_VALUE_T wrDescrReqParam;
 882:Generated_Source\PSoC4/BLE_1_ess.c **** 
 883:Generated_Source\PSoC4/BLE_1_ess.c ****     if(NULL != CyBle_EssApplCallback)
 1947              		.loc 1 883 0
 1948 0018 7E4B     		ldr	r3, .L138
 1949 001a 1B68     		ldr	r3, [r3]
 1950 001c 002B     		cmp	r3, #0
 1951 001e 00D1     		bne	.LCB1638
ARM GAS  C:\Users\megan\AppData\Local\Temp\ccmgjhBj.s 			page 52


 1952 0020 F3E0     		b	.L137	@long jump
 1953              	.LCB1638:
 884:Generated_Source\PSoC4/BLE_1_ess.c ****     {
 885:Generated_Source\PSoC4/BLE_1_ess.c ****         for(i = 0u; ((i < ((uint8) CYBLE_ESS_CHAR_COUNT)) && (exitLoop == 0u)); i++)
 1954              		.loc 1 885 0
 1955 0022 2723     		movs	r3, #39
 1956 0024 FB18     		adds	r3, r7, r3
 1957 0026 0022     		movs	r2, #0
 1958 0028 1A70     		strb	r2, [r3]
 1959 002a E3E0     		b	.L125
 1960              	.L136:
 886:Generated_Source\PSoC4/BLE_1_ess.c ****         {
 887:Generated_Source\PSoC4/BLE_1_ess.c ****             /* Check if characteristic is enabled. If the pointer to the characteristic
 888:Generated_Source\PSoC4/BLE_1_ess.c ****             * is not "NULL", there is at least one instance of the characteristic in
 889:Generated_Source\PSoC4/BLE_1_ess.c ****             * the ES Service.
 890:Generated_Source\PSoC4/BLE_1_ess.c ****             */
 891:Generated_Source\PSoC4/BLE_1_ess.c ****             if(NULL != cyBle_esss.charInfoAddr[i].charInfoPtr)
 1961              		.loc 1 891 0
 1962 002c 2723     		movs	r3, #39
 1963 002e FB18     		adds	r3, r7, r3
 1964 0030 1B78     		ldrb	r3, [r3]
 1965 0032 794A     		ldr	r2, .L138+4
 1966 0034 9B00     		lsls	r3, r3, #2
 1967 0036 D318     		adds	r3, r2, r3
 1968 0038 0433     		adds	r3, r3, #4
 1969 003a 1B68     		ldr	r3, [r3]
 1970 003c 002B     		cmp	r3, #0
 1971 003e 00D1     		bne	.LCB1656
 1972 0040 D1E0     		b	.L126	@long jump
 1973              	.LCB1656:
 892:Generated_Source\PSoC4/BLE_1_ess.c ****             {
 893:Generated_Source\PSoC4/BLE_1_ess.c ****                 for(j = 0u; ((j < cyBle_esssCharInstances[i]) && (exitLoop == 0u)); j++)
 1974              		.loc 1 893 0
 1975 0042 2623     		movs	r3, #38
 1976 0044 FB18     		adds	r3, r7, r3
 1977 0046 0022     		movs	r2, #0
 1978 0048 1A70     		strb	r2, [r3]
 1979 004a BCE0     		b	.L127
 1980              	.L135:
 894:Generated_Source\PSoC4/BLE_1_ess.c ****                 {
 895:Generated_Source\PSoC4/BLE_1_ess.c ****                     if((eventParam->baseAddr[0u].handleValuePair.attrHandle == 
 1981              		.loc 1 895 0
 1982 004c 7B68     		ldr	r3, [r7, #4]
 1983 004e 5B68     		ldr	r3, [r3, #4]
 1984 0050 1989     		ldrh	r1, [r3, #8]
 896:Generated_Source\PSoC4/BLE_1_ess.c ****                         cyBle_esss.charInfoAddr[i].charInfoPtr[j].descrHandle[CYBLE_ESS_CHAR_USER_D
 1985              		.loc 1 896 0
 1986 0052 2723     		movs	r3, #39
 1987 0054 FB18     		adds	r3, r7, r3
 1988 0056 1B78     		ldrb	r3, [r3]
 1989 0058 6F4A     		ldr	r2, .L138+4
 1990 005a 9B00     		lsls	r3, r3, #2
 1991 005c D318     		adds	r3, r2, r3
 1992 005e 0433     		adds	r3, r3, #4
 1993 0060 1868     		ldr	r0, [r3]
 1994 0062 2623     		movs	r3, #38
 1995 0064 FB18     		adds	r3, r7, r3
ARM GAS  C:\Users\megan\AppData\Local\Temp\ccmgjhBj.s 			page 53


 1996 0066 1A78     		ldrb	r2, [r3]
 1997 0068 1300     		movs	r3, r2
 1998 006a 9B00     		lsls	r3, r3, #2
 1999 006c 9B18     		adds	r3, r3, r2
 2000 006e 9B00     		lsls	r3, r3, #2
 2001 0070 C318     		adds	r3, r0, r3
 2002 0072 1B8A     		ldrh	r3, [r3, #16]
 895:Generated_Source\PSoC4/BLE_1_ess.c ****                         cyBle_esss.charInfoAddr[i].charInfoPtr[j].descrHandle[CYBLE_ESS_CHAR_USER_D
 2003              		.loc 1 895 0
 2004 0074 9942     		cmp	r1, r3
 2005 0076 00D0     		beq	.LCB1686
 2006 0078 9EE0     		b	.L128	@long jump
 2007              	.LCB1686:
 897:Generated_Source\PSoC4/BLE_1_ess.c ****                             (cyBle_esssReqHandle ==
 898:Generated_Source\PSoC4/BLE_1_ess.c ****                                 eventParam->baseAddr[0u].handleValuePair.attrHandle))
 2008              		.loc 1 898 0
 2009 007a 7B68     		ldr	r3, [r7, #4]
 2010 007c 5B68     		ldr	r3, [r3, #4]
 2011 007e 1A89     		ldrh	r2, [r3, #8]
 897:Generated_Source\PSoC4/BLE_1_ess.c ****                             (cyBle_esssReqHandle ==
 2012              		.loc 1 897 0
 2013 0080 664B     		ldr	r3, .L138+8
 2014 0082 1B88     		ldrh	r3, [r3]
 896:Generated_Source\PSoC4/BLE_1_ess.c ****                             (cyBle_esssReqHandle ==
 2015              		.loc 1 896 0
 2016 0084 9A42     		cmp	r2, r3
 2017 0086 00D0     		beq	.LCB1693
 2018 0088 96E0     		b	.L128	@long jump
 2019              	.LCB1693:
 899:Generated_Source\PSoC4/BLE_1_ess.c ****                     {
 900:Generated_Source\PSoC4/BLE_1_ess.c ****                         /* Check the execWriteFlag before execute or cancel write long operation */
 901:Generated_Source\PSoC4/BLE_1_ess.c ****                         if(eventParam->execWriteFlag == CYBLE_GATT_EXECUTE_WRITE_EXEC_FLAG)
 2020              		.loc 1 901 0
 2021 008a 7B68     		ldr	r3, [r7, #4]
 2022 008c 5B7A     		ldrb	r3, [r3, #9]
 2023 008e 012B     		cmp	r3, #1
 2024 0090 00D0     		beq	.LCB1697
 2025 0092 82E0     		b	.L129	@long jump
 2026              	.LCB1697:
 902:Generated_Source\PSoC4/BLE_1_ess.c ****                         {
 903:Generated_Source\PSoC4/BLE_1_ess.c ****                             for(locCount = 0u; locCount < eventParam->prepWriteReqCount; locCount++
 2027              		.loc 1 903 0
 2028 0094 2523     		movs	r3, #37
 2029 0096 FB18     		adds	r3, r7, r3
 2030 0098 0022     		movs	r2, #0
 2031 009a 1A70     		strb	r2, [r3]
 2032 009c 15E0     		b	.L130
 2033              	.L131:
 904:Generated_Source\PSoC4/BLE_1_ess.c ****                             {
 905:Generated_Source\PSoC4/BLE_1_ess.c ****                                 locLength += eventParam->baseAddr[locCount].handleValuePair.value.l
 2034              		.loc 1 905 0 discriminator 3
 2035 009e 7B68     		ldr	r3, [r7, #4]
 2036 00a0 5A68     		ldr	r2, [r3, #4]
 2037 00a2 2523     		movs	r3, #37
 2038 00a4 FB18     		adds	r3, r7, r3
 2039 00a6 1B78     		ldrb	r3, [r3]
 2040 00a8 1B01     		lsls	r3, r3, #4
ARM GAS  C:\Users\megan\AppData\Local\Temp\ccmgjhBj.s 			page 54


 2041 00aa D318     		adds	r3, r2, r3
 2042 00ac 9988     		ldrh	r1, [r3, #4]
 2043 00ae 2223     		movs	r3, #34
 2044 00b0 FB18     		adds	r3, r7, r3
 2045 00b2 2222     		movs	r2, #34
 2046 00b4 BA18     		adds	r2, r7, r2
 2047 00b6 1288     		ldrh	r2, [r2]
 2048 00b8 8A18     		adds	r2, r1, r2
 2049 00ba 1A80     		strh	r2, [r3]
 903:Generated_Source\PSoC4/BLE_1_ess.c ****                             {
 2050              		.loc 1 903 0 discriminator 3
 2051 00bc 2523     		movs	r3, #37
 2052 00be FB18     		adds	r3, r7, r3
 2053 00c0 1A78     		ldrb	r2, [r3]
 2054 00c2 2523     		movs	r3, #37
 2055 00c4 FB18     		adds	r3, r7, r3
 2056 00c6 0132     		adds	r2, r2, #1
 2057 00c8 1A70     		strb	r2, [r3]
 2058              	.L130:
 903:Generated_Source\PSoC4/BLE_1_ess.c ****                             {
 2059              		.loc 1 903 0 is_stmt 0 discriminator 1
 2060 00ca 7B68     		ldr	r3, [r7, #4]
 2061 00cc 1B7A     		ldrb	r3, [r3, #8]
 2062 00ce 2522     		movs	r2, #37
 2063 00d0 BA18     		adds	r2, r7, r2
 2064 00d2 1278     		ldrb	r2, [r2]
 2065 00d4 9A42     		cmp	r2, r3
 2066 00d6 E2D3     		bcc	.L131
 906:Generated_Source\PSoC4/BLE_1_ess.c ****                             }
 907:Generated_Source\PSoC4/BLE_1_ess.c **** 
 908:Generated_Source\PSoC4/BLE_1_ess.c ****                             if(CYBLE_GATT_DB_ATTR_GET_ATTR_GEN_MAX_LEN(cyBle_esssReqHandle) >= locL
 2067              		.loc 1 908 0 is_stmt 1
 2068 00d8 504B     		ldr	r3, .L138+8
 2069 00da 1B88     		ldrh	r3, [r3]
 2070 00dc 5A1E     		subs	r2, r3, #1
 2071 00de 5049     		ldr	r1, .L138+12
 2072 00e0 1300     		movs	r3, r2
 2073 00e2 9B00     		lsls	r3, r3, #2
 2074 00e4 9B18     		adds	r3, r3, r2
 2075 00e6 9B00     		lsls	r3, r3, #2
 2076 00e8 CB18     		adds	r3, r1, r3
 2077 00ea 0C33     		adds	r3, r3, #12
 2078 00ec 1B88     		ldrh	r3, [r3]
 2079 00ee 2222     		movs	r2, #34
 2080 00f0 BA18     		adds	r2, r7, r2
 2081 00f2 1288     		ldrh	r2, [r2]
 2082 00f4 9A42     		cmp	r2, r3
 2083 00f6 47D8     		bhi	.L132
 909:Generated_Source\PSoC4/BLE_1_ess.c ****                             {
 910:Generated_Source\PSoC4/BLE_1_ess.c ****                                 /* Fill data and pass it to user */
 911:Generated_Source\PSoC4/BLE_1_ess.c ****                                 wrDescrReqParam.connHandle = eventParam->connHandle;
 2084              		.loc 1 911 0
 2085 00f8 0C23     		movs	r3, #12
 2086 00fa FB18     		adds	r3, r7, r3
 2087 00fc 7A68     		ldr	r2, [r7, #4]
 2088 00fe 1288     		ldrh	r2, [r2]
 2089 0100 1A80     		strh	r2, [r3]
ARM GAS  C:\Users\megan\AppData\Local\Temp\ccmgjhBj.s 			page 55


 912:Generated_Source\PSoC4/BLE_1_ess.c ****                                 wrDescrReqParam.charIndex = (CYBLE_ESS_CHAR_INDEX_T) i;
 2090              		.loc 1 912 0
 2091 0102 0C23     		movs	r3, #12
 2092 0104 FB18     		adds	r3, r7, r3
 2093 0106 2722     		movs	r2, #39
 2094 0108 BA18     		adds	r2, r7, r2
 2095 010a 1278     		ldrb	r2, [r2]
 2096 010c 9A70     		strb	r2, [r3, #2]
 913:Generated_Source\PSoC4/BLE_1_ess.c ****                                 wrDescrReqParam.charInstance = j;
 2097              		.loc 1 913 0
 2098 010e 0C23     		movs	r3, #12
 2099 0110 FB18     		adds	r3, r7, r3
 2100 0112 2622     		movs	r2, #38
 2101 0114 BA18     		adds	r2, r7, r2
 2102 0116 1278     		ldrb	r2, [r2]
 2103 0118 DA70     		strb	r2, [r3, #3]
 914:Generated_Source\PSoC4/BLE_1_ess.c ****                                 wrDescrReqParam.gattErrorCode = CYBLE_GATT_ERR_NONE;
 2104              		.loc 1 914 0
 2105 011a 0C23     		movs	r3, #12
 2106 011c FB18     		adds	r3, r7, r3
 2107 011e 0022     		movs	r2, #0
 2108 0120 5A71     		strb	r2, [r3, #5]
 915:Generated_Source\PSoC4/BLE_1_ess.c ****                                 locDescrValue = eventParam->baseAddr[0u].handleValuePair.value;
 2109              		.loc 1 915 0
 2110 0122 7B68     		ldr	r3, [r7, #4]
 2111 0124 5A68     		ldr	r2, [r3, #4]
 2112 0126 1823     		movs	r3, #24
 2113 0128 FB18     		adds	r3, r7, r3
 2114 012a 03CA     		ldmia	r2!, {r0, r1}
 2115 012c 03C3     		stmia	r3!, {r0, r1}
 916:Generated_Source\PSoC4/BLE_1_ess.c ****                                 wrDescrReqParam.value = &locDescrValue;
 2116              		.loc 1 916 0
 2117 012e 0C23     		movs	r3, #12
 2118 0130 FB18     		adds	r3, r7, r3
 2119 0132 1822     		movs	r2, #24
 2120 0134 BA18     		adds	r2, r7, r2
 2121 0136 9A60     		str	r2, [r3, #8]
 917:Generated_Source\PSoC4/BLE_1_ess.c ****                                 wrDescrReqParam.value->len = locLength;
 2122              		.loc 1 917 0
 2123 0138 0C23     		movs	r3, #12
 2124 013a FB18     		adds	r3, r7, r3
 2125 013c 9B68     		ldr	r3, [r3, #8]
 2126 013e 2222     		movs	r2, #34
 2127 0140 BA18     		adds	r2, r7, r2
 2128 0142 1288     		ldrh	r2, [r2]
 2129 0144 9A80     		strh	r2, [r3, #4]
 918:Generated_Source\PSoC4/BLE_1_ess.c ****                                 wrDescrReqParam.descrIndex = CYBLE_ESS_CHAR_USER_DESCRIPTION_DESCR;
 2130              		.loc 1 918 0
 2131 0146 0C23     		movs	r3, #12
 2132 0148 FB18     		adds	r3, r7, r3
 2133 014a 0722     		movs	r2, #7
 2134 014c 1A71     		strb	r2, [r3, #4]
 919:Generated_Source\PSoC4/BLE_1_ess.c **** 
 920:Generated_Source\PSoC4/BLE_1_ess.c ****                                 CyBle_EssApplCallback(CYBLE_EVT_ESSS_DESCR_WRITE, &wrDescrReqParam)
 2135              		.loc 1 920 0
 2136 014e 314B     		ldr	r3, .L138
 2137 0150 1B68     		ldr	r3, [r3]
ARM GAS  C:\Users\megan\AppData\Local\Temp\ccmgjhBj.s 			page 56


 2138 0152 0C22     		movs	r2, #12
 2139 0154 B918     		adds	r1, r7, r2
 2140 0156 8222     		movs	r2, #130
 2141 0158 FF32     		adds	r2, r2, #255
 2142 015a 1000     		movs	r0, r2
 2143 015c 9847     		blx	r3
 921:Generated_Source\PSoC4/BLE_1_ess.c **** 
 922:Generated_Source\PSoC4/BLE_1_ess.c ****                                 if(wrDescrReqParam.gattErrorCode == CYBLE_GATT_ERR_NONE)
 2144              		.loc 1 922 0
 2145 015e 0C23     		movs	r3, #12
 2146 0160 FB18     		adds	r3, r7, r3
 2147 0162 5B79     		ldrb	r3, [r3, #5]
 2148 0164 002B     		cmp	r3, #0
 2149 0166 13D1     		bne	.L134
 923:Generated_Source\PSoC4/BLE_1_ess.c ****                                 {
 924:Generated_Source\PSoC4/BLE_1_ess.c ****                                     CYBLE_GATT_DB_ATTR_SET_ATTR_GEN_LEN(cyBle_esssReqHandle, locLen
 2150              		.loc 1 924 0
 2151 0168 2C4B     		ldr	r3, .L138+8
 2152 016a 1B88     		ldrh	r3, [r3]
 2153 016c 5A1E     		subs	r2, r3, #1
 2154 016e 2C49     		ldr	r1, .L138+12
 2155 0170 1300     		movs	r3, r2
 2156 0172 9B00     		lsls	r3, r3, #2
 2157 0174 9B18     		adds	r3, r3, r2
 2158 0176 9B00     		lsls	r3, r3, #2
 2159 0178 CB18     		adds	r3, r1, r3
 2160 017a 1033     		adds	r3, r3, #16
 2161 017c 1B68     		ldr	r3, [r3]
 2162 017e 2222     		movs	r2, #34
 2163 0180 BA18     		adds	r2, r7, r2
 2164 0182 1288     		ldrh	r2, [r2]
 2165 0184 1A80     		strh	r2, [r3]
 2166 0186 03E0     		b	.L134
 2167              	.L132:
 925:Generated_Source\PSoC4/BLE_1_ess.c ****                                 }
 926:Generated_Source\PSoC4/BLE_1_ess.c ****                             }
 927:Generated_Source\PSoC4/BLE_1_ess.c ****                             else
 928:Generated_Source\PSoC4/BLE_1_ess.c ****                             {
 929:Generated_Source\PSoC4/BLE_1_ess.c ****                                 wrDescrReqParam.gattErrorCode = CYBLE_GATT_ERR_INVALID_ATTRIBUTE_LE
 2168              		.loc 1 929 0
 2169 0188 0C23     		movs	r3, #12
 2170 018a FB18     		adds	r3, r7, r3
 2171 018c 0D22     		movs	r2, #13
 2172 018e 5A71     		strb	r2, [r3, #5]
 2173              	.L134:
 930:Generated_Source\PSoC4/BLE_1_ess.c ****                             }
 931:Generated_Source\PSoC4/BLE_1_ess.c **** 
 932:Generated_Source\PSoC4/BLE_1_ess.c ****                             /* Pass user error code to Stack */
 933:Generated_Source\PSoC4/BLE_1_ess.c ****                             eventParam->gattErrorCode = wrDescrReqParam.gattErrorCode;
 2174              		.loc 1 933 0
 2175 0190 0C23     		movs	r3, #12
 2176 0192 FB18     		adds	r3, r7, r3
 2177 0194 5A79     		ldrb	r2, [r3, #5]
 2178 0196 7B68     		ldr	r3, [r7, #4]
 2179 0198 1A73     		strb	r2, [r3, #12]
 2180              	.L129:
 934:Generated_Source\PSoC4/BLE_1_ess.c ****                         }
ARM GAS  C:\Users\megan\AppData\Local\Temp\ccmgjhBj.s 			page 57


 935:Generated_Source\PSoC4/BLE_1_ess.c **** 
 936:Generated_Source\PSoC4/BLE_1_ess.c ****                         /* Set the flag to exit the loop */
 937:Generated_Source\PSoC4/BLE_1_ess.c ****                         exitLoop = 1u;
 2181              		.loc 1 937 0
 2182 019a 2423     		movs	r3, #36
 2183 019c FB18     		adds	r3, r7, r3
 2184 019e 0122     		movs	r2, #1
 2185 01a0 1A70     		strb	r2, [r3]
 938:Generated_Source\PSoC4/BLE_1_ess.c **** 
 939:Generated_Source\PSoC4/BLE_1_ess.c ****                         /* Indicate that request was handled */
 940:Generated_Source\PSoC4/BLE_1_ess.c ****                         cyBle_eventHandlerFlag &= (uint8)~CYBLE_CALLBACK;
 2186              		.loc 1 940 0
 2187 01a2 204B     		ldr	r3, .L138+16
 2188 01a4 1B78     		ldrb	r3, [r3]
 2189 01a6 DBB2     		uxtb	r3, r3
 2190 01a8 0122     		movs	r2, #1
 2191 01aa 9343     		bics	r3, r2
 2192 01ac DAB2     		uxtb	r2, r3
 2193 01ae 1D4B     		ldr	r3, .L138+16
 2194 01b0 1A70     		strb	r2, [r3]
 941:Generated_Source\PSoC4/BLE_1_ess.c **** 
 942:Generated_Source\PSoC4/BLE_1_ess.c ****                         /* Clear requested handle */
 943:Generated_Source\PSoC4/BLE_1_ess.c ****                         cyBle_esssReqHandle = CYBLE_GATT_INVALID_ATTR_HANDLE_VALUE;
 2195              		.loc 1 943 0
 2196 01b2 1A4B     		ldr	r3, .L138+8
 2197 01b4 0022     		movs	r2, #0
 2198 01b6 1A80     		strh	r2, [r3]
 2199              	.L128:
 893:Generated_Source\PSoC4/BLE_1_ess.c ****                 {
 2200              		.loc 1 893 0 discriminator 2
 2201 01b8 2623     		movs	r3, #38
 2202 01ba FB18     		adds	r3, r7, r3
 2203 01bc 1A78     		ldrb	r2, [r3]
 2204 01be 2623     		movs	r3, #38
 2205 01c0 FB18     		adds	r3, r7, r3
 2206 01c2 0132     		adds	r2, r2, #1
 2207 01c4 1A70     		strb	r2, [r3]
 2208              	.L127:
 893:Generated_Source\PSoC4/BLE_1_ess.c ****                 {
 2209              		.loc 1 893 0 is_stmt 0 discriminator 1
 2210 01c6 2723     		movs	r3, #39
 2211 01c8 FB18     		adds	r3, r7, r3
 2212 01ca 1B78     		ldrb	r3, [r3]
 2213 01cc 164A     		ldr	r2, .L138+20
 2214 01ce D35C     		ldrb	r3, [r2, r3]
 2215 01d0 2622     		movs	r2, #38
 2216 01d2 BA18     		adds	r2, r7, r2
 2217 01d4 1278     		ldrb	r2, [r2]
 2218 01d6 9A42     		cmp	r2, r3
 2219 01d8 05D2     		bcs	.L126
 893:Generated_Source\PSoC4/BLE_1_ess.c ****                 {
 2220              		.loc 1 893 0 discriminator 3
 2221 01da 2423     		movs	r3, #36
 2222 01dc FB18     		adds	r3, r7, r3
 2223 01de 1B78     		ldrb	r3, [r3]
 2224 01e0 002B     		cmp	r3, #0
 2225 01e2 00D1     		bne	.LCB1880
ARM GAS  C:\Users\megan\AppData\Local\Temp\ccmgjhBj.s 			page 58


 2226 01e4 32E7     		b	.L135	@long jump
 2227              	.LCB1880:
 2228              	.L126:
 885:Generated_Source\PSoC4/BLE_1_ess.c ****         {
 2229              		.loc 1 885 0 is_stmt 1 discriminator 2
 2230 01e6 2723     		movs	r3, #39
 2231 01e8 FB18     		adds	r3, r7, r3
 2232 01ea 1A78     		ldrb	r2, [r3]
 2233 01ec 2723     		movs	r3, #39
 2234 01ee FB18     		adds	r3, r7, r3
 2235 01f0 0132     		adds	r2, r2, #1
 2236 01f2 1A70     		strb	r2, [r3]
 2237              	.L125:
 885:Generated_Source\PSoC4/BLE_1_ess.c ****         {
 2238              		.loc 1 885 0 is_stmt 0 discriminator 1
 2239 01f4 2723     		movs	r3, #39
 2240 01f6 FB18     		adds	r3, r7, r3
 2241 01f8 1B78     		ldrb	r3, [r3]
 2242 01fa 142B     		cmp	r3, #20
 2243 01fc 05D8     		bhi	.L137
 885:Generated_Source\PSoC4/BLE_1_ess.c ****         {
 2244              		.loc 1 885 0 discriminator 3
 2245 01fe 2423     		movs	r3, #36
 2246 0200 FB18     		adds	r3, r7, r3
 2247 0202 1B78     		ldrb	r3, [r3]
 2248 0204 002B     		cmp	r3, #0
 2249 0206 00D1     		bne	.LCB1900
 2250 0208 10E7     		b	.L136	@long jump
 2251              	.LCB1900:
 2252              	.L137:
 944:Generated_Source\PSoC4/BLE_1_ess.c ****                     }
 945:Generated_Source\PSoC4/BLE_1_ess.c ****                 }
 946:Generated_Source\PSoC4/BLE_1_ess.c ****             }
 947:Generated_Source\PSoC4/BLE_1_ess.c ****         }
 948:Generated_Source\PSoC4/BLE_1_ess.c ****     }
 949:Generated_Source\PSoC4/BLE_1_ess.c **** }
 2253              		.loc 1 949 0 is_stmt 1
 2254 020a C046     		nop
 2255 020c BD46     		mov	sp, r7
 2256 020e 0AB0     		add	sp, sp, #40
 2257              		@ sp needed
 2258 0210 80BD     		pop	{r7, pc}
 2259              	.L139:
 2260 0212 C046     		.align	2
 2261              	.L138:
 2262 0214 04000000 		.word	CyBle_EssApplCallback
 2263 0218 00000000 		.word	cyBle_esss
 2264 021c 00000000 		.word	cyBle_esssReqHandle
 2265 0220 00000000 		.word	cyBle_gattDB
 2266 0224 00000000 		.word	cyBle_eventHandlerFlag
 2267 0228 00000000 		.word	cyBle_esssCharInstances
 2268              		.cfi_endproc
 2269              	.LFE10:
 2270              		.size	CyBle_EsssExecuteWriteRequestEventHandler, .-CyBle_EsssExecuteWriteRequestEventHandler
 2271              		.section	.text.CyBle_EsssConfirmationEventHandler,"ax",%progbits
 2272              		.align	2
 2273              		.global	CyBle_EsssConfirmationEventHandler
ARM GAS  C:\Users\megan\AppData\Local\Temp\ccmgjhBj.s 			page 59


 2274              		.code	16
 2275              		.thumb_func
 2276              		.type	CyBle_EsssConfirmationEventHandler, %function
 2277              	CyBle_EsssConfirmationEventHandler:
 2278              	.LFB11:
 950:Generated_Source\PSoC4/BLE_1_ess.c **** 
 951:Generated_Source\PSoC4/BLE_1_ess.c **** 
 952:Generated_Source\PSoC4/BLE_1_ess.c **** /******************************************************************************
 953:Generated_Source\PSoC4/BLE_1_ess.c **** * Function Name: CyBle_EsssConfirmationEventHandler
 954:Generated_Source\PSoC4/BLE_1_ess.c **** ***************************************************************************//**
 955:Generated_Source\PSoC4/BLE_1_ess.c **** * 
 956:Generated_Source\PSoC4/BLE_1_ess.c **** *  Handles a Value Confirmation request event from the BLE stack.
 957:Generated_Source\PSoC4/BLE_1_ess.c **** * 
 958:Generated_Source\PSoC4/BLE_1_ess.c **** *  eventParam - The pointer to a structure of type CYBLE_CONN_HANDLE_T.
 959:Generated_Source\PSoC4/BLE_1_ess.c **** *  
 960:Generated_Source\PSoC4/BLE_1_ess.c **** ******************************************************************************/
 961:Generated_Source\PSoC4/BLE_1_ess.c **** void CyBle_EsssConfirmationEventHandler(const CYBLE_CONN_HANDLE_T *eventParam)
 962:Generated_Source\PSoC4/BLE_1_ess.c **** {
 2279              		.loc 1 962 0
 2280              		.cfi_startproc
 2281              		@ args = 0, pretend = 0, frame = 16
 2282              		@ frame_needed = 1, uses_anonymous_args = 0
 2283 0000 80B5     		push	{r7, lr}
 2284              		.cfi_def_cfa_offset 8
 2285              		.cfi_offset 7, -8
 2286              		.cfi_offset 14, -4
 2287 0002 84B0     		sub	sp, sp, #16
 2288              		.cfi_def_cfa_offset 24
 2289 0004 00AF     		add	r7, sp, #0
 2290              		.cfi_def_cfa_register 7
 2291 0006 7860     		str	r0, [r7, #4]
 963:Generated_Source\PSoC4/BLE_1_ess.c ****     CYBLE_ESS_CHAR_VALUE_T locCharValue;
 964:Generated_Source\PSoC4/BLE_1_ess.c **** 
 965:Generated_Source\PSoC4/BLE_1_ess.c ****     if((NULL != CyBle_EssApplCallback) && (CYBLE_GATT_INVALID_ATTR_HANDLE_VALUE != cyBle_esssReqHan
 2292              		.loc 1 965 0
 2293 0008 1A4B     		ldr	r3, .L143
 2294 000a 1B68     		ldr	r3, [r3]
 2295 000c 002B     		cmp	r3, #0
 2296 000e 2DD0     		beq	.L142
 2297              		.loc 1 965 0 is_stmt 0 discriminator 1
 2298 0010 194B     		ldr	r3, .L143+4
 2299 0012 1B88     		ldrh	r3, [r3]
 2300 0014 002B     		cmp	r3, #0
 2301 0016 29D0     		beq	.L142
 966:Generated_Source\PSoC4/BLE_1_ess.c ****     {
 967:Generated_Source\PSoC4/BLE_1_ess.c ****         /* Only Descriptor Value Change Characteristic has Indication property.
 968:Generated_Source\PSoC4/BLE_1_ess.c ****         * Check if the requested handle is the handle of Descriptor Value Change
 969:Generated_Source\PSoC4/BLE_1_ess.c ****         * handle.
 970:Generated_Source\PSoC4/BLE_1_ess.c ****         */
 971:Generated_Source\PSoC4/BLE_1_ess.c ****         if(cyBle_esssReqHandle ==
 972:Generated_Source\PSoC4/BLE_1_ess.c ****             cyBle_esss.charInfoAddr[CYBLE_ESS_DESCRIPTOR_VALUE_CHANGED].charInfoPtr[0u].charHandle)
 2302              		.loc 1 972 0 is_stmt 1
 2303 0018 184B     		ldr	r3, .L143+8
 2304 001a 1A88     		ldrh	r2, [r3]
 971:Generated_Source\PSoC4/BLE_1_ess.c ****             cyBle_esss.charInfoAddr[CYBLE_ESS_DESCRIPTOR_VALUE_CHANGED].charInfoPtr[0u].charHandle)
 2305              		.loc 1 971 0
 2306 001c 164B     		ldr	r3, .L143+4
ARM GAS  C:\Users\megan\AppData\Local\Temp\ccmgjhBj.s 			page 60


 2307 001e 1B88     		ldrh	r3, [r3]
 2308 0020 9A42     		cmp	r2, r3
 2309 0022 23D1     		bne	.L142
 973:Generated_Source\PSoC4/BLE_1_ess.c ****         {
 974:Generated_Source\PSoC4/BLE_1_ess.c ****             /* Fill in event data and inform Application about
 975:Generated_Source\PSoC4/BLE_1_ess.c ****             * successfully confirmed indication.
 976:Generated_Source\PSoC4/BLE_1_ess.c ****             */
 977:Generated_Source\PSoC4/BLE_1_ess.c ****             locCharValue.connHandle = *eventParam;
 2310              		.loc 1 977 0
 2311 0024 0823     		movs	r3, #8
 2312 0026 FA18     		adds	r2, r7, r3
 2313 0028 7B68     		ldr	r3, [r7, #4]
 2314 002a 1000     		movs	r0, r2
 2315 002c 1900     		movs	r1, r3
 2316 002e 0223     		movs	r3, #2
 2317 0030 1A00     		movs	r2, r3
 2318 0032 FFF7FEFF 		bl	memcpy
 978:Generated_Source\PSoC4/BLE_1_ess.c ****             locCharValue.charIndex = CYBLE_ESS_DESCRIPTOR_VALUE_CHANGED;
 2319              		.loc 1 978 0
 2320 0036 0823     		movs	r3, #8
 2321 0038 FB18     		adds	r3, r7, r3
 2322 003a 0022     		movs	r2, #0
 2323 003c 9A70     		strb	r2, [r3, #2]
 979:Generated_Source\PSoC4/BLE_1_ess.c ****             locCharValue.value = NULL;
 2324              		.loc 1 979 0
 2325 003e 0823     		movs	r3, #8
 2326 0040 FB18     		adds	r3, r7, r3
 2327 0042 0022     		movs	r2, #0
 2328 0044 5A60     		str	r2, [r3, #4]
 980:Generated_Source\PSoC4/BLE_1_ess.c **** 
 981:Generated_Source\PSoC4/BLE_1_ess.c ****             cyBle_eventHandlerFlag &= (uint8)~CYBLE_CALLBACK;
 2329              		.loc 1 981 0
 2330 0046 0E4B     		ldr	r3, .L143+12
 2331 0048 1B78     		ldrb	r3, [r3]
 2332 004a DBB2     		uxtb	r3, r3
 2333 004c 0122     		movs	r2, #1
 2334 004e 9343     		bics	r3, r2
 2335 0050 DAB2     		uxtb	r2, r3
 2336 0052 0B4B     		ldr	r3, .L143+12
 2337 0054 1A70     		strb	r2, [r3]
 982:Generated_Source\PSoC4/BLE_1_ess.c ****             cyBle_esssReqHandle = CYBLE_GATT_INVALID_ATTR_HANDLE_VALUE;
 2338              		.loc 1 982 0
 2339 0056 084B     		ldr	r3, .L143+4
 2340 0058 0022     		movs	r2, #0
 2341 005a 1A80     		strh	r2, [r3]
 983:Generated_Source\PSoC4/BLE_1_ess.c ****             CyBle_EssApplCallback((uint32)CYBLE_EVT_ESSS_INDICATION_CONFIRMATION, &locCharValue);
 2342              		.loc 1 983 0
 2343 005c 054B     		ldr	r3, .L143
 2344 005e 1B68     		ldr	r3, [r3]
 2345 0060 0822     		movs	r2, #8
 2346 0062 B918     		adds	r1, r7, r2
 2347 0064 8022     		movs	r2, #128
 2348 0066 FF32     		adds	r2, r2, #255
 2349 0068 1000     		movs	r0, r2
 2350 006a 9847     		blx	r3
 2351              	.L142:
 984:Generated_Source\PSoC4/BLE_1_ess.c ****         }
ARM GAS  C:\Users\megan\AppData\Local\Temp\ccmgjhBj.s 			page 61


 985:Generated_Source\PSoC4/BLE_1_ess.c ****     }
 986:Generated_Source\PSoC4/BLE_1_ess.c **** }
 2352              		.loc 1 986 0
 2353 006c C046     		nop
 2354 006e BD46     		mov	sp, r7
 2355 0070 04B0     		add	sp, sp, #16
 2356              		@ sp needed
 2357 0072 80BD     		pop	{r7, pc}
 2358              	.L144:
 2359              		.align	2
 2360              	.L143:
 2361 0074 04000000 		.word	CyBle_EssApplCallback
 2362 0078 00000000 		.word	cyBle_esssReqHandle
 2363 007c 00000000 		.word	esssCharIdx0
 2364 0080 00000000 		.word	cyBle_eventHandlerFlag
 2365              		.cfi_endproc
 2366              	.LFE11:
 2367              		.size	CyBle_EsssConfirmationEventHandler, .-CyBle_EsssConfirmationEventHandler
 2368              		.section	.text.CyBle_EsssSetChangeIndex,"ax",%progbits
 2369              		.align	2
 2370              		.global	CyBle_EsssSetChangeIndex
 2371              		.code	16
 2372              		.thumb_func
 2373              		.type	CyBle_EsssSetChangeIndex, %function
 2374              	CyBle_EsssSetChangeIndex:
 2375              	.LFB12:
 987:Generated_Source\PSoC4/BLE_1_ess.c **** 
 988:Generated_Source\PSoC4/BLE_1_ess.c **** 
 989:Generated_Source\PSoC4/BLE_1_ess.c **** #if(CYBLE_GAP_ROLE_PERIPHERAL)
 990:Generated_Source\PSoC4/BLE_1_ess.c **** 
 991:Generated_Source\PSoC4/BLE_1_ess.c **** /******************************************************************************
 992:Generated_Source\PSoC4/BLE_1_ess.c **** * Function Name: CyBle_EsssSetChangeIndex
 993:Generated_Source\PSoC4/BLE_1_ess.c **** ***************************************************************************//**
 994:Generated_Source\PSoC4/BLE_1_ess.c **** * 
 995:Generated_Source\PSoC4/BLE_1_ess.c **** *  Performs write operation of two-byte pseudo-random change index to the
 996:Generated_Source\PSoC4/BLE_1_ess.c **** *  advertisement packet. The "Service Data" field should be selected in the
 997:Generated_Source\PSoC4/BLE_1_ess.c **** *  component customizer GUI and contain a two-byte initial change index value
 998:Generated_Source\PSoC4/BLE_1_ess.c **** *  and in opposite case the function will always return
 999:Generated_Source\PSoC4/BLE_1_ess.c **** *  "CYBLE_ERROR_INVALID_OPERATION".
1000:Generated_Source\PSoC4/BLE_1_ess.c **** *    
1001:Generated_Source\PSoC4/BLE_1_ess.c **** *  This API must be called when API CyBle_GetBleSsState() returns
1002:Generated_Source\PSoC4/BLE_1_ess.c **** *  CYBLE_BLESS_STATE_EVENT_CLOSE state.
1003:Generated_Source\PSoC4/BLE_1_ess.c **** * 
1004:Generated_Source\PSoC4/BLE_1_ess.c **** *  \param essIndex: A two-byte pseudo-random change index to be written to the
1005:Generated_Source\PSoC4/BLE_1_ess.c **** *            advertisement data.
1006:Generated_Source\PSoC4/BLE_1_ess.c **** * 
1007:Generated_Source\PSoC4/BLE_1_ess.c **** * \return
1008:Generated_Source\PSoC4/BLE_1_ess.c **** *  A return value is of type CYBLE_API_RESULT_T.
1009:Generated_Source\PSoC4/BLE_1_ess.c **** *  * CYBLE_ERROR_OK - The request handled successfully.
1010:Generated_Source\PSoC4/BLE_1_ess.c **** *  * CYBLE_ERROR_INVALID_PARAMETER - On NULL pointer, Data length in input 
1011:Generated_Source\PSoC4/BLE_1_ess.c **** *        parameter exceeds 31 bytes. 
1012:Generated_Source\PSoC4/BLE_1_ess.c **** *  * CYBLE_ERROR_INVALID_OPERATION - The change index is not present in the 
1013:Generated_Source\PSoC4/BLE_1_ess.c **** *       advertisement data or its length is not equal to two bytes or ADV 
1014:Generated_Source\PSoC4/BLE_1_ess.c **** *       Event is not closed, BLESS is active or ADV is not enabled.
1015:Generated_Source\PSoC4/BLE_1_ess.c **** * 
1016:Generated_Source\PSoC4/BLE_1_ess.c **** ******************************************************************************/
1017:Generated_Source\PSoC4/BLE_1_ess.c **** CYBLE_API_RESULT_T CyBle_EsssSetChangeIndex(uint16 essIndex)
ARM GAS  C:\Users\megan\AppData\Local\Temp\ccmgjhBj.s 			page 62


1018:Generated_Source\PSoC4/BLE_1_ess.c **** {
 2376              		.loc 1 1018 0
 2377              		.cfi_startproc
 2378              		@ args = 0, pretend = 0, frame = 48
 2379              		@ frame_needed = 1, uses_anonymous_args = 0
 2380 0000 90B5     		push	{r4, r7, lr}
 2381              		.cfi_def_cfa_offset 12
 2382              		.cfi_offset 4, -12
 2383              		.cfi_offset 7, -8
 2384              		.cfi_offset 14, -4
 2385 0002 8DB0     		sub	sp, sp, #52
 2386              		.cfi_def_cfa_offset 64
 2387 0004 00AF     		add	r7, sp, #0
 2388              		.cfi_def_cfa_register 7
 2389 0006 0200     		movs	r2, r0
 2390 0008 BB1D     		adds	r3, r7, #6
 2391 000a 1A80     		strh	r2, [r3]
1019:Generated_Source\PSoC4/BLE_1_ess.c ****     uint8 flag = 0u;
 2392              		.loc 1 1019 0
 2393 000c 2F23     		movs	r3, #47
 2394 000e FB18     		adds	r3, r7, r3
 2395 0010 0022     		movs	r2, #0
 2396 0012 1A70     		strb	r2, [r3]
1020:Generated_Source\PSoC4/BLE_1_ess.c ****     uint8 adLength = 0u;
 2397              		.loc 1 1020 0
 2398 0014 2E23     		movs	r3, #46
 2399 0016 FB18     		adds	r3, r7, r3
 2400 0018 0022     		movs	r2, #0
 2401 001a 1A70     		strb	r2, [r3]
1021:Generated_Source\PSoC4/BLE_1_ess.c ****     uint8 byteCounter = 0u;
 2402              		.loc 1 1021 0
 2403 001c 2D23     		movs	r3, #45
 2404 001e FB18     		adds	r3, r7, r3
 2405 0020 0022     		movs	r2, #0
 2406 0022 1A70     		strb	r2, [r3]
1022:Generated_Source\PSoC4/BLE_1_ess.c ****     CYBLE_API_RESULT_T apiResult = CYBLE_ERROR_INVALID_OPERATION;
 2407              		.loc 1 1022 0
 2408 0024 2A23     		movs	r3, #42
 2409 0026 FB18     		adds	r3, r7, r3
 2410 0028 0222     		movs	r2, #2
 2411 002a 1A80     		strh	r2, [r3]
1023:Generated_Source\PSoC4/BLE_1_ess.c ****     CYBLE_GAPP_DISC_DATA_T esssAdvertisementData;
1024:Generated_Source\PSoC4/BLE_1_ess.c **** 
1025:Generated_Source\PSoC4/BLE_1_ess.c ****     while((byteCounter < cyBle_discoveryData.advDataLen) && (flag == 0u))
 2412              		.loc 1 1025 0
 2413 002c 4AE0     		b	.L146
 2414              	.L153:
1026:Generated_Source\PSoC4/BLE_1_ess.c ****     {
1027:Generated_Source\PSoC4/BLE_1_ess.c ****         adLength = cyBle_discoveryData.advData[byteCounter];
 2415              		.loc 1 1027 0
 2416 002e 2D23     		movs	r3, #45
 2417 0030 FB18     		adds	r3, r7, r3
 2418 0032 1A78     		ldrb	r2, [r3]
 2419 0034 2E23     		movs	r3, #46
 2420 0036 FB18     		adds	r3, r7, r3
 2421 0038 4849     		ldr	r1, .L157
 2422 003a 8A5C     		ldrb	r2, [r1, r2]
ARM GAS  C:\Users\megan\AppData\Local\Temp\ccmgjhBj.s 			page 63


 2423 003c 1A70     		strb	r2, [r3]
1028:Generated_Source\PSoC4/BLE_1_ess.c **** 
1029:Generated_Source\PSoC4/BLE_1_ess.c ****         if(0u != adLength)
 2424              		.loc 1 1029 0
 2425 003e 2E23     		movs	r3, #46
 2426 0040 FB18     		adds	r3, r7, r3
 2427 0042 1B78     		ldrb	r3, [r3]
 2428 0044 002B     		cmp	r3, #0
 2429 0046 4AD0     		beq	.L156
1030:Generated_Source\PSoC4/BLE_1_ess.c ****         {
1031:Generated_Source\PSoC4/BLE_1_ess.c ****             /* Increment byte counter so that it points to AD type field */
1032:Generated_Source\PSoC4/BLE_1_ess.c ****             byteCounter++;
 2430              		.loc 1 1032 0
 2431 0048 2D23     		movs	r3, #45
 2432 004a FB18     		adds	r3, r7, r3
 2433 004c 1A78     		ldrb	r2, [r3]
 2434 004e 2D23     		movs	r3, #45
 2435 0050 FB18     		adds	r3, r7, r3
 2436 0052 0132     		adds	r2, r2, #1
 2437 0054 1A70     		strb	r2, [r3]
1033:Generated_Source\PSoC4/BLE_1_ess.c ****             
1034:Generated_Source\PSoC4/BLE_1_ess.c ****             if(cyBle_discoveryData.advData[byteCounter] == CYBLE_ESS_SERVICE_DATA_AD_TYPE)
 2438              		.loc 1 1034 0
 2439 0056 2D23     		movs	r3, #45
 2440 0058 FB18     		adds	r3, r7, r3
 2441 005a 1B78     		ldrb	r3, [r3]
 2442 005c 3F4A     		ldr	r2, .L157
 2443 005e D35C     		ldrb	r3, [r2, r3]
 2444 0060 162B     		cmp	r3, #22
 2445 0062 25D1     		bne	.L148
1035:Generated_Source\PSoC4/BLE_1_ess.c ****             {
1036:Generated_Source\PSoC4/BLE_1_ess.c ****                 /* Increment byte counter to point to service UUID */
1037:Generated_Source\PSoC4/BLE_1_ess.c ****                 byteCounter++;
 2446              		.loc 1 1037 0
 2447 0064 2D23     		movs	r3, #45
 2448 0066 FB18     		adds	r3, r7, r3
 2449 0068 1A78     		ldrb	r2, [r3]
 2450 006a 2D23     		movs	r3, #45
 2451 006c FB18     		adds	r3, r7, r3
 2452 006e 0132     		adds	r2, r2, #1
 2453 0070 1A70     		strb	r2, [r3]
1038:Generated_Source\PSoC4/BLE_1_ess.c **** 
1039:Generated_Source\PSoC4/BLE_1_ess.c ****                 /* Check if UUID is ESS UUID */
1040:Generated_Source\PSoC4/BLE_1_ess.c ****                 if(CyBle_Get16ByPtr(&cyBle_discoveryData.advData[byteCounter]) ==
 2454              		.loc 1 1040 0
 2455 0072 2D23     		movs	r3, #45
 2456 0074 FB18     		adds	r3, r7, r3
 2457 0076 1A78     		ldrb	r2, [r3]
 2458 0078 384B     		ldr	r3, .L157
 2459 007a D318     		adds	r3, r2, r3
 2460 007c 1800     		movs	r0, r3
 2461 007e FFF7FEFF 		bl	CyBle_Get16ByPtr
 2462 0082 0300     		movs	r3, r0
 2463 0084 1A00     		movs	r2, r3
 2464 0086 364B     		ldr	r3, .L157+4
 2465 0088 9A42     		cmp	r2, r3
 2466 008a 04D1     		bne	.L149
ARM GAS  C:\Users\megan\AppData\Local\Temp\ccmgjhBj.s 			page 64


1041:Generated_Source\PSoC4/BLE_1_ess.c ****                     CYBLE_UUID_ENVIRONMENTAL_SENSING_SERVICE)
1042:Generated_Source\PSoC4/BLE_1_ess.c ****                 {
1043:Generated_Source\PSoC4/BLE_1_ess.c ****                     /* Start of a "Service Data" AD type for ESS was found. Set flag and exit the l
1044:Generated_Source\PSoC4/BLE_1_ess.c ****                     flag = 1u;
 2467              		.loc 1 1044 0
 2468 008c 2F23     		movs	r3, #47
 2469 008e FB18     		adds	r3, r7, r3
 2470 0090 0122     		movs	r2, #1
 2471 0092 1A70     		strb	r2, [r3]
 2472 0094 16E0     		b	.L146
 2473              	.L149:
1045:Generated_Source\PSoC4/BLE_1_ess.c ****                 }
1046:Generated_Source\PSoC4/BLE_1_ess.c ****                 else
1047:Generated_Source\PSoC4/BLE_1_ess.c ****                 {
1048:Generated_Source\PSoC4/BLE_1_ess.c ****                     byteCounter += (adLength - 1u);
 2474              		.loc 1 1048 0
 2475 0096 2D23     		movs	r3, #45
 2476 0098 FA18     		adds	r2, r7, r3
 2477 009a 2E23     		movs	r3, #46
 2478 009c FB18     		adds	r3, r7, r3
 2479 009e 1278     		ldrb	r2, [r2]
 2480 00a0 1B78     		ldrb	r3, [r3]
 2481 00a2 D318     		adds	r3, r2, r3
 2482 00a4 DAB2     		uxtb	r2, r3
 2483 00a6 2D23     		movs	r3, #45
 2484 00a8 FB18     		adds	r3, r7, r3
 2485 00aa 013A     		subs	r2, r2, #1
 2486 00ac 1A70     		strb	r2, [r3]
 2487 00ae 09E0     		b	.L146
 2488              	.L148:
1049:Generated_Source\PSoC4/BLE_1_ess.c ****                 }
1050:Generated_Source\PSoC4/BLE_1_ess.c ****             }
1051:Generated_Source\PSoC4/BLE_1_ess.c ****             else
1052:Generated_Source\PSoC4/BLE_1_ess.c ****             {
1053:Generated_Source\PSoC4/BLE_1_ess.c ****                 byteCounter += adLength;
 2489              		.loc 1 1053 0
 2490 00b0 2D23     		movs	r3, #45
 2491 00b2 FB18     		adds	r3, r7, r3
 2492 00b4 2D22     		movs	r2, #45
 2493 00b6 B918     		adds	r1, r7, r2
 2494 00b8 2E22     		movs	r2, #46
 2495 00ba BA18     		adds	r2, r7, r2
 2496 00bc 0978     		ldrb	r1, [r1]
 2497 00be 1278     		ldrb	r2, [r2]
 2498 00c0 8A18     		adds	r2, r1, r2
 2499 00c2 1A70     		strb	r2, [r3]
 2500              	.L146:
1025:Generated_Source\PSoC4/BLE_1_ess.c ****     {
 2501              		.loc 1 1025 0
 2502 00c4 254B     		ldr	r3, .L157
 2503 00c6 DB7F     		ldrb	r3, [r3, #31]
 2504 00c8 2D22     		movs	r2, #45
 2505 00ca BA18     		adds	r2, r7, r2
 2506 00cc 1278     		ldrb	r2, [r2]
 2507 00ce 9A42     		cmp	r2, r3
 2508 00d0 06D2     		bcs	.L152
1025:Generated_Source\PSoC4/BLE_1_ess.c ****     {
ARM GAS  C:\Users\megan\AppData\Local\Temp\ccmgjhBj.s 			page 65


 2509              		.loc 1 1025 0 is_stmt 0 discriminator 1
 2510 00d2 2F23     		movs	r3, #47
 2511 00d4 FB18     		adds	r3, r7, r3
 2512 00d6 1B78     		ldrb	r3, [r3]
 2513 00d8 002B     		cmp	r3, #0
 2514 00da A8D0     		beq	.L153
 2515 00dc 00E0     		b	.L152
 2516              	.L156:
1054:Generated_Source\PSoC4/BLE_1_ess.c ****             }
1055:Generated_Source\PSoC4/BLE_1_ess.c ****         }
1056:Generated_Source\PSoC4/BLE_1_ess.c ****         else
1057:Generated_Source\PSoC4/BLE_1_ess.c ****         {
1058:Generated_Source\PSoC4/BLE_1_ess.c ****             /* End of advertisement data structure was encountered so exit loop. */
1059:Generated_Source\PSoC4/BLE_1_ess.c ****             break;
 2517              		.loc 1 1059 0 is_stmt 1
 2518 00de C046     		nop
 2519              	.L152:
1060:Generated_Source\PSoC4/BLE_1_ess.c ****         }
1061:Generated_Source\PSoC4/BLE_1_ess.c ****     }
1062:Generated_Source\PSoC4/BLE_1_ess.c **** 
1063:Generated_Source\PSoC4/BLE_1_ess.c ****     if(0u != flag)
 2520              		.loc 1 1063 0
 2521 00e0 2F23     		movs	r3, #47
 2522 00e2 FB18     		adds	r3, r7, r3
 2523 00e4 1B78     		ldrb	r3, [r3]
 2524 00e6 002B     		cmp	r3, #0
 2525 00e8 31D0     		beq	.L154
1064:Generated_Source\PSoC4/BLE_1_ess.c ****     {
1065:Generated_Source\PSoC4/BLE_1_ess.c ****         /* Check if length is proper */
1066:Generated_Source\PSoC4/BLE_1_ess.c ****         if(adLength == CYBLE_ESS_SERVICE_DATA_LENGTH)
 2526              		.loc 1 1066 0
 2527 00ea 2E23     		movs	r3, #46
 2528 00ec FB18     		adds	r3, r7, r3
 2529 00ee 1B78     		ldrb	r3, [r3]
 2530 00f0 052B     		cmp	r3, #5
 2531 00f2 2CD1     		bne	.L154
1067:Generated_Source\PSoC4/BLE_1_ess.c ****         {
1068:Generated_Source\PSoC4/BLE_1_ess.c ****             /* Increment byte counter so that it points to change index value */
1069:Generated_Source\PSoC4/BLE_1_ess.c ****             byteCounter+=2u;
 2532              		.loc 1 1069 0
 2533 00f4 2D23     		movs	r3, #45
 2534 00f6 FB18     		adds	r3, r7, r3
 2535 00f8 2D22     		movs	r2, #45
 2536 00fa BA18     		adds	r2, r7, r2
 2537 00fc 1278     		ldrb	r2, [r2]
 2538 00fe 0232     		adds	r2, r2, #2
 2539 0100 1A70     		strb	r2, [r3]
1070:Generated_Source\PSoC4/BLE_1_ess.c ****             CyBle_Set16ByPtr(&cyBle_discoveryData.advData[byteCounter], essIndex);
 2540              		.loc 1 1070 0
 2541 0102 2D23     		movs	r3, #45
 2542 0104 FB18     		adds	r3, r7, r3
 2543 0106 1A78     		ldrb	r2, [r3]
 2544 0108 144B     		ldr	r3, .L157
 2545 010a D218     		adds	r2, r2, r3
 2546 010c BB1D     		adds	r3, r7, #6
 2547 010e 1B88     		ldrh	r3, [r3]
 2548 0110 1900     		movs	r1, r3
ARM GAS  C:\Users\megan\AppData\Local\Temp\ccmgjhBj.s 			page 66


 2549 0112 1000     		movs	r0, r2
 2550 0114 FFF7FEFF 		bl	CyBle_Set16ByPtr
1071:Generated_Source\PSoC4/BLE_1_ess.c **** 
1072:Generated_Source\PSoC4/BLE_1_ess.c ****             apiResult = CYBLE_ERROR_OK;
 2551              		.loc 1 1072 0
 2552 0118 2A23     		movs	r3, #42
 2553 011a FB18     		adds	r3, r7, r3
 2554 011c 0022     		movs	r2, #0
 2555 011e 1A80     		strh	r2, [r3]
1073:Generated_Source\PSoC4/BLE_1_ess.c **** 
1074:Generated_Source\PSoC4/BLE_1_ess.c ****             if(CyBle_GetState() == CYBLE_STATE_ADVERTISING)
 2556              		.loc 1 1074 0
 2557 0120 104B     		ldr	r3, .L157+8
 2558 0122 1B78     		ldrb	r3, [r3]
 2559 0124 032B     		cmp	r3, #3
 2560 0126 12D1     		bne	.L154
1075:Generated_Source\PSoC4/BLE_1_ess.c ****             {
1076:Generated_Source\PSoC4/BLE_1_ess.c ****                 /* The Stack stores the pointer to the advertisement data so
1077:Generated_Source\PSoC4/BLE_1_ess.c ****                 * need to have a different location with the advertisemt data when
1078:Generated_Source\PSoC4/BLE_1_ess.c ****                 * device in the advertisement mode.
1079:Generated_Source\PSoC4/BLE_1_ess.c ****                 */
1080:Generated_Source\PSoC4/BLE_1_ess.c ****                 (void) memcpy((void *) &esssAdvertisementData, (void *) &cyBle_discoveryData,
 2561              		.loc 1 1080 0
 2562 0128 0823     		movs	r3, #8
 2563 012a FA18     		adds	r2, r7, r3
 2564 012c 0B4B     		ldr	r3, .L157
 2565 012e 1000     		movs	r0, r2
 2566 0130 1900     		movs	r1, r3
 2567 0132 2023     		movs	r3, #32
 2568 0134 1A00     		movs	r2, r3
 2569 0136 FFF7FEFF 		bl	memcpy
1081:Generated_Source\PSoC4/BLE_1_ess.c ****                     sizeof(CYBLE_GAPP_DISC_DATA_T));
1082:Generated_Source\PSoC4/BLE_1_ess.c ****                 apiResult = CyBle_GapUpdateAdvData(&esssAdvertisementData, NULL);
 2570              		.loc 1 1082 0
 2571 013a 2A23     		movs	r3, #42
 2572 013c FC18     		adds	r4, r7, r3
 2573 013e 0823     		movs	r3, #8
 2574 0140 FB18     		adds	r3, r7, r3
 2575 0142 0021     		movs	r1, #0
 2576 0144 1800     		movs	r0, r3
 2577 0146 FFF7FEFF 		bl	CyBle_GapUpdateAdvData
 2578 014a 0300     		movs	r3, r0
 2579 014c 2380     		strh	r3, [r4]
 2580              	.L154:
1083:Generated_Source\PSoC4/BLE_1_ess.c ****             }
1084:Generated_Source\PSoC4/BLE_1_ess.c ****         }
1085:Generated_Source\PSoC4/BLE_1_ess.c ****     }
1086:Generated_Source\PSoC4/BLE_1_ess.c **** 
1087:Generated_Source\PSoC4/BLE_1_ess.c ****     return (apiResult);
 2581              		.loc 1 1087 0
 2582 014e 2A23     		movs	r3, #42
 2583 0150 FB18     		adds	r3, r7, r3
 2584 0152 1B88     		ldrh	r3, [r3]
1088:Generated_Source\PSoC4/BLE_1_ess.c **** }
 2585              		.loc 1 1088 0
 2586 0154 1800     		movs	r0, r3
 2587 0156 BD46     		mov	sp, r7
ARM GAS  C:\Users\megan\AppData\Local\Temp\ccmgjhBj.s 			page 67


 2588 0158 0DB0     		add	sp, sp, #52
 2589              		@ sp needed
 2590 015a 90BD     		pop	{r4, r7, pc}
 2591              	.L158:
 2592              		.align	2
 2593              	.L157:
 2594 015c 00000000 		.word	cyBle_discoveryData
 2595 0160 1A180000 		.word	6170
 2596 0164 00000000 		.word	cyBle_state
 2597              		.cfi_endproc
 2598              	.LFE12:
 2599              		.size	CyBle_EsssSetChangeIndex, .-CyBle_EsssSetChangeIndex
 2600              		.section	.text.CyBle_EsssSetCharacteristicValue,"ax",%progbits
 2601              		.align	2
 2602              		.global	CyBle_EsssSetCharacteristicValue
 2603              		.code	16
 2604              		.thumb_func
 2605              		.type	CyBle_EsssSetCharacteristicValue, %function
 2606              	CyBle_EsssSetCharacteristicValue:
 2607              	.LFB13:
1089:Generated_Source\PSoC4/BLE_1_ess.c **** 
1090:Generated_Source\PSoC4/BLE_1_ess.c **** #endif /* (CYBLE_GAP_ROLE_PERIPHERAL) */
1091:Generated_Source\PSoC4/BLE_1_ess.c **** 
1092:Generated_Source\PSoC4/BLE_1_ess.c **** 
1093:Generated_Source\PSoC4/BLE_1_ess.c **** /******************************************************************************
1094:Generated_Source\PSoC4/BLE_1_ess.c **** * Function Name: CyBle_EsssSetCharacteristicValue
1095:Generated_Source\PSoC4/BLE_1_ess.c **** ***************************************************************************//**
1096:Generated_Source\PSoC4/BLE_1_ess.c **** * 
1097:Generated_Source\PSoC4/BLE_1_ess.c **** *  Sets the characteristic value of the service in the local database.
1098:Generated_Source\PSoC4/BLE_1_ess.c **** * 
1099:Generated_Source\PSoC4/BLE_1_ess.c **** *  \param charIndex: The index of the service characteristic. Starts with zero.
1100:Generated_Source\PSoC4/BLE_1_ess.c **** *  \param charInstance: The instance number of the characteristic specified by
1101:Generated_Source\PSoC4/BLE_1_ess.c **** *                "charIndex".
1102:Generated_Source\PSoC4/BLE_1_ess.c **** *  \param attrSize: The size (in Bytes) of the characteristic value attribute.
1103:Generated_Source\PSoC4/BLE_1_ess.c **** *  \param attrValue: The pointer to the characteristic value data that should be
1104:Generated_Source\PSoC4/BLE_1_ess.c **** *             stored in the GATT database.
1105:Generated_Source\PSoC4/BLE_1_ess.c **** * 
1106:Generated_Source\PSoC4/BLE_1_ess.c **** * \return
1107:Generated_Source\PSoC4/BLE_1_ess.c **** *  A return value is of type CYBLE_API_RESULT_T.
1108:Generated_Source\PSoC4/BLE_1_ess.c **** *  * CYBLE_ERROR_OK - The request handled successfully.
1109:Generated_Source\PSoC4/BLE_1_ess.c **** *  * CYBLE_ERROR_INVALID_PARAMETER - Validation of the input parameter failed.
1110:Generated_Source\PSoC4/BLE_1_ess.c **** *  * CYBLE_ERROR_GATT_DB_INVALID_ATTR_HANDLE - An optional characteristic is
1111:Generated_Source\PSoC4/BLE_1_ess.c **** *                                               absent.
1112:Generated_Source\PSoC4/BLE_1_ess.c **** *
1113:Generated_Source\PSoC4/BLE_1_ess.c **** ******************************************************************************/
1114:Generated_Source\PSoC4/BLE_1_ess.c **** CYBLE_API_RESULT_T CyBle_EsssSetCharacteristicValue(CYBLE_ESS_CHAR_INDEX_T charIndex,
1115:Generated_Source\PSoC4/BLE_1_ess.c ****     uint8 charInstance, uint8 attrSize, uint8 *attrValue)
1116:Generated_Source\PSoC4/BLE_1_ess.c **** {
 2608              		.loc 1 1116 0
 2609              		.cfi_startproc
 2610              		@ args = 0, pretend = 0, frame = 24
 2611              		@ frame_needed = 1, uses_anonymous_args = 0
 2612 0000 90B5     		push	{r4, r7, lr}
 2613              		.cfi_def_cfa_offset 12
 2614              		.cfi_offset 4, -12
 2615              		.cfi_offset 7, -8
 2616              		.cfi_offset 14, -4
ARM GAS  C:\Users\megan\AppData\Local\Temp\ccmgjhBj.s 			page 68


 2617 0002 87B0     		sub	sp, sp, #28
 2618              		.cfi_def_cfa_offset 40
 2619 0004 00AF     		add	r7, sp, #0
 2620              		.cfi_def_cfa_register 7
 2621 0006 0400     		movs	r4, r0
 2622 0008 0800     		movs	r0, r1
 2623 000a 1100     		movs	r1, r2
 2624 000c 3B60     		str	r3, [r7]
 2625 000e FB1D     		adds	r3, r7, #7
 2626 0010 221C     		adds	r2, r4, #0
 2627 0012 1A70     		strb	r2, [r3]
 2628 0014 BB1D     		adds	r3, r7, #6
 2629 0016 021C     		adds	r2, r0, #0
 2630 0018 1A70     		strb	r2, [r3]
 2631 001a 7B1D     		adds	r3, r7, #5
 2632 001c 0A1C     		adds	r2, r1, #0
 2633 001e 1A70     		strb	r2, [r3]
1117:Generated_Source\PSoC4/BLE_1_ess.c ****     CYBLE_API_RESULT_T apiResult = CYBLE_ERROR_INVALID_PARAMETER;
 2634              		.loc 1 1117 0
 2635 0020 1623     		movs	r3, #22
 2636 0022 FB18     		adds	r3, r7, r3
 2637 0024 0122     		movs	r2, #1
 2638 0026 1A80     		strh	r2, [r3]
1118:Generated_Source\PSoC4/BLE_1_ess.c **** 
1119:Generated_Source\PSoC4/BLE_1_ess.c ****     /* Validate range of ESS characteristics */
1120:Generated_Source\PSoC4/BLE_1_ess.c ****     if(charIndex < CYBLE_ESS_CHAR_COUNT)
 2639              		.loc 1 1120 0
 2640 0028 FB1D     		adds	r3, r7, #7
 2641 002a 1B78     		ldrb	r3, [r3]
 2642 002c 142B     		cmp	r3, #20
 2643 002e 51D8     		bhi	.L160
1121:Generated_Source\PSoC4/BLE_1_ess.c ****     {
1122:Generated_Source\PSoC4/BLE_1_ess.c ****         /* Check if requested characteristic is present in Service.
1123:Generated_Source\PSoC4/BLE_1_ess.c ****         * There are three conditions which should be checked: 1) The pointer to
1124:Generated_Source\PSoC4/BLE_1_ess.c ****         * "CYBLE_ESSS_CHAR_T" is not NULL, 2) The handle of the characteristic is
1125:Generated_Source\PSoC4/BLE_1_ess.c ****         * a valid handle, 3) The requested instance is a valid characteristic
1126:Generated_Source\PSoC4/BLE_1_ess.c ****         * instance.
1127:Generated_Source\PSoC4/BLE_1_ess.c ****         */
1128:Generated_Source\PSoC4/BLE_1_ess.c ****         if((NULL != cyBle_esss.charInfoAddr[charIndex].charInfoPtr) &&
 2644              		.loc 1 1128 0
 2645 0030 FB1D     		adds	r3, r7, #7
 2646 0032 1B78     		ldrb	r3, [r3]
 2647 0034 2B4A     		ldr	r2, .L165
 2648 0036 9B00     		lsls	r3, r3, #2
 2649 0038 D318     		adds	r3, r2, r3
 2650 003a 0433     		adds	r3, r3, #4
 2651 003c 1B68     		ldr	r3, [r3]
 2652 003e 002B     		cmp	r3, #0
 2653 0040 42D0     		beq	.L161
1129:Generated_Source\PSoC4/BLE_1_ess.c ****             (CYBLE_GATT_INVALID_ATTR_HANDLE_VALUE !=
1130:Generated_Source\PSoC4/BLE_1_ess.c ****                 cyBle_esss.charInfoAddr[charIndex].charInfoPtr[charInstance].charHandle) &&
 2654              		.loc 1 1130 0 discriminator 1
 2655 0042 FB1D     		adds	r3, r7, #7
 2656 0044 1B78     		ldrb	r3, [r3]
 2657 0046 274A     		ldr	r2, .L165
 2658 0048 9B00     		lsls	r3, r3, #2
 2659 004a D318     		adds	r3, r2, r3
ARM GAS  C:\Users\megan\AppData\Local\Temp\ccmgjhBj.s 			page 69


 2660 004c 0433     		adds	r3, r3, #4
 2661 004e 1968     		ldr	r1, [r3]
 2662 0050 BB1D     		adds	r3, r7, #6
 2663 0052 1A78     		ldrb	r2, [r3]
 2664 0054 1300     		movs	r3, r2
 2665 0056 9B00     		lsls	r3, r3, #2
 2666 0058 9B18     		adds	r3, r3, r2
 2667 005a 9B00     		lsls	r3, r3, #2
 2668 005c CB18     		adds	r3, r1, r3
 2669 005e 1B88     		ldrh	r3, [r3]
1128:Generated_Source\PSoC4/BLE_1_ess.c ****             (CYBLE_GATT_INVALID_ATTR_HANDLE_VALUE !=
 2670              		.loc 1 1128 0 discriminator 1
 2671 0060 002B     		cmp	r3, #0
 2672 0062 31D0     		beq	.L161
1131:Generated_Source\PSoC4/BLE_1_ess.c ****                     (cyBle_esssCharInstances[charIndex] > charInstance))
 2673              		.loc 1 1131 0
 2674 0064 FB1D     		adds	r3, r7, #7
 2675 0066 1B78     		ldrb	r3, [r3]
 2676 0068 1F4A     		ldr	r2, .L165+4
 2677 006a D35C     		ldrb	r3, [r2, r3]
1130:Generated_Source\PSoC4/BLE_1_ess.c ****                     (cyBle_esssCharInstances[charIndex] > charInstance))
 2678              		.loc 1 1130 0
 2679 006c BA1D     		adds	r2, r7, #6
 2680 006e 1278     		ldrb	r2, [r2]
 2681 0070 9A42     		cmp	r2, r3
 2682 0072 29D2     		bcs	.L161
 2683              	.LBB2:
1132:Generated_Source\PSoC4/BLE_1_ess.c ****         {
1133:Generated_Source\PSoC4/BLE_1_ess.c ****             CYBLE_GATT_HANDLE_VALUE_PAIR_T locHandleValuePair;
1134:Generated_Source\PSoC4/BLE_1_ess.c **** 
1135:Generated_Source\PSoC4/BLE_1_ess.c ****             locHandleValuePair.attrHandle =
1136:Generated_Source\PSoC4/BLE_1_ess.c ****                 cyBle_esss.charInfoAddr[charIndex].charInfoPtr[charInstance].charHandle;
 2684              		.loc 1 1136 0
 2685 0074 FB1D     		adds	r3, r7, #7
 2686 0076 1B78     		ldrb	r3, [r3]
 2687 0078 1A4A     		ldr	r2, .L165
 2688 007a 9B00     		lsls	r3, r3, #2
 2689 007c D318     		adds	r3, r2, r3
 2690 007e 0433     		adds	r3, r3, #4
 2691 0080 1968     		ldr	r1, [r3]
 2692 0082 BB1D     		adds	r3, r7, #6
 2693 0084 1A78     		ldrb	r2, [r3]
 2694 0086 1300     		movs	r3, r2
 2695 0088 9B00     		lsls	r3, r3, #2
 2696 008a 9B18     		adds	r3, r3, r2
 2697 008c 9B00     		lsls	r3, r3, #2
 2698 008e CB18     		adds	r3, r1, r3
 2699 0090 1A88     		ldrh	r2, [r3]
1135:Generated_Source\PSoC4/BLE_1_ess.c ****                 cyBle_esss.charInfoAddr[charIndex].charInfoPtr[charInstance].charHandle;
 2700              		.loc 1 1135 0
 2701 0092 0823     		movs	r3, #8
 2702 0094 FB18     		adds	r3, r7, r3
 2703 0096 1A81     		strh	r2, [r3, #8]
1137:Generated_Source\PSoC4/BLE_1_ess.c ****             locHandleValuePair.value.len = attrSize;
 2704              		.loc 1 1137 0
 2705 0098 7B1D     		adds	r3, r7, #5
 2706 009a 1B78     		ldrb	r3, [r3]
ARM GAS  C:\Users\megan\AppData\Local\Temp\ccmgjhBj.s 			page 70


 2707 009c 9AB2     		uxth	r2, r3
 2708 009e 0823     		movs	r3, #8
 2709 00a0 FB18     		adds	r3, r7, r3
 2710 00a2 9A80     		strh	r2, [r3, #4]
1138:Generated_Source\PSoC4/BLE_1_ess.c ****             locHandleValuePair.value.val = attrValue;
 2711              		.loc 1 1138 0
 2712 00a4 0823     		movs	r3, #8
 2713 00a6 FB18     		adds	r3, r7, r3
 2714 00a8 3A68     		ldr	r2, [r7]
 2715 00aa 1A60     		str	r2, [r3]
1139:Generated_Source\PSoC4/BLE_1_ess.c **** 
1140:Generated_Source\PSoC4/BLE_1_ess.c ****             /* Store data in database */
1141:Generated_Source\PSoC4/BLE_1_ess.c ****             if(CyBle_GattsWriteAttributeValue(&locHandleValuePair, 0u, NULL, CYBLE_GATT_DB_LOCALLY_
 2716              		.loc 1 1141 0
 2717 00ac 0823     		movs	r3, #8
 2718 00ae F818     		adds	r0, r7, r3
 2719 00b0 0023     		movs	r3, #0
 2720 00b2 0022     		movs	r2, #0
 2721 00b4 0021     		movs	r1, #0
 2722 00b6 FFF7FEFF 		bl	CyBle_GattsWriteAttributeValue
 2723 00ba 031E     		subs	r3, r0, #0
 2724 00bc 09D1     		bne	.L164
1142:Generated_Source\PSoC4/BLE_1_ess.c ****                 CYBLE_GATT_ERR_NONE)
1143:Generated_Source\PSoC4/BLE_1_ess.c ****             {
1144:Generated_Source\PSoC4/BLE_1_ess.c ****                 apiResult = CYBLE_ERROR_OK;
 2725              		.loc 1 1144 0
 2726 00be 1623     		movs	r3, #22
 2727 00c0 FB18     		adds	r3, r7, r3
 2728 00c2 0022     		movs	r2, #0
 2729 00c4 1A80     		strh	r2, [r3]
 2730              	.LBE2:
1132:Generated_Source\PSoC4/BLE_1_ess.c ****             CYBLE_GATT_HANDLE_VALUE_PAIR_T locHandleValuePair;
 2731              		.loc 1 1132 0
 2732 00c6 04E0     		b	.L164
 2733              	.L161:
1145:Generated_Source\PSoC4/BLE_1_ess.c ****             }
1146:Generated_Source\PSoC4/BLE_1_ess.c ****         }
1147:Generated_Source\PSoC4/BLE_1_ess.c ****         else
1148:Generated_Source\PSoC4/BLE_1_ess.c ****         {
1149:Generated_Source\PSoC4/BLE_1_ess.c ****             apiResult = CYBLE_ERROR_GATT_DB_INVALID_ATTR_HANDLE;
 2734              		.loc 1 1149 0
 2735 00c8 1623     		movs	r3, #22
 2736 00ca FB18     		adds	r3, r7, r3
 2737 00cc 1322     		movs	r2, #19
 2738 00ce 1A80     		strh	r2, [r3]
 2739 00d0 00E0     		b	.L160
 2740              	.L164:
1132:Generated_Source\PSoC4/BLE_1_ess.c ****             CYBLE_GATT_HANDLE_VALUE_PAIR_T locHandleValuePair;
 2741              		.loc 1 1132 0
 2742 00d2 C046     		nop
 2743              	.L160:
1150:Generated_Source\PSoC4/BLE_1_ess.c ****         }
1151:Generated_Source\PSoC4/BLE_1_ess.c ****     }
1152:Generated_Source\PSoC4/BLE_1_ess.c **** 
1153:Generated_Source\PSoC4/BLE_1_ess.c ****     return (apiResult);
 2744              		.loc 1 1153 0
 2745 00d4 1623     		movs	r3, #22
ARM GAS  C:\Users\megan\AppData\Local\Temp\ccmgjhBj.s 			page 71


 2746 00d6 FB18     		adds	r3, r7, r3
 2747 00d8 1B88     		ldrh	r3, [r3]
1154:Generated_Source\PSoC4/BLE_1_ess.c **** }
 2748              		.loc 1 1154 0
 2749 00da 1800     		movs	r0, r3
 2750 00dc BD46     		mov	sp, r7
 2751 00de 07B0     		add	sp, sp, #28
 2752              		@ sp needed
 2753 00e0 90BD     		pop	{r4, r7, pc}
 2754              	.L166:
 2755 00e2 C046     		.align	2
 2756              	.L165:
 2757 00e4 00000000 		.word	cyBle_esss
 2758 00e8 00000000 		.word	cyBle_esssCharInstances
 2759              		.cfi_endproc
 2760              	.LFE13:
 2761              		.size	CyBle_EsssSetCharacteristicValue, .-CyBle_EsssSetCharacteristicValue
 2762              		.section	.text.CyBle_EsssGetCharacteristicValue,"ax",%progbits
 2763              		.align	2
 2764              		.global	CyBle_EsssGetCharacteristicValue
 2765              		.code	16
 2766              		.thumb_func
 2767              		.type	CyBle_EsssGetCharacteristicValue, %function
 2768              	CyBle_EsssGetCharacteristicValue:
 2769              	.LFB14:
1155:Generated_Source\PSoC4/BLE_1_ess.c **** 
1156:Generated_Source\PSoC4/BLE_1_ess.c **** 
1157:Generated_Source\PSoC4/BLE_1_ess.c **** /******************************************************************************
1158:Generated_Source\PSoC4/BLE_1_ess.c **** * Function Name: CyBle_EsssGetCharacteristicValue
1159:Generated_Source\PSoC4/BLE_1_ess.c **** ***************************************************************************//**
1160:Generated_Source\PSoC4/BLE_1_ess.c **** * 
1161:Generated_Source\PSoC4/BLE_1_ess.c **** *  Gets the characteristic value of the service, which is a value identified by
1162:Generated_Source\PSoC4/BLE_1_ess.c **** *  charIndex.
1163:Generated_Source\PSoC4/BLE_1_ess.c **** * 
1164:Generated_Source\PSoC4/BLE_1_ess.c **** *  \param charIndex: The index of the service characteristic. Starts with zero.
1165:Generated_Source\PSoC4/BLE_1_ess.c **** *  \param charInstance: The instance number of the characteristic specified by
1166:Generated_Source\PSoC4/BLE_1_ess.c **** *                "charIndex".
1167:Generated_Source\PSoC4/BLE_1_ess.c **** *  \param attrSize: The size of the characteristic value attribute.
1168:Generated_Source\PSoC4/BLE_1_ess.c **** *  \param attrValue: The pointer to the location where characteristic value data
1169:Generated_Source\PSoC4/BLE_1_ess.c **** *             should be stored.
1170:Generated_Source\PSoC4/BLE_1_ess.c **** * 
1171:Generated_Source\PSoC4/BLE_1_ess.c **** * \return
1172:Generated_Source\PSoC4/BLE_1_ess.c **** *  A return value is of type CYBLE_API_RESULT_T.
1173:Generated_Source\PSoC4/BLE_1_ess.c **** *  * CYBLE_ERROR_OK - The request handled successfully
1174:Generated_Source\PSoC4/BLE_1_ess.c **** *  * CYBLE_ERROR_INVALID_PARAMETER - Validation of the input parameter failed
1175:Generated_Source\PSoC4/BLE_1_ess.c **** *  * CYBLE_ERROR_GATT_DB_INVALID_ATTR_HANDLE - An optional characteristic is
1176:Generated_Source\PSoC4/BLE_1_ess.c **** *                                               absent.
1177:Generated_Source\PSoC4/BLE_1_ess.c **** *
1178:Generated_Source\PSoC4/BLE_1_ess.c **** ******************************************************************************/
1179:Generated_Source\PSoC4/BLE_1_ess.c **** CYBLE_API_RESULT_T CyBle_EsssGetCharacteristicValue(CYBLE_ESS_CHAR_INDEX_T charIndex,
1180:Generated_Source\PSoC4/BLE_1_ess.c ****     uint8 charInstance, uint8 attrSize, uint8 *attrValue)
1181:Generated_Source\PSoC4/BLE_1_ess.c **** {
 2770              		.loc 1 1181 0
 2771              		.cfi_startproc
 2772              		@ args = 0, pretend = 0, frame = 24
 2773              		@ frame_needed = 1, uses_anonymous_args = 0
 2774 0000 90B5     		push	{r4, r7, lr}
ARM GAS  C:\Users\megan\AppData\Local\Temp\ccmgjhBj.s 			page 72


 2775              		.cfi_def_cfa_offset 12
 2776              		.cfi_offset 4, -12
 2777              		.cfi_offset 7, -8
 2778              		.cfi_offset 14, -4
 2779 0002 87B0     		sub	sp, sp, #28
 2780              		.cfi_def_cfa_offset 40
 2781 0004 00AF     		add	r7, sp, #0
 2782              		.cfi_def_cfa_register 7
 2783 0006 0400     		movs	r4, r0
 2784 0008 0800     		movs	r0, r1
 2785 000a 1100     		movs	r1, r2
 2786 000c 3B60     		str	r3, [r7]
 2787 000e FB1D     		adds	r3, r7, #7
 2788 0010 221C     		adds	r2, r4, #0
 2789 0012 1A70     		strb	r2, [r3]
 2790 0014 BB1D     		adds	r3, r7, #6
 2791 0016 021C     		adds	r2, r0, #0
 2792 0018 1A70     		strb	r2, [r3]
 2793 001a 7B1D     		adds	r3, r7, #5
 2794 001c 0A1C     		adds	r2, r1, #0
 2795 001e 1A70     		strb	r2, [r3]
1182:Generated_Source\PSoC4/BLE_1_ess.c ****     CYBLE_API_RESULT_T apiResult = CYBLE_ERROR_INVALID_PARAMETER;
 2796              		.loc 1 1182 0
 2797 0020 1623     		movs	r3, #22
 2798 0022 FB18     		adds	r3, r7, r3
 2799 0024 0122     		movs	r2, #1
 2800 0026 1A80     		strh	r2, [r3]
1183:Generated_Source\PSoC4/BLE_1_ess.c **** 
1184:Generated_Source\PSoC4/BLE_1_ess.c ****     if(charIndex < CYBLE_ESS_CHAR_COUNT)
 2801              		.loc 1 1184 0
 2802 0028 FB1D     		adds	r3, r7, #7
 2803 002a 1B78     		ldrb	r3, [r3]
 2804 002c 142B     		cmp	r3, #20
 2805 002e 6DD8     		bhi	.L168
1185:Generated_Source\PSoC4/BLE_1_ess.c ****     {
1186:Generated_Source\PSoC4/BLE_1_ess.c ****         /* Check if requested characteristic is present in Service. There are three
1187:Generated_Source\PSoC4/BLE_1_ess.c ****         * conditions to be checked: 1) The pointer to "CYBLE_ESSS_CHAR_T" record in
1188:Generated_Source\PSoC4/BLE_1_ess.c ****         * the cyBle_esss struct is not NULL, 2) The handle of the characteristic is a 
1189:Generated_Source\PSoC4/BLE_1_ess.c ****         * valid handle, 3) The requested instance is a valid characteristic instance.
1190:Generated_Source\PSoC4/BLE_1_ess.c ****         */
1191:Generated_Source\PSoC4/BLE_1_ess.c ****         if((NULL != cyBle_esss.charInfoAddr[charIndex].charInfoPtr) &&
 2806              		.loc 1 1191 0
 2807 0030 FB1D     		adds	r3, r7, #7
 2808 0032 1B78     		ldrb	r3, [r3]
 2809 0034 394A     		ldr	r2, .L173
 2810 0036 9B00     		lsls	r3, r3, #2
 2811 0038 D318     		adds	r3, r2, r3
 2812 003a 0433     		adds	r3, r3, #4
 2813 003c 1B68     		ldr	r3, [r3]
 2814 003e 002B     		cmp	r3, #0
 2815 0040 5ED0     		beq	.L169
1192:Generated_Source\PSoC4/BLE_1_ess.c ****             (CYBLE_GATT_INVALID_ATTR_HANDLE_VALUE !=
1193:Generated_Source\PSoC4/BLE_1_ess.c ****                 cyBle_esss.charInfoAddr[charIndex].charInfoPtr[charInstance].charHandle) &&
 2816              		.loc 1 1193 0 discriminator 1
 2817 0042 FB1D     		adds	r3, r7, #7
 2818 0044 1B78     		ldrb	r3, [r3]
 2819 0046 354A     		ldr	r2, .L173
ARM GAS  C:\Users\megan\AppData\Local\Temp\ccmgjhBj.s 			page 73


 2820 0048 9B00     		lsls	r3, r3, #2
 2821 004a D318     		adds	r3, r2, r3
 2822 004c 0433     		adds	r3, r3, #4
 2823 004e 1968     		ldr	r1, [r3]
 2824 0050 BB1D     		adds	r3, r7, #6
 2825 0052 1A78     		ldrb	r2, [r3]
 2826 0054 1300     		movs	r3, r2
 2827 0056 9B00     		lsls	r3, r3, #2
 2828 0058 9B18     		adds	r3, r3, r2
 2829 005a 9B00     		lsls	r3, r3, #2
 2830 005c CB18     		adds	r3, r1, r3
 2831 005e 1B88     		ldrh	r3, [r3]
1191:Generated_Source\PSoC4/BLE_1_ess.c ****             (CYBLE_GATT_INVALID_ATTR_HANDLE_VALUE !=
 2832              		.loc 1 1191 0 discriminator 1
 2833 0060 002B     		cmp	r3, #0
 2834 0062 4DD0     		beq	.L169
1194:Generated_Source\PSoC4/BLE_1_ess.c ****                     (cyBle_esssCharInstances[charIndex] > charInstance))
 2835              		.loc 1 1194 0
 2836 0064 FB1D     		adds	r3, r7, #7
 2837 0066 1B78     		ldrb	r3, [r3]
 2838 0068 2D4A     		ldr	r2, .L173+4
 2839 006a D35C     		ldrb	r3, [r2, r3]
1193:Generated_Source\PSoC4/BLE_1_ess.c ****                     (cyBle_esssCharInstances[charIndex] > charInstance))
 2840              		.loc 1 1193 0
 2841 006c BA1D     		adds	r2, r7, #6
 2842 006e 1278     		ldrb	r2, [r2]
 2843 0070 9A42     		cmp	r2, r3
 2844 0072 45D2     		bcs	.L169
 2845              	.LBB3:
1195:Generated_Source\PSoC4/BLE_1_ess.c ****         {
1196:Generated_Source\PSoC4/BLE_1_ess.c ****             CYBLE_GATT_HANDLE_VALUE_PAIR_T locHandleValuePair;
1197:Generated_Source\PSoC4/BLE_1_ess.c **** 
1198:Generated_Source\PSoC4/BLE_1_ess.c ****             locHandleValuePair.attrHandle = cyBle_esss.charInfoAddr[charIndex].charInfoPtr[charInst
 2846              		.loc 1 1198 0
 2847 0074 FB1D     		adds	r3, r7, #7
 2848 0076 1B78     		ldrb	r3, [r3]
 2849 0078 284A     		ldr	r2, .L173
 2850 007a 9B00     		lsls	r3, r3, #2
 2851 007c D318     		adds	r3, r2, r3
 2852 007e 0433     		adds	r3, r3, #4
 2853 0080 1968     		ldr	r1, [r3]
 2854 0082 BB1D     		adds	r3, r7, #6
 2855 0084 1A78     		ldrb	r2, [r3]
 2856 0086 1300     		movs	r3, r2
 2857 0088 9B00     		lsls	r3, r3, #2
 2858 008a 9B18     		adds	r3, r3, r2
 2859 008c 9B00     		lsls	r3, r3, #2
 2860 008e CB18     		adds	r3, r1, r3
 2861 0090 1A88     		ldrh	r2, [r3]
 2862 0092 0823     		movs	r3, #8
 2863 0094 FB18     		adds	r3, r7, r3
 2864 0096 1A81     		strh	r2, [r3, #8]
1199:Generated_Source\PSoC4/BLE_1_ess.c ****             locHandleValuePair.value.len = attrSize;
 2865              		.loc 1 1199 0
 2866 0098 7B1D     		adds	r3, r7, #5
 2867 009a 1B78     		ldrb	r3, [r3]
 2868 009c 9AB2     		uxth	r2, r3
ARM GAS  C:\Users\megan\AppData\Local\Temp\ccmgjhBj.s 			page 74


 2869 009e 0823     		movs	r3, #8
 2870 00a0 FB18     		adds	r3, r7, r3
 2871 00a2 9A80     		strh	r2, [r3, #4]
1200:Generated_Source\PSoC4/BLE_1_ess.c ****             locHandleValuePair.value.val = attrValue;
 2872              		.loc 1 1200 0
 2873 00a4 0823     		movs	r3, #8
 2874 00a6 FB18     		adds	r3, r7, r3
 2875 00a8 3A68     		ldr	r2, [r7]
 2876 00aa 1A60     		str	r2, [r3]
1201:Generated_Source\PSoC4/BLE_1_ess.c **** 
1202:Generated_Source\PSoC4/BLE_1_ess.c ****             /* Read characteristic value from database */
1203:Generated_Source\PSoC4/BLE_1_ess.c ****             if(CyBle_GattsReadAttributeValue(&locHandleValuePair, NULL, CYBLE_GATT_DB_LOCALLY_INITI
 2877              		.loc 1 1203 0
 2878 00ac 0823     		movs	r3, #8
 2879 00ae FB18     		adds	r3, r7, r3
 2880 00b0 0022     		movs	r2, #0
 2881 00b2 0021     		movs	r1, #0
 2882 00b4 1800     		movs	r0, r3
 2883 00b6 FFF7FEFF 		bl	CyBle_GattsReadAttributeValue
 2884 00ba 031E     		subs	r3, r0, #0
 2885 00bc 25D1     		bne	.L172
1204:Generated_Source\PSoC4/BLE_1_ess.c ****                 CYBLE_GATT_ERR_NONE)
1205:Generated_Source\PSoC4/BLE_1_ess.c ****             {
1206:Generated_Source\PSoC4/BLE_1_ess.c ****                 apiResult = CYBLE_ERROR_OK;
 2886              		.loc 1 1206 0
 2887 00be 1623     		movs	r3, #22
 2888 00c0 FB18     		adds	r3, r7, r3
 2889 00c2 0022     		movs	r2, #0
 2890 00c4 1A80     		strh	r2, [r3]
1207:Generated_Source\PSoC4/BLE_1_ess.c ****                 
1208:Generated_Source\PSoC4/BLE_1_ess.c ****             /* Set new length of the descriptor value */
1209:Generated_Source\PSoC4/BLE_1_ess.c ****             CYBLE_GATT_DB_ATTR_SET_ATTR_GEN_LEN(cyBle_esss.charInfoAddr[charIndex].charInfoPtr[char
 2891              		.loc 1 1209 0
 2892 00c6 FB1D     		adds	r3, r7, #7
 2893 00c8 1B78     		ldrb	r3, [r3]
 2894 00ca 144A     		ldr	r2, .L173
 2895 00cc 9B00     		lsls	r3, r3, #2
 2896 00ce D318     		adds	r3, r2, r3
 2897 00d0 0433     		adds	r3, r3, #4
 2898 00d2 1968     		ldr	r1, [r3]
 2899 00d4 BB1D     		adds	r3, r7, #6
 2900 00d6 1A78     		ldrb	r2, [r3]
 2901 00d8 1300     		movs	r3, r2
 2902 00da 9B00     		lsls	r3, r3, #2
 2903 00dc 9B18     		adds	r3, r3, r2
 2904 00de 9B00     		lsls	r3, r3, #2
 2905 00e0 CB18     		adds	r3, r1, r3
 2906 00e2 1B88     		ldrh	r3, [r3]
 2907 00e4 5A1E     		subs	r2, r3, #1
 2908 00e6 0F49     		ldr	r1, .L173+8
 2909 00e8 1300     		movs	r3, r2
 2910 00ea 9B00     		lsls	r3, r3, #2
 2911 00ec 9B18     		adds	r3, r3, r2
 2912 00ee 9B00     		lsls	r3, r3, #2
 2913 00f0 CB18     		adds	r3, r1, r3
 2914 00f2 1033     		adds	r3, r3, #16
 2915 00f4 1B68     		ldr	r3, [r3]
ARM GAS  C:\Users\megan\AppData\Local\Temp\ccmgjhBj.s 			page 75


 2916 00f6 7A1D     		adds	r2, r7, #5
 2917 00f8 1278     		ldrb	r2, [r2]
 2918 00fa 92B2     		uxth	r2, r2
 2919 00fc 1A80     		strh	r2, [r3]
 2920              	.LBE3:
1195:Generated_Source\PSoC4/BLE_1_ess.c ****             CYBLE_GATT_HANDLE_VALUE_PAIR_T locHandleValuePair;
 2921              		.loc 1 1195 0
 2922 00fe 04E0     		b	.L172
 2923              	.L169:
1210:Generated_Source\PSoC4/BLE_1_ess.c ****                                                 attrSize);
1211:Generated_Source\PSoC4/BLE_1_ess.c ****             }
1212:Generated_Source\PSoC4/BLE_1_ess.c ****         }
1213:Generated_Source\PSoC4/BLE_1_ess.c ****         else
1214:Generated_Source\PSoC4/BLE_1_ess.c ****         {
1215:Generated_Source\PSoC4/BLE_1_ess.c ****             apiResult = CYBLE_ERROR_GATT_DB_INVALID_ATTR_HANDLE;
 2924              		.loc 1 1215 0
 2925 0100 1623     		movs	r3, #22
 2926 0102 FB18     		adds	r3, r7, r3
 2927 0104 1322     		movs	r2, #19
 2928 0106 1A80     		strh	r2, [r3]
 2929 0108 00E0     		b	.L168
 2930              	.L172:
1195:Generated_Source\PSoC4/BLE_1_ess.c ****             CYBLE_GATT_HANDLE_VALUE_PAIR_T locHandleValuePair;
 2931              		.loc 1 1195 0
 2932 010a C046     		nop
 2933              	.L168:
1216:Generated_Source\PSoC4/BLE_1_ess.c ****         }
1217:Generated_Source\PSoC4/BLE_1_ess.c ****     }
1218:Generated_Source\PSoC4/BLE_1_ess.c **** 
1219:Generated_Source\PSoC4/BLE_1_ess.c ****     return (apiResult);
 2934              		.loc 1 1219 0
 2935 010c 1623     		movs	r3, #22
 2936 010e FB18     		adds	r3, r7, r3
 2937 0110 1B88     		ldrh	r3, [r3]
1220:Generated_Source\PSoC4/BLE_1_ess.c **** }
 2938              		.loc 1 1220 0
 2939 0112 1800     		movs	r0, r3
 2940 0114 BD46     		mov	sp, r7
 2941 0116 07B0     		add	sp, sp, #28
 2942              		@ sp needed
 2943 0118 90BD     		pop	{r4, r7, pc}
 2944              	.L174:
 2945 011a C046     		.align	2
 2946              	.L173:
 2947 011c 00000000 		.word	cyBle_esss
 2948 0120 00000000 		.word	cyBle_esssCharInstances
 2949 0124 00000000 		.word	cyBle_gattDB
 2950              		.cfi_endproc
 2951              	.LFE14:
 2952              		.size	CyBle_EsssGetCharacteristicValue, .-CyBle_EsssGetCharacteristicValue
 2953              		.section	.text.CyBle_EsssSetCharacteristicDescriptor,"ax",%progbits
 2954              		.align	2
 2955              		.global	CyBle_EsssSetCharacteristicDescriptor
 2956              		.code	16
 2957              		.thumb_func
 2958              		.type	CyBle_EsssSetCharacteristicDescriptor, %function
 2959              	CyBle_EsssSetCharacteristicDescriptor:
ARM GAS  C:\Users\megan\AppData\Local\Temp\ccmgjhBj.s 			page 76


 2960              	.LFB15:
1221:Generated_Source\PSoC4/BLE_1_ess.c **** 
1222:Generated_Source\PSoC4/BLE_1_ess.c **** 
1223:Generated_Source\PSoC4/BLE_1_ess.c **** /******************************************************************************
1224:Generated_Source\PSoC4/BLE_1_ess.c **** * Function Name: CyBle_EsssSetCharacteristicDescriptor
1225:Generated_Source\PSoC4/BLE_1_ess.c **** ***************************************************************************//**
1226:Generated_Source\PSoC4/BLE_1_ess.c **** * 
1227:Generated_Source\PSoC4/BLE_1_ess.c **** *  Sets the characteristic descriptor of the specified characteristic.
1228:Generated_Source\PSoC4/BLE_1_ess.c **** * 
1229:Generated_Source\PSoC4/BLE_1_ess.c **** *  \param charIndex: The index of the service characteristic.
1230:Generated_Source\PSoC4/BLE_1_ess.c **** *  \param charInstance: The instance number of the characteristic specified by
1231:Generated_Source\PSoC4/BLE_1_ess.c **** *                "charIndex".
1232:Generated_Source\PSoC4/BLE_1_ess.c **** *  \param descrIndex: The index of the service characteristic descriptor of type 
1233:Generated_Source\PSoC4/BLE_1_ess.c **** *              CYBLE_ESS_DESCR_INDEX_T. 
1234:Generated_Source\PSoC4/BLE_1_ess.c **** *  \param attrSize: The size of the characteristic descriptor attribute.
1235:Generated_Source\PSoC4/BLE_1_ess.c **** *  \param attrValue: The pointer to the descriptor value data to 
1236:Generated_Source\PSoC4/BLE_1_ess.c **** *             be stored in the GATT database.
1237:Generated_Source\PSoC4/BLE_1_ess.c **** * 
1238:Generated_Source\PSoC4/BLE_1_ess.c **** * \return
1239:Generated_Source\PSoC4/BLE_1_ess.c **** *  A return value is of type CYBLE_API_RESULT_T.
1240:Generated_Source\PSoC4/BLE_1_ess.c **** *  * CYBLE_ERROR_OK - The request handled successfully.
1241:Generated_Source\PSoC4/BLE_1_ess.c **** *  * CYBLE_ERROR_INVALID_PARAMETER - Validation of the input parameter failed.
1242:Generated_Source\PSoC4/BLE_1_ess.c **** *  * CYBLE_ERROR_GATT_DB_INVALID_ATTR_HANDLE - An optional characteristic is
1243:Generated_Source\PSoC4/BLE_1_ess.c **** *                                               absent.
1244:Generated_Source\PSoC4/BLE_1_ess.c **** *
1245:Generated_Source\PSoC4/BLE_1_ess.c **** ******************************************************************************/
1246:Generated_Source\PSoC4/BLE_1_ess.c **** CYBLE_API_RESULT_T CyBle_EsssSetCharacteristicDescriptor(CYBLE_ESS_CHAR_INDEX_T charIndex,
1247:Generated_Source\PSoC4/BLE_1_ess.c ****     uint8 charInstance, CYBLE_ESS_DESCR_INDEX_T descrIndex, uint16 attrSize, uint8 *attrValue)
1248:Generated_Source\PSoC4/BLE_1_ess.c **** {
 2961              		.loc 1 1248 0
 2962              		.cfi_startproc
 2963              		@ args = 4, pretend = 0, frame = 24
 2964              		@ frame_needed = 1, uses_anonymous_args = 0
 2965 0000 B0B5     		push	{r4, r5, r7, lr}
 2966              		.cfi_def_cfa_offset 16
 2967              		.cfi_offset 4, -16
 2968              		.cfi_offset 5, -12
 2969              		.cfi_offset 7, -8
 2970              		.cfi_offset 14, -4
 2971 0002 86B0     		sub	sp, sp, #24
 2972              		.cfi_def_cfa_offset 40
 2973 0004 00AF     		add	r7, sp, #0
 2974              		.cfi_def_cfa_register 7
 2975 0006 0500     		movs	r5, r0
 2976 0008 0C00     		movs	r4, r1
 2977 000a 1000     		movs	r0, r2
 2978 000c 1900     		movs	r1, r3
 2979 000e FB1D     		adds	r3, r7, #7
 2980 0010 2A1C     		adds	r2, r5, #0
 2981 0012 1A70     		strb	r2, [r3]
 2982 0014 BB1D     		adds	r3, r7, #6
 2983 0016 221C     		adds	r2, r4, #0
 2984 0018 1A70     		strb	r2, [r3]
 2985 001a 7B1D     		adds	r3, r7, #5
 2986 001c 021C     		adds	r2, r0, #0
 2987 001e 1A70     		strb	r2, [r3]
 2988 0020 BB1C     		adds	r3, r7, #2
ARM GAS  C:\Users\megan\AppData\Local\Temp\ccmgjhBj.s 			page 77


 2989 0022 0A1C     		adds	r2, r1, #0
 2990 0024 1A80     		strh	r2, [r3]
1249:Generated_Source\PSoC4/BLE_1_ess.c ****     CYBLE_API_RESULT_T apiResult = CYBLE_ERROR_INVALID_PARAMETER;
 2991              		.loc 1 1249 0
 2992 0026 1623     		movs	r3, #22
 2993 0028 FB18     		adds	r3, r7, r3
 2994 002a 0122     		movs	r2, #1
 2995 002c 1A80     		strh	r2, [r3]
1250:Generated_Source\PSoC4/BLE_1_ess.c **** 
1251:Generated_Source\PSoC4/BLE_1_ess.c ****     if((charIndex < CYBLE_ESS_CHAR_COUNT) && (cyBle_esssCharInstances[charIndex] > charInstance) &&
 2996              		.loc 1 1251 0
 2997 002e FB1D     		adds	r3, r7, #7
 2998 0030 1B78     		ldrb	r3, [r3]
 2999 0032 142B     		cmp	r3, #20
 3000 0034 00D9     		bls	.LCB2582
 3001 0036 92E0     		b	.L176	@long jump
 3002              	.LCB2582:
 3003              		.loc 1 1251 0 is_stmt 0 discriminator 1
 3004 0038 FB1D     		adds	r3, r7, #7
 3005 003a 1B78     		ldrb	r3, [r3]
 3006 003c 4B4A     		ldr	r2, .L181
 3007 003e D35C     		ldrb	r3, [r2, r3]
 3008 0040 BA1D     		adds	r2, r7, #6
 3009 0042 1278     		ldrb	r2, [r2]
 3010 0044 9A42     		cmp	r2, r3
 3011 0046 00D3     		bcc	.LCB2590
 3012 0048 89E0     		b	.L176	@long jump
 3013              	.LCB2590:
 3014              		.loc 1 1251 0 discriminator 2
 3015 004a 7B1D     		adds	r3, r7, #5
 3016 004c 1B78     		ldrb	r3, [r3]
 3017 004e 082B     		cmp	r3, #8
 3018 0050 00D9     		bls	.LCB2594
 3019 0052 84E0     		b	.L176	@long jump
 3020              	.LCB2594:
1252:Generated_Source\PSoC4/BLE_1_ess.c ****         (CYBLE_ESS_DESCR_COUNT > descrIndex))
1253:Generated_Source\PSoC4/BLE_1_ess.c ****     {
1254:Generated_Source\PSoC4/BLE_1_ess.c ****         /* Check if requested descriptor is present in Service.
1255:Generated_Source\PSoC4/BLE_1_ess.c ****         * There are three conditions to be checked: 1) The pointer to
1256:Generated_Source\PSoC4/BLE_1_ess.c ****         * "CYBLE_ESSS_CHAR_T" is not NULL, 2) The handle of the characteristic is
1257:Generated_Source\PSoC4/BLE_1_ess.c ****         * a valid handle, 3) The handle of the descriptor is a valid handle.
1258:Generated_Source\PSoC4/BLE_1_ess.c ****         */
1259:Generated_Source\PSoC4/BLE_1_ess.c ****         if((NULL != cyBle_esss.charInfoAddr[charIndex].charInfoPtr) &&
 3021              		.loc 1 1259 0 is_stmt 1
 3022 0054 FB1D     		adds	r3, r7, #7
 3023 0056 1B78     		ldrb	r3, [r3]
 3024 0058 454A     		ldr	r2, .L181+4
 3025 005a 9B00     		lsls	r3, r3, #2
 3026 005c D318     		adds	r3, r2, r3
 3027 005e 0433     		adds	r3, r3, #4
 3028 0060 1B68     		ldr	r3, [r3]
 3029 0062 002B     		cmp	r3, #0
 3030 0064 00D1     		bne	.LCB2603
 3031 0066 74E0     		b	.L177	@long jump
 3032              	.LCB2603:
1260:Generated_Source\PSoC4/BLE_1_ess.c ****             (CYBLE_GATT_INVALID_ATTR_HANDLE_VALUE !=
1261:Generated_Source\PSoC4/BLE_1_ess.c ****                 cyBle_esss.charInfoAddr[charIndex].charInfoPtr[charInstance].charHandle) &&
ARM GAS  C:\Users\megan\AppData\Local\Temp\ccmgjhBj.s 			page 78


 3033              		.loc 1 1261 0 discriminator 1
 3034 0068 FB1D     		adds	r3, r7, #7
 3035 006a 1B78     		ldrb	r3, [r3]
 3036 006c 404A     		ldr	r2, .L181+4
 3037 006e 9B00     		lsls	r3, r3, #2
 3038 0070 D318     		adds	r3, r2, r3
 3039 0072 0433     		adds	r3, r3, #4
 3040 0074 1968     		ldr	r1, [r3]
 3041 0076 BB1D     		adds	r3, r7, #6
 3042 0078 1A78     		ldrb	r2, [r3]
 3043 007a 1300     		movs	r3, r2
 3044 007c 9B00     		lsls	r3, r3, #2
 3045 007e 9B18     		adds	r3, r3, r2
 3046 0080 9B00     		lsls	r3, r3, #2
 3047 0082 CB18     		adds	r3, r1, r3
 3048 0084 1B88     		ldrh	r3, [r3]
1259:Generated_Source\PSoC4/BLE_1_ess.c ****             (CYBLE_GATT_INVALID_ATTR_HANDLE_VALUE !=
 3049              		.loc 1 1259 0 discriminator 1
 3050 0086 002B     		cmp	r3, #0
 3051 0088 63D0     		beq	.L177
1262:Generated_Source\PSoC4/BLE_1_ess.c ****                     (CYBLE_GATT_INVALID_ATTR_HANDLE_VALUE !=
1263:Generated_Source\PSoC4/BLE_1_ess.c ****                         cyBle_esss.charInfoAddr[charIndex].charInfoPtr[charInstance].descrHandle[de
 3052              		.loc 1 1263 0
 3053 008a FB1D     		adds	r3, r7, #7
 3054 008c 1B78     		ldrb	r3, [r3]
 3055 008e 384A     		ldr	r2, .L181+4
 3056 0090 9B00     		lsls	r3, r3, #2
 3057 0092 D318     		adds	r3, r2, r3
 3058 0094 0433     		adds	r3, r3, #4
 3059 0096 1968     		ldr	r1, [r3]
 3060 0098 BB1D     		adds	r3, r7, #6
 3061 009a 1A78     		ldrb	r2, [r3]
 3062 009c 1300     		movs	r3, r2
 3063 009e 9B00     		lsls	r3, r3, #2
 3064 00a0 9B18     		adds	r3, r3, r2
 3065 00a2 9B00     		lsls	r3, r3, #2
 3066 00a4 CA18     		adds	r2, r1, r3
 3067 00a6 7B1D     		adds	r3, r7, #5
 3068 00a8 1B78     		ldrb	r3, [r3]
 3069 00aa 5B00     		lsls	r3, r3, #1
 3070 00ac D318     		adds	r3, r2, r3
 3071 00ae 0233     		adds	r3, r3, #2
 3072 00b0 1B88     		ldrh	r3, [r3]
1261:Generated_Source\PSoC4/BLE_1_ess.c ****                     (CYBLE_GATT_INVALID_ATTR_HANDLE_VALUE !=
 3073              		.loc 1 1261 0
 3074 00b2 002B     		cmp	r3, #0
 3075 00b4 4DD0     		beq	.L177
 3076              	.LBB4:
1264:Generated_Source\PSoC4/BLE_1_ess.c ****         {
1265:Generated_Source\PSoC4/BLE_1_ess.c ****             CYBLE_GATT_HANDLE_VALUE_PAIR_T locHandleValuePair;
1266:Generated_Source\PSoC4/BLE_1_ess.c **** 
1267:Generated_Source\PSoC4/BLE_1_ess.c ****             locHandleValuePair.attrHandle =
1268:Generated_Source\PSoC4/BLE_1_ess.c ****                 cyBle_esss.charInfoAddr[charIndex].charInfoPtr[charInstance].descrHandle[descrIndex
 3077              		.loc 1 1268 0
 3078 00b6 FB1D     		adds	r3, r7, #7
 3079 00b8 1B78     		ldrb	r3, [r3]
 3080 00ba 2D4A     		ldr	r2, .L181+4
ARM GAS  C:\Users\megan\AppData\Local\Temp\ccmgjhBj.s 			page 79


 3081 00bc 9B00     		lsls	r3, r3, #2
 3082 00be D318     		adds	r3, r2, r3
 3083 00c0 0433     		adds	r3, r3, #4
 3084 00c2 1968     		ldr	r1, [r3]
 3085 00c4 BB1D     		adds	r3, r7, #6
 3086 00c6 1A78     		ldrb	r2, [r3]
 3087 00c8 1300     		movs	r3, r2
 3088 00ca 9B00     		lsls	r3, r3, #2
 3089 00cc 9B18     		adds	r3, r3, r2
 3090 00ce 9B00     		lsls	r3, r3, #2
 3091 00d0 CA18     		adds	r2, r1, r3
 3092 00d2 7B1D     		adds	r3, r7, #5
 3093 00d4 1B78     		ldrb	r3, [r3]
 3094 00d6 5B00     		lsls	r3, r3, #1
 3095 00d8 D318     		adds	r3, r2, r3
 3096 00da 0233     		adds	r3, r3, #2
 3097 00dc 1A88     		ldrh	r2, [r3]
1267:Generated_Source\PSoC4/BLE_1_ess.c ****                 cyBle_esss.charInfoAddr[charIndex].charInfoPtr[charInstance].descrHandle[descrIndex
 3098              		.loc 1 1267 0
 3099 00de 0823     		movs	r3, #8
 3100 00e0 FB18     		adds	r3, r7, r3
 3101 00e2 1A81     		strh	r2, [r3, #8]
1269:Generated_Source\PSoC4/BLE_1_ess.c ****             locHandleValuePair.value.len = attrSize;
 3102              		.loc 1 1269 0
 3103 00e4 0823     		movs	r3, #8
 3104 00e6 FB18     		adds	r3, r7, r3
 3105 00e8 BA1C     		adds	r2, r7, #2
 3106 00ea 1288     		ldrh	r2, [r2]
 3107 00ec 9A80     		strh	r2, [r3, #4]
1270:Generated_Source\PSoC4/BLE_1_ess.c ****             locHandleValuePair.value.val = attrValue;
 3108              		.loc 1 1270 0
 3109 00ee 0823     		movs	r3, #8
 3110 00f0 FB18     		adds	r3, r7, r3
 3111 00f2 BA6A     		ldr	r2, [r7, #40]
 3112 00f4 1A60     		str	r2, [r3]
1271:Generated_Source\PSoC4/BLE_1_ess.c ****                         
1272:Generated_Source\PSoC4/BLE_1_ess.c ****             /* Read characteristic value from database */
1273:Generated_Source\PSoC4/BLE_1_ess.c ****             if(CyBle_GattsWriteAttributeValue(&locHandleValuePair, 0u, NULL, CYBLE_GATT_DB_LOCALLY_
 3113              		.loc 1 1273 0
 3114 00f6 0823     		movs	r3, #8
 3115 00f8 F818     		adds	r0, r7, r3
 3116 00fa 0023     		movs	r3, #0
 3117 00fc 0022     		movs	r2, #0
 3118 00fe 0021     		movs	r1, #0
 3119 0100 FFF7FEFF 		bl	CyBle_GattsWriteAttributeValue
 3120 0104 031E     		subs	r3, r0, #0
 3121 0106 29D1     		bne	.L180
1274:Generated_Source\PSoC4/BLE_1_ess.c ****                 CYBLE_GATT_ERR_NONE)
1275:Generated_Source\PSoC4/BLE_1_ess.c ****             {
1276:Generated_Source\PSoC4/BLE_1_ess.c ****                 apiResult = CYBLE_ERROR_OK;
 3122              		.loc 1 1276 0
 3123 0108 1623     		movs	r3, #22
 3124 010a FB18     		adds	r3, r7, r3
 3125 010c 0022     		movs	r2, #0
 3126 010e 1A80     		strh	r2, [r3]
1277:Generated_Source\PSoC4/BLE_1_ess.c ****                 
1278:Generated_Source\PSoC4/BLE_1_ess.c ****                 /* Set new length of the descriptor value */
ARM GAS  C:\Users\megan\AppData\Local\Temp\ccmgjhBj.s 			page 80


1279:Generated_Source\PSoC4/BLE_1_ess.c ****                 CYBLE_GATT_DB_ATTR_SET_ATTR_GEN_LEN(cyBle_esss.charInfoAddr[charIndex].charInfoPtr[
 3127              		.loc 1 1279 0
 3128 0110 FB1D     		adds	r3, r7, #7
 3129 0112 1B78     		ldrb	r3, [r3]
 3130 0114 164A     		ldr	r2, .L181+4
 3131 0116 9B00     		lsls	r3, r3, #2
 3132 0118 D318     		adds	r3, r2, r3
 3133 011a 0433     		adds	r3, r3, #4
 3134 011c 1968     		ldr	r1, [r3]
 3135 011e BB1D     		adds	r3, r7, #6
 3136 0120 1A78     		ldrb	r2, [r3]
 3137 0122 1300     		movs	r3, r2
 3138 0124 9B00     		lsls	r3, r3, #2
 3139 0126 9B18     		adds	r3, r3, r2
 3140 0128 9B00     		lsls	r3, r3, #2
 3141 012a CA18     		adds	r2, r1, r3
 3142 012c 7B1D     		adds	r3, r7, #5
 3143 012e 1B78     		ldrb	r3, [r3]
 3144 0130 5B00     		lsls	r3, r3, #1
 3145 0132 D318     		adds	r3, r2, r3
 3146 0134 0233     		adds	r3, r3, #2
 3147 0136 1B88     		ldrh	r3, [r3]
 3148 0138 5A1E     		subs	r2, r3, #1
 3149 013a 0E49     		ldr	r1, .L181+8
 3150 013c 1300     		movs	r3, r2
 3151 013e 9B00     		lsls	r3, r3, #2
 3152 0140 9B18     		adds	r3, r3, r2
 3153 0142 9B00     		lsls	r3, r3, #2
 3154 0144 CB18     		adds	r3, r1, r3
 3155 0146 1033     		adds	r3, r3, #16
 3156 0148 1B68     		ldr	r3, [r3]
 3157 014a BA1C     		adds	r2, r7, #2
 3158 014c 1288     		ldrh	r2, [r2]
 3159 014e 1A80     		strh	r2, [r3]
 3160              	.LBE4:
1264:Generated_Source\PSoC4/BLE_1_ess.c ****             CYBLE_GATT_HANDLE_VALUE_PAIR_T locHandleValuePair;
 3161              		.loc 1 1264 0
 3162 0150 04E0     		b	.L180
 3163              	.L177:
1280:Generated_Source\PSoC4/BLE_1_ess.c ****                                                     descrHandle[descrIndex],
1281:Generated_Source\PSoC4/BLE_1_ess.c ****                                                     attrSize);
1282:Generated_Source\PSoC4/BLE_1_ess.c ****             }
1283:Generated_Source\PSoC4/BLE_1_ess.c ****         }
1284:Generated_Source\PSoC4/BLE_1_ess.c ****         else
1285:Generated_Source\PSoC4/BLE_1_ess.c ****         {
1286:Generated_Source\PSoC4/BLE_1_ess.c ****             apiResult = CYBLE_ERROR_GATT_DB_INVALID_ATTR_HANDLE;
 3164              		.loc 1 1286 0
 3165 0152 1623     		movs	r3, #22
 3166 0154 FB18     		adds	r3, r7, r3
 3167 0156 1322     		movs	r2, #19
 3168 0158 1A80     		strh	r2, [r3]
 3169 015a 00E0     		b	.L176
 3170              	.L180:
1264:Generated_Source\PSoC4/BLE_1_ess.c ****             CYBLE_GATT_HANDLE_VALUE_PAIR_T locHandleValuePair;
 3171              		.loc 1 1264 0
 3172 015c C046     		nop
 3173              	.L176:
ARM GAS  C:\Users\megan\AppData\Local\Temp\ccmgjhBj.s 			page 81


1287:Generated_Source\PSoC4/BLE_1_ess.c ****         }
1288:Generated_Source\PSoC4/BLE_1_ess.c ****     }
1289:Generated_Source\PSoC4/BLE_1_ess.c ****     return (apiResult);
 3174              		.loc 1 1289 0
 3175 015e 1623     		movs	r3, #22
 3176 0160 FB18     		adds	r3, r7, r3
 3177 0162 1B88     		ldrh	r3, [r3]
1290:Generated_Source\PSoC4/BLE_1_ess.c **** }
 3178              		.loc 1 1290 0
 3179 0164 1800     		movs	r0, r3
 3180 0166 BD46     		mov	sp, r7
 3181 0168 06B0     		add	sp, sp, #24
 3182              		@ sp needed
 3183 016a B0BD     		pop	{r4, r5, r7, pc}
 3184              	.L182:
 3185              		.align	2
 3186              	.L181:
 3187 016c 00000000 		.word	cyBle_esssCharInstances
 3188 0170 00000000 		.word	cyBle_esss
 3189 0174 00000000 		.word	cyBle_gattDB
 3190              		.cfi_endproc
 3191              	.LFE15:
 3192              		.size	CyBle_EsssSetCharacteristicDescriptor, .-CyBle_EsssSetCharacteristicDescriptor
 3193              		.section	.text.CyBle_EsssGetCharacteristicDescriptor,"ax",%progbits
 3194              		.align	2
 3195              		.global	CyBle_EsssGetCharacteristicDescriptor
 3196              		.code	16
 3197              		.thumb_func
 3198              		.type	CyBle_EsssGetCharacteristicDescriptor, %function
 3199              	CyBle_EsssGetCharacteristicDescriptor:
 3200              	.LFB16:
1291:Generated_Source\PSoC4/BLE_1_ess.c **** 
1292:Generated_Source\PSoC4/BLE_1_ess.c **** 
1293:Generated_Source\PSoC4/BLE_1_ess.c **** /******************************************************************************
1294:Generated_Source\PSoC4/BLE_1_ess.c **** * Function Name: CyBle_EsssGetCharacteristicDescriptor
1295:Generated_Source\PSoC4/BLE_1_ess.c **** ***************************************************************************//**
1296:Generated_Source\PSoC4/BLE_1_ess.c **** * 
1297:Generated_Source\PSoC4/BLE_1_ess.c **** *  Gets the characteristic descriptor of the specified characteristic.
1298:Generated_Source\PSoC4/BLE_1_ess.c **** * 
1299:Generated_Source\PSoC4/BLE_1_ess.c **** *  \param charIndex: The index of the service characteristic. Starts with zero.
1300:Generated_Source\PSoC4/BLE_1_ess.c **** *  \param charInstance: The instance number of the characteristic specified by
1301:Generated_Source\PSoC4/BLE_1_ess.c **** *                "charIndex".
1302:Generated_Source\PSoC4/BLE_1_ess.c **** *  \param descrIndex: The index of the service characteristic descriptor of type 
1303:Generated_Source\PSoC4/BLE_1_ess.c **** *              CYBLE_ESS_DESCR_INDEX_T. 
1304:Generated_Source\PSoC4/BLE_1_ess.c **** *  \param attrSize: The size of the characteristic descriptor attribute.
1305:Generated_Source\PSoC4/BLE_1_ess.c **** *  \param attrValue: The pointer to the location where characteristic descriptor
1306:Generated_Source\PSoC4/BLE_1_ess.c **** *              value data should be stored.
1307:Generated_Source\PSoC4/BLE_1_ess.c **** * 
1308:Generated_Source\PSoC4/BLE_1_ess.c **** * \return
1309:Generated_Source\PSoC4/BLE_1_ess.c **** *  A return value is of type CYBLE_API_RESULT_T.
1310:Generated_Source\PSoC4/BLE_1_ess.c **** *  * CYBLE_ERROR_OK - The request handled successfully
1311:Generated_Source\PSoC4/BLE_1_ess.c **** *  * CYBLE_ERROR_INVALID_PARAMETER - Validation of the input parameter failed
1312:Generated_Source\PSoC4/BLE_1_ess.c **** *  * CYBLE_ERROR_GATT_DB_INVALID_ATTR_HANDLE - An optional characteristic is
1313:Generated_Source\PSoC4/BLE_1_ess.c **** *                                               absent.
1314:Generated_Source\PSoC4/BLE_1_ess.c **** *
1315:Generated_Source\PSoC4/BLE_1_ess.c **** ******************************************************************************/
1316:Generated_Source\PSoC4/BLE_1_ess.c **** CYBLE_API_RESULT_T CyBle_EsssGetCharacteristicDescriptor(CYBLE_ESS_CHAR_INDEX_T charIndex,
ARM GAS  C:\Users\megan\AppData\Local\Temp\ccmgjhBj.s 			page 82


1317:Generated_Source\PSoC4/BLE_1_ess.c ****     uint8 charInstance, CYBLE_ESS_DESCR_INDEX_T descrIndex, uint16 attrSize, uint8 *attrValue)
1318:Generated_Source\PSoC4/BLE_1_ess.c **** {
 3201              		.loc 1 1318 0
 3202              		.cfi_startproc
 3203              		@ args = 4, pretend = 0, frame = 24
 3204              		@ frame_needed = 1, uses_anonymous_args = 0
 3205 0000 B0B5     		push	{r4, r5, r7, lr}
 3206              		.cfi_def_cfa_offset 16
 3207              		.cfi_offset 4, -16
 3208              		.cfi_offset 5, -12
 3209              		.cfi_offset 7, -8
 3210              		.cfi_offset 14, -4
 3211 0002 86B0     		sub	sp, sp, #24
 3212              		.cfi_def_cfa_offset 40
 3213 0004 00AF     		add	r7, sp, #0
 3214              		.cfi_def_cfa_register 7
 3215 0006 0500     		movs	r5, r0
 3216 0008 0C00     		movs	r4, r1
 3217 000a 1000     		movs	r0, r2
 3218 000c 1900     		movs	r1, r3
 3219 000e FB1D     		adds	r3, r7, #7
 3220 0010 2A1C     		adds	r2, r5, #0
 3221 0012 1A70     		strb	r2, [r3]
 3222 0014 BB1D     		adds	r3, r7, #6
 3223 0016 221C     		adds	r2, r4, #0
 3224 0018 1A70     		strb	r2, [r3]
 3225 001a 7B1D     		adds	r3, r7, #5
 3226 001c 021C     		adds	r2, r0, #0
 3227 001e 1A70     		strb	r2, [r3]
 3228 0020 BB1C     		adds	r3, r7, #2
 3229 0022 0A1C     		adds	r2, r1, #0
 3230 0024 1A80     		strh	r2, [r3]
1319:Generated_Source\PSoC4/BLE_1_ess.c ****     CYBLE_API_RESULT_T apiResult = CYBLE_ERROR_INVALID_PARAMETER;
 3231              		.loc 1 1319 0
 3232 0026 1623     		movs	r3, #22
 3233 0028 FB18     		adds	r3, r7, r3
 3234 002a 0122     		movs	r2, #1
 3235 002c 1A80     		strh	r2, [r3]
1320:Generated_Source\PSoC4/BLE_1_ess.c **** 
1321:Generated_Source\PSoC4/BLE_1_ess.c ****     if((charIndex < CYBLE_ESS_CHAR_COUNT) && (cyBle_esssCharInstances[charIndex] > charInstance) &&
 3236              		.loc 1 1321 0
 3237 002e FB1D     		adds	r3, r7, #7
 3238 0030 1B78     		ldrb	r3, [r3]
 3239 0032 142B     		cmp	r3, #20
 3240 0034 00D9     		bls	.LCB2798
 3241 0036 6FE0     		b	.L184	@long jump
 3242              	.LCB2798:
 3243              		.loc 1 1321 0 is_stmt 0 discriminator 1
 3244 0038 FB1D     		adds	r3, r7, #7
 3245 003a 1B78     		ldrb	r3, [r3]
 3246 003c 3A4A     		ldr	r2, .L189
 3247 003e D35C     		ldrb	r3, [r2, r3]
 3248 0040 BA1D     		adds	r2, r7, #6
 3249 0042 1278     		ldrb	r2, [r2]
 3250 0044 9A42     		cmp	r2, r3
 3251 0046 67D2     		bcs	.L184
 3252              		.loc 1 1321 0 discriminator 2
ARM GAS  C:\Users\megan\AppData\Local\Temp\ccmgjhBj.s 			page 83


 3253 0048 7B1D     		adds	r3, r7, #5
 3254 004a 1B78     		ldrb	r3, [r3]
 3255 004c 082B     		cmp	r3, #8
 3256 004e 63D8     		bhi	.L184
1322:Generated_Source\PSoC4/BLE_1_ess.c ****         (CYBLE_ESS_DESCR_COUNT > descrIndex))
1323:Generated_Source\PSoC4/BLE_1_ess.c ****     {
1324:Generated_Source\PSoC4/BLE_1_ess.c ****         /* Check if requested descriptor is present in Service.
1325:Generated_Source\PSoC4/BLE_1_ess.c ****         * There are three conditions to be checked: 1) The pointer to
1326:Generated_Source\PSoC4/BLE_1_ess.c ****         * "CYBLE_ESSS_CHAR_T" is not NULL, 2) The handle of the characteristic is
1327:Generated_Source\PSoC4/BLE_1_ess.c ****         * a valid handle, 3) The handle of the descriptor is a valid handle.
1328:Generated_Source\PSoC4/BLE_1_ess.c ****         */
1329:Generated_Source\PSoC4/BLE_1_ess.c ****         if((NULL != cyBle_esss.charInfoAddr[charIndex].charInfoPtr) &&
 3257              		.loc 1 1329 0 is_stmt 1
 3258 0050 FB1D     		adds	r3, r7, #7
 3259 0052 1B78     		ldrb	r3, [r3]
 3260 0054 354A     		ldr	r2, .L189+4
 3261 0056 9B00     		lsls	r3, r3, #2
 3262 0058 D318     		adds	r3, r2, r3
 3263 005a 0433     		adds	r3, r3, #4
 3264 005c 1B68     		ldr	r3, [r3]
 3265 005e 002B     		cmp	r3, #0
 3266 0060 54D0     		beq	.L185
1330:Generated_Source\PSoC4/BLE_1_ess.c ****             (CYBLE_GATT_INVALID_ATTR_HANDLE_VALUE !=
1331:Generated_Source\PSoC4/BLE_1_ess.c ****                 cyBle_esss.charInfoAddr[charIndex].charInfoPtr[charInstance].charHandle) &&
 3267              		.loc 1 1331 0 discriminator 1
 3268 0062 FB1D     		adds	r3, r7, #7
 3269 0064 1B78     		ldrb	r3, [r3]
 3270 0066 314A     		ldr	r2, .L189+4
 3271 0068 9B00     		lsls	r3, r3, #2
 3272 006a D318     		adds	r3, r2, r3
 3273 006c 0433     		adds	r3, r3, #4
 3274 006e 1968     		ldr	r1, [r3]
 3275 0070 BB1D     		adds	r3, r7, #6
 3276 0072 1A78     		ldrb	r2, [r3]
 3277 0074 1300     		movs	r3, r2
 3278 0076 9B00     		lsls	r3, r3, #2
 3279 0078 9B18     		adds	r3, r3, r2
 3280 007a 9B00     		lsls	r3, r3, #2
 3281 007c CB18     		adds	r3, r1, r3
 3282 007e 1B88     		ldrh	r3, [r3]
1329:Generated_Source\PSoC4/BLE_1_ess.c ****             (CYBLE_GATT_INVALID_ATTR_HANDLE_VALUE !=
 3283              		.loc 1 1329 0 discriminator 1
 3284 0080 002B     		cmp	r3, #0
 3285 0082 43D0     		beq	.L185
1332:Generated_Source\PSoC4/BLE_1_ess.c ****                         (CYBLE_GATT_INVALID_ATTR_HANDLE_VALUE !=
1333:Generated_Source\PSoC4/BLE_1_ess.c ****                             cyBle_esss.charInfoAddr[charIndex].charInfoPtr[charInstance].descrHandl
 3286              		.loc 1 1333 0
 3287 0084 FB1D     		adds	r3, r7, #7
 3288 0086 1B78     		ldrb	r3, [r3]
 3289 0088 284A     		ldr	r2, .L189+4
 3290 008a 9B00     		lsls	r3, r3, #2
 3291 008c D318     		adds	r3, r2, r3
 3292 008e 0433     		adds	r3, r3, #4
 3293 0090 1968     		ldr	r1, [r3]
 3294 0092 BB1D     		adds	r3, r7, #6
 3295 0094 1A78     		ldrb	r2, [r3]
 3296 0096 1300     		movs	r3, r2
ARM GAS  C:\Users\megan\AppData\Local\Temp\ccmgjhBj.s 			page 84


 3297 0098 9B00     		lsls	r3, r3, #2
 3298 009a 9B18     		adds	r3, r3, r2
 3299 009c 9B00     		lsls	r3, r3, #2
 3300 009e CA18     		adds	r2, r1, r3
 3301 00a0 7B1D     		adds	r3, r7, #5
 3302 00a2 1B78     		ldrb	r3, [r3]
 3303 00a4 5B00     		lsls	r3, r3, #1
 3304 00a6 D318     		adds	r3, r2, r3
 3305 00a8 0233     		adds	r3, r3, #2
 3306 00aa 1B88     		ldrh	r3, [r3]
1331:Generated_Source\PSoC4/BLE_1_ess.c ****                         (CYBLE_GATT_INVALID_ATTR_HANDLE_VALUE !=
 3307              		.loc 1 1331 0
 3308 00ac 002B     		cmp	r3, #0
 3309 00ae 2DD0     		beq	.L185
 3310              	.LBB5:
1334:Generated_Source\PSoC4/BLE_1_ess.c ****         {
1335:Generated_Source\PSoC4/BLE_1_ess.c ****             CYBLE_GATT_HANDLE_VALUE_PAIR_T locHandleValuePair;
1336:Generated_Source\PSoC4/BLE_1_ess.c **** 
1337:Generated_Source\PSoC4/BLE_1_ess.c ****             locHandleValuePair.attrHandle =
1338:Generated_Source\PSoC4/BLE_1_ess.c ****                 cyBle_esss.charInfoAddr[charIndex].charInfoPtr[charInstance].descrHandle[descrIndex
 3311              		.loc 1 1338 0
 3312 00b0 FB1D     		adds	r3, r7, #7
 3313 00b2 1B78     		ldrb	r3, [r3]
 3314 00b4 1D4A     		ldr	r2, .L189+4
 3315 00b6 9B00     		lsls	r3, r3, #2
 3316 00b8 D318     		adds	r3, r2, r3
 3317 00ba 0433     		adds	r3, r3, #4
 3318 00bc 1968     		ldr	r1, [r3]
 3319 00be BB1D     		adds	r3, r7, #6
 3320 00c0 1A78     		ldrb	r2, [r3]
 3321 00c2 1300     		movs	r3, r2
 3322 00c4 9B00     		lsls	r3, r3, #2
 3323 00c6 9B18     		adds	r3, r3, r2
 3324 00c8 9B00     		lsls	r3, r3, #2
 3325 00ca CA18     		adds	r2, r1, r3
 3326 00cc 7B1D     		adds	r3, r7, #5
 3327 00ce 1B78     		ldrb	r3, [r3]
 3328 00d0 5B00     		lsls	r3, r3, #1
 3329 00d2 D318     		adds	r3, r2, r3
 3330 00d4 0233     		adds	r3, r3, #2
 3331 00d6 1A88     		ldrh	r2, [r3]
1337:Generated_Source\PSoC4/BLE_1_ess.c ****                 cyBle_esss.charInfoAddr[charIndex].charInfoPtr[charInstance].descrHandle[descrIndex
 3332              		.loc 1 1337 0
 3333 00d8 0823     		movs	r3, #8
 3334 00da FB18     		adds	r3, r7, r3
 3335 00dc 1A81     		strh	r2, [r3, #8]
1339:Generated_Source\PSoC4/BLE_1_ess.c ****             locHandleValuePair.value.len = attrSize;
 3336              		.loc 1 1339 0
 3337 00de 0823     		movs	r3, #8
 3338 00e0 FB18     		adds	r3, r7, r3
 3339 00e2 BA1C     		adds	r2, r7, #2
 3340 00e4 1288     		ldrh	r2, [r2]
 3341 00e6 9A80     		strh	r2, [r3, #4]
1340:Generated_Source\PSoC4/BLE_1_ess.c ****             locHandleValuePair.value.val = attrValue;
 3342              		.loc 1 1340 0
 3343 00e8 0823     		movs	r3, #8
 3344 00ea FB18     		adds	r3, r7, r3
ARM GAS  C:\Users\megan\AppData\Local\Temp\ccmgjhBj.s 			page 85


 3345 00ec BA6A     		ldr	r2, [r7, #40]
 3346 00ee 1A60     		str	r2, [r3]
1341:Generated_Source\PSoC4/BLE_1_ess.c **** 
1342:Generated_Source\PSoC4/BLE_1_ess.c ****             if(CyBle_GattsReadAttributeValue(&locHandleValuePair, NULL, CYBLE_GATT_DB_LOCALLY_INITI
 3347              		.loc 1 1342 0
 3348 00f0 0823     		movs	r3, #8
 3349 00f2 FB18     		adds	r3, r7, r3
 3350 00f4 0022     		movs	r2, #0
 3351 00f6 0021     		movs	r1, #0
 3352 00f8 1800     		movs	r0, r3
 3353 00fa FFF7FEFF 		bl	CyBle_GattsReadAttributeValue
 3354 00fe 031E     		subs	r3, r0, #0
 3355 0100 09D1     		bne	.L188
1343:Generated_Source\PSoC4/BLE_1_ess.c ****                 CYBLE_GATT_ERR_NONE)
1344:Generated_Source\PSoC4/BLE_1_ess.c ****             {
1345:Generated_Source\PSoC4/BLE_1_ess.c ****                 apiResult = CYBLE_ERROR_OK;
 3356              		.loc 1 1345 0
 3357 0102 1623     		movs	r3, #22
 3358 0104 FB18     		adds	r3, r7, r3
 3359 0106 0022     		movs	r2, #0
 3360 0108 1A80     		strh	r2, [r3]
 3361              	.LBE5:
1334:Generated_Source\PSoC4/BLE_1_ess.c ****             CYBLE_GATT_HANDLE_VALUE_PAIR_T locHandleValuePair;
 3362              		.loc 1 1334 0
 3363 010a 04E0     		b	.L188
 3364              	.L185:
1346:Generated_Source\PSoC4/BLE_1_ess.c ****             }
1347:Generated_Source\PSoC4/BLE_1_ess.c ****         }
1348:Generated_Source\PSoC4/BLE_1_ess.c ****         else
1349:Generated_Source\PSoC4/BLE_1_ess.c ****         {
1350:Generated_Source\PSoC4/BLE_1_ess.c ****             apiResult = CYBLE_ERROR_GATT_DB_INVALID_ATTR_HANDLE;
 3365              		.loc 1 1350 0
 3366 010c 1623     		movs	r3, #22
 3367 010e FB18     		adds	r3, r7, r3
 3368 0110 1322     		movs	r2, #19
 3369 0112 1A80     		strh	r2, [r3]
 3370 0114 00E0     		b	.L184
 3371              	.L188:
1334:Generated_Source\PSoC4/BLE_1_ess.c ****             CYBLE_GATT_HANDLE_VALUE_PAIR_T locHandleValuePair;
 3372              		.loc 1 1334 0
 3373 0116 C046     		nop
 3374              	.L184:
1351:Generated_Source\PSoC4/BLE_1_ess.c ****         }
1352:Generated_Source\PSoC4/BLE_1_ess.c ****     }
1353:Generated_Source\PSoC4/BLE_1_ess.c **** 
1354:Generated_Source\PSoC4/BLE_1_ess.c **** 
1355:Generated_Source\PSoC4/BLE_1_ess.c ****     return (apiResult);
 3375              		.loc 1 1355 0
 3376 0118 1623     		movs	r3, #22
 3377 011a FB18     		adds	r3, r7, r3
 3378 011c 1B88     		ldrh	r3, [r3]
1356:Generated_Source\PSoC4/BLE_1_ess.c **** }
 3379              		.loc 1 1356 0
 3380 011e 1800     		movs	r0, r3
 3381 0120 BD46     		mov	sp, r7
 3382 0122 06B0     		add	sp, sp, #24
 3383              		@ sp needed
ARM GAS  C:\Users\megan\AppData\Local\Temp\ccmgjhBj.s 			page 86


 3384 0124 B0BD     		pop	{r4, r5, r7, pc}
 3385              	.L190:
 3386 0126 C046     		.align	2
 3387              	.L189:
 3388 0128 00000000 		.word	cyBle_esssCharInstances
 3389 012c 00000000 		.word	cyBle_esss
 3390              		.cfi_endproc
 3391              	.LFE16:
 3392              		.size	CyBle_EsssGetCharacteristicDescriptor, .-CyBle_EsssGetCharacteristicDescriptor
 3393              		.section	.text.CyBle_EsssSendNotification,"ax",%progbits
 3394              		.align	2
 3395              		.global	CyBle_EsssSendNotification
 3396              		.code	16
 3397              		.thumb_func
 3398              		.type	CyBle_EsssSendNotification, %function
 3399              	CyBle_EsssSendNotification:
 3400              	.LFB17:
1357:Generated_Source\PSoC4/BLE_1_ess.c **** 
1358:Generated_Source\PSoC4/BLE_1_ess.c **** 
1359:Generated_Source\PSoC4/BLE_1_ess.c **** /******************************************************************************
1360:Generated_Source\PSoC4/BLE_1_ess.c **** * Function Name: CyBle_EsssSendNotification
1361:Generated_Source\PSoC4/BLE_1_ess.c **** ***************************************************************************//**
1362:Generated_Source\PSoC4/BLE_1_ess.c **** * 
1363:Generated_Source\PSoC4/BLE_1_ess.c **** *  Sends a notification with a characteristic value of the Environmental Sensing
1364:Generated_Source\PSoC4/BLE_1_ess.c **** *  Service, which is a value specified by charIndex, to the client's device.
1365:Generated_Source\PSoC4/BLE_1_ess.c **** *
1366:Generated_Source\PSoC4/BLE_1_ess.c **** *  On enabling notification successfully for a service characteristic, if the GATT
1367:Generated_Source\PSoC4/BLE_1_ess.c **** *  server has an updated value to be notified to the GATT Client, it sends out a
1368:Generated_Source\PSoC4/BLE_1_ess.c **** *  'Handle Value Notification' which results in CYBLE_EVT_ESSC_NOTIFICATION event
1369:Generated_Source\PSoC4/BLE_1_ess.c **** *  at the GATT Client's end.
1370:Generated_Source\PSoC4/BLE_1_ess.c **** * 
1371:Generated_Source\PSoC4/BLE_1_ess.c **** *  \param connHandle: The connection handle.
1372:Generated_Source\PSoC4/BLE_1_ess.c **** *  \param charIndex: The index of the service characteristic. Starts with zero.
1373:Generated_Source\PSoC4/BLE_1_ess.c **** *  \param charInstance: The instance number of the characteristic specified by 
1374:Generated_Source\PSoC4/BLE_1_ess.c **** *                "charIndex".
1375:Generated_Source\PSoC4/BLE_1_ess.c **** *  \param attrSize: The size of the characteristic value attribute.
1376:Generated_Source\PSoC4/BLE_1_ess.c **** *  \param attrValue: The pointer to the characteristic value data that should be
1377:Generated_Source\PSoC4/BLE_1_ess.c **** *               sent to the client's device.
1378:Generated_Source\PSoC4/BLE_1_ess.c **** * 
1379:Generated_Source\PSoC4/BLE_1_ess.c **** * \return
1380:Generated_Source\PSoC4/BLE_1_ess.c **** *  A return value is of type CYBLE_API_RESULT_T.
1381:Generated_Source\PSoC4/BLE_1_ess.c **** *   * CYBLE_ERROR_OK - The request handled successfully
1382:Generated_Source\PSoC4/BLE_1_ess.c **** *   * CYBLE_ERROR_INVALID_PARAMETER - Validation of the input parameter failed
1383:Generated_Source\PSoC4/BLE_1_ess.c **** *   * CYBLE_ERROR_INVALID_OPERATION - This operation is not permitted
1384:Generated_Source\PSoC4/BLE_1_ess.c **** *   * CYBLE_ERROR_INVALID_STATE - Connection with the client is not established
1385:Generated_Source\PSoC4/BLE_1_ess.c **** *   * CYBLE_ERROR_MEMORY_ALLOCATION_FAILED - Memory allocation failed.
1386:Generated_Source\PSoC4/BLE_1_ess.c **** *   * CYBLE_ERROR_NTF_DISABLED - A notification is not enabled by the client.
1387:Generated_Source\PSoC4/BLE_1_ess.c **** *   * CYBLE_ERROR_GATT_DB_INVALID_ATTR_HANDLE - An optional characteristic is
1388:Generated_Source\PSoC4/BLE_1_ess.c **** *                                               absent.
1389:Generated_Source\PSoC4/BLE_1_ess.c **** *
1390:Generated_Source\PSoC4/BLE_1_ess.c **** ******************************************************************************/
1391:Generated_Source\PSoC4/BLE_1_ess.c **** CYBLE_API_RESULT_T CyBle_EsssSendNotification(CYBLE_CONN_HANDLE_T connHandle,
1392:Generated_Source\PSoC4/BLE_1_ess.c ****     CYBLE_ESS_CHAR_INDEX_T charIndex, uint8 charInstance, uint8 attrSize, uint8 *attrValue)
1393:Generated_Source\PSoC4/BLE_1_ess.c **** {
 3401              		.loc 1 1393 0
 3402              		.cfi_startproc
 3403              		@ args = 4, pretend = 0, frame = 24
ARM GAS  C:\Users\megan\AppData\Local\Temp\ccmgjhBj.s 			page 87


 3404              		@ frame_needed = 1, uses_anonymous_args = 0
 3405 0000 90B5     		push	{r4, r7, lr}
 3406              		.cfi_def_cfa_offset 12
 3407              		.cfi_offset 4, -12
 3408              		.cfi_offset 7, -8
 3409              		.cfi_offset 14, -4
 3410 0002 87B0     		sub	sp, sp, #28
 3411              		.cfi_def_cfa_offset 40
 3412 0004 00AF     		add	r7, sp, #0
 3413              		.cfi_def_cfa_register 7
 3414 0006 3C1D     		adds	r4, r7, #4
 3415 0008 2080     		strh	r0, [r4]
 3416 000a 0C00     		movs	r4, r1
 3417 000c 1000     		movs	r0, r2
 3418 000e 1900     		movs	r1, r3
 3419 0010 FB1C     		adds	r3, r7, #3
 3420 0012 221C     		adds	r2, r4, #0
 3421 0014 1A70     		strb	r2, [r3]
 3422 0016 BB1C     		adds	r3, r7, #2
 3423 0018 021C     		adds	r2, r0, #0
 3424 001a 1A70     		strb	r2, [r3]
 3425 001c 7B1C     		adds	r3, r7, #1
 3426 001e 0A1C     		adds	r2, r1, #0
 3427 0020 1A70     		strb	r2, [r3]
1394:Generated_Source\PSoC4/BLE_1_ess.c ****     CYBLE_API_RESULT_T apiResult = CYBLE_ERROR_INVALID_PARAMETER;
 3428              		.loc 1 1394 0
 3429 0022 1623     		movs	r3, #22
 3430 0024 FB18     		adds	r3, r7, r3
 3431 0026 0122     		movs	r2, #1
 3432 0028 1A80     		strh	r2, [r3]
1395:Generated_Source\PSoC4/BLE_1_ess.c **** 
1396:Generated_Source\PSoC4/BLE_1_ess.c ****     if((charIndex < CYBLE_ESS_CHAR_COUNT) && ( charInstance < cyBle_esssCharInstances[charIndex]))
 3433              		.loc 1 1396 0
 3434 002a FB1C     		adds	r3, r7, #3
 3435 002c 1B78     		ldrb	r3, [r3]
 3436 002e 142B     		cmp	r3, #20
 3437 0030 00D9     		bls	.LCB2978
 3438 0032 81E0     		b	.L192	@long jump
 3439              	.LCB2978:
 3440              		.loc 1 1396 0 is_stmt 0 discriminator 1
 3441 0034 FB1C     		adds	r3, r7, #3
 3442 0036 1B78     		ldrb	r3, [r3]
 3443 0038 434A     		ldr	r2, .L198
 3444 003a D35C     		ldrb	r3, [r2, r3]
 3445 003c BA1C     		adds	r2, r7, #2
 3446 003e 1278     		ldrb	r2, [r2]
 3447 0040 9A42     		cmp	r2, r3
 3448 0042 00D3     		bcc	.LCB2986
 3449 0044 78E0     		b	.L192	@long jump
 3450              	.LCB2986:
1397:Generated_Source\PSoC4/BLE_1_ess.c ****     {
1398:Generated_Source\PSoC4/BLE_1_ess.c ****         if((NULL != cyBle_esss.charInfoAddr[charIndex].charInfoPtr) && 
 3451              		.loc 1 1398 0 is_stmt 1
 3452 0046 FB1C     		adds	r3, r7, #3
 3453 0048 1B78     		ldrb	r3, [r3]
 3454 004a 404A     		ldr	r2, .L198+4
 3455 004c 9B00     		lsls	r3, r3, #2
ARM GAS  C:\Users\megan\AppData\Local\Temp\ccmgjhBj.s 			page 88


 3456 004e D318     		adds	r3, r2, r3
 3457 0050 0433     		adds	r3, r3, #4
 3458 0052 1B68     		ldr	r3, [r3]
 3459 0054 002B     		cmp	r3, #0
 3460 0056 6BD0     		beq	.L193
1399:Generated_Source\PSoC4/BLE_1_ess.c ****             (CYBLE_GATT_INVALID_ATTR_HANDLE_VALUE != 
1400:Generated_Source\PSoC4/BLE_1_ess.c ****                 cyBle_esss.charInfoAddr[charIndex].charInfoPtr[charInstance].descrHandle[CYBLE_ESS_
 3461              		.loc 1 1400 0 discriminator 1
 3462 0058 FB1C     		adds	r3, r7, #3
 3463 005a 1B78     		ldrb	r3, [r3]
 3464 005c 3B4A     		ldr	r2, .L198+4
 3465 005e 9B00     		lsls	r3, r3, #2
 3466 0060 D318     		adds	r3, r2, r3
 3467 0062 0433     		adds	r3, r3, #4
 3468 0064 1968     		ldr	r1, [r3]
 3469 0066 BB1C     		adds	r3, r7, #2
 3470 0068 1A78     		ldrb	r2, [r3]
 3471 006a 1300     		movs	r3, r2
 3472 006c 9B00     		lsls	r3, r3, #2
 3473 006e 9B18     		adds	r3, r3, r2
 3474 0070 9B00     		lsls	r3, r3, #2
 3475 0072 CB18     		adds	r3, r1, r3
 3476 0074 5B88     		ldrh	r3, [r3, #2]
1398:Generated_Source\PSoC4/BLE_1_ess.c ****             (CYBLE_GATT_INVALID_ATTR_HANDLE_VALUE != 
 3477              		.loc 1 1398 0 discriminator 1
 3478 0076 002B     		cmp	r3, #0
 3479 0078 5AD0     		beq	.L193
1401:Generated_Source\PSoC4/BLE_1_ess.c ****         {
1402:Generated_Source\PSoC4/BLE_1_ess.c ****             /* Send notification if it is enabled and connected */
1403:Generated_Source\PSoC4/BLE_1_ess.c ****             if(CYBLE_STATE_CONNECTED != CyBle_GetState())
 3480              		.loc 1 1403 0
 3481 007a 354B     		ldr	r3, .L198+8
 3482 007c 1B78     		ldrb	r3, [r3]
 3483 007e 022B     		cmp	r3, #2
 3484 0080 05D0     		beq	.L194
1404:Generated_Source\PSoC4/BLE_1_ess.c ****             {
1405:Generated_Source\PSoC4/BLE_1_ess.c ****                 apiResult = CYBLE_ERROR_INVALID_STATE;
 3485              		.loc 1 1405 0
 3486 0082 1623     		movs	r3, #22
 3487 0084 FB18     		adds	r3, r7, r3
 3488 0086 0422     		movs	r2, #4
 3489 0088 FF32     		adds	r2, r2, #255
 3490 008a 1A80     		strh	r2, [r3]
1403:Generated_Source\PSoC4/BLE_1_ess.c ****             {
 3491              		.loc 1 1403 0
 3492 008c 54E0     		b	.L192
 3493              	.L194:
1406:Generated_Source\PSoC4/BLE_1_ess.c ****             }
1407:Generated_Source\PSoC4/BLE_1_ess.c ****             
1408:Generated_Source\PSoC4/BLE_1_ess.c ****             else if(!CYBLE_IS_NOTIFICATION_ENABLED(
 3494              		.loc 1 1408 0
 3495 008e FB1C     		adds	r3, r7, #3
 3496 0090 1B78     		ldrb	r3, [r3]
 3497 0092 2E4A     		ldr	r2, .L198+4
 3498 0094 9B00     		lsls	r3, r3, #2
 3499 0096 D318     		adds	r3, r2, r3
 3500 0098 0433     		adds	r3, r3, #4
ARM GAS  C:\Users\megan\AppData\Local\Temp\ccmgjhBj.s 			page 89


 3501 009a 1968     		ldr	r1, [r3]
 3502 009c BB1C     		adds	r3, r7, #2
 3503 009e 1A78     		ldrb	r2, [r3]
 3504 00a0 1300     		movs	r3, r2
 3505 00a2 9B00     		lsls	r3, r3, #2
 3506 00a4 9B18     		adds	r3, r3, r2
 3507 00a6 9B00     		lsls	r3, r3, #2
 3508 00a8 CB18     		adds	r3, r1, r3
 3509 00aa 5B88     		ldrh	r3, [r3, #2]
 3510 00ac 5A1E     		subs	r2, r3, #1
 3511 00ae 2949     		ldr	r1, .L198+12
 3512 00b0 1300     		movs	r3, r2
 3513 00b2 9B00     		lsls	r3, r3, #2
 3514 00b4 9B18     		adds	r3, r3, r2
 3515 00b6 9B00     		lsls	r3, r3, #2
 3516 00b8 CB18     		adds	r3, r1, r3
 3517 00ba 1033     		adds	r3, r3, #16
 3518 00bc 1B68     		ldr	r3, [r3]
 3519 00be 5B68     		ldr	r3, [r3, #4]
 3520 00c0 1800     		movs	r0, r3
 3521 00c2 FFF7FEFF 		bl	CyBle_Get16ByPtr
 3522 00c6 0300     		movs	r3, r0
 3523 00c8 1A00     		movs	r2, r3
 3524 00ca 0123     		movs	r3, #1
 3525 00cc 1340     		ands	r3, r2
 3526 00ce 9BB2     		uxth	r3, r3
 3527 00d0 002B     		cmp	r3, #0
 3528 00d2 05D1     		bne	.L196
1409:Generated_Source\PSoC4/BLE_1_ess.c ****                 cyBle_esss.charInfoAddr[charIndex].charInfoPtr[charInstance].descrHandle[CYBLE_ESS_
1410:Generated_Source\PSoC4/BLE_1_ess.c ****             {
1411:Generated_Source\PSoC4/BLE_1_ess.c ****                 apiResult = CYBLE_ERROR_NTF_DISABLED;
 3529              		.loc 1 1411 0
 3530 00d4 1623     		movs	r3, #22
 3531 00d6 FB18     		adds	r3, r7, r3
 3532 00d8 8022     		movs	r2, #128
 3533 00da 5200     		lsls	r2, r2, #1
 3534 00dc 1A80     		strh	r2, [r3]
1403:Generated_Source\PSoC4/BLE_1_ess.c ****             {
 3535              		.loc 1 1403 0
 3536 00de 2BE0     		b	.L192
 3537              	.L196:
 3538              	.LBB6:
1412:Generated_Source\PSoC4/BLE_1_ess.c ****             }
1413:Generated_Source\PSoC4/BLE_1_ess.c ****             else
1414:Generated_Source\PSoC4/BLE_1_ess.c ****             {
1415:Generated_Source\PSoC4/BLE_1_ess.c ****                 CYBLE_GATTS_HANDLE_VALUE_NTF_T ntfReqParam;
1416:Generated_Source\PSoC4/BLE_1_ess.c **** 
1417:Generated_Source\PSoC4/BLE_1_ess.c ****                 /* Fill all fields of write request structure ... */
1418:Generated_Source\PSoC4/BLE_1_ess.c ****                 ntfReqParam.attrHandle = cyBle_esss.charInfoAddr[charIndex].charInfoPtr[charInstanc
 3539              		.loc 1 1418 0
 3540 00e0 FB1C     		adds	r3, r7, #3
 3541 00e2 1B78     		ldrb	r3, [r3]
 3542 00e4 194A     		ldr	r2, .L198+4
 3543 00e6 9B00     		lsls	r3, r3, #2
 3544 00e8 D318     		adds	r3, r2, r3
 3545 00ea 0433     		adds	r3, r3, #4
 3546 00ec 1968     		ldr	r1, [r3]
ARM GAS  C:\Users\megan\AppData\Local\Temp\ccmgjhBj.s 			page 90


 3547 00ee BB1C     		adds	r3, r7, #2
 3548 00f0 1A78     		ldrb	r2, [r3]
 3549 00f2 1300     		movs	r3, r2
 3550 00f4 9B00     		lsls	r3, r3, #2
 3551 00f6 9B18     		adds	r3, r3, r2
 3552 00f8 9B00     		lsls	r3, r3, #2
 3553 00fa CB18     		adds	r3, r1, r3
 3554 00fc 1A88     		ldrh	r2, [r3]
 3555 00fe 0823     		movs	r3, #8
 3556 0100 FB18     		adds	r3, r7, r3
 3557 0102 1A81     		strh	r2, [r3, #8]
1419:Generated_Source\PSoC4/BLE_1_ess.c ****                 ntfReqParam.value.val = attrValue;
 3558              		.loc 1 1419 0
 3559 0104 0823     		movs	r3, #8
 3560 0106 FB18     		adds	r3, r7, r3
 3561 0108 BA6A     		ldr	r2, [r7, #40]
 3562 010a 1A60     		str	r2, [r3]
1420:Generated_Source\PSoC4/BLE_1_ess.c ****                 ntfReqParam.value.len = attrSize;
 3563              		.loc 1 1420 0
 3564 010c 7B1C     		adds	r3, r7, #1
 3565 010e 1B78     		ldrb	r3, [r3]
 3566 0110 9AB2     		uxth	r2, r3
 3567 0112 0823     		movs	r3, #8
 3568 0114 FB18     		adds	r3, r7, r3
 3569 0116 9A80     		strh	r2, [r3, #4]
1421:Generated_Source\PSoC4/BLE_1_ess.c **** 
1422:Generated_Source\PSoC4/BLE_1_ess.c ****                 /* Send notification to client using previously filled structure */
1423:Generated_Source\PSoC4/BLE_1_ess.c ****                 apiResult = CyBle_GattsNotification(connHandle, &ntfReqParam);
 3570              		.loc 1 1423 0
 3571 0118 1623     		movs	r3, #22
 3572 011a FC18     		adds	r4, r7, r3
 3573 011c 0823     		movs	r3, #8
 3574 011e FA18     		adds	r2, r7, r3
 3575 0120 3B1D     		adds	r3, r7, #4
 3576 0122 1100     		movs	r1, r2
 3577 0124 1868     		ldr	r0, [r3]
 3578 0126 FFF7FEFF 		bl	CyBle_GattsNotification
 3579 012a 0300     		movs	r3, r0
 3580 012c 2380     		strh	r3, [r4]
 3581              	.LBE6:
1403:Generated_Source\PSoC4/BLE_1_ess.c ****             {
 3582              		.loc 1 1403 0
 3583 012e 03E0     		b	.L192
 3584              	.L193:
1424:Generated_Source\PSoC4/BLE_1_ess.c ****             }
1425:Generated_Source\PSoC4/BLE_1_ess.c ****         }
1426:Generated_Source\PSoC4/BLE_1_ess.c ****         else
1427:Generated_Source\PSoC4/BLE_1_ess.c ****         {
1428:Generated_Source\PSoC4/BLE_1_ess.c ****             apiResult = CYBLE_ERROR_GATT_DB_INVALID_ATTR_HANDLE;
 3585              		.loc 1 1428 0
 3586 0130 1623     		movs	r3, #22
 3587 0132 FB18     		adds	r3, r7, r3
 3588 0134 1322     		movs	r2, #19
 3589 0136 1A80     		strh	r2, [r3]
 3590              	.L192:
1429:Generated_Source\PSoC4/BLE_1_ess.c ****         }
1430:Generated_Source\PSoC4/BLE_1_ess.c ****     }
ARM GAS  C:\Users\megan\AppData\Local\Temp\ccmgjhBj.s 			page 91


1431:Generated_Source\PSoC4/BLE_1_ess.c **** 
1432:Generated_Source\PSoC4/BLE_1_ess.c ****     return (apiResult);
 3591              		.loc 1 1432 0
 3592 0138 1623     		movs	r3, #22
 3593 013a FB18     		adds	r3, r7, r3
 3594 013c 1B88     		ldrh	r3, [r3]
1433:Generated_Source\PSoC4/BLE_1_ess.c **** }
 3595              		.loc 1 1433 0
 3596 013e 1800     		movs	r0, r3
 3597 0140 BD46     		mov	sp, r7
 3598 0142 07B0     		add	sp, sp, #28
 3599              		@ sp needed
 3600 0144 90BD     		pop	{r4, r7, pc}
 3601              	.L199:
 3602 0146 C046     		.align	2
 3603              	.L198:
 3604 0148 00000000 		.word	cyBle_esssCharInstances
 3605 014c 00000000 		.word	cyBle_esss
 3606 0150 00000000 		.word	cyBle_state
 3607 0154 00000000 		.word	cyBle_gattDB
 3608              		.cfi_endproc
 3609              	.LFE17:
 3610              		.size	CyBle_EsssSendNotification, .-CyBle_EsssSendNotification
 3611              		.section	.text.CyBle_EsssSendIndication,"ax",%progbits
 3612              		.align	2
 3613              		.global	CyBle_EsssSendIndication
 3614              		.code	16
 3615              		.thumb_func
 3616              		.type	CyBle_EsssSendIndication, %function
 3617              	CyBle_EsssSendIndication:
 3618              	.LFB18:
1434:Generated_Source\PSoC4/BLE_1_ess.c **** 
1435:Generated_Source\PSoC4/BLE_1_ess.c **** 
1436:Generated_Source\PSoC4/BLE_1_ess.c **** /******************************************************************************
1437:Generated_Source\PSoC4/BLE_1_ess.c **** * Function Name: CyBle_EsssSendIndication
1438:Generated_Source\PSoC4/BLE_1_ess.c **** ***************************************************************************//**
1439:Generated_Source\PSoC4/BLE_1_ess.c **** * 
1440:Generated_Source\PSoC4/BLE_1_ess.c **** *  Sends an indication with a characteristic value of the Environmental Sensing
1441:Generated_Source\PSoC4/BLE_1_ess.c **** *  Service, which is a value specified by charIndex, to the client's device.
1442:Generated_Source\PSoC4/BLE_1_ess.c **** *  
1443:Generated_Source\PSoC4/BLE_1_ess.c **** *  On enabling indication successfully, if the GATT server has an updated value to be 
1444:Generated_Source\PSoC4/BLE_1_ess.c **** *  indicated to the GATT Client, it sends out a 'Handle Value Indication' which
1445:Generated_Source\PSoC4/BLE_1_ess.c **** *  results in CYBLE_EVT_ESSC_INDICATION or CYBLE_EVT_GATTC_HANDLE_VALUE_IND (if 
1446:Generated_Source\PSoC4/BLE_1_ess.c **** *  service specific callback function is not registered) event at the GATT Client's end.
1447:Generated_Source\PSoC4/BLE_1_ess.c **** *
1448:Generated_Source\PSoC4/BLE_1_ess.c **** *  \param connHandle: The connection handle.
1449:Generated_Source\PSoC4/BLE_1_ess.c **** *  \param charIndex: The index of the service characteristic.
1450:Generated_Source\PSoC4/BLE_1_ess.c **** *  \param charInstance: The instance number of the characteristic specified by 
1451:Generated_Source\PSoC4/BLE_1_ess.c **** *                "charIndex".
1452:Generated_Source\PSoC4/BLE_1_ess.c **** *  \param attrSize: The size of the characteristic value attribute.
1453:Generated_Source\PSoC4/BLE_1_ess.c **** *  \param attrValue: The pointer to the characteristic value data that should be
1454:Generated_Source\PSoC4/BLE_1_ess.c **** *               sent to the client's device.
1455:Generated_Source\PSoC4/BLE_1_ess.c **** * 
1456:Generated_Source\PSoC4/BLE_1_ess.c **** * \return
1457:Generated_Source\PSoC4/BLE_1_ess.c **** *  A return value is of type CYBLE_API_RESULT_T.
1458:Generated_Source\PSoC4/BLE_1_ess.c **** *   * CYBLE_ERROR_OK - The request handled successfully
1459:Generated_Source\PSoC4/BLE_1_ess.c **** *   * CYBLE_ERROR_INVALID_PARAMETER - Validation of the input parameter failed
ARM GAS  C:\Users\megan\AppData\Local\Temp\ccmgjhBj.s 			page 92


1460:Generated_Source\PSoC4/BLE_1_ess.c **** *   * CYBLE_ERROR_INVALID_OPERATION - This operation is not permitted
1461:Generated_Source\PSoC4/BLE_1_ess.c **** *   * CYBLE_ERROR_INVALID_STATE - Connection with the client is not established
1462:Generated_Source\PSoC4/BLE_1_ess.c **** *   * CYBLE_ERROR_MEMORY_ALLOCATION_FAILED - Memory allocation failed.
1463:Generated_Source\PSoC4/BLE_1_ess.c **** *   * CYBLE_ERROR_IND_DISABLED - Indication is not enabled by the client.
1464:Generated_Source\PSoC4/BLE_1_ess.c **** *   * CYBLE_ERROR_GATT_DB_INVALID_ATTR_HANDLE - An optional characteristic is
1465:Generated_Source\PSoC4/BLE_1_ess.c **** *                                               absent.
1466:Generated_Source\PSoC4/BLE_1_ess.c **** *
1467:Generated_Source\PSoC4/BLE_1_ess.c **** * \events
1468:Generated_Source\PSoC4/BLE_1_ess.c **** *  In case of successful execution (return value = CYBLE_ERROR_OK)
1469:Generated_Source\PSoC4/BLE_1_ess.c **** *  the next events can appear: \n
1470:Generated_Source\PSoC4/BLE_1_ess.c **** *   If the ESS service-specific callback is registered 
1471:Generated_Source\PSoC4/BLE_1_ess.c **** *      (with CyBle_EssRegisterAttrCallback):
1472:Generated_Source\PSoC4/BLE_1_ess.c **** *  * CYBLE_EVT_ESSS_INDICATION_CONFIRMED - in case if the indication is
1473:Generated_Source\PSoC4/BLE_1_ess.c **** *                                successfully delivered to the peer device.
1474:Generated_Source\PSoC4/BLE_1_ess.c **** *  .
1475:Generated_Source\PSoC4/BLE_1_ess.c **** *   Otherwise (if the ESS service-specific callback is not registered):
1476:Generated_Source\PSoC4/BLE_1_ess.c **** *  * CYBLE_EVT_GATTS_HANDLE_VALUE_CNF - in case if the indication is
1477:Generated_Source\PSoC4/BLE_1_ess.c **** *                                successfully delivered to the peer device.
1478:Generated_Source\PSoC4/BLE_1_ess.c **** *
1479:Generated_Source\PSoC4/BLE_1_ess.c **** ******************************************************************************/
1480:Generated_Source\PSoC4/BLE_1_ess.c **** CYBLE_API_RESULT_T CyBle_EsssSendIndication(CYBLE_CONN_HANDLE_T connHandle,
1481:Generated_Source\PSoC4/BLE_1_ess.c ****     CYBLE_ESS_CHAR_INDEX_T charIndex, uint8 charInstance, uint8 attrSize, uint8 *attrValue)
1482:Generated_Source\PSoC4/BLE_1_ess.c **** {
 3619              		.loc 1 1482 0
 3620              		.cfi_startproc
 3621              		@ args = 4, pretend = 0, frame = 24
 3622              		@ frame_needed = 1, uses_anonymous_args = 0
 3623 0000 90B5     		push	{r4, r7, lr}
 3624              		.cfi_def_cfa_offset 12
 3625              		.cfi_offset 4, -12
 3626              		.cfi_offset 7, -8
 3627              		.cfi_offset 14, -4
 3628 0002 87B0     		sub	sp, sp, #28
 3629              		.cfi_def_cfa_offset 40
 3630 0004 00AF     		add	r7, sp, #0
 3631              		.cfi_def_cfa_register 7
 3632 0006 3C1D     		adds	r4, r7, #4
 3633 0008 2080     		strh	r0, [r4]
 3634 000a 0C00     		movs	r4, r1
 3635 000c 1000     		movs	r0, r2
 3636 000e 1900     		movs	r1, r3
 3637 0010 FB1C     		adds	r3, r7, #3
 3638 0012 221C     		adds	r2, r4, #0
 3639 0014 1A70     		strb	r2, [r3]
 3640 0016 BB1C     		adds	r3, r7, #2
 3641 0018 021C     		adds	r2, r0, #0
 3642 001a 1A70     		strb	r2, [r3]
 3643 001c 7B1C     		adds	r3, r7, #1
 3644 001e 0A1C     		adds	r2, r1, #0
 3645 0020 1A70     		strb	r2, [r3]
1483:Generated_Source\PSoC4/BLE_1_ess.c ****     /* Store new data in database */
1484:Generated_Source\PSoC4/BLE_1_ess.c ****     CYBLE_API_RESULT_T apiResult = CYBLE_ERROR_OK;
 3646              		.loc 1 1484 0
 3647 0022 1623     		movs	r3, #22
 3648 0024 FB18     		adds	r3, r7, r3
 3649 0026 0022     		movs	r2, #0
 3650 0028 1A80     		strh	r2, [r3]
ARM GAS  C:\Users\megan\AppData\Local\Temp\ccmgjhBj.s 			page 93


1485:Generated_Source\PSoC4/BLE_1_ess.c **** 
1486:Generated_Source\PSoC4/BLE_1_ess.c ****     if((charIndex == CYBLE_ESS_DESCRIPTOR_VALUE_CHANGED) && ( charInstance < cyBle_esssCharInstance
 3651              		.loc 1 1486 0
 3652 002a FB1C     		adds	r3, r7, #3
 3653 002c 1B78     		ldrb	r3, [r3]
 3654 002e 002B     		cmp	r3, #0
 3655 0030 00D0     		beq	.LCB3177
 3656 0032 82E0     		b	.L201	@long jump
 3657              	.LCB3177:
 3658              		.loc 1 1486 0 is_stmt 0 discriminator 1
 3659 0034 FB1C     		adds	r3, r7, #3
 3660 0036 1B78     		ldrb	r3, [r3]
 3661 0038 434A     		ldr	r2, .L207
 3662 003a D35C     		ldrb	r3, [r2, r3]
 3663 003c BA1C     		adds	r2, r7, #2
 3664 003e 1278     		ldrb	r2, [r2]
 3665 0040 9A42     		cmp	r2, r3
 3666 0042 00D3     		bcc	.LCB3185
 3667 0044 79E0     		b	.L201	@long jump
 3668              	.LCB3185:
1487:Generated_Source\PSoC4/BLE_1_ess.c ****     {
1488:Generated_Source\PSoC4/BLE_1_ess.c ****         /* Send indication if it is enabled and connected */
1489:Generated_Source\PSoC4/BLE_1_ess.c ****         if(CYBLE_STATE_CONNECTED != CyBle_GetState())
 3669              		.loc 1 1489 0 is_stmt 1
 3670 0046 414B     		ldr	r3, .L207+4
 3671 0048 1B78     		ldrb	r3, [r3]
 3672 004a 022B     		cmp	r3, #2
 3673 004c 05D0     		beq	.L202
1490:Generated_Source\PSoC4/BLE_1_ess.c ****         {
1491:Generated_Source\PSoC4/BLE_1_ess.c ****             apiResult = CYBLE_ERROR_INVALID_STATE;
 3674              		.loc 1 1491 0
 3675 004e 1623     		movs	r3, #22
 3676 0050 FB18     		adds	r3, r7, r3
 3677 0052 0422     		movs	r2, #4
 3678 0054 FF32     		adds	r2, r2, #255
 3679 0056 1A80     		strh	r2, [r3]
 3680 0058 6FE0     		b	.L201
 3681              	.L202:
1492:Generated_Source\PSoC4/BLE_1_ess.c ****         }
1493:Generated_Source\PSoC4/BLE_1_ess.c ****         else if(!CYBLE_IS_INDICATION_ENABLED(
 3682              		.loc 1 1493 0
 3683 005a FB1C     		adds	r3, r7, #3
 3684 005c 1B78     		ldrb	r3, [r3]
 3685 005e 3C4A     		ldr	r2, .L207+8
 3686 0060 9B00     		lsls	r3, r3, #2
 3687 0062 D318     		adds	r3, r2, r3
 3688 0064 0433     		adds	r3, r3, #4
 3689 0066 1968     		ldr	r1, [r3]
 3690 0068 BB1C     		adds	r3, r7, #2
 3691 006a 1A78     		ldrb	r2, [r3]
 3692 006c 1300     		movs	r3, r2
 3693 006e 9B00     		lsls	r3, r3, #2
 3694 0070 9B18     		adds	r3, r3, r2
 3695 0072 9B00     		lsls	r3, r3, #2
 3696 0074 CB18     		adds	r3, r1, r3
 3697 0076 5B88     		ldrh	r3, [r3, #2]
 3698 0078 5A1E     		subs	r2, r3, #1
ARM GAS  C:\Users\megan\AppData\Local\Temp\ccmgjhBj.s 			page 94


 3699 007a 3649     		ldr	r1, .L207+12
 3700 007c 1300     		movs	r3, r2
 3701 007e 9B00     		lsls	r3, r3, #2
 3702 0080 9B18     		adds	r3, r3, r2
 3703 0082 9B00     		lsls	r3, r3, #2
 3704 0084 CB18     		adds	r3, r1, r3
 3705 0086 1033     		adds	r3, r3, #16
 3706 0088 1B68     		ldr	r3, [r3]
 3707 008a 5B68     		ldr	r3, [r3, #4]
 3708 008c 1800     		movs	r0, r3
 3709 008e FFF7FEFF 		bl	CyBle_Get16ByPtr
 3710 0092 0300     		movs	r3, r0
 3711 0094 1A00     		movs	r2, r3
 3712 0096 0223     		movs	r3, #2
 3713 0098 1340     		ands	r3, r2
 3714 009a 9BB2     		uxth	r3, r3
 3715 009c 002B     		cmp	r3, #0
 3716 009e 05D1     		bne	.L203
1494:Generated_Source\PSoC4/BLE_1_ess.c ****             cyBle_esss.charInfoAddr[charIndex].charInfoPtr[charInstance].descrHandle[CYBLE_ESS_CCCD
1495:Generated_Source\PSoC4/BLE_1_ess.c ****         {
1496:Generated_Source\PSoC4/BLE_1_ess.c ****             apiResult = CYBLE_ERROR_IND_DISABLED;
 3717              		.loc 1 1496 0
 3718 00a0 1623     		movs	r3, #22
 3719 00a2 FB18     		adds	r3, r7, r3
 3720 00a4 0222     		movs	r2, #2
 3721 00a6 FF32     		adds	r2, r2, #255
 3722 00a8 1A80     		strh	r2, [r3]
 3723 00aa 46E0     		b	.L201
 3724              	.L203:
1497:Generated_Source\PSoC4/BLE_1_ess.c ****         }
1498:Generated_Source\PSoC4/BLE_1_ess.c ****         else
1499:Generated_Source\PSoC4/BLE_1_ess.c ****         {
1500:Generated_Source\PSoC4/BLE_1_ess.c ****             if(CYBLE_GATT_INVALID_ATTR_HANDLE_VALUE !=
1501:Generated_Source\PSoC4/BLE_1_ess.c ****                 cyBle_esss.charInfoAddr[charIndex].charInfoPtr[charInstance].charHandle)
 3725              		.loc 1 1501 0
 3726 00ac FB1C     		adds	r3, r7, #3
 3727 00ae 1B78     		ldrb	r3, [r3]
 3728 00b0 274A     		ldr	r2, .L207+8
 3729 00b2 9B00     		lsls	r3, r3, #2
 3730 00b4 D318     		adds	r3, r2, r3
 3731 00b6 0433     		adds	r3, r3, #4
 3732 00b8 1968     		ldr	r1, [r3]
 3733 00ba BB1C     		adds	r3, r7, #2
 3734 00bc 1A78     		ldrb	r2, [r3]
 3735 00be 1300     		movs	r3, r2
 3736 00c0 9B00     		lsls	r3, r3, #2
 3737 00c2 9B18     		adds	r3, r3, r2
 3738 00c4 9B00     		lsls	r3, r3, #2
 3739 00c6 CB18     		adds	r3, r1, r3
 3740 00c8 1B88     		ldrh	r3, [r3]
1500:Generated_Source\PSoC4/BLE_1_ess.c ****                 cyBle_esss.charInfoAddr[charIndex].charInfoPtr[charInstance].charHandle)
 3741              		.loc 1 1500 0
 3742 00ca 002B     		cmp	r3, #0
 3743 00cc 31D0     		beq	.L204
 3744              	.LBB7:
1502:Generated_Source\PSoC4/BLE_1_ess.c ****             {
1503:Generated_Source\PSoC4/BLE_1_ess.c ****                 CYBLE_GATTS_HANDLE_VALUE_IND_T indReqParam;
ARM GAS  C:\Users\megan\AppData\Local\Temp\ccmgjhBj.s 			page 95


1504:Generated_Source\PSoC4/BLE_1_ess.c **** 
1505:Generated_Source\PSoC4/BLE_1_ess.c ****                 /* Fill all fields of write request structure ... */
1506:Generated_Source\PSoC4/BLE_1_ess.c ****                 indReqParam.attrHandle = cyBle_esss.charInfoAddr[charIndex].charInfoPtr[charInstanc
 3745              		.loc 1 1506 0
 3746 00ce FB1C     		adds	r3, r7, #3
 3747 00d0 1B78     		ldrb	r3, [r3]
 3748 00d2 1F4A     		ldr	r2, .L207+8
 3749 00d4 9B00     		lsls	r3, r3, #2
 3750 00d6 D318     		adds	r3, r2, r3
 3751 00d8 0433     		adds	r3, r3, #4
 3752 00da 1968     		ldr	r1, [r3]
 3753 00dc BB1C     		adds	r3, r7, #2
 3754 00de 1A78     		ldrb	r2, [r3]
 3755 00e0 1300     		movs	r3, r2
 3756 00e2 9B00     		lsls	r3, r3, #2
 3757 00e4 9B18     		adds	r3, r3, r2
 3758 00e6 9B00     		lsls	r3, r3, #2
 3759 00e8 CB18     		adds	r3, r1, r3
 3760 00ea 1A88     		ldrh	r2, [r3]
 3761 00ec 0823     		movs	r3, #8
 3762 00ee FB18     		adds	r3, r7, r3
 3763 00f0 1A81     		strh	r2, [r3, #8]
1507:Generated_Source\PSoC4/BLE_1_ess.c ****                 indReqParam.value.val = attrValue;
 3764              		.loc 1 1507 0
 3765 00f2 0823     		movs	r3, #8
 3766 00f4 FB18     		adds	r3, r7, r3
 3767 00f6 BA6A     		ldr	r2, [r7, #40]
 3768 00f8 1A60     		str	r2, [r3]
1508:Generated_Source\PSoC4/BLE_1_ess.c ****                 indReqParam.value.len = attrSize;
 3769              		.loc 1 1508 0
 3770 00fa 7B1C     		adds	r3, r7, #1
 3771 00fc 1B78     		ldrb	r3, [r3]
 3772 00fe 9AB2     		uxth	r2, r3
 3773 0100 0823     		movs	r3, #8
 3774 0102 FB18     		adds	r3, r7, r3
 3775 0104 9A80     		strh	r2, [r3, #4]
1509:Generated_Source\PSoC4/BLE_1_ess.c **** 
1510:Generated_Source\PSoC4/BLE_1_ess.c ****                 /* Send indication to client using previously filled structure */
1511:Generated_Source\PSoC4/BLE_1_ess.c ****                 apiResult = CyBle_GattsIndication(connHandle, &indReqParam);
 3776              		.loc 1 1511 0
 3777 0106 1623     		movs	r3, #22
 3778 0108 FC18     		adds	r4, r7, r3
 3779 010a 0823     		movs	r3, #8
 3780 010c FA18     		adds	r2, r7, r3
 3781 010e 3B1D     		adds	r3, r7, #4
 3782 0110 1100     		movs	r1, r2
 3783 0112 1868     		ldr	r0, [r3]
 3784 0114 FFF7FEFF 		bl	CyBle_GattsIndication
 3785 0118 0300     		movs	r3, r0
 3786 011a 2380     		strh	r3, [r4]
1512:Generated_Source\PSoC4/BLE_1_ess.c ****                 /* Save handle to support service specific value confirmation response from client 
1513:Generated_Source\PSoC4/BLE_1_ess.c ****                 if(apiResult == CYBLE_ERROR_OK)
 3787              		.loc 1 1513 0
 3788 011c 1623     		movs	r3, #22
 3789 011e FB18     		adds	r3, r7, r3
 3790 0120 1B88     		ldrh	r3, [r3]
 3791 0122 002B     		cmp	r3, #0
ARM GAS  C:\Users\megan\AppData\Local\Temp\ccmgjhBj.s 			page 96


 3792 0124 09D1     		bne	.L201
1514:Generated_Source\PSoC4/BLE_1_ess.c ****                 {
1515:Generated_Source\PSoC4/BLE_1_ess.c ****                     cyBle_esssReqHandle = indReqParam.attrHandle;
 3793              		.loc 1 1515 0
 3794 0126 0823     		movs	r3, #8
 3795 0128 FB18     		adds	r3, r7, r3
 3796 012a 1A89     		ldrh	r2, [r3, #8]
 3797 012c 0A4B     		ldr	r3, .L207+16
 3798 012e 1A80     		strh	r2, [r3]
 3799 0130 03E0     		b	.L201
 3800              	.L204:
 3801              	.LBE7:
1516:Generated_Source\PSoC4/BLE_1_ess.c ****                 }
1517:Generated_Source\PSoC4/BLE_1_ess.c ****             }
1518:Generated_Source\PSoC4/BLE_1_ess.c ****             else
1519:Generated_Source\PSoC4/BLE_1_ess.c ****             {
1520:Generated_Source\PSoC4/BLE_1_ess.c ****                 apiResult = CYBLE_ERROR_GATT_DB_INVALID_ATTR_HANDLE;
 3802              		.loc 1 1520 0
 3803 0132 1623     		movs	r3, #22
 3804 0134 FB18     		adds	r3, r7, r3
 3805 0136 1322     		movs	r2, #19
 3806 0138 1A80     		strh	r2, [r3]
 3807              	.L201:
1521:Generated_Source\PSoC4/BLE_1_ess.c ****             }
1522:Generated_Source\PSoC4/BLE_1_ess.c ****         }
1523:Generated_Source\PSoC4/BLE_1_ess.c ****     }
1524:Generated_Source\PSoC4/BLE_1_ess.c ****     return (apiResult);
 3808              		.loc 1 1524 0
 3809 013a 1623     		movs	r3, #22
 3810 013c FB18     		adds	r3, r7, r3
 3811 013e 1B88     		ldrh	r3, [r3]
1525:Generated_Source\PSoC4/BLE_1_ess.c **** }
 3812              		.loc 1 1525 0
 3813 0140 1800     		movs	r0, r3
 3814 0142 BD46     		mov	sp, r7
 3815 0144 07B0     		add	sp, sp, #28
 3816              		@ sp needed
 3817 0146 90BD     		pop	{r4, r7, pc}
 3818              	.L208:
 3819              		.align	2
 3820              	.L207:
 3821 0148 00000000 		.word	cyBle_esssCharInstances
 3822 014c 00000000 		.word	cyBle_state
 3823 0150 00000000 		.word	cyBle_esss
 3824 0154 00000000 		.word	cyBle_gattDB
 3825 0158 00000000 		.word	cyBle_esssReqHandle
 3826              		.cfi_endproc
 3827              	.LFE18:
 3828              		.size	CyBle_EsssSendIndication, .-CyBle_EsssSendIndication
 3829              		.text
 3830              	.Letext0:
 3831              		.file 2 "Generated_Source\\PSoC4\\cytypes.h"
 3832              		.file 3 "Generated_Source\\PSoC4\\BLE_1_Stack.h"
 3833              		.file 4 "Generated_Source\\PSoC4\\BLE_1_StackGap.h"
 3834              		.file 5 "Generated_Source\\PSoC4\\BLE_1_StackGatt.h"
 3835              		.file 6 "Generated_Source\\PSoC4\\BLE_1_StackGattServer.h"
 3836              		.file 7 "Generated_Source\\PSoC4\\BLE_1_StackGattDb.h"
ARM GAS  C:\Users\megan\AppData\Local\Temp\ccmgjhBj.s 			page 97


 3837              		.file 8 "Generated_Source\\PSoC4\\BLE_1.h"
 3838              		.file 9 "Generated_Source\\PSoC4\\BLE_1_ess.h"
 3839              		.file 10 "Generated_Source\\PSoC4\\BLE_1_eventHandler.h"
 3840              		.file 11 "Generated_Source\\PSoC4\\BLE_1_gatt.h"
 3841              		.section	.debug_info,"",%progbits
 3842              	.Ldebug_info0:
 3843 0000 311A0000 		.4byte	0x1a31
 3844 0004 0400     		.2byte	0x4
 3845 0006 00000000 		.4byte	.Ldebug_abbrev0
 3846 000a 04       		.byte	0x4
 3847 000b 01       		.uleb128 0x1
 3848 000c 9F1B0000 		.4byte	.LASF613
 3849 0010 0C       		.byte	0xc
 3850 0011 76170000 		.4byte	.LASF614
 3851 0015 9A1E0000 		.4byte	.LASF615
 3852 0019 00000000 		.4byte	.Ldebug_ranges0+0
 3853 001d 00000000 		.4byte	0
 3854 0021 00000000 		.4byte	.Ldebug_line0
 3855 0025 02       		.uleb128 0x2
 3856 0026 01       		.byte	0x1
 3857 0027 06       		.byte	0x6
 3858 0028 3F0F0000 		.4byte	.LASF0
 3859 002c 02       		.uleb128 0x2
 3860 002d 01       		.byte	0x1
 3861 002e 08       		.byte	0x8
 3862 002f 73100000 		.4byte	.LASF1
 3863 0033 02       		.uleb128 0x2
 3864 0034 02       		.byte	0x2
 3865 0035 05       		.byte	0x5
 3866 0036 AC390000 		.4byte	.LASF2
 3867 003a 02       		.uleb128 0x2
 3868 003b 02       		.byte	0x2
 3869 003c 07       		.byte	0x7
 3870 003d 7E410000 		.4byte	.LASF3
 3871 0041 02       		.uleb128 0x2
 3872 0042 04       		.byte	0x4
 3873 0043 05       		.byte	0x5
 3874 0044 C50B0000 		.4byte	.LASF4
 3875 0048 02       		.uleb128 0x2
 3876 0049 04       		.byte	0x4
 3877 004a 07       		.byte	0x7
 3878 004b 651E0000 		.4byte	.LASF5
 3879 004f 02       		.uleb128 0x2
 3880 0050 08       		.byte	0x8
 3881 0051 05       		.byte	0x5
 3882 0052 F8230000 		.4byte	.LASF6
 3883 0056 02       		.uleb128 0x2
 3884 0057 08       		.byte	0x8
 3885 0058 07       		.byte	0x7
 3886 0059 D5310000 		.4byte	.LASF7
 3887 005d 03       		.uleb128 0x3
 3888 005e 04       		.byte	0x4
 3889 005f 05       		.byte	0x5
 3890 0060 696E7400 		.ascii	"int\000"
 3891 0064 02       		.uleb128 0x2
 3892 0065 04       		.byte	0x4
 3893 0066 07       		.byte	0x7
ARM GAS  C:\Users\megan\AppData\Local\Temp\ccmgjhBj.s 			page 98


 3894 0067 0A290000 		.4byte	.LASF8
 3895 006b 04       		.uleb128 0x4
 3896 006c 3B390000 		.4byte	.LASF9
 3897 0070 02       		.byte	0x2
 3898 0071 D201     		.2byte	0x1d2
 3899 0073 2C000000 		.4byte	0x2c
 3900 0077 04       		.uleb128 0x4
 3901 0078 49450000 		.4byte	.LASF10
 3902 007c 02       		.byte	0x2
 3903 007d D301     		.2byte	0x1d3
 3904 007f 3A000000 		.4byte	0x3a
 3905 0083 04       		.uleb128 0x4
 3906 0084 FA030000 		.4byte	.LASF11
 3907 0088 02       		.byte	0x2
 3908 0089 D401     		.2byte	0x1d4
 3909 008b 48000000 		.4byte	0x48
 3910 008f 02       		.uleb128 0x2
 3911 0090 04       		.byte	0x4
 3912 0091 04       		.byte	0x4
 3913 0092 42270000 		.4byte	.LASF12
 3914 0096 02       		.uleb128 0x2
 3915 0097 08       		.byte	0x8
 3916 0098 04       		.byte	0x4
 3917 0099 30250000 		.4byte	.LASF13
 3918 009d 02       		.uleb128 0x2
 3919 009e 01       		.byte	0x1
 3920 009f 08       		.byte	0x8
 3921 00a0 EB120000 		.4byte	.LASF14
 3922 00a4 05       		.uleb128 0x5
 3923 00a5 6B000000 		.4byte	0x6b
 3924 00a9 02       		.uleb128 0x2
 3925 00aa 08       		.byte	0x8
 3926 00ab 04       		.byte	0x4
 3927 00ac AF2E0000 		.4byte	.LASF15
 3928 00b0 02       		.uleb128 0x2
 3929 00b1 04       		.byte	0x4
 3930 00b2 07       		.byte	0x7
 3931 00b3 C2000000 		.4byte	.LASF16
 3932 00b7 06       		.uleb128 0x6
 3933 00b8 04       		.byte	0x4
 3934 00b9 07       		.uleb128 0x7
 3935 00ba 04       		.byte	0x4
 3936 00bb BF000000 		.4byte	0xbf
 3937 00bf 08       		.uleb128 0x8
 3938 00c0 CF000000 		.4byte	0xcf
 3939 00c4 09       		.uleb128 0x9
 3940 00c5 83000000 		.4byte	0x83
 3941 00c9 09       		.uleb128 0x9
 3942 00ca B7000000 		.4byte	0xb7
 3943 00ce 00       		.byte	0
 3944 00cf 0A       		.uleb128 0xa
 3945 00d0 01       		.byte	0x1
 3946 00d1 2C000000 		.4byte	0x2c
 3947 00d5 03       		.byte	0x3
 3948 00d6 4D01     		.2byte	0x14d
 3949 00d8 8D020000 		.4byte	0x28d
 3950 00dc 0B       		.uleb128 0xb
ARM GAS  C:\Users\megan\AppData\Local\Temp\ccmgjhBj.s 			page 99


 3951 00dd DF130000 		.4byte	.LASF17
 3952 00e1 00       		.byte	0
 3953 00e2 0B       		.uleb128 0xb
 3954 00e3 730C0000 		.4byte	.LASF18
 3955 00e7 01       		.byte	0x1
 3956 00e8 0B       		.uleb128 0xb
 3957 00e9 0A320000 		.4byte	.LASF19
 3958 00ed 02       		.byte	0x2
 3959 00ee 0B       		.uleb128 0xb
 3960 00ef D80F0000 		.4byte	.LASF20
 3961 00f3 03       		.byte	0x3
 3962 00f4 0B       		.uleb128 0xb
 3963 00f5 42430000 		.4byte	.LASF21
 3964 00f9 04       		.byte	0x4
 3965 00fa 0B       		.uleb128 0xb
 3966 00fb 09400000 		.4byte	.LASF22
 3967 00ff 05       		.byte	0x5
 3968 0100 0B       		.uleb128 0xb
 3969 0101 FC2E0000 		.4byte	.LASF23
 3970 0105 06       		.byte	0x6
 3971 0106 0B       		.uleb128 0xb
 3972 0107 E63B0000 		.4byte	.LASF24
 3973 010b 20       		.byte	0x20
 3974 010c 0B       		.uleb128 0xb
 3975 010d 89080000 		.4byte	.LASF25
 3976 0111 21       		.byte	0x21
 3977 0112 0B       		.uleb128 0xb
 3978 0113 92220000 		.4byte	.LASF26
 3979 0117 22       		.byte	0x22
 3980 0118 0B       		.uleb128 0xb
 3981 0119 902C0000 		.4byte	.LASF27
 3982 011d 23       		.byte	0x23
 3983 011e 0B       		.uleb128 0xb
 3984 011f F81C0000 		.4byte	.LASF28
 3985 0123 24       		.byte	0x24
 3986 0124 0B       		.uleb128 0xb
 3987 0125 5B1D0000 		.4byte	.LASF29
 3988 0129 25       		.byte	0x25
 3989 012a 0B       		.uleb128 0xb
 3990 012b 7A380000 		.4byte	.LASF30
 3991 012f 26       		.byte	0x26
 3992 0130 0B       		.uleb128 0xb
 3993 0131 71030000 		.4byte	.LASF31
 3994 0135 27       		.byte	0x27
 3995 0136 0B       		.uleb128 0xb
 3996 0137 84440000 		.4byte	.LASF32
 3997 013b 28       		.byte	0x28
 3998 013c 0B       		.uleb128 0xb
 3999 013d CE2F0000 		.4byte	.LASF33
 4000 0141 29       		.byte	0x29
 4001 0142 0B       		.uleb128 0xb
 4002 0143 7C210000 		.4byte	.LASF34
 4003 0147 2A       		.byte	0x2a
 4004 0148 0B       		.uleb128 0xb
 4005 0149 ED2B0000 		.4byte	.LASF35
 4006 014d 2B       		.byte	0x2b
 4007 014e 0B       		.uleb128 0xb
ARM GAS  C:\Users\megan\AppData\Local\Temp\ccmgjhBj.s 			page 100


 4008 014f 74400000 		.4byte	.LASF36
 4009 0153 2C       		.byte	0x2c
 4010 0154 0B       		.uleb128 0xb
 4011 0155 CE010000 		.4byte	.LASF37
 4012 0159 2D       		.byte	0x2d
 4013 015a 0B       		.uleb128 0xb
 4014 015b 63390000 		.4byte	.LASF38
 4015 015f 2E       		.byte	0x2e
 4016 0160 0B       		.uleb128 0xb
 4017 0161 EC090000 		.4byte	.LASF39
 4018 0165 2F       		.byte	0x2f
 4019 0166 0B       		.uleb128 0xb
 4020 0167 A5120000 		.4byte	.LASF40
 4021 016b 30       		.byte	0x30
 4022 016c 0B       		.uleb128 0xb
 4023 016d 39260000 		.4byte	.LASF41
 4024 0171 31       		.byte	0x31
 4025 0172 0B       		.uleb128 0xb
 4026 0173 1B140000 		.4byte	.LASF42
 4027 0177 32       		.byte	0x32
 4028 0178 0B       		.uleb128 0xb
 4029 0179 57110000 		.4byte	.LASF43
 4030 017d 33       		.byte	0x33
 4031 017e 0B       		.uleb128 0xb
 4032 017f 7E110000 		.4byte	.LASF44
 4033 0183 34       		.byte	0x34
 4034 0184 0B       		.uleb128 0xb
 4035 0185 523D0000 		.4byte	.LASF45
 4036 0189 35       		.byte	0x35
 4037 018a 0B       		.uleb128 0xb
 4038 018b 91090000 		.4byte	.LASF46
 4039 018f 36       		.byte	0x36
 4040 0190 0B       		.uleb128 0xb
 4041 0191 EE300000 		.4byte	.LASF47
 4042 0195 37       		.byte	0x37
 4043 0196 0B       		.uleb128 0xb
 4044 0197 B83A0000 		.4byte	.LASF48
 4045 019b 40       		.byte	0x40
 4046 019c 0B       		.uleb128 0xb
 4047 019d B3030000 		.4byte	.LASF49
 4048 01a1 41       		.byte	0x41
 4049 01a2 0B       		.uleb128 0xb
 4050 01a3 57430000 		.4byte	.LASF50
 4051 01a7 42       		.byte	0x42
 4052 01a8 0B       		.uleb128 0xb
 4053 01a9 3E300000 		.4byte	.LASF51
 4054 01ad 43       		.byte	0x43
 4055 01ae 0B       		.uleb128 0xb
 4056 01af 81100000 		.4byte	.LASF52
 4057 01b3 44       		.byte	0x44
 4058 01b4 0B       		.uleb128 0xb
 4059 01b5 15100000 		.4byte	.LASF53
 4060 01b9 45       		.byte	0x45
 4061 01ba 0B       		.uleb128 0xb
 4062 01bb E7350000 		.4byte	.LASF54
 4063 01bf 46       		.byte	0x46
 4064 01c0 0B       		.uleb128 0xb
ARM GAS  C:\Users\megan\AppData\Local\Temp\ccmgjhBj.s 			page 101


 4065 01c1 C9350000 		.4byte	.LASF55
 4066 01c5 47       		.byte	0x47
 4067 01c6 0B       		.uleb128 0xb
 4068 01c7 3A120000 		.4byte	.LASF56
 4069 01cb 48       		.byte	0x48
 4070 01cc 0B       		.uleb128 0xb
 4071 01cd 072D0000 		.4byte	.LASF57
 4072 01d1 49       		.byte	0x49
 4073 01d2 0B       		.uleb128 0xb
 4074 01d3 7C140000 		.4byte	.LASF58
 4075 01d7 4A       		.byte	0x4a
 4076 01d8 0B       		.uleb128 0xb
 4077 01d9 79130000 		.4byte	.LASF59
 4078 01dd 4B       		.byte	0x4b
 4079 01de 0B       		.uleb128 0xb
 4080 01df 302C0000 		.4byte	.LASF60
 4081 01e3 4C       		.byte	0x4c
 4082 01e4 0B       		.uleb128 0xb
 4083 01e5 87370000 		.4byte	.LASF61
 4084 01e9 4D       		.byte	0x4d
 4085 01ea 0B       		.uleb128 0xb
 4086 01eb 600B0000 		.4byte	.LASF62
 4087 01ef 4E       		.byte	0x4e
 4088 01f0 0B       		.uleb128 0xb
 4089 01f1 17290000 		.4byte	.LASF63
 4090 01f5 4F       		.byte	0x4f
 4091 01f6 0B       		.uleb128 0xb
 4092 01f7 C73B0000 		.4byte	.LASF64
 4093 01fb 50       		.byte	0x50
 4094 01fc 0B       		.uleb128 0xb
 4095 01fd 0A150000 		.4byte	.LASF65
 4096 0201 51       		.byte	0x51
 4097 0202 0B       		.uleb128 0xb
 4098 0203 68080000 		.4byte	.LASF66
 4099 0207 52       		.byte	0x52
 4100 0208 0B       		.uleb128 0xb
 4101 0209 893F0000 		.4byte	.LASF67
 4102 020d 53       		.byte	0x53
 4103 020e 0B       		.uleb128 0xb
 4104 020f C6440000 		.4byte	.LASF68
 4105 0213 54       		.byte	0x54
 4106 0214 0B       		.uleb128 0xb
 4107 0215 B8060000 		.4byte	.LASF69
 4108 0219 55       		.byte	0x55
 4109 021a 0B       		.uleb128 0xb
 4110 021b 31160000 		.4byte	.LASF70
 4111 021f 56       		.byte	0x56
 4112 0220 0B       		.uleb128 0xb
 4113 0221 EE270000 		.4byte	.LASF71
 4114 0225 57       		.byte	0x57
 4115 0226 0B       		.uleb128 0xb
 4116 0227 27440000 		.4byte	.LASF72
 4117 022b 58       		.byte	0x58
 4118 022c 0B       		.uleb128 0xb
 4119 022d CD400000 		.4byte	.LASF73
 4120 0231 70       		.byte	0x70
 4121 0232 0B       		.uleb128 0xb
ARM GAS  C:\Users\megan\AppData\Local\Temp\ccmgjhBj.s 			page 102


 4122 0233 1D1B0000 		.4byte	.LASF74
 4123 0237 71       		.byte	0x71
 4124 0238 0B       		.uleb128 0xb
 4125 0239 750E0000 		.4byte	.LASF75
 4126 023d 72       		.byte	0x72
 4127 023e 0B       		.uleb128 0xb
 4128 023f A93B0000 		.4byte	.LASF76
 4129 0243 73       		.byte	0x73
 4130 0244 0B       		.uleb128 0xb
 4131 0245 9F2D0000 		.4byte	.LASF77
 4132 0249 74       		.byte	0x74
 4133 024a 0B       		.uleb128 0xb
 4134 024b 0F220000 		.4byte	.LASF78
 4135 024f 75       		.byte	0x75
 4136 0250 0B       		.uleb128 0xb
 4137 0251 19120000 		.4byte	.LASF79
 4138 0255 76       		.byte	0x76
 4139 0256 0B       		.uleb128 0xb
 4140 0257 D5320000 		.4byte	.LASF80
 4141 025b 77       		.byte	0x77
 4142 025c 0B       		.uleb128 0xb
 4143 025d DC060000 		.4byte	.LASF81
 4144 0261 78       		.byte	0x78
 4145 0262 0B       		.uleb128 0xb
 4146 0263 A20B0000 		.4byte	.LASF82
 4147 0267 79       		.byte	0x79
 4148 0268 0B       		.uleb128 0xb
 4149 0269 9B430000 		.4byte	.LASF83
 4150 026d 7A       		.byte	0x7a
 4151 026e 0B       		.uleb128 0xb
 4152 026f 7C250000 		.4byte	.LASF84
 4153 0273 FA       		.byte	0xfa
 4154 0274 0B       		.uleb128 0xb
 4155 0275 C13E0000 		.4byte	.LASF85
 4156 0279 FB       		.byte	0xfb
 4157 027a 0B       		.uleb128 0xb
 4158 027b 431B0000 		.4byte	.LASF86
 4159 027f FC       		.byte	0xfc
 4160 0280 0B       		.uleb128 0xb
 4161 0281 732E0000 		.4byte	.LASF87
 4162 0285 FD       		.byte	0xfd
 4163 0286 0B       		.uleb128 0xb
 4164 0287 DF2B0000 		.4byte	.LASF88
 4165 028b FF       		.byte	0xff
 4166 028c 00       		.byte	0
 4167 028d 0A       		.uleb128 0xa
 4168 028e 02       		.byte	0x2
 4169 028f 3A000000 		.4byte	0x3a
 4170 0293 03       		.byte	0x3
 4171 0294 0204     		.2byte	0x402
 4172 0296 66030000 		.4byte	0x366
 4173 029a 0B       		.uleb128 0xb
 4174 029b F10F0000 		.4byte	.LASF89
 4175 029f 00       		.byte	0
 4176 02a0 0B       		.uleb128 0xb
 4177 02a1 B5170000 		.4byte	.LASF90
 4178 02a5 01       		.byte	0x1
ARM GAS  C:\Users\megan\AppData\Local\Temp\ccmgjhBj.s 			page 103


 4179 02a6 0B       		.uleb128 0xb
 4180 02a7 1B430000 		.4byte	.LASF91
 4181 02ab 02       		.byte	0x2
 4182 02ac 0B       		.uleb128 0xb
 4183 02ad 36190000 		.4byte	.LASF92
 4184 02b1 03       		.byte	0x3
 4185 02b2 0B       		.uleb128 0xb
 4186 02b3 D31D0000 		.4byte	.LASF93
 4187 02b7 04       		.byte	0x4
 4188 02b8 0B       		.uleb128 0xb
 4189 02b9 EF240000 		.4byte	.LASF94
 4190 02bd 05       		.byte	0x5
 4191 02be 0B       		.uleb128 0xb
 4192 02bf 5F3E0000 		.4byte	.LASF95
 4193 02c3 06       		.byte	0x6
 4194 02c4 0B       		.uleb128 0xb
 4195 02c5 5F140000 		.4byte	.LASF96
 4196 02c9 07       		.byte	0x7
 4197 02ca 0B       		.uleb128 0xb
 4198 02cb D8260000 		.4byte	.LASF97
 4199 02cf 08       		.byte	0x8
 4200 02d0 0B       		.uleb128 0xb
 4201 02d1 C23C0000 		.4byte	.LASF98
 4202 02d5 09       		.byte	0x9
 4203 02d6 0B       		.uleb128 0xb
 4204 02d7 A3450000 		.4byte	.LASF99
 4205 02db 0A       		.byte	0xa
 4206 02dc 0B       		.uleb128 0xb
 4207 02dd 20090000 		.4byte	.LASF100
 4208 02e1 0B       		.byte	0xb
 4209 02e2 0B       		.uleb128 0xb
 4210 02e3 F23F0000 		.4byte	.LASF101
 4211 02e7 0C       		.byte	0xc
 4212 02e8 0B       		.uleb128 0xb
 4213 02e9 DB2A0000 		.4byte	.LASF102
 4214 02ed 0D       		.byte	0xd
 4215 02ee 0B       		.uleb128 0xb
 4216 02ef 3D200000 		.4byte	.LASF103
 4217 02f3 0E       		.byte	0xe
 4218 02f4 0B       		.uleb128 0xb
 4219 02f5 CA240000 		.4byte	.LASF104
 4220 02f9 0F       		.byte	0xf
 4221 02fa 0B       		.uleb128 0xb
 4222 02fb 42060000 		.4byte	.LASF105
 4223 02ff 10       		.byte	0x10
 4224 0300 0B       		.uleb128 0xb
 4225 0301 A7260000 		.4byte	.LASF106
 4226 0305 11       		.byte	0x11
 4227 0306 0B       		.uleb128 0xb
 4228 0307 860C0000 		.4byte	.LASF107
 4229 030b 12       		.byte	0x12
 4230 030c 0B       		.uleb128 0xb
 4231 030d 170F0000 		.4byte	.LASF108
 4232 0311 13       		.byte	0x13
 4233 0312 0B       		.uleb128 0xb
 4234 0313 37250000 		.4byte	.LASF109
 4235 0317 27       		.byte	0x27
ARM GAS  C:\Users\megan\AppData\Local\Temp\ccmgjhBj.s 			page 104


 4236 0318 0B       		.uleb128 0xb
 4237 0319 A3270000 		.4byte	.LASF110
 4238 031d 28       		.byte	0x28
 4239 031e 0B       		.uleb128 0xb
 4240 031f 76060000 		.4byte	.LASF111
 4241 0323 29       		.byte	0x29
 4242 0324 0B       		.uleb128 0xb
 4243 0325 223A0000 		.4byte	.LASF112
 4244 0329 2A       		.byte	0x2a
 4245 032a 0B       		.uleb128 0xb
 4246 032b 9F1F0000 		.4byte	.LASF113
 4247 032f 2B       		.byte	0x2b
 4248 0330 0B       		.uleb128 0xb
 4249 0331 9B330000 		.4byte	.LASF114
 4250 0335 2C       		.byte	0x2c
 4251 0336 0B       		.uleb128 0xb
 4252 0337 99170000 		.4byte	.LASF115
 4253 033b FE       		.byte	0xfe
 4254 033c 0B       		.uleb128 0xb
 4255 033d EA1A0000 		.4byte	.LASF116
 4256 0341 FF       		.byte	0xff
 4257 0342 0C       		.uleb128 0xc
 4258 0343 CF2C0000 		.4byte	.LASF117
 4259 0347 0001     		.2byte	0x100
 4260 0349 0C       		.uleb128 0xc
 4261 034a B62C0000 		.4byte	.LASF118
 4262 034e 0101     		.2byte	0x101
 4263 0350 0C       		.uleb128 0xc
 4264 0351 A50D0000 		.4byte	.LASF119
 4265 0355 0201     		.2byte	0x102
 4266 0357 0C       		.uleb128 0xc
 4267 0358 7C320000 		.4byte	.LASF120
 4268 035c 0301     		.2byte	0x103
 4269 035e 0C       		.uleb128 0xc
 4270 035f 921D0000 		.4byte	.LASF121
 4271 0363 0401     		.2byte	0x104
 4272 0365 00       		.byte	0
 4273 0366 04       		.uleb128 0x4
 4274 0367 E03E0000 		.4byte	.LASF122
 4275 036b 03       		.byte	0x3
 4276 036c 7104     		.2byte	0x471
 4277 036e 8D020000 		.4byte	0x28d
 4278 0372 07       		.uleb128 0x7
 4279 0373 04       		.byte	0x4
 4280 0374 6B000000 		.4byte	0x6b
 4281 0378 0D       		.uleb128 0xd
 4282 0379 20       		.byte	0x20
 4283 037a 04       		.byte	0x4
 4284 037b 6402     		.2byte	0x264
 4285 037d 9C030000 		.4byte	0x39c
 4286 0381 0E       		.uleb128 0xe
 4287 0382 4A2C0000 		.4byte	.LASF123
 4288 0386 04       		.byte	0x4
 4289 0387 6702     		.2byte	0x267
 4290 0389 9C030000 		.4byte	0x39c
 4291 038d 00       		.byte	0
 4292 038e 0E       		.uleb128 0xe
ARM GAS  C:\Users\megan\AppData\Local\Temp\ccmgjhBj.s 			page 105


 4293 038f 13350000 		.4byte	.LASF124
 4294 0393 04       		.byte	0x4
 4295 0394 6A02     		.2byte	0x26a
 4296 0396 6B000000 		.4byte	0x6b
 4297 039a 1F       		.byte	0x1f
 4298 039b 00       		.byte	0
 4299 039c 0F       		.uleb128 0xf
 4300 039d 6B000000 		.4byte	0x6b
 4301 03a1 AC030000 		.4byte	0x3ac
 4302 03a5 10       		.uleb128 0x10
 4303 03a6 B0000000 		.4byte	0xb0
 4304 03aa 1E       		.byte	0x1e
 4305 03ab 00       		.byte	0
 4306 03ac 04       		.uleb128 0x4
 4307 03ad BB110000 		.4byte	.LASF125
 4308 03b1 04       		.byte	0x4
 4309 03b2 6C02     		.2byte	0x26c
 4310 03b4 78030000 		.4byte	0x378
 4311 03b8 11       		.uleb128 0x11
 4312 03b9 01       		.byte	0x1
 4313 03ba 2C000000 		.4byte	0x2c
 4314 03be 05       		.byte	0x5
 4315 03bf A5       		.byte	0xa5
 4316 03c0 AF040000 		.4byte	0x4af
 4317 03c4 0B       		.uleb128 0xb
 4318 03c5 F4320000 		.4byte	.LASF126
 4319 03c9 00       		.byte	0
 4320 03ca 0B       		.uleb128 0xb
 4321 03cb EC310000 		.4byte	.LASF127
 4322 03cf 01       		.byte	0x1
 4323 03d0 0B       		.uleb128 0xb
 4324 03d1 D5050000 		.4byte	.LASF128
 4325 03d5 02       		.byte	0x2
 4326 03d6 0B       		.uleb128 0xb
 4327 03d7 5B410000 		.4byte	.LASF129
 4328 03db 03       		.byte	0x3
 4329 03dc 0B       		.uleb128 0xb
 4330 03dd 760D0000 		.4byte	.LASF130
 4331 03e1 04       		.byte	0x4
 4332 03e2 0B       		.uleb128 0xb
 4333 03e3 59290000 		.4byte	.LASF131
 4334 03e7 05       		.byte	0x5
 4335 03e8 0B       		.uleb128 0xb
 4336 03e9 933A0000 		.4byte	.LASF132
 4337 03ed 06       		.byte	0x6
 4338 03ee 0B       		.uleb128 0xb
 4339 03ef 3A2D0000 		.4byte	.LASF133
 4340 03f3 07       		.byte	0x7
 4341 03f4 0B       		.uleb128 0xb
 4342 03f5 6C280000 		.4byte	.LASF134
 4343 03f9 08       		.byte	0x8
 4344 03fa 0B       		.uleb128 0xb
 4345 03fb 80240000 		.4byte	.LASF135
 4346 03ff 09       		.byte	0x9
 4347 0400 0B       		.uleb128 0xb
 4348 0401 4C2B0000 		.4byte	.LASF136
 4349 0405 0A       		.byte	0xa
ARM GAS  C:\Users\megan\AppData\Local\Temp\ccmgjhBj.s 			page 106


 4350 0406 0B       		.uleb128 0xb
 4351 0407 90150000 		.4byte	.LASF137
 4352 040b 0B       		.byte	0xb
 4353 040c 0B       		.uleb128 0xb
 4354 040d 9A250000 		.4byte	.LASF138
 4355 0411 0C       		.byte	0xc
 4356 0412 0B       		.uleb128 0xb
 4357 0413 DA0E0000 		.4byte	.LASF139
 4358 0417 0D       		.byte	0xd
 4359 0418 0B       		.uleb128 0xb
 4360 0419 FD130000 		.4byte	.LASF140
 4361 041d 0E       		.byte	0xe
 4362 041e 0B       		.uleb128 0xb
 4363 041f 91410000 		.4byte	.LASF141
 4364 0423 0F       		.byte	0xf
 4365 0424 0B       		.uleb128 0xb
 4366 0425 1C060000 		.4byte	.LASF142
 4367 0429 10       		.byte	0x10
 4368 042a 0B       		.uleb128 0xb
 4369 042b F7050000 		.4byte	.LASF143
 4370 042f 11       		.byte	0x11
 4371 0430 0B       		.uleb128 0xb
 4372 0431 7A070000 		.4byte	.LASF144
 4373 0435 80       		.byte	0x80
 4374 0436 0B       		.uleb128 0xb
 4375 0437 36150000 		.4byte	.LASF145
 4376 043b 80       		.byte	0x80
 4377 043c 0B       		.uleb128 0xb
 4378 043d CA1C0000 		.4byte	.LASF146
 4379 0441 80       		.byte	0x80
 4380 0442 0B       		.uleb128 0xb
 4381 0443 3F3A0000 		.4byte	.LASF147
 4382 0447 80       		.byte	0x80
 4383 0448 0B       		.uleb128 0xb
 4384 0449 EC330000 		.4byte	.LASF148
 4385 044d 80       		.byte	0x80
 4386 044e 0B       		.uleb128 0xb
 4387 044f 412A0000 		.4byte	.LASF149
 4388 0453 80       		.byte	0x80
 4389 0454 0B       		.uleb128 0xb
 4390 0455 1C1E0000 		.4byte	.LASF150
 4391 0459 80       		.byte	0x80
 4392 045a 0B       		.uleb128 0xb
 4393 045b 61320000 		.4byte	.LASF151
 4394 045f 80       		.byte	0x80
 4395 0460 0B       		.uleb128 0xb
 4396 0461 891A0000 		.4byte	.LASF152
 4397 0465 81       		.byte	0x81
 4398 0466 0B       		.uleb128 0xb
 4399 0467 9F360000 		.4byte	.LASF153
 4400 046b 81       		.byte	0x81
 4401 046c 0B       		.uleb128 0xb
 4402 046d 76000000 		.4byte	.LASF154
 4403 0471 81       		.byte	0x81
 4404 0472 0B       		.uleb128 0xb
 4405 0473 FD0C0000 		.4byte	.LASF155
 4406 0477 81       		.byte	0x81
ARM GAS  C:\Users\megan\AppData\Local\Temp\ccmgjhBj.s 			page 107


 4407 0478 0B       		.uleb128 0xb
 4408 0479 2A0A0000 		.4byte	.LASF156
 4409 047d 82       		.byte	0x82
 4410 047e 0B       		.uleb128 0xb
 4411 047f B63D0000 		.4byte	.LASF157
 4412 0483 A0       		.byte	0xa0
 4413 0484 0B       		.uleb128 0xb
 4414 0485 8D200000 		.4byte	.LASF158
 4415 0489 A0       		.byte	0xa0
 4416 048a 0B       		.uleb128 0xb
 4417 048b 840A0000 		.4byte	.LASF159
 4418 048f A1       		.byte	0xa1
 4419 0490 0B       		.uleb128 0xb
 4420 0491 9C3C0000 		.4byte	.LASF160
 4421 0495 A2       		.byte	0xa2
 4422 0496 0B       		.uleb128 0xb
 4423 0497 8D160000 		.4byte	.LASF161
 4424 049b A3       		.byte	0xa3
 4425 049c 0B       		.uleb128 0xb
 4426 049d A91D0000 		.4byte	.LASF162
 4427 04a1 FD       		.byte	0xfd
 4428 04a2 0B       		.uleb128 0xb
 4429 04a3 E8250000 		.4byte	.LASF163
 4430 04a7 FE       		.byte	0xfe
 4431 04a8 0B       		.uleb128 0xb
 4432 04a9 3D2E0000 		.4byte	.LASF164
 4433 04ad FF       		.byte	0xff
 4434 04ae 00       		.byte	0
 4435 04af 04       		.uleb128 0x4
 4436 04b0 863C0000 		.4byte	.LASF165
 4437 04b4 05       		.byte	0x5
 4438 04b5 5F01     		.2byte	0x15f
 4439 04b7 B8030000 		.4byte	0x3b8
 4440 04bb 04       		.uleb128 0x4
 4441 04bc 96320000 		.4byte	.LASF166
 4442 04c0 05       		.byte	0x5
 4443 04c1 8901     		.2byte	0x189
 4444 04c3 77000000 		.4byte	0x77
 4445 04c7 0D       		.uleb128 0xd
 4446 04c8 02       		.byte	0x2
 4447 04c9 05       		.byte	0x5
 4448 04ca 9301     		.2byte	0x193
 4449 04cc EB040000 		.4byte	0x4eb
 4450 04d0 0E       		.uleb128 0xe
 4451 04d1 210A0000 		.4byte	.LASF167
 4452 04d5 05       		.byte	0x5
 4453 04d6 9A01     		.2byte	0x19a
 4454 04d8 6B000000 		.4byte	0x6b
 4455 04dc 00       		.byte	0
 4456 04dd 0E       		.uleb128 0xe
 4457 04de 15430000 		.4byte	.LASF168
 4458 04e2 05       		.byte	0x5
 4459 04e3 A001     		.2byte	0x1a0
 4460 04e5 6B000000 		.4byte	0x6b
 4461 04e9 01       		.byte	0x1
 4462 04ea 00       		.byte	0
 4463 04eb 04       		.uleb128 0x4
ARM GAS  C:\Users\megan\AppData\Local\Temp\ccmgjhBj.s 			page 108


 4464 04ec E9080000 		.4byte	.LASF169
 4465 04f0 05       		.byte	0x5
 4466 04f1 A201     		.2byte	0x1a2
 4467 04f3 C7040000 		.4byte	0x4c7
 4468 04f7 0D       		.uleb128 0xd
 4469 04f8 08       		.byte	0x8
 4470 04f9 05       		.byte	0x5
 4471 04fa BE01     		.2byte	0x1be
 4472 04fc 28050000 		.4byte	0x528
 4473 0500 12       		.uleb128 0x12
 4474 0501 76616C00 		.ascii	"val\000"
 4475 0505 05       		.byte	0x5
 4476 0506 C101     		.2byte	0x1c1
 4477 0508 72030000 		.4byte	0x372
 4478 050c 00       		.byte	0
 4479 050d 12       		.uleb128 0x12
 4480 050e 6C656E00 		.ascii	"len\000"
 4481 0512 05       		.byte	0x5
 4482 0513 C401     		.2byte	0x1c4
 4483 0515 77000000 		.4byte	0x77
 4484 0519 04       		.byte	0x4
 4485 051a 0E       		.uleb128 0xe
 4486 051b 4D420000 		.4byte	.LASF170
 4487 051f 05       		.byte	0x5
 4488 0520 CB01     		.2byte	0x1cb
 4489 0522 77000000 		.4byte	0x77
 4490 0526 06       		.byte	0x6
 4491 0527 00       		.byte	0
 4492 0528 04       		.uleb128 0x4
 4493 0529 FF060000 		.4byte	.LASF171
 4494 052d 05       		.byte	0x5
 4495 052e CD01     		.2byte	0x1cd
 4496 0530 F7040000 		.4byte	0x4f7
 4497 0534 0D       		.uleb128 0xd
 4498 0535 0C       		.byte	0xc
 4499 0536 05       		.byte	0x5
 4500 0537 D001     		.2byte	0x1d0
 4501 0539 58050000 		.4byte	0x558
 4502 053d 0E       		.uleb128 0xe
 4503 053e 08330000 		.4byte	.LASF172
 4504 0542 05       		.byte	0x5
 4505 0543 D301     		.2byte	0x1d3
 4506 0545 28050000 		.4byte	0x528
 4507 0549 00       		.byte	0
 4508 054a 0E       		.uleb128 0xe
 4509 054b A1280000 		.4byte	.LASF173
 4510 054f 05       		.byte	0x5
 4511 0550 D601     		.2byte	0x1d6
 4512 0552 BB040000 		.4byte	0x4bb
 4513 0556 08       		.byte	0x8
 4514 0557 00       		.byte	0
 4515 0558 04       		.uleb128 0x4
 4516 0559 0F0E0000 		.4byte	.LASF174
 4517 055d 05       		.byte	0x5
 4518 055e D801     		.2byte	0x1d8
 4519 0560 34050000 		.4byte	0x534
 4520 0564 0D       		.uleb128 0xd
ARM GAS  C:\Users\megan\AppData\Local\Temp\ccmgjhBj.s 			page 109


 4521 0565 10       		.byte	0x10
 4522 0566 05       		.byte	0x5
 4523 0567 F101     		.2byte	0x1f1
 4524 0569 88050000 		.4byte	0x588
 4525 056d 0E       		.uleb128 0xe
 4526 056e 5D370000 		.4byte	.LASF175
 4527 0572 05       		.byte	0x5
 4528 0573 F401     		.2byte	0x1f4
 4529 0575 58050000 		.4byte	0x558
 4530 0579 00       		.byte	0
 4531 057a 0E       		.uleb128 0xe
 4532 057b 6F2B0000 		.4byte	.LASF176
 4533 057f 05       		.byte	0x5
 4534 0580 F701     		.2byte	0x1f7
 4535 0582 77000000 		.4byte	0x77
 4536 0586 0C       		.byte	0xc
 4537 0587 00       		.byte	0
 4538 0588 04       		.uleb128 0x4
 4539 0589 252B0000 		.4byte	.LASF177
 4540 058d 05       		.byte	0x5
 4541 058e F901     		.2byte	0x1f9
 4542 0590 64050000 		.4byte	0x564
 4543 0594 13       		.uleb128 0x13
 4544 0595 ED000000 		.4byte	.LASF178
 4545 0599 06       		.byte	0x6
 4546 059a 34       		.byte	0x34
 4547 059b 58050000 		.4byte	0x558
 4548 059f 13       		.uleb128 0x13
 4549 05a0 C4190000 		.4byte	.LASF179
 4550 05a4 06       		.byte	0x6
 4551 05a5 37       		.byte	0x37
 4552 05a6 58050000 		.4byte	0x558
 4553 05aa 14       		.uleb128 0x14
 4554 05ab 0C       		.byte	0xc
 4555 05ac 06       		.byte	0x6
 4556 05ad 4E       		.byte	0x4e
 4557 05ae E3050000 		.4byte	0x5e3
 4558 05b2 15       		.uleb128 0x15
 4559 05b3 DE340000 		.4byte	.LASF180
 4560 05b7 06       		.byte	0x6
 4561 05b8 51       		.byte	0x51
 4562 05b9 EB040000 		.4byte	0x4eb
 4563 05bd 00       		.byte	0
 4564 05be 15       		.uleb128 0x15
 4565 05bf 01230000 		.4byte	.LASF181
 4566 05c3 06       		.byte	0x6
 4567 05c4 5C       		.byte	0x5c
 4568 05c5 E3050000 		.4byte	0x5e3
 4569 05c9 04       		.byte	0x4
 4570 05ca 15       		.uleb128 0x15
 4571 05cb 793E0000 		.4byte	.LASF182
 4572 05cf 06       		.byte	0x6
 4573 05d0 61       		.byte	0x61
 4574 05d1 6B000000 		.4byte	0x6b
 4575 05d5 08       		.byte	0x8
 4576 05d6 15       		.uleb128 0x15
 4577 05d7 B6220000 		.4byte	.LASF183
ARM GAS  C:\Users\megan\AppData\Local\Temp\ccmgjhBj.s 			page 110


 4578 05db 06       		.byte	0x6
 4579 05dc 64       		.byte	0x64
 4580 05dd 6B000000 		.4byte	0x6b
 4581 05e1 09       		.byte	0x9
 4582 05e2 00       		.byte	0
 4583 05e3 07       		.uleb128 0x7
 4584 05e4 04       		.byte	0x4
 4585 05e5 88050000 		.4byte	0x588
 4586 05e9 13       		.uleb128 0x13
 4587 05ea CC020000 		.4byte	.LASF184
 4588 05ee 06       		.byte	0x6
 4589 05ef 66       		.byte	0x66
 4590 05f0 AA050000 		.4byte	0x5aa
 4591 05f4 14       		.uleb128 0x14
 4592 05f5 10       		.byte	0x10
 4593 05f6 06       		.byte	0x6
 4594 05f7 69       		.byte	0x69
 4595 05f8 45060000 		.4byte	0x645
 4596 05fc 15       		.uleb128 0x15
 4597 05fd DE340000 		.4byte	.LASF180
 4598 0601 06       		.byte	0x6
 4599 0602 6C       		.byte	0x6c
 4600 0603 EB040000 		.4byte	0x4eb
 4601 0607 00       		.byte	0
 4602 0608 15       		.uleb128 0x15
 4603 0609 01230000 		.4byte	.LASF181
 4604 060d 06       		.byte	0x6
 4605 060e 77       		.byte	0x77
 4606 060f E3050000 		.4byte	0x5e3
 4607 0613 04       		.byte	0x4
 4608 0614 15       		.uleb128 0x15
 4609 0615 36180000 		.4byte	.LASF185
 4610 0619 06       		.byte	0x6
 4611 061a 7C       		.byte	0x7c
 4612 061b 6B000000 		.4byte	0x6b
 4613 061f 08       		.byte	0x8
 4614 0620 15       		.uleb128 0x15
 4615 0621 500A0000 		.4byte	.LASF186
 4616 0625 06       		.byte	0x6
 4617 0626 7F       		.byte	0x7f
 4618 0627 6B000000 		.4byte	0x6b
 4619 062b 09       		.byte	0x9
 4620 062c 15       		.uleb128 0x15
 4621 062d A1280000 		.4byte	.LASF173
 4622 0631 06       		.byte	0x6
 4623 0632 82       		.byte	0x82
 4624 0633 BB040000 		.4byte	0x4bb
 4625 0637 0A       		.byte	0xa
 4626 0638 15       		.uleb128 0x15
 4627 0639 B6220000 		.4byte	.LASF183
 4628 063d 06       		.byte	0x6
 4629 063e 85       		.byte	0x85
 4630 063f 6B000000 		.4byte	0x6b
 4631 0643 0C       		.byte	0xc
 4632 0644 00       		.byte	0
 4633 0645 13       		.uleb128 0x13
 4634 0646 F6340000 		.4byte	.LASF187
ARM GAS  C:\Users\megan\AppData\Local\Temp\ccmgjhBj.s 			page 111


 4635 064a 06       		.byte	0x6
 4636 064b 87       		.byte	0x87
 4637 064c F4050000 		.4byte	0x5f4
 4638 0650 14       		.uleb128 0x14
 4639 0651 10       		.byte	0x10
 4640 0652 06       		.byte	0x6
 4641 0653 8A       		.byte	0x8a
 4642 0654 71060000 		.4byte	0x671
 4643 0658 15       		.uleb128 0x15
 4644 0659 DE340000 		.4byte	.LASF180
 4645 065d 06       		.byte	0x6
 4646 065e 8D       		.byte	0x8d
 4647 065f EB040000 		.4byte	0x4eb
 4648 0663 00       		.byte	0
 4649 0664 15       		.uleb128 0x15
 4650 0665 B6390000 		.4byte	.LASF188
 4651 0669 06       		.byte	0x6
 4652 066a 90       		.byte	0x90
 4653 066b 58050000 		.4byte	0x558
 4654 066f 04       		.byte	0x4
 4655 0670 00       		.byte	0
 4656 0671 13       		.uleb128 0x13
 4657 0672 EC280000 		.4byte	.LASF189
 4658 0676 06       		.byte	0x6
 4659 0677 92       		.byte	0x92
 4660 0678 50060000 		.4byte	0x650
 4661 067c 14       		.uleb128 0x14
 4662 067d 08       		.byte	0x8
 4663 067e 07       		.byte	0x7
 4664 067f C8       		.byte	0xc8
 4665 0680 9D060000 		.4byte	0x69d
 4666 0684 15       		.uleb128 0x15
 4667 0685 E9340000 		.4byte	.LASF190
 4668 0689 07       		.byte	0x7
 4669 068a CB       		.byte	0xcb
 4670 068b 77000000 		.4byte	0x77
 4671 068f 00       		.byte	0
 4672 0690 15       		.uleb128 0x15
 4673 0691 FE380000 		.4byte	.LASF191
 4674 0695 07       		.byte	0x7
 4675 0696 D0       		.byte	0xd0
 4676 0697 B7000000 		.4byte	0xb7
 4677 069b 04       		.byte	0x4
 4678 069c 00       		.byte	0
 4679 069d 13       		.uleb128 0x13
 4680 069e E22D0000 		.4byte	.LASF192
 4681 06a2 07       		.byte	0x7
 4682 06a3 D2       		.byte	0xd2
 4683 06a4 7C060000 		.4byte	0x67c
 4684 06a8 14       		.uleb128 0x14
 4685 06a9 08       		.byte	0x8
 4686 06aa 07       		.byte	0x7
 4687 06ab D5       		.byte	0xd5
 4688 06ac C9060000 		.4byte	0x6c9
 4689 06b0 15       		.uleb128 0x15
 4690 06b1 F0120000 		.4byte	.LASF193
 4691 06b5 07       		.byte	0x7
ARM GAS  C:\Users\megan\AppData\Local\Temp\ccmgjhBj.s 			page 112


 4692 06b6 D8       		.byte	0xd8
 4693 06b7 77000000 		.4byte	0x77
 4694 06bb 00       		.byte	0
 4695 06bc 15       		.uleb128 0x15
 4696 06bd DE390000 		.4byte	.LASF194
 4697 06c1 07       		.byte	0x7
 4698 06c2 DD       		.byte	0xdd
 4699 06c3 C9060000 		.4byte	0x6c9
 4700 06c7 04       		.byte	0x4
 4701 06c8 00       		.byte	0
 4702 06c9 07       		.uleb128 0x7
 4703 06ca 04       		.byte	0x4
 4704 06cb 9D060000 		.4byte	0x69d
 4705 06cf 13       		.uleb128 0x13
 4706 06d0 36380000 		.4byte	.LASF195
 4707 06d4 07       		.byte	0x7
 4708 06d5 DF       		.byte	0xdf
 4709 06d6 A8060000 		.4byte	0x6a8
 4710 06da 16       		.uleb128 0x16
 4711 06db 08       		.byte	0x8
 4712 06dc 07       		.byte	0x7
 4713 06dd E2       		.byte	0xe2
 4714 06de F9060000 		.4byte	0x6f9
 4715 06e2 17       		.uleb128 0x17
 4716 06e3 EF390000 		.4byte	.LASF196
 4717 06e7 07       		.byte	0x7
 4718 06e8 E9       		.byte	0xe9
 4719 06e9 CF060000 		.4byte	0x6cf
 4720 06ed 17       		.uleb128 0x17
 4721 06ee 80200000 		.4byte	.LASF197
 4722 06f2 07       		.byte	0x7
 4723 06f3 EC       		.byte	0xec
 4724 06f4 77000000 		.4byte	0x77
 4725 06f8 00       		.byte	0
 4726 06f9 13       		.uleb128 0x13
 4727 06fa 01380000 		.4byte	.LASF198
 4728 06fe 07       		.byte	0x7
 4729 06ff EE       		.byte	0xee
 4730 0700 DA060000 		.4byte	0x6da
 4731 0704 14       		.uleb128 0x14
 4732 0705 14       		.byte	0x14
 4733 0706 07       		.byte	0x7
 4734 0707 F1       		.byte	0xf1
 4735 0708 4C070000 		.4byte	0x74c
 4736 070c 15       		.uleb128 0x15
 4737 070d 96110000 		.4byte	.LASF199
 4738 0711 07       		.byte	0x7
 4739 0712 F4       		.byte	0xf4
 4740 0713 77000000 		.4byte	0x77
 4741 0717 00       		.byte	0
 4742 0718 15       		.uleb128 0x15
 4743 0719 2E0E0000 		.4byte	.LASF200
 4744 071d 07       		.byte	0x7
 4745 071e FA       		.byte	0xfa
 4746 071f 77000000 		.4byte	0x77
 4747 0723 02       		.byte	0x2
 4748 0724 0E       		.uleb128 0xe
ARM GAS  C:\Users\megan\AppData\Local\Temp\ccmgjhBj.s 			page 113


 4749 0725 35070000 		.4byte	.LASF201
 4750 0729 07       		.byte	0x7
 4751 072a 0501     		.2byte	0x105
 4752 072c 83000000 		.4byte	0x83
 4753 0730 04       		.byte	0x4
 4754 0731 0E       		.uleb128 0xe
 4755 0732 4C290000 		.4byte	.LASF202
 4756 0736 07       		.byte	0x7
 4757 0737 0801     		.2byte	0x108
 4758 0739 77000000 		.4byte	0x77
 4759 073d 08       		.byte	0x8
 4760 073e 0E       		.uleb128 0xe
 4761 073f 5A330000 		.4byte	.LASF203
 4762 0743 07       		.byte	0x7
 4763 0744 1101     		.2byte	0x111
 4764 0746 F9060000 		.4byte	0x6f9
 4765 074a 0C       		.byte	0xc
 4766 074b 00       		.byte	0
 4767 074c 04       		.uleb128 0x4
 4768 074d DD160000 		.4byte	.LASF204
 4769 0751 07       		.byte	0x7
 4770 0752 1201     		.2byte	0x112
 4771 0754 04070000 		.4byte	0x704
 4772 0758 04       		.uleb128 0x4
 4773 0759 0F080000 		.4byte	.LASF205
 4774 075d 08       		.byte	0x8
 4775 075e 0302     		.2byte	0x203
 4776 0760 B9000000 		.4byte	0xb9
 4777 0764 11       		.uleb128 0x11
 4778 0765 01       		.byte	0x1
 4779 0766 2C000000 		.4byte	0x2c
 4780 076a 09       		.byte	0x9
 4781 076b 2F       		.byte	0x2f
 4782 076c F5070000 		.4byte	0x7f5
 4783 0770 0B       		.uleb128 0xb
 4784 0771 DA180000 		.4byte	.LASF206
 4785 0775 00       		.byte	0
 4786 0776 0B       		.uleb128 0xb
 4787 0777 60210000 		.4byte	.LASF207
 4788 077b 01       		.byte	0x1
 4789 077c 0B       		.uleb128 0xb
 4790 077d 4A440000 		.4byte	.LASF208
 4791 0781 02       		.byte	0x2
 4792 0782 0B       		.uleb128 0xb
 4793 0783 B8020000 		.4byte	.LASF209
 4794 0787 03       		.byte	0x3
 4795 0788 0B       		.uleb128 0xb
 4796 0789 910D0000 		.4byte	.LASF210
 4797 078d 04       		.byte	0x4
 4798 078e 0B       		.uleb128 0xb
 4799 078f F30B0000 		.4byte	.LASF211
 4800 0793 05       		.byte	0x5
 4801 0794 0B       		.uleb128 0xb
 4802 0795 53160000 		.4byte	.LASF212
 4803 0799 06       		.byte	0x6
 4804 079a 0B       		.uleb128 0xb
 4805 079b 80350000 		.4byte	.LASF213
ARM GAS  C:\Users\megan\AppData\Local\Temp\ccmgjhBj.s 			page 114


 4806 079f 07       		.byte	0x7
 4807 07a0 0B       		.uleb128 0xb
 4808 07a1 301A0000 		.4byte	.LASF214
 4809 07a5 08       		.byte	0x8
 4810 07a6 0B       		.uleb128 0xb
 4811 07a7 E82C0000 		.4byte	.LASF215
 4812 07ab 09       		.byte	0x9
 4813 07ac 0B       		.uleb128 0xb
 4814 07ad B41A0000 		.4byte	.LASF216
 4815 07b1 0A       		.byte	0xa
 4816 07b2 0B       		.uleb128 0xb
 4817 07b3 06240000 		.4byte	.LASF217
 4818 07b7 0B       		.byte	0xb
 4819 07b8 0B       		.uleb128 0xb
 4820 07b9 CB0A0000 		.4byte	.LASF218
 4821 07bd 0C       		.byte	0xc
 4822 07be 0B       		.uleb128 0xb
 4823 07bf 321F0000 		.4byte	.LASF219
 4824 07c3 0D       		.byte	0xd
 4825 07c4 0B       		.uleb128 0xb
 4826 07c5 D6150000 		.4byte	.LASF220
 4827 07c9 0E       		.byte	0xe
 4828 07ca 0B       		.uleb128 0xb
 4829 07cb 12450000 		.4byte	.LASF221
 4830 07cf 0F       		.byte	0xf
 4831 07d0 0B       		.uleb128 0xb
 4832 07d1 20080000 		.4byte	.LASF222
 4833 07d5 10       		.byte	0x10
 4834 07d6 0B       		.uleb128 0xb
 4835 07d7 910E0000 		.4byte	.LASF223
 4836 07db 11       		.byte	0x11
 4837 07dc 0B       		.uleb128 0xb
 4838 07dd F7190000 		.4byte	.LASF224
 4839 07e1 12       		.byte	0x12
 4840 07e2 0B       		.uleb128 0xb
 4841 07e3 4B0F0000 		.4byte	.LASF225
 4842 07e7 13       		.byte	0x13
 4843 07e8 0B       		.uleb128 0xb
 4844 07e9 34110000 		.4byte	.LASF226
 4845 07ed 14       		.byte	0x14
 4846 07ee 0B       		.uleb128 0xb
 4847 07ef 7E340000 		.4byte	.LASF227
 4848 07f3 15       		.byte	0x15
 4849 07f4 00       		.byte	0
 4850 07f5 13       		.uleb128 0x13
 4851 07f6 69310000 		.4byte	.LASF228
 4852 07fa 09       		.byte	0x9
 4853 07fb 46       		.byte	0x46
 4854 07fc 64070000 		.4byte	0x764
 4855 0800 11       		.uleb128 0x11
 4856 0801 01       		.byte	0x1
 4857 0802 2C000000 		.4byte	0x2c
 4858 0806 09       		.byte	0x9
 4859 0807 4A       		.byte	0x4a
 4860 0808 49080000 		.4byte	0x849
 4861 080c 0B       		.uleb128 0xb
 4862 080d F53A0000 		.4byte	.LASF229
ARM GAS  C:\Users\megan\AppData\Local\Temp\ccmgjhBj.s 			page 115


 4863 0811 00       		.byte	0
 4864 0812 0B       		.uleb128 0xb
 4865 0813 3A3F0000 		.4byte	.LASF230
 4866 0817 01       		.byte	0x1
 4867 0818 0B       		.uleb128 0xb
 4868 0819 86120000 		.4byte	.LASF231
 4869 081d 02       		.byte	0x2
 4870 081e 0B       		.uleb128 0xb
 4871 081f 582D0000 		.4byte	.LASF232
 4872 0823 03       		.byte	0x3
 4873 0824 0B       		.uleb128 0xb
 4874 0825 55380000 		.4byte	.LASF233
 4875 0829 04       		.byte	0x4
 4876 082a 0B       		.uleb128 0xb
 4877 082b BD2D0000 		.4byte	.LASF234
 4878 082f 05       		.byte	0x5
 4879 0830 0B       		.uleb128 0xb
 4880 0831 FB420000 		.4byte	.LASF235
 4881 0835 06       		.byte	0x6
 4882 0836 0B       		.uleb128 0xb
 4883 0837 5E0A0000 		.4byte	.LASF236
 4884 083b 07       		.byte	0x7
 4885 083c 0B       		.uleb128 0xb
 4886 083d ED420000 		.4byte	.LASF237
 4887 0841 08       		.byte	0x8
 4888 0842 0B       		.uleb128 0xb
 4889 0843 36290000 		.4byte	.LASF238
 4890 0847 09       		.byte	0x9
 4891 0848 00       		.byte	0
 4892 0849 13       		.uleb128 0x13
 4893 084a 6A1C0000 		.4byte	.LASF239
 4894 084e 09       		.byte	0x9
 4895 084f 55       		.byte	0x55
 4896 0850 00080000 		.4byte	0x800
 4897 0854 14       		.uleb128 0x14
 4898 0855 14       		.byte	0x14
 4899 0856 09       		.byte	0x9
 4900 0857 5A       		.byte	0x5a
 4901 0858 75080000 		.4byte	0x875
 4902 085c 15       		.uleb128 0x15
 4903 085d 0C390000 		.4byte	.LASF240
 4904 0861 09       		.byte	0x9
 4905 0862 5D       		.byte	0x5d
 4906 0863 BB040000 		.4byte	0x4bb
 4907 0867 00       		.byte	0
 4908 0868 15       		.uleb128 0x15
 4909 0869 150A0000 		.4byte	.LASF241
 4910 086d 09       		.byte	0x9
 4911 086e 60       		.byte	0x60
 4912 086f 75080000 		.4byte	0x875
 4913 0873 02       		.byte	0x2
 4914 0874 00       		.byte	0
 4915 0875 0F       		.uleb128 0xf
 4916 0876 BB040000 		.4byte	0x4bb
 4917 087a 85080000 		.4byte	0x885
 4918 087e 10       		.uleb128 0x10
 4919 087f B0000000 		.4byte	0xb0
ARM GAS  C:\Users\megan\AppData\Local\Temp\ccmgjhBj.s 			page 116


 4920 0883 08       		.byte	0x8
 4921 0884 00       		.byte	0
 4922 0885 13       		.uleb128 0x13
 4923 0886 FE120000 		.4byte	.LASF242
 4924 088a 09       		.byte	0x9
 4925 088b 61       		.byte	0x61
 4926 088c 54080000 		.4byte	0x854
 4927 0890 14       		.uleb128 0x14
 4928 0891 04       		.byte	0x4
 4929 0892 09       		.byte	0x9
 4930 0893 64       		.byte	0x64
 4931 0894 A5080000 		.4byte	0x8a5
 4932 0898 15       		.uleb128 0x15
 4933 0899 4E330000 		.4byte	.LASF243
 4934 089d 09       		.byte	0x9
 4935 089e 69       		.byte	0x69
 4936 089f A5080000 		.4byte	0x8a5
 4937 08a3 00       		.byte	0
 4938 08a4 00       		.byte	0
 4939 08a5 07       		.uleb128 0x7
 4940 08a6 04       		.byte	0x4
 4941 08a7 85080000 		.4byte	0x885
 4942 08ab 13       		.uleb128 0x13
 4943 08ac A2380000 		.4byte	.LASF244
 4944 08b0 09       		.byte	0x9
 4945 08b1 6A       		.byte	0x6a
 4946 08b2 90080000 		.4byte	0x890
 4947 08b6 14       		.uleb128 0x14
 4948 08b7 58       		.byte	0x58
 4949 08b8 09       		.byte	0x9
 4950 08b9 6D       		.byte	0x6d
 4951 08ba D7080000 		.4byte	0x8d7
 4952 08be 15       		.uleb128 0x15
 4953 08bf 440D0000 		.4byte	.LASF245
 4954 08c3 09       		.byte	0x9
 4955 08c4 70       		.byte	0x70
 4956 08c5 BB040000 		.4byte	0x4bb
 4957 08c9 00       		.byte	0
 4958 08ca 15       		.uleb128 0x15
 4959 08cb 29150000 		.4byte	.LASF246
 4960 08cf 09       		.byte	0x9
 4961 08d0 75       		.byte	0x75
 4962 08d1 D7080000 		.4byte	0x8d7
 4963 08d5 04       		.byte	0x4
 4964 08d6 00       		.byte	0
 4965 08d7 0F       		.uleb128 0xf
 4966 08d8 AB080000 		.4byte	0x8ab
 4967 08dc E7080000 		.4byte	0x8e7
 4968 08e0 10       		.uleb128 0x10
 4969 08e1 B0000000 		.4byte	0xb0
 4970 08e5 14       		.byte	0x14
 4971 08e6 00       		.byte	0
 4972 08e7 13       		.uleb128 0x13
 4973 08e8 25400000 		.4byte	.LASF247
 4974 08ec 09       		.byte	0x9
 4975 08ed 76       		.byte	0x76
 4976 08ee B6080000 		.4byte	0x8b6
ARM GAS  C:\Users\megan\AppData\Local\Temp\ccmgjhBj.s 			page 117


 4977 08f2 14       		.uleb128 0x14
 4978 08f3 08       		.byte	0x8
 4979 08f4 09       		.byte	0x9
 4980 08f5 9F       		.byte	0x9f
 4981 08f6 2B090000 		.4byte	0x92b
 4982 08fa 15       		.uleb128 0x15
 4983 08fb DE340000 		.4byte	.LASF180
 4984 08ff 09       		.byte	0x9
 4985 0900 A1       		.byte	0xa1
 4986 0901 EB040000 		.4byte	0x4eb
 4987 0905 00       		.byte	0
 4988 0906 15       		.uleb128 0x15
 4989 0907 A7010000 		.4byte	.LASF248
 4990 090b 09       		.byte	0x9
 4991 090c A2       		.byte	0xa2
 4992 090d F5070000 		.4byte	0x7f5
 4993 0911 02       		.byte	0x2
 4994 0912 15       		.uleb128 0x15
 4995 0913 D2130000 		.4byte	.LASF249
 4996 0917 09       		.byte	0x9
 4997 0918 A3       		.byte	0xa3
 4998 0919 6B000000 		.4byte	0x6b
 4999 091d 03       		.byte	0x3
 5000 091e 15       		.uleb128 0x15
 5001 091f 08330000 		.4byte	.LASF172
 5002 0923 09       		.byte	0x9
 5003 0924 A4       		.byte	0xa4
 5004 0925 2B090000 		.4byte	0x92b
 5005 0929 04       		.byte	0x4
 5006 092a 00       		.byte	0
 5007 092b 07       		.uleb128 0x7
 5008 092c 04       		.byte	0x4
 5009 092d 28050000 		.4byte	0x528
 5010 0931 13       		.uleb128 0x13
 5011 0932 01040000 		.4byte	.LASF250
 5012 0936 09       		.byte	0x9
 5013 0937 A5       		.byte	0xa5
 5014 0938 F2080000 		.4byte	0x8f2
 5015 093c 14       		.uleb128 0x14
 5016 093d 0C       		.byte	0xc
 5017 093e 09       		.byte	0x9
 5018 093f A8       		.byte	0xa8
 5019 0940 8D090000 		.4byte	0x98d
 5020 0944 15       		.uleb128 0x15
 5021 0945 DE340000 		.4byte	.LASF180
 5022 0949 09       		.byte	0x9
 5023 094a AA       		.byte	0xaa
 5024 094b EB040000 		.4byte	0x4eb
 5025 094f 00       		.byte	0
 5026 0950 15       		.uleb128 0x15
 5027 0951 A7010000 		.4byte	.LASF248
 5028 0955 09       		.byte	0x9
 5029 0956 AB       		.byte	0xab
 5030 0957 F5070000 		.4byte	0x7f5
 5031 095b 02       		.byte	0x2
 5032 095c 15       		.uleb128 0x15
 5033 095d D2130000 		.4byte	.LASF249
ARM GAS  C:\Users\megan\AppData\Local\Temp\ccmgjhBj.s 			page 118


 5034 0961 09       		.byte	0x9
 5035 0962 AC       		.byte	0xac
 5036 0963 6B000000 		.4byte	0x6b
 5037 0967 03       		.byte	0x3
 5038 0968 15       		.uleb128 0x15
 5039 0969 96280000 		.4byte	.LASF251
 5040 096d 09       		.byte	0x9
 5041 096e AD       		.byte	0xad
 5042 096f 49080000 		.4byte	0x849
 5043 0973 04       		.byte	0x4
 5044 0974 15       		.uleb128 0x15
 5045 0975 B6220000 		.4byte	.LASF183
 5046 0979 09       		.byte	0x9
 5047 097a AE       		.byte	0xae
 5048 097b AF040000 		.4byte	0x4af
 5049 097f 05       		.byte	0x5
 5050 0980 15       		.uleb128 0x15
 5051 0981 08330000 		.4byte	.LASF172
 5052 0985 09       		.byte	0x9
 5053 0986 AF       		.byte	0xaf
 5054 0987 2B090000 		.4byte	0x92b
 5055 098b 08       		.byte	0x8
 5056 098c 00       		.byte	0
 5057 098d 13       		.uleb128 0x13
 5058 098e 50080000 		.4byte	.LASF252
 5059 0992 09       		.byte	0x9
 5060 0993 B0       		.byte	0xb0
 5061 0994 3C090000 		.4byte	0x93c
 5062 0998 11       		.uleb128 0x11
 5063 0999 02       		.byte	0x2
 5064 099a 3A000000 		.4byte	0x3a
 5065 099e 0A       		.byte	0xa
 5066 099f B1       		.byte	0xb1
 5067 09a0 A1110000 		.4byte	0x11a1
 5068 09a4 0C       		.uleb128 0xc
 5069 09a5 B82A0000 		.4byte	.LASF253
 5070 09a9 0001     		.2byte	0x100
 5071 09ab 0C       		.uleb128 0xc
 5072 09ac BF430000 		.4byte	.LASF254
 5073 09b0 0101     		.2byte	0x101
 5074 09b2 0C       		.uleb128 0xc
 5075 09b3 510C0000 		.4byte	.LASF255
 5076 09b7 0201     		.2byte	0x102
 5077 09b9 0C       		.uleb128 0xc
 5078 09ba 75430000 		.4byte	.LASF256
 5079 09be 0301     		.2byte	0x103
 5080 09c0 0C       		.uleb128 0xc
 5081 09c1 B2310000 		.4byte	.LASF257
 5082 09c5 0401     		.2byte	0x104
 5083 09c7 0C       		.uleb128 0xc
 5084 09c8 3B3E0000 		.4byte	.LASF258
 5085 09cc 0501     		.2byte	0x105
 5086 09ce 0C       		.uleb128 0xc
 5087 09cf A0110000 		.4byte	.LASF259
 5088 09d3 0601     		.2byte	0x106
 5089 09d5 0C       		.uleb128 0xc
 5090 09d6 473B0000 		.4byte	.LASF260
ARM GAS  C:\Users\megan\AppData\Local\Temp\ccmgjhBj.s 			page 119


 5091 09da 0701     		.2byte	0x107
 5092 09dc 0C       		.uleb128 0xc
 5093 09dd 35410000 		.4byte	.LASF261
 5094 09e1 0801     		.2byte	0x108
 5095 09e3 0C       		.uleb128 0xc
 5096 09e4 92060000 		.4byte	.LASF262
 5097 09e8 0901     		.2byte	0x109
 5098 09ea 0C       		.uleb128 0xc
 5099 09eb 18040000 		.4byte	.LASF263
 5100 09ef 0A01     		.2byte	0x10a
 5101 09f1 0C       		.uleb128 0xc
 5102 09f2 27340000 		.4byte	.LASF264
 5103 09f6 0B01     		.2byte	0x10b
 5104 09f8 0C       		.uleb128 0xc
 5105 09f9 3B240000 		.4byte	.LASF265
 5106 09fd 0C01     		.2byte	0x10c
 5107 09ff 0C       		.uleb128 0xc
 5108 0a00 1C300000 		.4byte	.LASF266
 5109 0a04 0D01     		.2byte	0x10d
 5110 0a06 0C       		.uleb128 0xc
 5111 0a07 E7040000 		.4byte	.LASF267
 5112 0a0b 0E01     		.2byte	0x10e
 5113 0a0d 0C       		.uleb128 0xc
 5114 0a0e 2C130000 		.4byte	.LASF268
 5115 0a12 0F01     		.2byte	0x10f
 5116 0a14 0C       		.uleb128 0xc
 5117 0a15 C1080000 		.4byte	.LASF269
 5118 0a19 1001     		.2byte	0x110
 5119 0a1b 0C       		.uleb128 0xc
 5120 0a1c 173F0000 		.4byte	.LASF270
 5121 0a20 1101     		.2byte	0x111
 5122 0a22 0C       		.uleb128 0xc
 5123 0a23 B50E0000 		.4byte	.LASF271
 5124 0a27 1201     		.2byte	0x112
 5125 0a29 0C       		.uleb128 0xc
 5126 0a2a 98460000 		.4byte	.LASF272
 5127 0a2e 1301     		.2byte	0x113
 5128 0a30 0C       		.uleb128 0xc
 5129 0a31 B2320000 		.4byte	.LASF273
 5130 0a35 1401     		.2byte	0x114
 5131 0a37 0C       		.uleb128 0xc
 5132 0a38 EB0D0000 		.4byte	.LASF274
 5133 0a3c 1501     		.2byte	0x115
 5134 0a3e 0C       		.uleb128 0xc
 5135 0a3f A5300000 		.4byte	.LASF275
 5136 0a43 1601     		.2byte	0x116
 5137 0a45 0C       		.uleb128 0xc
 5138 0a46 0C340000 		.4byte	.LASF276
 5139 0a4a 1701     		.2byte	0x117
 5140 0a4c 0C       		.uleb128 0xc
 5141 0a4d 363D0000 		.4byte	.LASF277
 5142 0a51 1801     		.2byte	0x118
 5143 0a53 0C       		.uleb128 0xc
 5144 0a54 F7010000 		.4byte	.LASF278
 5145 0a58 1901     		.2byte	0x119
 5146 0a5a 0C       		.uleb128 0xc
 5147 0a5b B7130000 		.4byte	.LASF279
ARM GAS  C:\Users\megan\AppData\Local\Temp\ccmgjhBj.s 			page 120


 5148 0a5f 1A01     		.2byte	0x11a
 5149 0a61 0C       		.uleb128 0xc
 5150 0a62 152F0000 		.4byte	.LASF280
 5151 0a66 1B01     		.2byte	0x11b
 5152 0a68 0C       		.uleb128 0xc
 5153 0a69 FE390000 		.4byte	.LASF281
 5154 0a6d 1C01     		.2byte	0x11c
 5155 0a6f 0C       		.uleb128 0xc
 5156 0a70 821C0000 		.4byte	.LASF282
 5157 0a74 1D01     		.2byte	0x11d
 5158 0a76 0C       		.uleb128 0xc
 5159 0a77 6F2A0000 		.4byte	.LASF283
 5160 0a7b 1E01     		.2byte	0x11e
 5161 0a7d 0C       		.uleb128 0xc
 5162 0a7e 98130000 		.4byte	.LASF284
 5163 0a82 1F01     		.2byte	0x11f
 5164 0a84 0C       		.uleb128 0xc
 5165 0a85 61120000 		.4byte	.LASF285
 5166 0a89 2001     		.2byte	0x120
 5167 0a8b 0C       		.uleb128 0xc
 5168 0a8c B8340000 		.4byte	.LASF286
 5169 0a90 2101     		.2byte	0x121
 5170 0a92 0C       		.uleb128 0xc
 5171 0a93 96420000 		.4byte	.LASF287
 5172 0a97 2201     		.2byte	0x122
 5173 0a99 0C       		.uleb128 0xc
 5174 0a9a E1380000 		.4byte	.LASF288
 5175 0a9e 2301     		.2byte	0x123
 5176 0aa0 0C       		.uleb128 0xc
 5177 0aa1 50450000 		.4byte	.LASF289
 5178 0aa5 2401     		.2byte	0x124
 5179 0aa7 0C       		.uleb128 0xc
 5180 0aa8 17280000 		.4byte	.LASF290
 5181 0aac 2501     		.2byte	0x125
 5182 0aae 0C       		.uleb128 0xc
 5183 0aaf ED170000 		.4byte	.LASF291
 5184 0ab3 2601     		.2byte	0x126
 5185 0ab5 0C       		.uleb128 0xc
 5186 0ab6 043B0000 		.4byte	.LASF292
 5187 0aba 2701     		.2byte	0x127
 5188 0abc 0C       		.uleb128 0xc
 5189 0abd 0C2C0000 		.4byte	.LASF293
 5190 0ac1 2801     		.2byte	0x128
 5191 0ac3 0C       		.uleb128 0xc
 5192 0ac4 E2450000 		.4byte	.LASF294
 5193 0ac8 2901     		.2byte	0x129
 5194 0aca 0C       		.uleb128 0xc
 5195 0acb 8F3B0000 		.4byte	.LASF295
 5196 0acf 2A01     		.2byte	0x12a
 5197 0ad1 0C       		.uleb128 0xc
 5198 0ad2 68440000 		.4byte	.LASF296
 5199 0ad6 2B01     		.2byte	0x12b
 5200 0ad8 0C       		.uleb128 0xc
 5201 0ad9 1B200000 		.4byte	.LASF297
 5202 0add 2C01     		.2byte	0x12c
 5203 0adf 0C       		.uleb128 0xc
 5204 0ae0 B8410000 		.4byte	.LASF298
ARM GAS  C:\Users\megan\AppData\Local\Temp\ccmgjhBj.s 			page 121


 5205 0ae4 2D01     		.2byte	0x12d
 5206 0ae6 0C       		.uleb128 0xc
 5207 0ae7 B2050000 		.4byte	.LASF299
 5208 0aeb 2E01     		.2byte	0x12e
 5209 0aed 0C       		.uleb128 0xc
 5210 0aee 23310000 		.4byte	.LASF300
 5211 0af2 2F01     		.2byte	0x12f
 5212 0af4 0C       		.uleb128 0xc
 5213 0af5 B1200000 		.4byte	.LASF301
 5214 0af9 3001     		.2byte	0x130
 5215 0afb 0C       		.uleb128 0xc
 5216 0afc 14420000 		.4byte	.LASF302
 5217 0b00 3101     		.2byte	0x131
 5218 0b02 0C       		.uleb128 0xc
 5219 0b03 B22F0000 		.4byte	.LASF303
 5220 0b07 3201     		.2byte	0x132
 5221 0b09 0C       		.uleb128 0xc
 5222 0b0a 783D0000 		.4byte	.LASF304
 5223 0b0e 3301     		.2byte	0x133
 5224 0b10 0C       		.uleb128 0xc
 5225 0b11 B50F0000 		.4byte	.LASF305
 5226 0b15 3401     		.2byte	0x134
 5227 0b17 0C       		.uleb128 0xc
 5228 0b18 233B0000 		.4byte	.LASF306
 5229 0b1c 3501     		.2byte	0x135
 5230 0b1e 0C       		.uleb128 0xc
 5231 0b1f 671A0000 		.4byte	.LASF307
 5232 0b23 3601     		.2byte	0x136
 5233 0b25 0C       		.uleb128 0xc
 5234 0b26 A90C0000 		.4byte	.LASF308
 5235 0b2a 3701     		.2byte	0x137
 5236 0b2c 0C       		.uleb128 0xc
 5237 0b2d 64040000 		.4byte	.LASF309
 5238 0b31 3801     		.2byte	0x138
 5239 0b33 0C       		.uleb128 0xc
 5240 0b34 88040000 		.4byte	.LASF310
 5241 0b38 3901     		.2byte	0x139
 5242 0b3a 0C       		.uleb128 0xc
 5243 0b3b CB000000 		.4byte	.LASF311
 5244 0b3f 3A01     		.2byte	0x13a
 5245 0b41 0C       		.uleb128 0xc
 5246 0b42 6E0F0000 		.4byte	.LASF312
 5247 0b46 3B01     		.2byte	0x13b
 5248 0b48 0C       		.uleb128 0xc
 5249 0b49 E1430000 		.4byte	.LASF313
 5250 0b4d 3C01     		.2byte	0x13c
 5251 0b4f 0C       		.uleb128 0xc
 5252 0b50 D1070000 		.4byte	.LASF314
 5253 0b54 3D01     		.2byte	0x13d
 5254 0b56 0C       		.uleb128 0xc
 5255 0b57 CC290000 		.4byte	.LASF315
 5256 0b5b 3E01     		.2byte	0x13e
 5257 0b5d 0C       		.uleb128 0xc
 5258 0b5e 58020000 		.4byte	.LASF316
 5259 0b62 3F01     		.2byte	0x13f
 5260 0b64 0C       		.uleb128 0xc
 5261 0b65 14170000 		.4byte	.LASF317
ARM GAS  C:\Users\megan\AppData\Local\Temp\ccmgjhBj.s 			page 122


 5262 0b69 4001     		.2byte	0x140
 5263 0b6b 0C       		.uleb128 0xc
 5264 0b6c 002B0000 		.4byte	.LASF318
 5265 0b70 4101     		.2byte	0x141
 5266 0b72 0C       		.uleb128 0xc
 5267 0b73 0C010000 		.4byte	.LASF319
 5268 0b77 4201     		.2byte	0x142
 5269 0b79 0C       		.uleb128 0xc
 5270 0b7a F3070000 		.4byte	.LASF320
 5271 0b7e 4301     		.2byte	0x143
 5272 0b80 0C       		.uleb128 0xc
 5273 0b81 4F030000 		.4byte	.LASF321
 5274 0b85 4401     		.2byte	0x144
 5275 0b87 0C       		.uleb128 0xc
 5276 0b88 A80A0000 		.4byte	.LASF322
 5277 0b8c 4501     		.2byte	0x145
 5278 0b8e 0C       		.uleb128 0xc
 5279 0b8f 2A330000 		.4byte	.LASF323
 5280 0b93 4601     		.2byte	0x146
 5281 0b95 0C       		.uleb128 0xc
 5282 0b96 C4390000 		.4byte	.LASF324
 5283 0b9a 4701     		.2byte	0x147
 5284 0b9c 0C       		.uleb128 0xc
 5285 0b9d B2090000 		.4byte	.LASF325
 5286 0ba1 4801     		.2byte	0x148
 5287 0ba3 0C       		.uleb128 0xc
 5288 0ba4 84290000 		.4byte	.LASF326
 5289 0ba8 4901     		.2byte	0x149
 5290 0baa 0C       		.uleb128 0xc
 5291 0bab 923E0000 		.4byte	.LASF327
 5292 0baf 4A01     		.2byte	0x14a
 5293 0bb1 0C       		.uleb128 0xc
 5294 0bb2 0D250000 		.4byte	.LASF328
 5295 0bb6 4B01     		.2byte	0x14b
 5296 0bb8 0C       		.uleb128 0xc
 5297 0bb9 F33E0000 		.4byte	.LASF329
 5298 0bbd 4C01     		.2byte	0x14c
 5299 0bbf 0C       		.uleb128 0xc
 5300 0bc0 93340000 		.4byte	.LASF330
 5301 0bc4 4D01     		.2byte	0x14d
 5302 0bc6 0C       		.uleb128 0xc
 5303 0bc7 BB2E0000 		.4byte	.LASF331
 5304 0bcb 4E01     		.2byte	0x14e
 5305 0bcd 0C       		.uleb128 0xc
 5306 0bce F3400000 		.4byte	.LASF332
 5307 0bd2 4F01     		.2byte	0x14f
 5308 0bd4 0C       		.uleb128 0xc
 5309 0bd5 40070000 		.4byte	.LASF333
 5310 0bd9 5001     		.2byte	0x150
 5311 0bdb 0C       		.uleb128 0xc
 5312 0bdc 26010000 		.4byte	.LASF334
 5313 0be0 5101     		.2byte	0x151
 5314 0be2 0C       		.uleb128 0xc
 5315 0be3 763A0000 		.4byte	.LASF335
 5316 0be7 5201     		.2byte	0x152
 5317 0be9 0C       		.uleb128 0xc
 5318 0bea A5210000 		.4byte	.LASF336
ARM GAS  C:\Users\megan\AppData\Local\Temp\ccmgjhBj.s 			page 123


 5319 0bee 5301     		.2byte	0x153
 5320 0bf0 0C       		.uleb128 0xc
 5321 0bf1 17390000 		.4byte	.LASF337
 5322 0bf5 5401     		.2byte	0x154
 5323 0bf7 0C       		.uleb128 0xc
 5324 0bf8 2E360000 		.4byte	.LASF338
 5325 0bfc 5501     		.2byte	0x155
 5326 0bfe 0C       		.uleb128 0xc
 5327 0bff FA020000 		.4byte	.LASF339
 5328 0c03 5601     		.2byte	0x156
 5329 0c05 0C       		.uleb128 0xc
 5330 0c06 39350000 		.4byte	.LASF340
 5331 0c0a 5701     		.2byte	0x157
 5332 0c0c 0C       		.uleb128 0xc
 5333 0c0d D1100000 		.4byte	.LASF341
 5334 0c11 5801     		.2byte	0x158
 5335 0c13 0C       		.uleb128 0xc
 5336 0c14 040B0000 		.4byte	.LASF342
 5337 0c18 5901     		.2byte	0x159
 5338 0c1a 0C       		.uleb128 0xc
 5339 0c1b E10A0000 		.4byte	.LASF343
 5340 0c1f 5A01     		.2byte	0x15a
 5341 0c21 0C       		.uleb128 0xc
 5342 0c22 9F100000 		.4byte	.LASF344
 5343 0c26 5B01     		.2byte	0x15b
 5344 0c28 0C       		.uleb128 0xc
 5345 0c29 E0220000 		.4byte	.LASF345
 5346 0c2d 5C01     		.2byte	0x15c
 5347 0c2f 0C       		.uleb128 0xc
 5348 0c30 CB420000 		.4byte	.LASF346
 5349 0c34 5D01     		.2byte	0x15d
 5350 0c36 0C       		.uleb128 0xc
 5351 0c37 F93C0000 		.4byte	.LASF347
 5352 0c3b 5E01     		.2byte	0x15e
 5353 0c3d 0C       		.uleb128 0xc
 5354 0c3e 0E330000 		.4byte	.LASF348
 5355 0c42 5F01     		.2byte	0x15f
 5356 0c44 0C       		.uleb128 0xc
 5357 0c45 202D0000 		.4byte	.LASF349
 5358 0c49 6001     		.2byte	0x160
 5359 0c4b 0C       		.uleb128 0xc
 5360 0c4c 36020000 		.4byte	.LASF350
 5361 0c50 6101     		.2byte	0x161
 5362 0c52 0C       		.uleb128 0xc
 5363 0c53 13210000 		.4byte	.LASF351
 5364 0c57 6201     		.2byte	0x162
 5365 0c59 0C       		.uleb128 0xc
 5366 0c5a 41010000 		.4byte	.LASF352
 5367 0c5e 6301     		.2byte	0x163
 5368 0c60 0C       		.uleb128 0xc
 5369 0c61 7E0B0000 		.4byte	.LASF353
 5370 0c65 6401     		.2byte	0x164
 5371 0c67 0C       		.uleb128 0xc
 5372 0c68 AA3F0000 		.4byte	.LASF354
 5373 0c6c 6501     		.2byte	0x165
 5374 0c6e 0C       		.uleb128 0xc
 5375 0c6f 9F190000 		.4byte	.LASF355
ARM GAS  C:\Users\megan\AppData\Local\Temp\ccmgjhBj.s 			page 124


 5376 0c73 6601     		.2byte	0x166
 5377 0c75 0C       		.uleb128 0xc
 5378 0c76 6C180000 		.4byte	.LASF356
 5379 0c7a 6701     		.2byte	0x167
 5380 0c7c 0C       		.uleb128 0xc
 5381 0c7d 12070000 		.4byte	.LASF357
 5382 0c81 6801     		.2byte	0x168
 5383 0c83 0C       		.uleb128 0xc
 5384 0c84 090C0000 		.4byte	.LASF358
 5385 0c88 6901     		.2byte	0x169
 5386 0c8a 0C       		.uleb128 0xc
 5387 0c8b 7F260000 		.4byte	.LASF359
 5388 0c8f 6A01     		.2byte	0x16a
 5389 0c91 0C       		.uleb128 0xc
 5390 0c92 30220000 		.4byte	.LASF360
 5391 0c96 6B01     		.2byte	0x16b
 5392 0c98 0C       		.uleb128 0xc
 5393 0c99 40090000 		.4byte	.LASF361
 5394 0c9d 6C01     		.2byte	0x16c
 5395 0c9f 0C       		.uleb128 0xc
 5396 0ca0 35080000 		.4byte	.LASF362
 5397 0ca4 6D01     		.2byte	0x16d
 5398 0ca6 0C       		.uleb128 0xc
 5399 0ca7 95020000 		.4byte	.LASF363
 5400 0cab 6E01     		.2byte	0x16e
 5401 0cad 0C       		.uleb128 0xc
 5402 0cae EB210000 		.4byte	.LASF364
 5403 0cb2 6F01     		.2byte	0x16f
 5404 0cb4 0C       		.uleb128 0xc
 5405 0cb5 25450000 		.4byte	.LASF365
 5406 0cb9 7001     		.2byte	0x170
 5407 0cbb 0C       		.uleb128 0xc
 5408 0cbc 7A1B0000 		.4byte	.LASF366
 5409 0cc0 7101     		.2byte	0x171
 5410 0cc2 0C       		.uleb128 0xc
 5411 0cc3 92180000 		.4byte	.LASF367
 5412 0cc7 7201     		.2byte	0x172
 5413 0cc9 0C       		.uleb128 0xc
 5414 0cca A7290000 		.4byte	.LASF368
 5415 0cce 7301     		.2byte	0x173
 5416 0cd0 0C       		.uleb128 0xc
 5417 0cd1 2D3C0000 		.4byte	.LASF369
 5418 0cd5 7401     		.2byte	0x174
 5419 0cd7 0C       		.uleb128 0xc
 5420 0cd8 7F330000 		.4byte	.LASF370
 5421 0cdc 7501     		.2byte	0x175
 5422 0cde 0C       		.uleb128 0xc
 5423 0cdf C5040000 		.4byte	.LASF371
 5424 0ce3 7601     		.2byte	0x176
 5425 0ce5 0C       		.uleb128 0xc
 5426 0ce6 1C320000 		.4byte	.LASF372
 5427 0cea 7701     		.2byte	0x177
 5428 0cec 0C       		.uleb128 0xc
 5429 0ced B2150000 		.4byte	.LASF373
 5430 0cf1 7801     		.2byte	0x178
 5431 0cf3 0C       		.uleb128 0xc
 5432 0cf4 D5200000 		.4byte	.LASF374
ARM GAS  C:\Users\megan\AppData\Local\Temp\ccmgjhBj.s 			page 125


 5433 0cf8 7901     		.2byte	0x179
 5434 0cfa 0C       		.uleb128 0xc
 5435 0cfb 7D2D0000 		.4byte	.LASF375
 5436 0cff 7A01     		.2byte	0x17a
 5437 0d01 0C       		.uleb128 0xc
 5438 0d02 A1370000 		.4byte	.LASF376
 5439 0d06 7B01     		.2byte	0x17b
 5440 0d08 0C       		.uleb128 0xc
 5441 0d09 B8160000 		.4byte	.LASF377
 5442 0d0d 7C01     		.2byte	0x17c
 5443 0d0f 0C       		.uleb128 0xc
 5444 0d10 11270000 		.4byte	.LASF378
 5445 0d14 7D01     		.2byte	0x17d
 5446 0d16 0C       		.uleb128 0xc
 5447 0d17 59250000 		.4byte	.LASF379
 5448 0d1b 7E01     		.2byte	0x17e
 5449 0d1d 0C       		.uleb128 0xc
 5450 0d1e 152A0000 		.4byte	.LASF380
 5451 0d22 7F01     		.2byte	0x17f
 5452 0d24 0C       		.uleb128 0xc
 5453 0d25 6D370000 		.4byte	.LASF381
 5454 0d29 8001     		.2byte	0x180
 5455 0d2b 0C       		.uleb128 0xc
 5456 0d2c F6260000 		.4byte	.LASF382
 5457 0d30 8101     		.2byte	0x181
 5458 0d32 0C       		.uleb128 0xc
 5459 0d33 87270000 		.4byte	.LASF383
 5460 0d37 8201     		.2byte	0x182
 5461 0d39 0C       		.uleb128 0xc
 5462 0d3a D3170000 		.4byte	.LASF384
 5463 0d3e 8301     		.2byte	0x183
 5464 0d40 0C       		.uleb128 0xc
 5465 0d41 360E0000 		.4byte	.LASF385
 5466 0d45 8401     		.2byte	0x184
 5467 0d47 0C       		.uleb128 0xc
 5468 0d48 D23A0000 		.4byte	.LASF386
 5469 0d4c 8501     		.2byte	0x185
 5470 0d4e 0C       		.uleb128 0xc
 5471 0d4f 381D0000 		.4byte	.LASF387
 5472 0d53 8601     		.2byte	0x186
 5473 0d55 0C       		.uleb128 0xc
 5474 0d56 D90C0000 		.4byte	.LASF388
 5475 0d5a 8701     		.2byte	0x187
 5476 0d5c 0C       		.uleb128 0xc
 5477 0d5d 6D3B0000 		.4byte	.LASF389
 5478 0d61 8801     		.2byte	0x188
 5479 0d63 0C       		.uleb128 0xc
 5480 0d64 C9330000 		.4byte	.LASF390
 5481 0d68 8901     		.2byte	0x189
 5482 0d6a 0C       		.uleb128 0xc
 5483 0d6b 80310000 		.4byte	.LASF391
 5484 0d6f 8A01     		.2byte	0x18a
 5485 0d71 0C       		.uleb128 0xc
 5486 0d72 5C240000 		.4byte	.LASF392
 5487 0d76 8B01     		.2byte	0x18b
 5488 0d78 0C       		.uleb128 0xc
 5489 0d79 1F030000 		.4byte	.LASF393
ARM GAS  C:\Users\megan\AppData\Local\Temp\ccmgjhBj.s 			page 126


 5490 0d7d 8C01     		.2byte	0x18c
 5491 0d7f 0C       		.uleb128 0xc
 5492 0d80 592E0000 		.4byte	.LASF394
 5493 0d84 8D01     		.2byte	0x18d
 5494 0d86 0C       		.uleb128 0xc
 5495 0d87 B1420000 		.4byte	.LASF395
 5496 0d8b 8E01     		.2byte	0x18e
 5497 0d8d 0C       		.uleb128 0xc
 5498 0d8e 9A3D0000 		.4byte	.LASF396
 5499 0d92 8F01     		.2byte	0x18f
 5500 0d94 0C       		.uleb128 0xc
 5501 0d95 4A230000 		.4byte	.LASF397
 5502 0d99 9001     		.2byte	0x190
 5503 0d9b 0C       		.uleb128 0xc
 5504 0d9c CE030000 		.4byte	.LASF398
 5505 0da0 9101     		.2byte	0x191
 5506 0da2 0C       		.uleb128 0xc
 5507 0da3 3C140000 		.4byte	.LASF399
 5508 0da7 9201     		.2byte	0x192
 5509 0da9 0C       		.uleb128 0xc
 5510 0daa 5D3F0000 		.4byte	.LASF400
 5511 0dae 9301     		.2byte	0x193
 5512 0db0 0C       		.uleb128 0xc
 5513 0db1 47460000 		.4byte	.LASF401
 5514 0db5 9401     		.2byte	0x194
 5515 0db7 0C       		.uleb128 0xc
 5516 0db8 C8270000 		.4byte	.LASF402
 5517 0dbc 9501     		.2byte	0x195
 5518 0dbe 0C       		.uleb128 0xc
 5519 0dbf A6440000 		.4byte	.LASF403
 5520 0dc3 9601     		.2byte	0x196
 5521 0dc5 0C       		.uleb128 0xc
 5522 0dc6 65270000 		.4byte	.LASF404
 5523 0dca 9701     		.2byte	0x197
 5524 0dcc 0C       		.uleb128 0xc
 5525 0dcd FF0E0000 		.4byte	.LASF405
 5526 0dd1 9801     		.2byte	0x198
 5527 0dd3 0C       		.uleb128 0xc
 5528 0dd4 751D0000 		.4byte	.LASF406
 5529 0dd8 9901     		.2byte	0x199
 5530 0dda 0C       		.uleb128 0xc
 5531 0ddb 451A0000 		.4byte	.LASF407
 5532 0ddf 9A01     		.2byte	0x19a
 5533 0de1 0C       		.uleb128 0xc
 5534 0de2 580E0000 		.4byte	.LASF408
 5535 0de6 9B01     		.2byte	0x19b
 5536 0de8 0C       		.uleb128 0xc
 5537 0de9 52360000 		.4byte	.LASF409
 5538 0ded 9C01     		.2byte	0x19c
 5539 0def 0C       		.uleb128 0xc
 5540 0df0 411E0000 		.4byte	.LASF410
 5541 0df4 9D01     		.2byte	0x19d
 5542 0df6 0C       		.uleb128 0xc
 5543 0df7 602F0000 		.4byte	.LASF411
 5544 0dfb 9E01     		.2byte	0x19e
 5545 0dfd 0C       		.uleb128 0xc
 5546 0dfe 69050000 		.4byte	.LASF412
ARM GAS  C:\Users\megan\AppData\Local\Temp\ccmgjhBj.s 			page 127


 5547 0e02 9F01     		.2byte	0x19f
 5548 0e04 0C       		.uleb128 0xc
 5549 0e05 B8230000 		.4byte	.LASF413
 5550 0e09 A001     		.2byte	0x1a0
 5551 0e0b 0C       		.uleb128 0xc
 5552 0e0c 5C300000 		.4byte	.LASF414
 5553 0e10 A101     		.2byte	0x1a1
 5554 0e12 0C       		.uleb128 0xc
 5555 0e13 161A0000 		.4byte	.LASF415
 5556 0e17 A201     		.2byte	0x1a2
 5557 0e19 0C       		.uleb128 0xc
 5558 0e1a C4220000 		.4byte	.LASF416
 5559 0e1e A301     		.2byte	0x1a3
 5560 0e20 0C       		.uleb128 0xc
 5561 0e21 A8240000 		.4byte	.LASF417
 5562 0e25 A401     		.2byte	0x1a4
 5563 0e27 0C       		.uleb128 0xc
 5564 0e28 0A3C0000 		.4byte	.LASF418
 5565 0e2c A501     		.2byte	0x1a5
 5566 0e2e 0C       		.uleb128 0xc
 5567 0e2f 38170000 		.4byte	.LASF419
 5568 0e33 A601     		.2byte	0x1a6
 5569 0e35 0C       		.uleb128 0xc
 5570 0e36 BC2B0000 		.4byte	.LASF420
 5571 0e3a A701     		.2byte	0x1a7
 5572 0e3c 0C       		.uleb128 0xc
 5573 0e3d 68160000 		.4byte	.LASF421
 5574 0e41 A801     		.2byte	0x1a8
 5575 0e43 0C       		.uleb128 0xc
 5576 0e44 A61C0000 		.4byte	.LASF422
 5577 0e48 A901     		.2byte	0x1a9
 5578 0e4a 0C       		.uleb128 0xc
 5579 0e4b E3460000 		.4byte	.LASF423
 5580 0e4f AA01     		.2byte	0x1aa
 5581 0e51 0C       		.uleb128 0xc
 5582 0e52 E02E0000 		.4byte	.LASF424
 5583 0e56 AB01     		.2byte	0x1ab
 5584 0e58 0C       		.uleb128 0xc
 5585 0e59 902F0000 		.4byte	.LASF425
 5586 0e5d AC01     		.2byte	0x1ac
 5587 0e5f 0C       		.uleb128 0xc
 5588 0e60 FD080000 		.4byte	.LASF426
 5589 0e64 AD01     		.2byte	0x1ad
 5590 0e66 0C       		.uleb128 0xc
 5591 0e67 5B190000 		.4byte	.LASF427
 5592 0e6b AE01     		.2byte	0x1ae
 5593 0e6d 0C       		.uleb128 0xc
 5594 0e6e 1F370000 		.4byte	.LASF428
 5595 0e72 AF01     		.2byte	0x1af
 5596 0e74 0C       		.uleb128 0xc
 5597 0e75 520D0000 		.4byte	.LASF429
 5598 0e79 B001     		.2byte	0x1b0
 5599 0e7b 0C       		.uleb128 0xc
 5600 0e7c 51000000 		.4byte	.LASF430
 5601 0e80 B101     		.2byte	0x1b1
 5602 0e82 0C       		.uleb128 0xc
 5603 0e83 D73C0000 		.4byte	.LASF431
ARM GAS  C:\Users\megan\AppData\Local\Temp\ccmgjhBj.s 			page 128


 5604 0e87 B201     		.2byte	0x1b2
 5605 0e89 0C       		.uleb128 0xc
 5606 0e8a 9A140000 		.4byte	.LASF432
 5607 0e8e B301     		.2byte	0x1b3
 5608 0e90 0C       		.uleb128 0xc
 5609 0e91 6C460000 		.4byte	.LASF433
 5610 0e95 B401     		.2byte	0x1b4
 5611 0e97 0C       		.uleb128 0xc
 5612 0e98 66200000 		.4byte	.LASF434
 5613 0e9c B501     		.2byte	0x1b5
 5614 0e9e 0C       		.uleb128 0xc
 5615 0e9f DC230000 		.4byte	.LASF435
 5616 0ea3 B601     		.2byte	0x1b6
 5617 0ea5 0C       		.uleb128 0xc
 5618 0ea6 07460000 		.4byte	.LASF436
 5619 0eaa B701     		.2byte	0x1b7
 5620 0eac 0C       		.uleb128 0xc
 5621 0ead 41390000 		.4byte	.LASF437
 5622 0eb1 B801     		.2byte	0x1b8
 5623 0eb3 0C       		.uleb128 0xc
 5624 0eb4 762B0000 		.4byte	.LASF438
 5625 0eb8 B901     		.2byte	0x1b9
 5626 0eba 0C       		.uleb128 0xc
 5627 0ebb 002E0000 		.4byte	.LASF439
 5628 0ebf BA01     		.2byte	0x1ba
 5629 0ec1 0C       		.uleb128 0xc
 5630 0ec2 50400000 		.4byte	.LASF440
 5631 0ec6 BB01     		.2byte	0x1bb
 5632 0ec8 0C       		.uleb128 0xc
 5633 0ec9 141F0000 		.4byte	.LASF441
 5634 0ecd BC01     		.2byte	0x1bc
 5635 0ecf 0C       		.uleb128 0xc
 5636 0ed0 77090000 		.4byte	.LASF442
 5637 0ed4 BD01     		.2byte	0x1bd
 5638 0ed6 0C       		.uleb128 0xc
 5639 0ed7 F7110000 		.4byte	.LASF443
 5640 0edb BE01     		.2byte	0x1be
 5641 0edd 0C       		.uleb128 0xc
 5642 0ede E7440000 		.4byte	.LASF444
 5643 0ee2 BF01     		.2byte	0x1bf
 5644 0ee4 0C       		.uleb128 0xc
 5645 0ee5 210D0000 		.4byte	.LASF445
 5646 0ee9 C001     		.2byte	0x1c0
 5647 0eeb 0C       		.uleb128 0xc
 5648 0eec 771E0000 		.4byte	.LASF446
 5649 0ef0 C101     		.2byte	0x1c1
 5650 0ef2 0C       		.uleb128 0xc
 5651 0ef3 0A230000 		.4byte	.LASF447
 5652 0ef7 C201     		.2byte	0x1c2
 5653 0ef9 0C       		.uleb128 0xc
 5654 0efa 32400000 		.4byte	.LASF448
 5655 0efe C301     		.2byte	0x1c3
 5656 0f00 0C       		.uleb128 0xc
 5657 0f01 693C0000 		.4byte	.LASF449
 5658 0f05 C401     		.2byte	0x1c4
 5659 0f07 0C       		.uleb128 0xc
 5660 0f08 18190000 		.4byte	.LASF450
ARM GAS  C:\Users\megan\AppData\Local\Temp\ccmgjhBj.s 			page 129


 5661 0f0c C501     		.2byte	0x1c5
 5662 0f0e 0C       		.uleb128 0xc
 5663 0f0f 5D260000 		.4byte	.LASF451
 5664 0f13 C601     		.2byte	0x1c6
 5665 0f15 0C       		.uleb128 0xc
 5666 0f16 90030000 		.4byte	.LASF452
 5667 0f1a C701     		.2byte	0x1c7
 5668 0f1c 0C       		.uleb128 0xc
 5669 0f1d 5C340000 		.4byte	.LASF453
 5670 0f21 C801     		.2byte	0x1c8
 5671 0f23 0C       		.uleb128 0xc
 5672 0f24 A2040000 		.4byte	.LASF454
 5673 0f28 C901     		.2byte	0x1c9
 5674 0f2a 0C       		.uleb128 0xc
 5675 0f2b CA300000 		.4byte	.LASF455
 5676 0f2f CA01     		.2byte	0x1ca
 5677 0f31 0C       		.uleb128 0xc
 5678 0f32 3C0B0000 		.4byte	.LASF456
 5679 0f36 CB01     		.2byte	0x1cb
 5680 0f38 0C       		.uleb128 0xc
 5681 0f39 CE0B0000 		.4byte	.LASF457
 5682 0f3d CC01     		.2byte	0x1cc
 5683 0f3f 0C       		.uleb128 0xc
 5684 0f40 43370000 		.4byte	.LASF458
 5685 0f44 CD01     		.2byte	0x1cd
 5686 0f46 0C       		.uleb128 0xc
 5687 0f47 5B070000 		.4byte	.LASF459
 5688 0f4b CE01     		.2byte	0x1ce
 5689 0f4d 0C       		.uleb128 0xc
 5690 0f4e 63330000 		.4byte	.LASF460
 5691 0f52 CF01     		.2byte	0x1cf
 5692 0f54 0C       		.uleb128 0xc
 5693 0f55 47310000 		.4byte	.LASF461
 5694 0f59 D001     		.2byte	0x1d0
 5695 0f5b 0C       		.uleb128 0xc
 5696 0f5c FA1A0000 		.4byte	.LASF462
 5697 0f60 D101     		.2byte	0x1d1
 5698 0f62 0C       		.uleb128 0xc
 5699 0f63 DB410000 		.4byte	.LASF463
 5700 0f67 D201     		.2byte	0x1d2
 5701 0f69 0C       		.uleb128 0xc
 5702 0f6a 15260000 		.4byte	.LASF464
 5703 0f6e D301     		.2byte	0x1d3
 5704 0f70 0C       		.uleb128 0xc
 5705 0f71 F92F0000 		.4byte	.LASF465
 5706 0f75 D401     		.2byte	0x1d4
 5707 0f77 0C       		.uleb128 0xc
 5708 0f78 5D1F0000 		.4byte	.LASF466
 5709 0f7c D501     		.2byte	0x1d5
 5710 0f7e 0C       		.uleb128 0xc
 5711 0f7f 08360000 		.4byte	.LASF467
 5712 0f83 D601     		.2byte	0x1d6
 5713 0f85 0C       		.uleb128 0xc
 5714 0f86 F8200000 		.4byte	.LASF468
 5715 0f8a D701     		.2byte	0x1d7
 5716 0f8c 0C       		.uleb128 0xc
 5717 0f8d 821F0000 		.4byte	.LASF469
ARM GAS  C:\Users\megan\AppData\Local\Temp\ccmgjhBj.s 			page 130


 5718 0f91 D801     		.2byte	0x1d8
 5719 0f93 0C       		.uleb128 0xc
 5720 0f94 AE070000 		.4byte	.LASF470
 5721 0f98 D901     		.2byte	0x1d9
 5722 0f9a 0C       		.uleb128 0xc
 5723 0f9b 141D0000 		.4byte	.LASF471
 5724 0f9f DA01     		.2byte	0x1da
 5725 0fa1 0C       		.uleb128 0xc
 5726 0fa2 87390000 		.4byte	.LASF472
 5727 0fa6 DB01     		.2byte	0x1db
 5728 0fa8 0C       		.uleb128 0xc
 5729 0fa9 1E350000 		.4byte	.LASF473
 5730 0fad DC01     		.2byte	0x1dc
 5731 0faf 0C       		.uleb128 0xc
 5732 0fb0 54130000 		.4byte	.LASF474
 5733 0fb4 DD01     		.2byte	0x1dd
 5734 0fb6 0C       		.uleb128 0xc
 5735 0fb7 F51F0000 		.4byte	.LASF475
 5736 0fbb DE01     		.2byte	0x1de
 5737 0fbd 0C       		.uleb128 0xc
 5738 0fbe 9F000000 		.4byte	.LASF476
 5739 0fc2 DF01     		.2byte	0x1df
 5740 0fc4 0C       		.uleb128 0xc
 5741 0fc5 4B220000 		.4byte	.LASF477
 5742 0fc9 E001     		.2byte	0x1e0
 5743 0fcb 0C       		.uleb128 0xc
 5744 0fcc 91230000 		.4byte	.LASF478
 5745 0fd0 E101     		.2byte	0x1e1
 5746 0fd2 0C       		.uleb128 0xc
 5747 0fd3 34000000 		.4byte	.LASF479
 5748 0fd7 E201     		.2byte	0x1e2
 5749 0fd9 0C       		.uleb128 0xc
 5750 0fda 2A050000 		.4byte	.LASF480
 5751 0fde E301     		.2byte	0x1e3
 5752 0fe0 0C       		.uleb128 0xc
 5753 0fe1 471C0000 		.4byte	.LASF481
 5754 0fe5 E401     		.2byte	0x1e4
 5755 0fe7 0C       		.uleb128 0xc
 5756 0fe8 36210000 		.4byte	.LASF482
 5757 0fec E501     		.2byte	0x1e5
 5758 0fee 0C       		.uleb128 0xc
 5759 0fef 64010000 		.4byte	.LASF483
 5760 0ff3 E601     		.2byte	0x1e6
 5761 0ff5 0C       		.uleb128 0xc
 5762 0ff6 6C230000 		.4byte	.LASF484
 5763 0ffa E701     		.2byte	0x1e7
 5764 0ffc 0C       		.uleb128 0xc
 5765 0ffd BD450000 		.4byte	.LASF485
 5766 1001 E801     		.2byte	0x1e8
 5767 1003 0C       		.uleb128 0xc
 5768 1004 F61D0000 		.4byte	.LASF486
 5769 1008 E901     		.2byte	0x1e9
 5770 100a 0C       		.uleb128 0xc
 5771 100b 50100000 		.4byte	.LASF487
 5772 100f EA01     		.2byte	0x1ea
 5773 1011 0C       		.uleb128 0xc
 5774 1012 B6180000 		.4byte	.LASF488
ARM GAS  C:\Users\megan\AppData\Local\Temp\ccmgjhBj.s 			page 131


 5775 1016 EB01     		.2byte	0x1eb
 5776 1018 0C       		.uleb128 0xc
 5777 1019 382F0000 		.4byte	.LASF489
 5778 101d EC01     		.2byte	0x1ec
 5779 101f 0C       		.uleb128 0xc
 5780 1020 0F050000 		.4byte	.LASF490
 5781 1024 ED01     		.2byte	0x1ed
 5782 1026 0C       		.uleb128 0xc
 5783 1027 19380000 		.4byte	.LASF491
 5784 102b EE01     		.2byte	0x1ee
 5785 102d 0C       		.uleb128 0xc
 5786 102e F6100000 		.4byte	.LASF492
 5787 1032 EF01     		.2byte	0x1ef
 5788 1034 0C       		.uleb128 0xc
 5789 1035 6F220000 		.4byte	.LASF493
 5790 1039 F001     		.2byte	0x1f0
 5791 103b 0C       		.uleb128 0xc
 5792 103c 12180000 		.4byte	.LASF494
 5793 1040 F101     		.2byte	0x1f1
 5794 1042 0C       		.uleb128 0xc
 5795 1043 CE3F0000 		.4byte	.LASF495
 5796 1047 F201     		.2byte	0x1f2
 5797 1049 0C       		.uleb128 0xc
 5798 104a 3F040000 		.4byte	.LASF496
 5799 104e F301     		.2byte	0x1f3
 5800 1050 0C       		.uleb128 0xc
 5801 1051 88010000 		.4byte	.LASF497
 5802 1055 F401     		.2byte	0x1f4
 5803 1057 0C       		.uleb128 0xc
 5804 1058 BD140000 		.4byte	.LASF498
 5805 105c F501     		.2byte	0x1f5
 5806 105e 0C       		.uleb128 0xc
 5807 105f D2110000 		.4byte	.LASF499
 5808 1063 F601     		.2byte	0x1f6
 5809 1065 0C       		.uleb128 0xc
 5810 1066 EF290000 		.4byte	.LASF500
 5811 106a F701     		.2byte	0x1f7
 5812 106c 0C       		.uleb128 0xc
 5813 106d E83D0000 		.4byte	.LASF501
 5814 1071 F801     		.2byte	0x1f8
 5815 1073 0C       		.uleb128 0xc
 5816 1074 48270000 		.4byte	.LASF502
 5817 1078 F901     		.2byte	0x1f9
 5818 107a 0C       		.uleb128 0xc
 5819 107b FB360000 		.4byte	.LASF503
 5820 107f FA01     		.2byte	0x1fa
 5821 1081 0C       		.uleb128 0xc
 5822 1082 C6120000 		.4byte	.LASF504
 5823 1086 FB01     		.2byte	0x1fb
 5824 1088 0C       		.uleb128 0xc
 5825 1089 8E050000 		.4byte	.LASF505
 5826 108d FC01     		.2byte	0x1fc
 5827 108f 0C       		.uleb128 0xc
 5828 1090 D6360000 		.4byte	.LASF506
 5829 1094 FD01     		.2byte	0x1fd
 5830 1096 0C       		.uleb128 0xc
 5831 1097 10130000 		.4byte	.LASF507
ARM GAS  C:\Users\megan\AppData\Local\Temp\ccmgjhBj.s 			page 132


 5832 109b FE01     		.2byte	0x1fe
 5833 109d 0C       		.uleb128 0xc
 5834 109e 19240000 		.4byte	.LASF508
 5835 10a2 FF01     		.2byte	0x1ff
 5836 10a4 0C       		.uleb128 0xc
 5837 10a5 5D350000 		.4byte	.LASF509
 5838 10a9 0002     		.2byte	0x200
 5839 10ab 0C       		.uleb128 0xc
 5840 10ac 48180000 		.4byte	.LASF510
 5841 10b0 0102     		.2byte	0x201
 5842 10b2 0C       		.uleb128 0xc
 5843 10b3 473C0000 		.4byte	.LASF511
 5844 10b7 0202     		.2byte	0x202
 5845 10b9 0C       		.uleb128 0xc
 5846 10ba 0E160000 		.4byte	.LASF512
 5847 10be 0302     		.2byte	0x203
 5848 10c0 0C       		.uleb128 0xc
 5849 10c1 2D0C0000 		.4byte	.LASF513
 5850 10c5 0402     		.2byte	0x204
 5851 10c7 0C       		.uleb128 0xc
 5852 10c8 81300000 		.4byte	.LASF514
 5853 10cc 0502     		.2byte	0x205
 5854 10ce 0C       		.uleb128 0xc
 5855 10cf 551B0000 		.4byte	.LASF515
 5856 10d3 0602     		.2byte	0x206
 5857 10d5 0C       		.uleb128 0xc
 5858 10d6 D20D0000 		.4byte	.LASF516
 5859 10da 0702     		.2byte	0x207
 5860 10dc 0C       		.uleb128 0xc
 5861 10dd 2D1C0000 		.4byte	.LASF517
 5862 10e1 0802     		.2byte	0x208
 5863 10e3 0C       		.uleb128 0xc
 5864 10e4 5D090000 		.4byte	.LASF518
 5865 10e8 0902     		.2byte	0x209
 5866 10ea 0C       		.uleb128 0xc
 5867 10eb AC280000 		.4byte	.LASF519
 5868 10ef 0A02     		.2byte	0x20a
 5869 10f1 0C       		.uleb128 0xc
 5870 10f2 12000000 		.4byte	.LASF520
 5871 10f6 0B02     		.2byte	0x20b
 5872 10f8 0C       		.uleb128 0xc
 5873 10f9 522C0000 		.4byte	.LASF521
 5874 10fd 0C02     		.2byte	0x20c
 5875 10ff 0C       		.uleb128 0xc
 5876 1100 133D0000 		.4byte	.LASF522
 5877 1104 0D02     		.2byte	0x20d
 5878 1106 0C       		.uleb128 0xc
 5879 1107 45050000 		.4byte	.LASF523
 5880 110b 0E02     		.2byte	0x20e
 5881 110d 0C       		.uleb128 0xc
 5882 110e AB350000 		.4byte	.LASF524
 5883 1112 0F02     		.2byte	0x20f
 5884 1114 0C       		.uleb128 0xc
 5885 1115 C3250000 		.4byte	.LASF525
 5886 1119 1002     		.2byte	0x210
 5887 111b 0C       		.uleb128 0xc
 5888 111c EE160000 		.4byte	.LASF526
ARM GAS  C:\Users\megan\AppData\Local\Temp\ccmgjhBj.s 			page 133


 5889 1120 1102     		.2byte	0x211
 5890 1122 0C       		.uleb128 0xc
 5891 1123 D21F0000 		.4byte	.LASF527
 5892 1127 1202     		.2byte	0x212
 5893 1129 0C       		.uleb128 0xc
 5894 112a 8B2E0000 		.4byte	.LASF528
 5895 112e 1302     		.2byte	0x213
 5896 1130 0C       		.uleb128 0xc
 5897 1131 BE460000 		.4byte	.LASF529
 5898 1135 1402     		.2byte	0x214
 5899 1137 0C       		.uleb128 0xc
 5900 1138 FD180000 		.4byte	.LASF530
 5901 113c 1502     		.2byte	0x215
 5902 113e 0C       		.uleb128 0xc
 5903 113f B1010000 		.4byte	.LASF531
 5904 1143 1602     		.2byte	0x216
 5905 1145 0C       		.uleb128 0xc
 5906 1146 752C0000 		.4byte	.LASF532
 5907 114a 1702     		.2byte	0x217
 5908 114c 0C       		.uleb128 0xc
 5909 114d C8280000 		.4byte	.LASF533
 5910 1151 1802     		.2byte	0x218
 5911 1153 0C       		.uleb128 0xc
 5912 1154 C71A0000 		.4byte	.LASF534
 5913 1158 1902     		.2byte	0x219
 5914 115a 0C       		.uleb128 0xc
 5915 115b BD380000 		.4byte	.LASF535
 5916 115f 1A02     		.2byte	0x21a
 5917 1161 0C       		.uleb128 0xc
 5918 1162 98400000 		.4byte	.LASF536
 5919 1166 1B02     		.2byte	0x21b
 5920 1168 0C       		.uleb128 0xc
 5921 1169 14020000 		.4byte	.LASF537
 5922 116d 1C02     		.2byte	0x21c
 5923 116f 0C       		.uleb128 0xc
 5924 1170 992B0000 		.4byte	.LASF538
 5925 1174 1D02     		.2byte	0x21d
 5926 1176 0C       		.uleb128 0xc
 5927 1177 6C150000 		.4byte	.LASF539
 5928 117b 1E02     		.2byte	0x21e
 5929 117d 0C       		.uleb128 0xc
 5930 117e 5C170000 		.4byte	.LASF540
 5931 1182 1F02     		.2byte	0x21f
 5932 1184 0C       		.uleb128 0xc
 5933 1185 05440000 		.4byte	.LASF541
 5934 1189 2002     		.2byte	0x220
 5935 118b 0C       		.uleb128 0xc
 5936 118c 11110000 		.4byte	.LASF542
 5937 1190 2102     		.2byte	0x221
 5938 1192 0C       		.uleb128 0xc
 5939 1193 910F0000 		.4byte	.LASF543
 5940 1197 2202     		.2byte	0x222
 5941 1199 0C       		.uleb128 0xc
 5942 119a 232E0000 		.4byte	.LASF544
 5943 119e 00E0     		.2byte	0xe000
 5944 11a0 00       		.byte	0
 5945 11a1 0A       		.uleb128 0xa
ARM GAS  C:\Users\megan\AppData\Local\Temp\ccmgjhBj.s 			page 134


 5946 11a2 01       		.byte	0x1
 5947 11a3 2C000000 		.4byte	0x2c
 5948 11a7 0A       		.byte	0xa
 5949 11a8 5008     		.2byte	0x850
 5950 11aa CD110000 		.4byte	0x11cd
 5951 11ae 0B       		.uleb128 0xb
 5952 11af 3C100000 		.4byte	.LASF545
 5953 11b3 00       		.byte	0
 5954 11b4 0B       		.uleb128 0xb
 5955 11b5 C8210000 		.4byte	.LASF546
 5956 11b9 01       		.byte	0x1
 5957 11ba 0B       		.uleb128 0xb
 5958 11bb FE410000 		.4byte	.LASF547
 5959 11bf 02       		.byte	0x2
 5960 11c0 0B       		.uleb128 0xb
 5961 11c1 D4090000 		.4byte	.LASF548
 5962 11c5 03       		.byte	0x3
 5963 11c6 0B       		.uleb128 0xb
 5964 11c7 C5370000 		.4byte	.LASF549
 5965 11cb 04       		.byte	0x4
 5966 11cc 00       		.byte	0
 5967 11cd 04       		.uleb128 0x4
 5968 11ce A4310000 		.4byte	.LASF550
 5969 11d2 0A       		.byte	0xa
 5970 11d3 5E08     		.2byte	0x85e
 5971 11d5 A1110000 		.4byte	0x11a1
 5972 11d9 18       		.uleb128 0x18
 5973 11da EB2F0000 		.4byte	.LASF616
 5974 11de 01       		.byte	0x1
 5975 11df AA       		.byte	0xaa
 5976 11e0 00000000 		.4byte	.LFB2
 5977 11e4 14000000 		.4byte	.LFE2-.LFB2
 5978 11e8 01       		.uleb128 0x1
 5979 11e9 9C       		.byte	0x9c
 5980 11ea 19       		.uleb128 0x19
 5981 11eb F0150000 		.4byte	.LASF575
 5982 11ef 01       		.byte	0x1
 5983 11f0 D9       		.byte	0xd9
 5984 11f1 00000000 		.4byte	.LFB3
 5985 11f5 1C000000 		.4byte	.LFE3-.LFB3
 5986 11f9 01       		.uleb128 0x1
 5987 11fa 9C       		.byte	0x9c
 5988 11fb 0E120000 		.4byte	0x120e
 5989 11ff 1A       		.uleb128 0x1a
 5990 1200 CC0C0000 		.4byte	.LASF551
 5991 1204 01       		.byte	0x1
 5992 1205 D9       		.byte	0xd9
 5993 1206 58070000 		.4byte	0x758
 5994 120a 02       		.uleb128 0x2
 5995 120b 91       		.byte	0x91
 5996 120c 74       		.sleb128 -12
 5997 120d 00       		.byte	0
 5998 120e 1B       		.uleb128 0x1b
 5999 120f 39420000 		.4byte	.LASF552
 6000 1213 01       		.byte	0x1
 6001 1214 EE       		.byte	0xee
 6002 1215 83000000 		.4byte	0x83
ARM GAS  C:\Users\megan\AppData\Local\Temp\ccmgjhBj.s 			page 135


 6003 1219 00000000 		.4byte	.LFB4
 6004 121d 2A000000 		.4byte	.LFE4-.LFB4
 6005 1221 01       		.uleb128 0x1
 6006 1222 9C       		.byte	0x9c
 6007 1223 36120000 		.4byte	0x1236
 6008 1227 1C       		.uleb128 0x1c
 6009 1228 70747200 		.ascii	"ptr\000"
 6010 122c 01       		.byte	0x1
 6011 122d EE       		.byte	0xee
 6012 122e 36120000 		.4byte	0x1236
 6013 1232 02       		.uleb128 0x2
 6014 1233 91       		.byte	0x91
 6015 1234 74       		.sleb128 -12
 6016 1235 00       		.byte	0
 6017 1236 07       		.uleb128 0x7
 6018 1237 04       		.byte	0x4
 6019 1238 3C120000 		.4byte	0x123c
 6020 123c 1D       		.uleb128 0x1d
 6021 123d 6B000000 		.4byte	0x6b
 6022 1241 1E       		.uleb128 0x1e
 6023 1242 103E0000 		.4byte	.LASF553
 6024 1246 01       		.byte	0x1
 6025 1247 0001     		.2byte	0x100
 6026 1249 83000000 		.4byte	0x83
 6027 124d 00000000 		.4byte	.LFB5
 6028 1251 34000000 		.4byte	.LFE5-.LFB5
 6029 1255 01       		.uleb128 0x1
 6030 1256 9C       		.byte	0x9c
 6031 1257 6B120000 		.4byte	0x126b
 6032 125b 1F       		.uleb128 0x1f
 6033 125c 70747200 		.ascii	"ptr\000"
 6034 1260 01       		.byte	0x1
 6035 1261 0001     		.2byte	0x100
 6036 1263 36120000 		.4byte	0x1236
 6037 1267 02       		.uleb128 0x2
 6038 1268 91       		.byte	0x91
 6039 1269 74       		.sleb128 -12
 6040 126a 00       		.byte	0
 6041 126b 1E       		.uleb128 0x1e
 6042 126c 53280000 		.4byte	.LASF554
 6043 1270 01       		.byte	0x1
 6044 1271 2501     		.2byte	0x125
 6045 1273 AF040000 		.4byte	0x4af
 6046 1277 00000000 		.4byte	.LFB6
 6047 127b B8000000 		.4byte	.LFE6-.LFB6
 6048 127f 01       		.uleb128 0x1
 6049 1280 9C       		.byte	0x9c
 6050 1281 D1120000 		.4byte	0x12d1
 6051 1285 1F       		.uleb128 0x1f
 6052 1286 6D696E00 		.ascii	"min\000"
 6053 128a 01       		.byte	0x1
 6054 128b 2501     		.2byte	0x125
 6055 128d 83000000 		.4byte	0x83
 6056 1291 02       		.uleb128 0x2
 6057 1292 91       		.byte	0x91
 6058 1293 6C       		.sleb128 -20
 6059 1294 1F       		.uleb128 0x1f
ARM GAS  C:\Users\megan\AppData\Local\Temp\ccmgjhBj.s 			page 136


 6060 1295 6D617800 		.ascii	"max\000"
 6061 1299 01       		.byte	0x1
 6062 129a 2501     		.2byte	0x125
 6063 129c 83000000 		.4byte	0x83
 6064 12a0 02       		.uleb128 0x2
 6065 12a1 91       		.byte	0x91
 6066 12a2 68       		.sleb128 -24
 6067 12a3 20       		.uleb128 0x20
 6068 12a4 08330000 		.4byte	.LASF172
 6069 12a8 01       		.byte	0x1
 6070 12a9 2501     		.2byte	0x125
 6071 12ab 83000000 		.4byte	0x83
 6072 12af 02       		.uleb128 0x2
 6073 12b0 91       		.byte	0x91
 6074 12b1 64       		.sleb128 -28
 6075 12b2 20       		.uleb128 0x20
 6076 12b3 70060000 		.4byte	.LASF555
 6077 12b7 01       		.byte	0x1
 6078 12b8 2501     		.2byte	0x125
 6079 12ba 6B000000 		.4byte	0x6b
 6080 12be 02       		.uleb128 0x2
 6081 12bf 91       		.byte	0x91
 6082 12c0 63       		.sleb128 -29
 6083 12c1 21       		.uleb128 0x21
 6084 12c2 2D410000 		.4byte	.LASF560
 6085 12c6 01       		.byte	0x1
 6086 12c7 2701     		.2byte	0x127
 6087 12c9 AF040000 		.4byte	0x4af
 6088 12cd 02       		.uleb128 0x2
 6089 12ce 91       		.byte	0x91
 6090 12cf 77       		.sleb128 -9
 6091 12d0 00       		.byte	0
 6092 12d1 22       		.uleb128 0x22
 6093 12d2 57420000 		.4byte	.LASF556
 6094 12d6 01       		.byte	0x1
 6095 12d7 7B01     		.2byte	0x17b
 6096 12d9 AF040000 		.4byte	0x4af
 6097 12dd 00000000 		.4byte	.LFB7
 6098 12e1 DC010000 		.4byte	.LFE7-.LFB7
 6099 12e5 01       		.uleb128 0x1
 6100 12e6 9C       		.byte	0x9c
 6101 12e7 AF130000 		.4byte	0x13af
 6102 12eb 20       		.uleb128 0x20
 6103 12ec A7010000 		.4byte	.LASF248
 6104 12f0 01       		.byte	0x1
 6105 12f1 7B01     		.2byte	0x17b
 6106 12f3 F5070000 		.4byte	0x7f5
 6107 12f7 02       		.uleb128 0x2
 6108 12f8 91       		.byte	0x91
 6109 12f9 4F       		.sleb128 -49
 6110 12fa 20       		.uleb128 0x20
 6111 12fb D2130000 		.4byte	.LASF249
 6112 12ff 01       		.byte	0x1
 6113 1300 7B01     		.2byte	0x17b
 6114 1302 6B000000 		.4byte	0x6b
 6115 1306 02       		.uleb128 0x2
 6116 1307 91       		.byte	0x91
ARM GAS  C:\Users\megan\AppData\Local\Temp\ccmgjhBj.s 			page 137


 6117 1308 4E       		.sleb128 -50
 6118 1309 20       		.uleb128 0x20
 6119 130a 5A320000 		.4byte	.LASF557
 6120 130e 01       		.byte	0x1
 6121 130f 7B01     		.2byte	0x17b
 6122 1311 77000000 		.4byte	0x77
 6123 1315 02       		.uleb128 0x2
 6124 1316 91       		.byte	0x91
 6125 1317 4C       		.sleb128 -52
 6126 1318 20       		.uleb128 0x20
 6127 1319 75070000 		.4byte	.LASF558
 6128 131d 01       		.byte	0x1
 6129 131e 7C01     		.2byte	0x17c
 6130 1320 6B000000 		.4byte	0x6b
 6131 1324 02       		.uleb128 0x2
 6132 1325 91       		.byte	0x91
 6133 1326 4B       		.sleb128 -53
 6134 1327 20       		.uleb128 0x20
 6135 1328 F6130000 		.4byte	.LASF559
 6136 132c 01       		.byte	0x1
 6137 132d 7C01     		.2byte	0x17c
 6138 132f 36120000 		.4byte	0x1236
 6139 1333 02       		.uleb128 0x2
 6140 1334 91       		.byte	0x91
 6141 1335 00       		.sleb128 0
 6142 1336 21       		.uleb128 0x21
 6143 1337 70060000 		.4byte	.LASF555
 6144 133b 01       		.byte	0x1
 6145 133c 7E01     		.2byte	0x17e
 6146 133e 6B000000 		.4byte	0x6b
 6147 1342 02       		.uleb128 0x2
 6148 1343 91       		.byte	0x91
 6149 1344 6F       		.sleb128 -17
 6150 1345 21       		.uleb128 0x21
 6151 1346 AA2A0000 		.4byte	.LASF561
 6152 134a 01       		.byte	0x1
 6153 134b 7F01     		.2byte	0x17f
 6154 134d 6B000000 		.4byte	0x6b
 6155 1351 02       		.uleb128 0x2
 6156 1352 91       		.byte	0x91
 6157 1353 6E       		.sleb128 -18
 6158 1354 21       		.uleb128 0x21
 6159 1355 813F0000 		.4byte	.LASF562
 6160 1359 01       		.byte	0x1
 6161 135a 8001     		.2byte	0x180
 6162 135c AF130000 		.4byte	0x13af
 6163 1360 02       		.uleb128 0x2
 6164 1361 91       		.byte	0x91
 6165 1362 50       		.sleb128 -48
 6166 1363 21       		.uleb128 0x21
 6167 1364 A12A0000 		.4byte	.LASF563
 6168 1368 01       		.byte	0x1
 6169 1369 8101     		.2byte	0x181
 6170 136b 83000000 		.4byte	0x83
 6171 136f 02       		.uleb128 0x2
 6172 1370 91       		.byte	0x91
 6173 1371 68       		.sleb128 -24
ARM GAS  C:\Users\megan\AppData\Local\Temp\ccmgjhBj.s 			page 138


 6174 1372 21       		.uleb128 0x21
 6175 1373 6F3D0000 		.4byte	.LASF564
 6176 1377 01       		.byte	0x1
 6177 1378 8201     		.2byte	0x182
 6178 137a 83000000 		.4byte	0x83
 6179 137e 02       		.uleb128 0x2
 6180 137f 91       		.byte	0x91
 6181 1380 64       		.sleb128 -28
 6182 1381 21       		.uleb128 0x21
 6183 1382 90460000 		.4byte	.LASF565
 6184 1386 01       		.byte	0x1
 6185 1387 8301     		.2byte	0x183
 6186 1389 83000000 		.4byte	0x83
 6187 138d 02       		.uleb128 0x2
 6188 138e 91       		.byte	0x91
 6189 138f 60       		.sleb128 -32
 6190 1390 21       		.uleb128 0x21
 6191 1391 0D100000 		.4byte	.LASF566
 6192 1395 01       		.byte	0x1
 6193 1396 8401     		.2byte	0x184
 6194 1398 83000000 		.4byte	0x83
 6195 139c 02       		.uleb128 0x2
 6196 139d 91       		.byte	0x91
 6197 139e 5C       		.sleb128 -36
 6198 139f 21       		.uleb128 0x21
 6199 13a0 C0360000 		.4byte	.LASF567
 6200 13a4 01       		.byte	0x1
 6201 13a5 8501     		.2byte	0x185
 6202 13a7 AF040000 		.4byte	0x4af
 6203 13ab 02       		.uleb128 0x2
 6204 13ac 91       		.byte	0x91
 6205 13ad 5B       		.sleb128 -37
 6206 13ae 00       		.byte	0
 6207 13af 0F       		.uleb128 0xf
 6208 13b0 6B000000 		.4byte	0x6b
 6209 13b4 BF130000 		.4byte	0x13bf
 6210 13b8 10       		.uleb128 0x10
 6211 13b9 B0000000 		.4byte	0xb0
 6212 13bd 07       		.byte	0x7
 6213 13be 00       		.byte	0
 6214 13bf 22       		.uleb128 0x22
 6215 13c0 2E230000 		.4byte	.LASF568
 6216 13c4 01       		.byte	0x1
 6217 13c5 D601     		.2byte	0x1d6
 6218 13c7 AF040000 		.4byte	0x4af
 6219 13cb 00000000 		.4byte	.LFB8
 6220 13cf CC050000 		.4byte	.LFE8-.LFB8
 6221 13d3 01       		.uleb128 0x1
 6222 13d4 9C       		.byte	0x9c
 6223 13d5 5D140000 		.4byte	0x145d
 6224 13d9 20       		.uleb128 0x20
 6225 13da 44030000 		.4byte	.LASF569
 6226 13de 01       		.byte	0x1
 6227 13df D601     		.2byte	0x1d6
 6228 13e1 5D140000 		.4byte	0x145d
 6229 13e5 02       		.uleb128 0x2
 6230 13e6 91       		.byte	0x91
ARM GAS  C:\Users\megan\AppData\Local\Temp\ccmgjhBj.s 			page 139


 6231 13e7 4C       		.sleb128 -52
 6232 13e8 23       		.uleb128 0x23
 6233 13e9 6900     		.ascii	"i\000"
 6234 13eb 01       		.byte	0x1
 6235 13ec D801     		.2byte	0x1d8
 6236 13ee 6B000000 		.4byte	0x6b
 6237 13f2 02       		.uleb128 0x2
 6238 13f3 91       		.byte	0x91
 6239 13f4 6F       		.sleb128 -17
 6240 13f5 23       		.uleb128 0x23
 6241 13f6 6A00     		.ascii	"j\000"
 6242 13f8 01       		.byte	0x1
 6243 13f9 D901     		.2byte	0x1d9
 6244 13fb 6B000000 		.4byte	0x6b
 6245 13ff 02       		.uleb128 0x2
 6246 1400 91       		.byte	0x91
 6247 1401 6E       		.sleb128 -18
 6248 1402 21       		.uleb128 0x21
 6249 1403 5A210000 		.4byte	.LASF570
 6250 1407 01       		.byte	0x1
 6251 1408 DA01     		.2byte	0x1da
 6252 140a 83000000 		.4byte	0x83
 6253 140e 02       		.uleb128 0x2
 6254 140f 91       		.byte	0x91
 6255 1410 68       		.sleb128 -24
 6256 1411 21       		.uleb128 0x21
 6257 1412 C80D0000 		.4byte	.LASF571
 6258 1416 01       		.byte	0x1
 6259 1417 DB01     		.2byte	0x1db
 6260 1419 6B000000 		.4byte	0x6b
 6261 141d 02       		.uleb128 0x2
 6262 141e 91       		.byte	0x91
 6263 141f 67       		.sleb128 -25
 6264 1420 21       		.uleb128 0x21
 6265 1421 33270000 		.4byte	.LASF572
 6266 1425 01       		.byte	0x1
 6267 1426 DC01     		.2byte	0x1dc
 6268 1428 A5080000 		.4byte	0x8a5
 6269 142c 02       		.uleb128 0x2
 6270 142d 91       		.byte	0x91
 6271 142e 60       		.sleb128 -32
 6272 142f 21       		.uleb128 0x21
 6273 1430 BD400000 		.4byte	.LASF573
 6274 1434 01       		.byte	0x1
 6275 1435 DD01     		.2byte	0x1dd
 6276 1437 8D090000 		.4byte	0x98d
 6277 143b 02       		.uleb128 0x2
 6278 143c 91       		.byte	0x91
 6279 143d 54       		.sleb128 -44
 6280 143e 21       		.uleb128 0x21
 6281 143f E1210000 		.4byte	.LASF574
 6282 1443 01       		.byte	0x1
 6283 1444 DE01     		.2byte	0x1de
 6284 1446 BB040000 		.4byte	0x4bb
 6285 144a 02       		.uleb128 0x2
 6286 144b 91       		.byte	0x91
 6287 144c 64       		.sleb128 -28
ARM GAS  C:\Users\megan\AppData\Local\Temp\ccmgjhBj.s 			page 140


 6288 144d 21       		.uleb128 0x21
 6289 144e 2D410000 		.4byte	.LASF560
 6290 1452 01       		.byte	0x1
 6291 1453 DF01     		.2byte	0x1df
 6292 1455 AF040000 		.4byte	0x4af
 6293 1459 02       		.uleb128 0x2
 6294 145a 91       		.byte	0x91
 6295 145b 66       		.sleb128 -26
 6296 145c 00       		.byte	0
 6297 145d 07       		.uleb128 0x7
 6298 145e 04       		.byte	0x4
 6299 145f 71060000 		.4byte	0x671
 6300 1463 24       		.uleb128 0x24
 6301 1464 75360000 		.4byte	.LASF576
 6302 1468 01       		.byte	0x1
 6303 1469 2A03     		.2byte	0x32a
 6304 146b 00000000 		.4byte	.LFB9
 6305 146f 2C010000 		.4byte	.LFE9-.LFB9
 6306 1473 01       		.uleb128 0x1
 6307 1474 9C       		.byte	0x9c
 6308 1475 C1140000 		.4byte	0x14c1
 6309 1479 20       		.uleb128 0x20
 6310 147a 44030000 		.4byte	.LASF569
 6311 147e 01       		.byte	0x1
 6312 147f 2A03     		.2byte	0x32a
 6313 1481 C1140000 		.4byte	0x14c1
 6314 1485 02       		.uleb128 0x2
 6315 1486 91       		.byte	0x91
 6316 1487 6C       		.sleb128 -20
 6317 1488 23       		.uleb128 0x23
 6318 1489 6900     		.ascii	"i\000"
 6319 148b 01       		.byte	0x1
 6320 148c 2C03     		.2byte	0x32c
 6321 148e 6B000000 		.4byte	0x6b
 6322 1492 02       		.uleb128 0x2
 6323 1493 91       		.byte	0x91
 6324 1494 77       		.sleb128 -9
 6325 1495 23       		.uleb128 0x23
 6326 1496 6A00     		.ascii	"j\000"
 6327 1498 01       		.byte	0x1
 6328 1499 2D03     		.2byte	0x32d
 6329 149b 6B000000 		.4byte	0x6b
 6330 149f 02       		.uleb128 0x2
 6331 14a0 91       		.byte	0x91
 6332 14a1 76       		.sleb128 -10
 6333 14a2 21       		.uleb128 0x21
 6334 14a3 DF3D0000 		.4byte	.LASF577
 6335 14a7 01       		.byte	0x1
 6336 14a8 2E03     		.2byte	0x32e
 6337 14aa 6B000000 		.4byte	0x6b
 6338 14ae 02       		.uleb128 0x2
 6339 14af 91       		.byte	0x91
 6340 14b0 75       		.sleb128 -11
 6341 14b1 21       		.uleb128 0x21
 6342 14b2 33270000 		.4byte	.LASF572
 6343 14b6 01       		.byte	0x1
 6344 14b7 2F03     		.2byte	0x32f
ARM GAS  C:\Users\megan\AppData\Local\Temp\ccmgjhBj.s 			page 141


 6345 14b9 A5080000 		.4byte	0x8a5
 6346 14bd 02       		.uleb128 0x2
 6347 14be 91       		.byte	0x91
 6348 14bf 70       		.sleb128 -16
 6349 14c0 00       		.byte	0
 6350 14c1 07       		.uleb128 0x7
 6351 14c2 04       		.byte	0x4
 6352 14c3 C7140000 		.4byte	0x14c7
 6353 14c7 1D       		.uleb128 0x1d
 6354 14c8 E9050000 		.4byte	0x5e9
 6355 14cc 24       		.uleb128 0x24
 6356 14cd E0140000 		.4byte	.LASF578
 6357 14d1 01       		.byte	0x1
 6358 14d2 6903     		.2byte	0x369
 6359 14d4 00000000 		.4byte	.LFB10
 6360 14d8 2C020000 		.4byte	.LFE10-.LFB10
 6361 14dc 01       		.uleb128 0x1
 6362 14dd 9C       		.byte	0x9c
 6363 14de 57150000 		.4byte	0x1557
 6364 14e2 20       		.uleb128 0x20
 6365 14e3 44030000 		.4byte	.LASF569
 6366 14e7 01       		.byte	0x1
 6367 14e8 6903     		.2byte	0x369
 6368 14ea 57150000 		.4byte	0x1557
 6369 14ee 02       		.uleb128 0x2
 6370 14ef 91       		.byte	0x91
 6371 14f0 54       		.sleb128 -44
 6372 14f1 23       		.uleb128 0x23
 6373 14f2 6900     		.ascii	"i\000"
 6374 14f4 01       		.byte	0x1
 6375 14f5 6B03     		.2byte	0x36b
 6376 14f7 6B000000 		.4byte	0x6b
 6377 14fb 02       		.uleb128 0x2
 6378 14fc 91       		.byte	0x91
 6379 14fd 77       		.sleb128 -9
 6380 14fe 23       		.uleb128 0x23
 6381 14ff 6A00     		.ascii	"j\000"
 6382 1501 01       		.byte	0x1
 6383 1502 6C03     		.2byte	0x36c
 6384 1504 6B000000 		.4byte	0x6b
 6385 1508 02       		.uleb128 0x2
 6386 1509 91       		.byte	0x91
 6387 150a 76       		.sleb128 -10
 6388 150b 21       		.uleb128 0x21
 6389 150c 9A450000 		.4byte	.LASF579
 6390 1510 01       		.byte	0x1
 6391 1511 6D03     		.2byte	0x36d
 6392 1513 6B000000 		.4byte	0x6b
 6393 1517 02       		.uleb128 0x2
 6394 1518 91       		.byte	0x91
 6395 1519 75       		.sleb128 -11
 6396 151a 21       		.uleb128 0x21
 6397 151b DF3D0000 		.4byte	.LASF577
 6398 151f 01       		.byte	0x1
 6399 1520 6E03     		.2byte	0x36e
 6400 1522 6B000000 		.4byte	0x6b
 6401 1526 02       		.uleb128 0x2
ARM GAS  C:\Users\megan\AppData\Local\Temp\ccmgjhBj.s 			page 142


 6402 1527 91       		.byte	0x91
 6403 1528 74       		.sleb128 -12
 6404 1529 21       		.uleb128 0x21
 6405 152a ED190000 		.4byte	.LASF580
 6406 152e 01       		.byte	0x1
 6407 152f 6F03     		.2byte	0x36f
 6408 1531 77000000 		.4byte	0x77
 6409 1535 02       		.uleb128 0x2
 6410 1536 91       		.byte	0x91
 6411 1537 72       		.sleb128 -14
 6412 1538 21       		.uleb128 0x21
 6413 1539 C3100000 		.4byte	.LASF581
 6414 153d 01       		.byte	0x1
 6415 153e 7003     		.2byte	0x370
 6416 1540 28050000 		.4byte	0x528
 6417 1544 02       		.uleb128 0x2
 6418 1545 91       		.byte	0x91
 6419 1546 68       		.sleb128 -24
 6420 1547 21       		.uleb128 0x21
 6421 1548 BD400000 		.4byte	.LASF573
 6422 154c 01       		.byte	0x1
 6423 154d 7103     		.2byte	0x371
 6424 154f 8D090000 		.4byte	0x98d
 6425 1553 02       		.uleb128 0x2
 6426 1554 91       		.byte	0x91
 6427 1555 5C       		.sleb128 -36
 6428 1556 00       		.byte	0
 6429 1557 07       		.uleb128 0x7
 6430 1558 04       		.byte	0x4
 6431 1559 45060000 		.4byte	0x645
 6432 155d 24       		.uleb128 0x24
 6433 155e DE370000 		.4byte	.LASF582
 6434 1562 01       		.byte	0x1
 6435 1563 C103     		.2byte	0x3c1
 6436 1565 00000000 		.4byte	.LFB11
 6437 1569 84000000 		.4byte	.LFE11-.LFB11
 6438 156d 01       		.uleb128 0x1
 6439 156e 9C       		.byte	0x9c
 6440 156f 92150000 		.4byte	0x1592
 6441 1573 20       		.uleb128 0x20
 6442 1574 44030000 		.4byte	.LASF569
 6443 1578 01       		.byte	0x1
 6444 1579 C103     		.2byte	0x3c1
 6445 157b 92150000 		.4byte	0x1592
 6446 157f 02       		.uleb128 0x2
 6447 1580 91       		.byte	0x91
 6448 1581 6C       		.sleb128 -20
 6449 1582 21       		.uleb128 0x21
 6450 1583 00100000 		.4byte	.LASF583
 6451 1587 01       		.byte	0x1
 6452 1588 C303     		.2byte	0x3c3
 6453 158a 31090000 		.4byte	0x931
 6454 158e 02       		.uleb128 0x2
 6455 158f 91       		.byte	0x91
 6456 1590 70       		.sleb128 -16
 6457 1591 00       		.byte	0
 6458 1592 07       		.uleb128 0x7
ARM GAS  C:\Users\megan\AppData\Local\Temp\ccmgjhBj.s 			page 143


 6459 1593 04       		.byte	0x4
 6460 1594 98150000 		.4byte	0x1598
 6461 1598 1D       		.uleb128 0x1d
 6462 1599 EB040000 		.4byte	0x4eb
 6463 159d 22       		.uleb128 0x22
 6464 159e 7D420000 		.4byte	.LASF584
 6465 15a2 01       		.byte	0x1
 6466 15a3 F903     		.2byte	0x3f9
 6467 15a5 66030000 		.4byte	0x366
 6468 15a9 00000000 		.4byte	.LFB12
 6469 15ad 68010000 		.4byte	.LFE12-.LFB12
 6470 15b1 01       		.uleb128 0x1
 6471 15b2 9C       		.byte	0x9c
 6472 15b3 12160000 		.4byte	0x1612
 6473 15b7 20       		.uleb128 0x20
 6474 15b8 F1030000 		.4byte	.LASF585
 6475 15bc 01       		.byte	0x1
 6476 15bd F903     		.2byte	0x3f9
 6477 15bf 77000000 		.4byte	0x77
 6478 15c3 02       		.uleb128 0x2
 6479 15c4 91       		.byte	0x91
 6480 15c5 46       		.sleb128 -58
 6481 15c6 21       		.uleb128 0x21
 6482 15c7 3C2A0000 		.4byte	.LASF586
 6483 15cb 01       		.byte	0x1
 6484 15cc FB03     		.2byte	0x3fb
 6485 15ce 6B000000 		.4byte	0x6b
 6486 15d2 02       		.uleb128 0x2
 6487 15d3 91       		.byte	0x91
 6488 15d4 6F       		.sleb128 -17
 6489 15d5 21       		.uleb128 0x21
 6490 15d6 39430000 		.4byte	.LASF587
 6491 15da 01       		.byte	0x1
 6492 15db FC03     		.2byte	0x3fc
 6493 15dd 6B000000 		.4byte	0x6b
 6494 15e1 02       		.uleb128 0x2
 6495 15e2 91       		.byte	0x91
 6496 15e3 6E       		.sleb128 -18
 6497 15e4 21       		.uleb128 0x21
 6498 15e5 B53E0000 		.4byte	.LASF588
 6499 15e9 01       		.byte	0x1
 6500 15ea FD03     		.2byte	0x3fd
 6501 15ec 6B000000 		.4byte	0x6b
 6502 15f0 02       		.uleb128 0x2
 6503 15f1 91       		.byte	0x91
 6504 15f2 6D       		.sleb128 -19
 6505 15f3 21       		.uleb128 0x21
 6506 15f4 C0360000 		.4byte	.LASF567
 6507 15f8 01       		.byte	0x1
 6508 15f9 FE03     		.2byte	0x3fe
 6509 15fb 66030000 		.4byte	0x366
 6510 15ff 02       		.uleb128 0x2
 6511 1600 91       		.byte	0x91
 6512 1601 6A       		.sleb128 -22
 6513 1602 21       		.uleb128 0x21
 6514 1603 260B0000 		.4byte	.LASF589
 6515 1607 01       		.byte	0x1
ARM GAS  C:\Users\megan\AppData\Local\Temp\ccmgjhBj.s 			page 144


 6516 1608 FF03     		.2byte	0x3ff
 6517 160a AC030000 		.4byte	0x3ac
 6518 160e 02       		.uleb128 0x2
 6519 160f 91       		.byte	0x91
 6520 1610 48       		.sleb128 -56
 6521 1611 00       		.byte	0
 6522 1612 22       		.uleb128 0x22
 6523 1613 7E190000 		.4byte	.LASF590
 6524 1617 01       		.byte	0x1
 6525 1618 5A04     		.2byte	0x45a
 6526 161a 66030000 		.4byte	0x366
 6527 161e 00000000 		.4byte	.LFB13
 6528 1622 EC000000 		.4byte	.LFE13-.LFB13
 6529 1626 01       		.uleb128 0x1
 6530 1627 9C       		.byte	0x9c
 6531 1628 91160000 		.4byte	0x1691
 6532 162c 20       		.uleb128 0x20
 6533 162d A7010000 		.4byte	.LASF248
 6534 1631 01       		.byte	0x1
 6535 1632 5A04     		.2byte	0x45a
 6536 1634 F5070000 		.4byte	0x7f5
 6537 1638 02       		.uleb128 0x2
 6538 1639 91       		.byte	0x91
 6539 163a 5F       		.sleb128 -33
 6540 163b 20       		.uleb128 0x20
 6541 163c D2130000 		.4byte	.LASF249
 6542 1640 01       		.byte	0x1
 6543 1641 5B04     		.2byte	0x45b
 6544 1643 6B000000 		.4byte	0x6b
 6545 1647 02       		.uleb128 0x2
 6546 1648 91       		.byte	0x91
 6547 1649 5E       		.sleb128 -34
 6548 164a 20       		.uleb128 0x20
 6549 164b AF160000 		.4byte	.LASF591
 6550 164f 01       		.byte	0x1
 6551 1650 5B04     		.2byte	0x45b
 6552 1652 6B000000 		.4byte	0x6b
 6553 1656 02       		.uleb128 0x2
 6554 1657 91       		.byte	0x91
 6555 1658 5D       		.sleb128 -35
 6556 1659 20       		.uleb128 0x20
 6557 165a E3190000 		.4byte	.LASF592
 6558 165e 01       		.byte	0x1
 6559 165f 5B04     		.2byte	0x45b
 6560 1661 72030000 		.4byte	0x372
 6561 1665 02       		.uleb128 0x2
 6562 1666 91       		.byte	0x91
 6563 1667 58       		.sleb128 -40
 6564 1668 21       		.uleb128 0x21
 6565 1669 C0360000 		.4byte	.LASF567
 6566 166d 01       		.byte	0x1
 6567 166e 5D04     		.2byte	0x45d
 6568 1670 66030000 		.4byte	0x366
 6569 1674 02       		.uleb128 0x2
 6570 1675 91       		.byte	0x91
 6571 1676 6E       		.sleb128 -18
 6572 1677 25       		.uleb128 0x25
ARM GAS  C:\Users\megan\AppData\Local\Temp\ccmgjhBj.s 			page 145


 6573 1678 74000000 		.4byte	.LBB2
 6574 167c 52000000 		.4byte	.LBE2-.LBB2
 6575 1680 21       		.uleb128 0x21
 6576 1681 4A1F0000 		.4byte	.LASF593
 6577 1685 01       		.byte	0x1
 6578 1686 6D04     		.2byte	0x46d
 6579 1688 58050000 		.4byte	0x558
 6580 168c 02       		.uleb128 0x2
 6581 168d 91       		.byte	0x91
 6582 168e 60       		.sleb128 -32
 6583 168f 00       		.byte	0
 6584 1690 00       		.byte	0
 6585 1691 22       		.uleb128 0x22
 6586 1692 A0080000 		.4byte	.LASF594
 6587 1696 01       		.byte	0x1
 6588 1697 9B04     		.2byte	0x49b
 6589 1699 66030000 		.4byte	0x366
 6590 169d 00000000 		.4byte	.LFB14
 6591 16a1 28010000 		.4byte	.LFE14-.LFB14
 6592 16a5 01       		.uleb128 0x1
 6593 16a6 9C       		.byte	0x9c
 6594 16a7 10170000 		.4byte	0x1710
 6595 16ab 20       		.uleb128 0x20
 6596 16ac A7010000 		.4byte	.LASF248
 6597 16b0 01       		.byte	0x1
 6598 16b1 9B04     		.2byte	0x49b
 6599 16b3 F5070000 		.4byte	0x7f5
 6600 16b7 02       		.uleb128 0x2
 6601 16b8 91       		.byte	0x91
 6602 16b9 5F       		.sleb128 -33
 6603 16ba 20       		.uleb128 0x20
 6604 16bb D2130000 		.4byte	.LASF249
 6605 16bf 01       		.byte	0x1
 6606 16c0 9C04     		.2byte	0x49c
 6607 16c2 6B000000 		.4byte	0x6b
 6608 16c6 02       		.uleb128 0x2
 6609 16c7 91       		.byte	0x91
 6610 16c8 5E       		.sleb128 -34
 6611 16c9 20       		.uleb128 0x20
 6612 16ca AF160000 		.4byte	.LASF591
 6613 16ce 01       		.byte	0x1
 6614 16cf 9C04     		.2byte	0x49c
 6615 16d1 6B000000 		.4byte	0x6b
 6616 16d5 02       		.uleb128 0x2
 6617 16d6 91       		.byte	0x91
 6618 16d7 5D       		.sleb128 -35
 6619 16d8 20       		.uleb128 0x20
 6620 16d9 E3190000 		.4byte	.LASF592
 6621 16dd 01       		.byte	0x1
 6622 16de 9C04     		.2byte	0x49c
 6623 16e0 72030000 		.4byte	0x372
 6624 16e4 02       		.uleb128 0x2
 6625 16e5 91       		.byte	0x91
 6626 16e6 58       		.sleb128 -40
 6627 16e7 21       		.uleb128 0x21
 6628 16e8 C0360000 		.4byte	.LASF567
 6629 16ec 01       		.byte	0x1
ARM GAS  C:\Users\megan\AppData\Local\Temp\ccmgjhBj.s 			page 146


 6630 16ed 9E04     		.2byte	0x49e
 6631 16ef 66030000 		.4byte	0x366
 6632 16f3 02       		.uleb128 0x2
 6633 16f4 91       		.byte	0x91
 6634 16f5 6E       		.sleb128 -18
 6635 16f6 25       		.uleb128 0x25
 6636 16f7 74000000 		.4byte	.LBB3
 6637 16fb 8A000000 		.4byte	.LBE3-.LBB3
 6638 16ff 21       		.uleb128 0x21
 6639 1700 4A1F0000 		.4byte	.LASF593
 6640 1704 01       		.byte	0x1
 6641 1705 AC04     		.2byte	0x4ac
 6642 1707 58050000 		.4byte	0x558
 6643 170b 02       		.uleb128 0x2
 6644 170c 91       		.byte	0x91
 6645 170d 60       		.sleb128 -32
 6646 170e 00       		.byte	0
 6647 170f 00       		.byte	0
 6648 1710 22       		.uleb128 0x22
 6649 1711 74450000 		.4byte	.LASF595
 6650 1715 01       		.byte	0x1
 6651 1716 DE04     		.2byte	0x4de
 6652 1718 66030000 		.4byte	0x366
 6653 171c 00000000 		.4byte	.LFB15
 6654 1720 78010000 		.4byte	.LFE15-.LFB15
 6655 1724 01       		.uleb128 0x1
 6656 1725 9C       		.byte	0x9c
 6657 1726 9E170000 		.4byte	0x179e
 6658 172a 20       		.uleb128 0x20
 6659 172b A7010000 		.4byte	.LASF248
 6660 172f 01       		.byte	0x1
 6661 1730 DE04     		.2byte	0x4de
 6662 1732 F5070000 		.4byte	0x7f5
 6663 1736 02       		.uleb128 0x2
 6664 1737 91       		.byte	0x91
 6665 1738 5F       		.sleb128 -33
 6666 1739 20       		.uleb128 0x20
 6667 173a D2130000 		.4byte	.LASF249
 6668 173e 01       		.byte	0x1
 6669 173f DF04     		.2byte	0x4df
 6670 1741 6B000000 		.4byte	0x6b
 6671 1745 02       		.uleb128 0x2
 6672 1746 91       		.byte	0x91
 6673 1747 5E       		.sleb128 -34
 6674 1748 20       		.uleb128 0x20
 6675 1749 96280000 		.4byte	.LASF251
 6676 174d 01       		.byte	0x1
 6677 174e DF04     		.2byte	0x4df
 6678 1750 49080000 		.4byte	0x849
 6679 1754 02       		.uleb128 0x2
 6680 1755 91       		.byte	0x91
 6681 1756 5D       		.sleb128 -35
 6682 1757 20       		.uleb128 0x20
 6683 1758 AF160000 		.4byte	.LASF591
 6684 175c 01       		.byte	0x1
 6685 175d DF04     		.2byte	0x4df
 6686 175f 77000000 		.4byte	0x77
ARM GAS  C:\Users\megan\AppData\Local\Temp\ccmgjhBj.s 			page 147


 6687 1763 02       		.uleb128 0x2
 6688 1764 91       		.byte	0x91
 6689 1765 5A       		.sleb128 -38
 6690 1766 20       		.uleb128 0x20
 6691 1767 E3190000 		.4byte	.LASF592
 6692 176b 01       		.byte	0x1
 6693 176c DF04     		.2byte	0x4df
 6694 176e 72030000 		.4byte	0x372
 6695 1772 02       		.uleb128 0x2
 6696 1773 91       		.byte	0x91
 6697 1774 00       		.sleb128 0
 6698 1775 21       		.uleb128 0x21
 6699 1776 C0360000 		.4byte	.LASF567
 6700 177a 01       		.byte	0x1
 6701 177b E104     		.2byte	0x4e1
 6702 177d 66030000 		.4byte	0x366
 6703 1781 02       		.uleb128 0x2
 6704 1782 91       		.byte	0x91
 6705 1783 6E       		.sleb128 -18
 6706 1784 25       		.uleb128 0x25
 6707 1785 B6000000 		.4byte	.LBB4
 6708 1789 9A000000 		.4byte	.LBE4-.LBB4
 6709 178d 21       		.uleb128 0x21
 6710 178e 4A1F0000 		.4byte	.LASF593
 6711 1792 01       		.byte	0x1
 6712 1793 F104     		.2byte	0x4f1
 6713 1795 58050000 		.4byte	0x558
 6714 1799 02       		.uleb128 0x2
 6715 179a 91       		.byte	0x91
 6716 179b 60       		.sleb128 -32
 6717 179c 00       		.byte	0
 6718 179d 00       		.byte	0
 6719 179e 22       		.uleb128 0x22
 6720 179f 21460000 		.4byte	.LASF596
 6721 17a3 01       		.byte	0x1
 6722 17a4 2405     		.2byte	0x524
 6723 17a6 66030000 		.4byte	0x366
 6724 17aa 00000000 		.4byte	.LFB16
 6725 17ae 30010000 		.4byte	.LFE16-.LFB16
 6726 17b2 01       		.uleb128 0x1
 6727 17b3 9C       		.byte	0x9c
 6728 17b4 2C180000 		.4byte	0x182c
 6729 17b8 20       		.uleb128 0x20
 6730 17b9 A7010000 		.4byte	.LASF248
 6731 17bd 01       		.byte	0x1
 6732 17be 2405     		.2byte	0x524
 6733 17c0 F5070000 		.4byte	0x7f5
 6734 17c4 02       		.uleb128 0x2
 6735 17c5 91       		.byte	0x91
 6736 17c6 5F       		.sleb128 -33
 6737 17c7 20       		.uleb128 0x20
 6738 17c8 D2130000 		.4byte	.LASF249
 6739 17cc 01       		.byte	0x1
 6740 17cd 2505     		.2byte	0x525
 6741 17cf 6B000000 		.4byte	0x6b
 6742 17d3 02       		.uleb128 0x2
 6743 17d4 91       		.byte	0x91
ARM GAS  C:\Users\megan\AppData\Local\Temp\ccmgjhBj.s 			page 148


 6744 17d5 5E       		.sleb128 -34
 6745 17d6 20       		.uleb128 0x20
 6746 17d7 96280000 		.4byte	.LASF251
 6747 17db 01       		.byte	0x1
 6748 17dc 2505     		.2byte	0x525
 6749 17de 49080000 		.4byte	0x849
 6750 17e2 02       		.uleb128 0x2
 6751 17e3 91       		.byte	0x91
 6752 17e4 5D       		.sleb128 -35
 6753 17e5 20       		.uleb128 0x20
 6754 17e6 AF160000 		.4byte	.LASF591
 6755 17ea 01       		.byte	0x1
 6756 17eb 2505     		.2byte	0x525
 6757 17ed 77000000 		.4byte	0x77
 6758 17f1 02       		.uleb128 0x2
 6759 17f2 91       		.byte	0x91
 6760 17f3 5A       		.sleb128 -38
 6761 17f4 20       		.uleb128 0x20
 6762 17f5 E3190000 		.4byte	.LASF592
 6763 17f9 01       		.byte	0x1
 6764 17fa 2505     		.2byte	0x525
 6765 17fc 72030000 		.4byte	0x372
 6766 1800 02       		.uleb128 0x2
 6767 1801 91       		.byte	0x91
 6768 1802 00       		.sleb128 0
 6769 1803 21       		.uleb128 0x21
 6770 1804 C0360000 		.4byte	.LASF567
 6771 1808 01       		.byte	0x1
 6772 1809 2705     		.2byte	0x527
 6773 180b 66030000 		.4byte	0x366
 6774 180f 02       		.uleb128 0x2
 6775 1810 91       		.byte	0x91
 6776 1811 6E       		.sleb128 -18
 6777 1812 25       		.uleb128 0x25
 6778 1813 B0000000 		.4byte	.LBB5
 6779 1817 5A000000 		.4byte	.LBE5-.LBB5
 6780 181b 21       		.uleb128 0x21
 6781 181c 4A1F0000 		.4byte	.LASF593
 6782 1820 01       		.byte	0x1
 6783 1821 3705     		.2byte	0x537
 6784 1823 58050000 		.4byte	0x558
 6785 1827 02       		.uleb128 0x2
 6786 1828 91       		.byte	0x91
 6787 1829 60       		.sleb128 -32
 6788 182a 00       		.byte	0
 6789 182b 00       		.byte	0
 6790 182c 22       		.uleb128 0x22
 6791 182d 3F320000 		.4byte	.LASF597
 6792 1831 01       		.byte	0x1
 6793 1832 6F05     		.2byte	0x56f
 6794 1834 66030000 		.4byte	0x366
 6795 1838 00000000 		.4byte	.LFB17
 6796 183c 58010000 		.4byte	.LFE17-.LFB17
 6797 1840 01       		.uleb128 0x1
 6798 1841 9C       		.byte	0x9c
 6799 1842 BA180000 		.4byte	0x18ba
 6800 1846 20       		.uleb128 0x20
ARM GAS  C:\Users\megan\AppData\Local\Temp\ccmgjhBj.s 			page 149


 6801 1847 DE340000 		.4byte	.LASF180
 6802 184b 01       		.byte	0x1
 6803 184c 6F05     		.2byte	0x56f
 6804 184e EB040000 		.4byte	0x4eb
 6805 1852 02       		.uleb128 0x2
 6806 1853 91       		.byte	0x91
 6807 1854 5C       		.sleb128 -36
 6808 1855 20       		.uleb128 0x20
 6809 1856 A7010000 		.4byte	.LASF248
 6810 185a 01       		.byte	0x1
 6811 185b 7005     		.2byte	0x570
 6812 185d F5070000 		.4byte	0x7f5
 6813 1861 02       		.uleb128 0x2
 6814 1862 91       		.byte	0x91
 6815 1863 5B       		.sleb128 -37
 6816 1864 20       		.uleb128 0x20
 6817 1865 D2130000 		.4byte	.LASF249
 6818 1869 01       		.byte	0x1
 6819 186a 7005     		.2byte	0x570
 6820 186c 6B000000 		.4byte	0x6b
 6821 1870 02       		.uleb128 0x2
 6822 1871 91       		.byte	0x91
 6823 1872 5A       		.sleb128 -38
 6824 1873 20       		.uleb128 0x20
 6825 1874 AF160000 		.4byte	.LASF591
 6826 1878 01       		.byte	0x1
 6827 1879 7005     		.2byte	0x570
 6828 187b 6B000000 		.4byte	0x6b
 6829 187f 02       		.uleb128 0x2
 6830 1880 91       		.byte	0x91
 6831 1881 59       		.sleb128 -39
 6832 1882 20       		.uleb128 0x20
 6833 1883 E3190000 		.4byte	.LASF592
 6834 1887 01       		.byte	0x1
 6835 1888 7005     		.2byte	0x570
 6836 188a 72030000 		.4byte	0x372
 6837 188e 02       		.uleb128 0x2
 6838 188f 91       		.byte	0x91
 6839 1890 00       		.sleb128 0
 6840 1891 21       		.uleb128 0x21
 6841 1892 C0360000 		.4byte	.LASF567
 6842 1896 01       		.byte	0x1
 6843 1897 7205     		.2byte	0x572
 6844 1899 66030000 		.4byte	0x366
 6845 189d 02       		.uleb128 0x2
 6846 189e 91       		.byte	0x91
 6847 189f 6E       		.sleb128 -18
 6848 18a0 25       		.uleb128 0x25
 6849 18a1 E0000000 		.4byte	.LBB6
 6850 18a5 4E000000 		.4byte	.LBE6-.LBB6
 6851 18a9 21       		.uleb128 0x21
 6852 18aa 842F0000 		.4byte	.LASF598
 6853 18ae 01       		.byte	0x1
 6854 18af 8705     		.2byte	0x587
 6855 18b1 94050000 		.4byte	0x594
 6856 18b5 02       		.uleb128 0x2
 6857 18b6 91       		.byte	0x91
ARM GAS  C:\Users\megan\AppData\Local\Temp\ccmgjhBj.s 			page 150


 6858 18b7 60       		.sleb128 -32
 6859 18b8 00       		.byte	0
 6860 18b9 00       		.byte	0
 6861 18ba 22       		.uleb128 0x22
 6862 18bb 7C020000 		.4byte	.LASF599
 6863 18bf 01       		.byte	0x1
 6864 18c0 C805     		.2byte	0x5c8
 6865 18c2 66030000 		.4byte	0x366
 6866 18c6 00000000 		.4byte	.LFB18
 6867 18ca 5C010000 		.4byte	.LFE18-.LFB18
 6868 18ce 01       		.uleb128 0x1
 6869 18cf 9C       		.byte	0x9c
 6870 18d0 48190000 		.4byte	0x1948
 6871 18d4 20       		.uleb128 0x20
 6872 18d5 DE340000 		.4byte	.LASF180
 6873 18d9 01       		.byte	0x1
 6874 18da C805     		.2byte	0x5c8
 6875 18dc EB040000 		.4byte	0x4eb
 6876 18e0 02       		.uleb128 0x2
 6877 18e1 91       		.byte	0x91
 6878 18e2 5C       		.sleb128 -36
 6879 18e3 20       		.uleb128 0x20
 6880 18e4 A7010000 		.4byte	.LASF248
 6881 18e8 01       		.byte	0x1
 6882 18e9 C905     		.2byte	0x5c9
 6883 18eb F5070000 		.4byte	0x7f5
 6884 18ef 02       		.uleb128 0x2
 6885 18f0 91       		.byte	0x91
 6886 18f1 5B       		.sleb128 -37
 6887 18f2 20       		.uleb128 0x20
 6888 18f3 D2130000 		.4byte	.LASF249
 6889 18f7 01       		.byte	0x1
 6890 18f8 C905     		.2byte	0x5c9
 6891 18fa 6B000000 		.4byte	0x6b
 6892 18fe 02       		.uleb128 0x2
 6893 18ff 91       		.byte	0x91
 6894 1900 5A       		.sleb128 -38
 6895 1901 20       		.uleb128 0x20
 6896 1902 AF160000 		.4byte	.LASF591
 6897 1906 01       		.byte	0x1
 6898 1907 C905     		.2byte	0x5c9
 6899 1909 6B000000 		.4byte	0x6b
 6900 190d 02       		.uleb128 0x2
 6901 190e 91       		.byte	0x91
 6902 190f 59       		.sleb128 -39
 6903 1910 20       		.uleb128 0x20
 6904 1911 E3190000 		.4byte	.LASF592
 6905 1915 01       		.byte	0x1
 6906 1916 C905     		.2byte	0x5c9
 6907 1918 72030000 		.4byte	0x372
 6908 191c 02       		.uleb128 0x2
 6909 191d 91       		.byte	0x91
 6910 191e 00       		.sleb128 0
 6911 191f 21       		.uleb128 0x21
 6912 1920 C0360000 		.4byte	.LASF567
 6913 1924 01       		.byte	0x1
 6914 1925 CC05     		.2byte	0x5cc
ARM GAS  C:\Users\megan\AppData\Local\Temp\ccmgjhBj.s 			page 151


 6915 1927 66030000 		.4byte	0x366
 6916 192b 02       		.uleb128 0x2
 6917 192c 91       		.byte	0x91
 6918 192d 6E       		.sleb128 -18
 6919 192e 25       		.uleb128 0x25
 6920 192f CE000000 		.4byte	.LBB7
 6921 1933 64000000 		.4byte	.LBE7-.LBB7
 6922 1937 21       		.uleb128 0x21
 6923 1938 71420000 		.4byte	.LASF600
 6924 193c 01       		.byte	0x1
 6925 193d DF05     		.2byte	0x5df
 6926 193f 9F050000 		.4byte	0x59f
 6927 1943 02       		.uleb128 0x2
 6928 1944 91       		.byte	0x91
 6929 1945 60       		.sleb128 -32
 6930 1946 00       		.byte	0
 6931 1947 00       		.byte	0
 6932 1948 0F       		.uleb128 0xf
 6933 1949 85080000 		.4byte	0x885
 6934 194d 58190000 		.4byte	0x1958
 6935 1951 10       		.uleb128 0x10
 6936 1952 B0000000 		.4byte	0xb0
 6937 1956 00       		.byte	0
 6938 1957 00       		.byte	0
 6939 1958 26       		.uleb128 0x26
 6940 1959 942A0000 		.4byte	.LASF601
 6941 195d 01       		.byte	0x1
 6942 195e 16       		.byte	0x16
 6943 195f 48190000 		.4byte	0x1948
 6944 1963 05       		.uleb128 0x5
 6945 1964 03       		.byte	0x3
 6946 1965 00000000 		.4byte	esssCharIdx0
 6947 1969 26       		.uleb128 0x26
 6948 196a 91000000 		.4byte	.LASF602
 6949 196e 01       		.byte	0x1
 6950 196f 2A       		.byte	0x2a
 6951 1970 48190000 		.4byte	0x1948
 6952 1974 05       		.uleb128 0x5
 6953 1975 03       		.byte	0x3
 6954 1976 14000000 		.4byte	esssCharIdx12
 6955 197a 26       		.uleb128 0x26
 6956 197b 48340000 		.4byte	.LASF603
 6957 197f 01       		.byte	0x1
 6958 1980 8B       		.byte	0x8b
 6959 1981 BB040000 		.4byte	0x4bb
 6960 1985 05       		.uleb128 0x5
 6961 1986 03       		.byte	0x3
 6962 1987 00000000 		.4byte	cyBle_esssReqHandle
 6963 198b 26       		.uleb128 0x26
 6964 198c B3330000 		.4byte	.LASF604
 6965 1990 01       		.byte	0x1
 6966 1991 A0       		.byte	0xa0
 6967 1992 58070000 		.4byte	0x758
 6968 1996 05       		.uleb128 0x5
 6969 1997 03       		.byte	0x3
 6970 1998 04000000 		.4byte	CyBle_EssApplCallback
 6971 199c 27       		.uleb128 0x27
ARM GAS  C:\Users\megan\AppData\Local\Temp\ccmgjhBj.s 			page 152


 6972 199d 243E0000 		.4byte	.LASF605
 6973 19a1 08       		.byte	0x8
 6974 19a2 A302     		.2byte	0x2a3
 6975 19a4 A4000000 		.4byte	0xa4
 6976 19a8 27       		.uleb128 0x27
 6977 19a9 19410000 		.4byte	.LASF606
 6978 19ad 08       		.byte	0x8
 6979 19ae B402     		.2byte	0x2b4
 6980 19b0 AC030000 		.4byte	0x3ac
 6981 19b4 27       		.uleb128 0x27
 6982 19b5 93350000 		.4byte	.LASF607
 6983 19b9 08       		.byte	0x8
 6984 19ba C202     		.2byte	0x2c2
 6985 19bc 6B000000 		.4byte	0x6b
 6986 19c0 27       		.uleb128 0x27
 6987 19c1 00000000 		.4byte	.LASF608
 6988 19c5 08       		.byte	0x8
 6989 19c6 C802     		.2byte	0x2c8
 6990 19c8 6B000000 		.4byte	0x6b
 6991 19cc 0F       		.uleb128 0xf
 6992 19cd DC190000 		.4byte	0x19dc
 6993 19d1 DC190000 		.4byte	0x19dc
 6994 19d5 10       		.uleb128 0x10
 6995 19d6 B0000000 		.4byte	0xb0
 6996 19da 1C       		.byte	0x1c
 6997 19db 00       		.byte	0
 6998 19dc 1D       		.uleb128 0x1d
 6999 19dd 4C070000 		.4byte	0x74c
 7000 19e1 28       		.uleb128 0x28
 7001 19e2 CB260000 		.4byte	.LASF609
 7002 19e6 0B       		.byte	0xb
 7003 19e7 EA       		.byte	0xea
 7004 19e8 EC190000 		.4byte	0x19ec
 7005 19ec 1D       		.uleb128 0x1d
 7006 19ed CC190000 		.4byte	0x19cc
 7007 19f1 29       		.uleb128 0x29
 7008 19f2 EF020000 		.4byte	.LASF610
 7009 19f6 01       		.byte	0x1
 7010 19f7 43       		.byte	0x43
 7011 19f8 021A0000 		.4byte	0x1a02
 7012 19fc 05       		.uleb128 0x5
 7013 19fd 03       		.byte	0x3
 7014 19fe 00000000 		.4byte	cyBle_esss
 7015 1a02 1D       		.uleb128 0x1d
 7016 1a03 E7080000 		.4byte	0x8e7
 7017 1a07 0F       		.uleb128 0xf
 7018 1a08 6B000000 		.4byte	0x6b
 7019 1a0c 171A0000 		.4byte	0x1a17
 7020 1a10 10       		.uleb128 0x10
 7021 1a11 B0000000 		.4byte	0xb0
 7022 1a15 14       		.byte	0x14
 7023 1a16 00       		.byte	0
 7024 1a17 29       		.uleb128 0x29
 7025 1a18 3B280000 		.4byte	.LASF611
 7026 1a1c 01       		.byte	0x1
 7027 1a1d 3E       		.byte	0x3e
 7028 1a1e 071A0000 		.4byte	0x1a07
ARM GAS  C:\Users\megan\AppData\Local\Temp\ccmgjhBj.s 			page 153


 7029 1a22 05       		.uleb128 0x5
 7030 1a23 03       		.byte	0x3
 7031 1a24 00000000 		.4byte	cyBle_esssCharInstances
 7032 1a28 27       		.uleb128 0x27
 7033 1a29 CA360000 		.4byte	.LASF612
 7034 1a2d 0A       		.byte	0xa
 7035 1a2e A90A     		.2byte	0xaa9
 7036 1a30 CD110000 		.4byte	0x11cd
 7037 1a34 00       		.byte	0
 7038              		.section	.debug_abbrev,"",%progbits
 7039              	.Ldebug_abbrev0:
 7040 0000 01       		.uleb128 0x1
 7041 0001 11       		.uleb128 0x11
 7042 0002 01       		.byte	0x1
 7043 0003 25       		.uleb128 0x25
 7044 0004 0E       		.uleb128 0xe
 7045 0005 13       		.uleb128 0x13
 7046 0006 0B       		.uleb128 0xb
 7047 0007 03       		.uleb128 0x3
 7048 0008 0E       		.uleb128 0xe
 7049 0009 1B       		.uleb128 0x1b
 7050 000a 0E       		.uleb128 0xe
 7051 000b 55       		.uleb128 0x55
 7052 000c 17       		.uleb128 0x17
 7053 000d 11       		.uleb128 0x11
 7054 000e 01       		.uleb128 0x1
 7055 000f 10       		.uleb128 0x10
 7056 0010 17       		.uleb128 0x17
 7057 0011 00       		.byte	0
 7058 0012 00       		.byte	0
 7059 0013 02       		.uleb128 0x2
 7060 0014 24       		.uleb128 0x24
 7061 0015 00       		.byte	0
 7062 0016 0B       		.uleb128 0xb
 7063 0017 0B       		.uleb128 0xb
 7064 0018 3E       		.uleb128 0x3e
 7065 0019 0B       		.uleb128 0xb
 7066 001a 03       		.uleb128 0x3
 7067 001b 0E       		.uleb128 0xe
 7068 001c 00       		.byte	0
 7069 001d 00       		.byte	0
 7070 001e 03       		.uleb128 0x3
 7071 001f 24       		.uleb128 0x24
 7072 0020 00       		.byte	0
 7073 0021 0B       		.uleb128 0xb
 7074 0022 0B       		.uleb128 0xb
 7075 0023 3E       		.uleb128 0x3e
 7076 0024 0B       		.uleb128 0xb
 7077 0025 03       		.uleb128 0x3
 7078 0026 08       		.uleb128 0x8
 7079 0027 00       		.byte	0
 7080 0028 00       		.byte	0
 7081 0029 04       		.uleb128 0x4
 7082 002a 16       		.uleb128 0x16
 7083 002b 00       		.byte	0
 7084 002c 03       		.uleb128 0x3
 7085 002d 0E       		.uleb128 0xe
ARM GAS  C:\Users\megan\AppData\Local\Temp\ccmgjhBj.s 			page 154


 7086 002e 3A       		.uleb128 0x3a
 7087 002f 0B       		.uleb128 0xb
 7088 0030 3B       		.uleb128 0x3b
 7089 0031 05       		.uleb128 0x5
 7090 0032 49       		.uleb128 0x49
 7091 0033 13       		.uleb128 0x13
 7092 0034 00       		.byte	0
 7093 0035 00       		.byte	0
 7094 0036 05       		.uleb128 0x5
 7095 0037 35       		.uleb128 0x35
 7096 0038 00       		.byte	0
 7097 0039 49       		.uleb128 0x49
 7098 003a 13       		.uleb128 0x13
 7099 003b 00       		.byte	0
 7100 003c 00       		.byte	0
 7101 003d 06       		.uleb128 0x6
 7102 003e 0F       		.uleb128 0xf
 7103 003f 00       		.byte	0
 7104 0040 0B       		.uleb128 0xb
 7105 0041 0B       		.uleb128 0xb
 7106 0042 00       		.byte	0
 7107 0043 00       		.byte	0
 7108 0044 07       		.uleb128 0x7
 7109 0045 0F       		.uleb128 0xf
 7110 0046 00       		.byte	0
 7111 0047 0B       		.uleb128 0xb
 7112 0048 0B       		.uleb128 0xb
 7113 0049 49       		.uleb128 0x49
 7114 004a 13       		.uleb128 0x13
 7115 004b 00       		.byte	0
 7116 004c 00       		.byte	0
 7117 004d 08       		.uleb128 0x8
 7118 004e 15       		.uleb128 0x15
 7119 004f 01       		.byte	0x1
 7120 0050 27       		.uleb128 0x27
 7121 0051 19       		.uleb128 0x19
 7122 0052 01       		.uleb128 0x1
 7123 0053 13       		.uleb128 0x13
 7124 0054 00       		.byte	0
 7125 0055 00       		.byte	0
 7126 0056 09       		.uleb128 0x9
 7127 0057 05       		.uleb128 0x5
 7128 0058 00       		.byte	0
 7129 0059 49       		.uleb128 0x49
 7130 005a 13       		.uleb128 0x13
 7131 005b 00       		.byte	0
 7132 005c 00       		.byte	0
 7133 005d 0A       		.uleb128 0xa
 7134 005e 04       		.uleb128 0x4
 7135 005f 01       		.byte	0x1
 7136 0060 0B       		.uleb128 0xb
 7137 0061 0B       		.uleb128 0xb
 7138 0062 49       		.uleb128 0x49
 7139 0063 13       		.uleb128 0x13
 7140 0064 3A       		.uleb128 0x3a
 7141 0065 0B       		.uleb128 0xb
 7142 0066 3B       		.uleb128 0x3b
ARM GAS  C:\Users\megan\AppData\Local\Temp\ccmgjhBj.s 			page 155


 7143 0067 05       		.uleb128 0x5
 7144 0068 01       		.uleb128 0x1
 7145 0069 13       		.uleb128 0x13
 7146 006a 00       		.byte	0
 7147 006b 00       		.byte	0
 7148 006c 0B       		.uleb128 0xb
 7149 006d 28       		.uleb128 0x28
 7150 006e 00       		.byte	0
 7151 006f 03       		.uleb128 0x3
 7152 0070 0E       		.uleb128 0xe
 7153 0071 1C       		.uleb128 0x1c
 7154 0072 0B       		.uleb128 0xb
 7155 0073 00       		.byte	0
 7156 0074 00       		.byte	0
 7157 0075 0C       		.uleb128 0xc
 7158 0076 28       		.uleb128 0x28
 7159 0077 00       		.byte	0
 7160 0078 03       		.uleb128 0x3
 7161 0079 0E       		.uleb128 0xe
 7162 007a 1C       		.uleb128 0x1c
 7163 007b 05       		.uleb128 0x5
 7164 007c 00       		.byte	0
 7165 007d 00       		.byte	0
 7166 007e 0D       		.uleb128 0xd
 7167 007f 13       		.uleb128 0x13
 7168 0080 01       		.byte	0x1
 7169 0081 0B       		.uleb128 0xb
 7170 0082 0B       		.uleb128 0xb
 7171 0083 3A       		.uleb128 0x3a
 7172 0084 0B       		.uleb128 0xb
 7173 0085 3B       		.uleb128 0x3b
 7174 0086 05       		.uleb128 0x5
 7175 0087 01       		.uleb128 0x1
 7176 0088 13       		.uleb128 0x13
 7177 0089 00       		.byte	0
 7178 008a 00       		.byte	0
 7179 008b 0E       		.uleb128 0xe
 7180 008c 0D       		.uleb128 0xd
 7181 008d 00       		.byte	0
 7182 008e 03       		.uleb128 0x3
 7183 008f 0E       		.uleb128 0xe
 7184 0090 3A       		.uleb128 0x3a
 7185 0091 0B       		.uleb128 0xb
 7186 0092 3B       		.uleb128 0x3b
 7187 0093 05       		.uleb128 0x5
 7188 0094 49       		.uleb128 0x49
 7189 0095 13       		.uleb128 0x13
 7190 0096 38       		.uleb128 0x38
 7191 0097 0B       		.uleb128 0xb
 7192 0098 00       		.byte	0
 7193 0099 00       		.byte	0
 7194 009a 0F       		.uleb128 0xf
 7195 009b 01       		.uleb128 0x1
 7196 009c 01       		.byte	0x1
 7197 009d 49       		.uleb128 0x49
 7198 009e 13       		.uleb128 0x13
 7199 009f 01       		.uleb128 0x1
ARM GAS  C:\Users\megan\AppData\Local\Temp\ccmgjhBj.s 			page 156


 7200 00a0 13       		.uleb128 0x13
 7201 00a1 00       		.byte	0
 7202 00a2 00       		.byte	0
 7203 00a3 10       		.uleb128 0x10
 7204 00a4 21       		.uleb128 0x21
 7205 00a5 00       		.byte	0
 7206 00a6 49       		.uleb128 0x49
 7207 00a7 13       		.uleb128 0x13
 7208 00a8 2F       		.uleb128 0x2f
 7209 00a9 0B       		.uleb128 0xb
 7210 00aa 00       		.byte	0
 7211 00ab 00       		.byte	0
 7212 00ac 11       		.uleb128 0x11
 7213 00ad 04       		.uleb128 0x4
 7214 00ae 01       		.byte	0x1
 7215 00af 0B       		.uleb128 0xb
 7216 00b0 0B       		.uleb128 0xb
 7217 00b1 49       		.uleb128 0x49
 7218 00b2 13       		.uleb128 0x13
 7219 00b3 3A       		.uleb128 0x3a
 7220 00b4 0B       		.uleb128 0xb
 7221 00b5 3B       		.uleb128 0x3b
 7222 00b6 0B       		.uleb128 0xb
 7223 00b7 01       		.uleb128 0x1
 7224 00b8 13       		.uleb128 0x13
 7225 00b9 00       		.byte	0
 7226 00ba 00       		.byte	0
 7227 00bb 12       		.uleb128 0x12
 7228 00bc 0D       		.uleb128 0xd
 7229 00bd 00       		.byte	0
 7230 00be 03       		.uleb128 0x3
 7231 00bf 08       		.uleb128 0x8
 7232 00c0 3A       		.uleb128 0x3a
 7233 00c1 0B       		.uleb128 0xb
 7234 00c2 3B       		.uleb128 0x3b
 7235 00c3 05       		.uleb128 0x5
 7236 00c4 49       		.uleb128 0x49
 7237 00c5 13       		.uleb128 0x13
 7238 00c6 38       		.uleb128 0x38
 7239 00c7 0B       		.uleb128 0xb
 7240 00c8 00       		.byte	0
 7241 00c9 00       		.byte	0
 7242 00ca 13       		.uleb128 0x13
 7243 00cb 16       		.uleb128 0x16
 7244 00cc 00       		.byte	0
 7245 00cd 03       		.uleb128 0x3
 7246 00ce 0E       		.uleb128 0xe
 7247 00cf 3A       		.uleb128 0x3a
 7248 00d0 0B       		.uleb128 0xb
 7249 00d1 3B       		.uleb128 0x3b
 7250 00d2 0B       		.uleb128 0xb
 7251 00d3 49       		.uleb128 0x49
 7252 00d4 13       		.uleb128 0x13
 7253 00d5 00       		.byte	0
 7254 00d6 00       		.byte	0
 7255 00d7 14       		.uleb128 0x14
 7256 00d8 13       		.uleb128 0x13
ARM GAS  C:\Users\megan\AppData\Local\Temp\ccmgjhBj.s 			page 157


 7257 00d9 01       		.byte	0x1
 7258 00da 0B       		.uleb128 0xb
 7259 00db 0B       		.uleb128 0xb
 7260 00dc 3A       		.uleb128 0x3a
 7261 00dd 0B       		.uleb128 0xb
 7262 00de 3B       		.uleb128 0x3b
 7263 00df 0B       		.uleb128 0xb
 7264 00e0 01       		.uleb128 0x1
 7265 00e1 13       		.uleb128 0x13
 7266 00e2 00       		.byte	0
 7267 00e3 00       		.byte	0
 7268 00e4 15       		.uleb128 0x15
 7269 00e5 0D       		.uleb128 0xd
 7270 00e6 00       		.byte	0
 7271 00e7 03       		.uleb128 0x3
 7272 00e8 0E       		.uleb128 0xe
 7273 00e9 3A       		.uleb128 0x3a
 7274 00ea 0B       		.uleb128 0xb
 7275 00eb 3B       		.uleb128 0x3b
 7276 00ec 0B       		.uleb128 0xb
 7277 00ed 49       		.uleb128 0x49
 7278 00ee 13       		.uleb128 0x13
 7279 00ef 38       		.uleb128 0x38
 7280 00f0 0B       		.uleb128 0xb
 7281 00f1 00       		.byte	0
 7282 00f2 00       		.byte	0
 7283 00f3 16       		.uleb128 0x16
 7284 00f4 17       		.uleb128 0x17
 7285 00f5 01       		.byte	0x1
 7286 00f6 0B       		.uleb128 0xb
 7287 00f7 0B       		.uleb128 0xb
 7288 00f8 3A       		.uleb128 0x3a
 7289 00f9 0B       		.uleb128 0xb
 7290 00fa 3B       		.uleb128 0x3b
 7291 00fb 0B       		.uleb128 0xb
 7292 00fc 01       		.uleb128 0x1
 7293 00fd 13       		.uleb128 0x13
 7294 00fe 00       		.byte	0
 7295 00ff 00       		.byte	0
 7296 0100 17       		.uleb128 0x17
 7297 0101 0D       		.uleb128 0xd
 7298 0102 00       		.byte	0
 7299 0103 03       		.uleb128 0x3
 7300 0104 0E       		.uleb128 0xe
 7301 0105 3A       		.uleb128 0x3a
 7302 0106 0B       		.uleb128 0xb
 7303 0107 3B       		.uleb128 0x3b
 7304 0108 0B       		.uleb128 0xb
 7305 0109 49       		.uleb128 0x49
 7306 010a 13       		.uleb128 0x13
 7307 010b 00       		.byte	0
 7308 010c 00       		.byte	0
 7309 010d 18       		.uleb128 0x18
 7310 010e 2E       		.uleb128 0x2e
 7311 010f 00       		.byte	0
 7312 0110 3F       		.uleb128 0x3f
 7313 0111 19       		.uleb128 0x19
ARM GAS  C:\Users\megan\AppData\Local\Temp\ccmgjhBj.s 			page 158


 7314 0112 03       		.uleb128 0x3
 7315 0113 0E       		.uleb128 0xe
 7316 0114 3A       		.uleb128 0x3a
 7317 0115 0B       		.uleb128 0xb
 7318 0116 3B       		.uleb128 0x3b
 7319 0117 0B       		.uleb128 0xb
 7320 0118 27       		.uleb128 0x27
 7321 0119 19       		.uleb128 0x19
 7322 011a 11       		.uleb128 0x11
 7323 011b 01       		.uleb128 0x1
 7324 011c 12       		.uleb128 0x12
 7325 011d 06       		.uleb128 0x6
 7326 011e 40       		.uleb128 0x40
 7327 011f 18       		.uleb128 0x18
 7328 0120 9742     		.uleb128 0x2117
 7329 0122 19       		.uleb128 0x19
 7330 0123 00       		.byte	0
 7331 0124 00       		.byte	0
 7332 0125 19       		.uleb128 0x19
 7333 0126 2E       		.uleb128 0x2e
 7334 0127 01       		.byte	0x1
 7335 0128 3F       		.uleb128 0x3f
 7336 0129 19       		.uleb128 0x19
 7337 012a 03       		.uleb128 0x3
 7338 012b 0E       		.uleb128 0xe
 7339 012c 3A       		.uleb128 0x3a
 7340 012d 0B       		.uleb128 0xb
 7341 012e 3B       		.uleb128 0x3b
 7342 012f 0B       		.uleb128 0xb
 7343 0130 27       		.uleb128 0x27
 7344 0131 19       		.uleb128 0x19
 7345 0132 11       		.uleb128 0x11
 7346 0133 01       		.uleb128 0x1
 7347 0134 12       		.uleb128 0x12
 7348 0135 06       		.uleb128 0x6
 7349 0136 40       		.uleb128 0x40
 7350 0137 18       		.uleb128 0x18
 7351 0138 9742     		.uleb128 0x2117
 7352 013a 19       		.uleb128 0x19
 7353 013b 01       		.uleb128 0x1
 7354 013c 13       		.uleb128 0x13
 7355 013d 00       		.byte	0
 7356 013e 00       		.byte	0
 7357 013f 1A       		.uleb128 0x1a
 7358 0140 05       		.uleb128 0x5
 7359 0141 00       		.byte	0
 7360 0142 03       		.uleb128 0x3
 7361 0143 0E       		.uleb128 0xe
 7362 0144 3A       		.uleb128 0x3a
 7363 0145 0B       		.uleb128 0xb
 7364 0146 3B       		.uleb128 0x3b
 7365 0147 0B       		.uleb128 0xb
 7366 0148 49       		.uleb128 0x49
 7367 0149 13       		.uleb128 0x13
 7368 014a 02       		.uleb128 0x2
 7369 014b 18       		.uleb128 0x18
 7370 014c 00       		.byte	0
ARM GAS  C:\Users\megan\AppData\Local\Temp\ccmgjhBj.s 			page 159


 7371 014d 00       		.byte	0
 7372 014e 1B       		.uleb128 0x1b
 7373 014f 2E       		.uleb128 0x2e
 7374 0150 01       		.byte	0x1
 7375 0151 3F       		.uleb128 0x3f
 7376 0152 19       		.uleb128 0x19
 7377 0153 03       		.uleb128 0x3
 7378 0154 0E       		.uleb128 0xe
 7379 0155 3A       		.uleb128 0x3a
 7380 0156 0B       		.uleb128 0xb
 7381 0157 3B       		.uleb128 0x3b
 7382 0158 0B       		.uleb128 0xb
 7383 0159 27       		.uleb128 0x27
 7384 015a 19       		.uleb128 0x19
 7385 015b 49       		.uleb128 0x49
 7386 015c 13       		.uleb128 0x13
 7387 015d 11       		.uleb128 0x11
 7388 015e 01       		.uleb128 0x1
 7389 015f 12       		.uleb128 0x12
 7390 0160 06       		.uleb128 0x6
 7391 0161 40       		.uleb128 0x40
 7392 0162 18       		.uleb128 0x18
 7393 0163 9742     		.uleb128 0x2117
 7394 0165 19       		.uleb128 0x19
 7395 0166 01       		.uleb128 0x1
 7396 0167 13       		.uleb128 0x13
 7397 0168 00       		.byte	0
 7398 0169 00       		.byte	0
 7399 016a 1C       		.uleb128 0x1c
 7400 016b 05       		.uleb128 0x5
 7401 016c 00       		.byte	0
 7402 016d 03       		.uleb128 0x3
 7403 016e 08       		.uleb128 0x8
 7404 016f 3A       		.uleb128 0x3a
 7405 0170 0B       		.uleb128 0xb
 7406 0171 3B       		.uleb128 0x3b
 7407 0172 0B       		.uleb128 0xb
 7408 0173 49       		.uleb128 0x49
 7409 0174 13       		.uleb128 0x13
 7410 0175 02       		.uleb128 0x2
 7411 0176 18       		.uleb128 0x18
 7412 0177 00       		.byte	0
 7413 0178 00       		.byte	0
 7414 0179 1D       		.uleb128 0x1d
 7415 017a 26       		.uleb128 0x26
 7416 017b 00       		.byte	0
 7417 017c 49       		.uleb128 0x49
 7418 017d 13       		.uleb128 0x13
 7419 017e 00       		.byte	0
 7420 017f 00       		.byte	0
 7421 0180 1E       		.uleb128 0x1e
 7422 0181 2E       		.uleb128 0x2e
 7423 0182 01       		.byte	0x1
 7424 0183 3F       		.uleb128 0x3f
 7425 0184 19       		.uleb128 0x19
 7426 0185 03       		.uleb128 0x3
 7427 0186 0E       		.uleb128 0xe
ARM GAS  C:\Users\megan\AppData\Local\Temp\ccmgjhBj.s 			page 160


 7428 0187 3A       		.uleb128 0x3a
 7429 0188 0B       		.uleb128 0xb
 7430 0189 3B       		.uleb128 0x3b
 7431 018a 05       		.uleb128 0x5
 7432 018b 27       		.uleb128 0x27
 7433 018c 19       		.uleb128 0x19
 7434 018d 49       		.uleb128 0x49
 7435 018e 13       		.uleb128 0x13
 7436 018f 11       		.uleb128 0x11
 7437 0190 01       		.uleb128 0x1
 7438 0191 12       		.uleb128 0x12
 7439 0192 06       		.uleb128 0x6
 7440 0193 40       		.uleb128 0x40
 7441 0194 18       		.uleb128 0x18
 7442 0195 9742     		.uleb128 0x2117
 7443 0197 19       		.uleb128 0x19
 7444 0198 01       		.uleb128 0x1
 7445 0199 13       		.uleb128 0x13
 7446 019a 00       		.byte	0
 7447 019b 00       		.byte	0
 7448 019c 1F       		.uleb128 0x1f
 7449 019d 05       		.uleb128 0x5
 7450 019e 00       		.byte	0
 7451 019f 03       		.uleb128 0x3
 7452 01a0 08       		.uleb128 0x8
 7453 01a1 3A       		.uleb128 0x3a
 7454 01a2 0B       		.uleb128 0xb
 7455 01a3 3B       		.uleb128 0x3b
 7456 01a4 05       		.uleb128 0x5
 7457 01a5 49       		.uleb128 0x49
 7458 01a6 13       		.uleb128 0x13
 7459 01a7 02       		.uleb128 0x2
 7460 01a8 18       		.uleb128 0x18
 7461 01a9 00       		.byte	0
 7462 01aa 00       		.byte	0
 7463 01ab 20       		.uleb128 0x20
 7464 01ac 05       		.uleb128 0x5
 7465 01ad 00       		.byte	0
 7466 01ae 03       		.uleb128 0x3
 7467 01af 0E       		.uleb128 0xe
 7468 01b0 3A       		.uleb128 0x3a
 7469 01b1 0B       		.uleb128 0xb
 7470 01b2 3B       		.uleb128 0x3b
 7471 01b3 05       		.uleb128 0x5
 7472 01b4 49       		.uleb128 0x49
 7473 01b5 13       		.uleb128 0x13
 7474 01b6 02       		.uleb128 0x2
 7475 01b7 18       		.uleb128 0x18
 7476 01b8 00       		.byte	0
 7477 01b9 00       		.byte	0
 7478 01ba 21       		.uleb128 0x21
 7479 01bb 34       		.uleb128 0x34
 7480 01bc 00       		.byte	0
 7481 01bd 03       		.uleb128 0x3
 7482 01be 0E       		.uleb128 0xe
 7483 01bf 3A       		.uleb128 0x3a
 7484 01c0 0B       		.uleb128 0xb
ARM GAS  C:\Users\megan\AppData\Local\Temp\ccmgjhBj.s 			page 161


 7485 01c1 3B       		.uleb128 0x3b
 7486 01c2 05       		.uleb128 0x5
 7487 01c3 49       		.uleb128 0x49
 7488 01c4 13       		.uleb128 0x13
 7489 01c5 02       		.uleb128 0x2
 7490 01c6 18       		.uleb128 0x18
 7491 01c7 00       		.byte	0
 7492 01c8 00       		.byte	0
 7493 01c9 22       		.uleb128 0x22
 7494 01ca 2E       		.uleb128 0x2e
 7495 01cb 01       		.byte	0x1
 7496 01cc 3F       		.uleb128 0x3f
 7497 01cd 19       		.uleb128 0x19
 7498 01ce 03       		.uleb128 0x3
 7499 01cf 0E       		.uleb128 0xe
 7500 01d0 3A       		.uleb128 0x3a
 7501 01d1 0B       		.uleb128 0xb
 7502 01d2 3B       		.uleb128 0x3b
 7503 01d3 05       		.uleb128 0x5
 7504 01d4 27       		.uleb128 0x27
 7505 01d5 19       		.uleb128 0x19
 7506 01d6 49       		.uleb128 0x49
 7507 01d7 13       		.uleb128 0x13
 7508 01d8 11       		.uleb128 0x11
 7509 01d9 01       		.uleb128 0x1
 7510 01da 12       		.uleb128 0x12
 7511 01db 06       		.uleb128 0x6
 7512 01dc 40       		.uleb128 0x40
 7513 01dd 18       		.uleb128 0x18
 7514 01de 9642     		.uleb128 0x2116
 7515 01e0 19       		.uleb128 0x19
 7516 01e1 01       		.uleb128 0x1
 7517 01e2 13       		.uleb128 0x13
 7518 01e3 00       		.byte	0
 7519 01e4 00       		.byte	0
 7520 01e5 23       		.uleb128 0x23
 7521 01e6 34       		.uleb128 0x34
 7522 01e7 00       		.byte	0
 7523 01e8 03       		.uleb128 0x3
 7524 01e9 08       		.uleb128 0x8
 7525 01ea 3A       		.uleb128 0x3a
 7526 01eb 0B       		.uleb128 0xb
 7527 01ec 3B       		.uleb128 0x3b
 7528 01ed 05       		.uleb128 0x5
 7529 01ee 49       		.uleb128 0x49
 7530 01ef 13       		.uleb128 0x13
 7531 01f0 02       		.uleb128 0x2
 7532 01f1 18       		.uleb128 0x18
 7533 01f2 00       		.byte	0
 7534 01f3 00       		.byte	0
 7535 01f4 24       		.uleb128 0x24
 7536 01f5 2E       		.uleb128 0x2e
 7537 01f6 01       		.byte	0x1
 7538 01f7 3F       		.uleb128 0x3f
 7539 01f8 19       		.uleb128 0x19
 7540 01f9 03       		.uleb128 0x3
 7541 01fa 0E       		.uleb128 0xe
ARM GAS  C:\Users\megan\AppData\Local\Temp\ccmgjhBj.s 			page 162


 7542 01fb 3A       		.uleb128 0x3a
 7543 01fc 0B       		.uleb128 0xb
 7544 01fd 3B       		.uleb128 0x3b
 7545 01fe 05       		.uleb128 0x5
 7546 01ff 27       		.uleb128 0x27
 7547 0200 19       		.uleb128 0x19
 7548 0201 11       		.uleb128 0x11
 7549 0202 01       		.uleb128 0x1
 7550 0203 12       		.uleb128 0x12
 7551 0204 06       		.uleb128 0x6
 7552 0205 40       		.uleb128 0x40
 7553 0206 18       		.uleb128 0x18
 7554 0207 9642     		.uleb128 0x2116
 7555 0209 19       		.uleb128 0x19
 7556 020a 01       		.uleb128 0x1
 7557 020b 13       		.uleb128 0x13
 7558 020c 00       		.byte	0
 7559 020d 00       		.byte	0
 7560 020e 25       		.uleb128 0x25
 7561 020f 0B       		.uleb128 0xb
 7562 0210 01       		.byte	0x1
 7563 0211 11       		.uleb128 0x11
 7564 0212 01       		.uleb128 0x1
 7565 0213 12       		.uleb128 0x12
 7566 0214 06       		.uleb128 0x6
 7567 0215 00       		.byte	0
 7568 0216 00       		.byte	0
 7569 0217 26       		.uleb128 0x26
 7570 0218 34       		.uleb128 0x34
 7571 0219 00       		.byte	0
 7572 021a 03       		.uleb128 0x3
 7573 021b 0E       		.uleb128 0xe
 7574 021c 3A       		.uleb128 0x3a
 7575 021d 0B       		.uleb128 0xb
 7576 021e 3B       		.uleb128 0x3b
 7577 021f 0B       		.uleb128 0xb
 7578 0220 49       		.uleb128 0x49
 7579 0221 13       		.uleb128 0x13
 7580 0222 02       		.uleb128 0x2
 7581 0223 18       		.uleb128 0x18
 7582 0224 00       		.byte	0
 7583 0225 00       		.byte	0
 7584 0226 27       		.uleb128 0x27
 7585 0227 34       		.uleb128 0x34
 7586 0228 00       		.byte	0
 7587 0229 03       		.uleb128 0x3
 7588 022a 0E       		.uleb128 0xe
 7589 022b 3A       		.uleb128 0x3a
 7590 022c 0B       		.uleb128 0xb
 7591 022d 3B       		.uleb128 0x3b
 7592 022e 05       		.uleb128 0x5
 7593 022f 49       		.uleb128 0x49
 7594 0230 13       		.uleb128 0x13
 7595 0231 3F       		.uleb128 0x3f
 7596 0232 19       		.uleb128 0x19
 7597 0233 3C       		.uleb128 0x3c
 7598 0234 19       		.uleb128 0x19
ARM GAS  C:\Users\megan\AppData\Local\Temp\ccmgjhBj.s 			page 163


 7599 0235 00       		.byte	0
 7600 0236 00       		.byte	0
 7601 0237 28       		.uleb128 0x28
 7602 0238 34       		.uleb128 0x34
 7603 0239 00       		.byte	0
 7604 023a 03       		.uleb128 0x3
 7605 023b 0E       		.uleb128 0xe
 7606 023c 3A       		.uleb128 0x3a
 7607 023d 0B       		.uleb128 0xb
 7608 023e 3B       		.uleb128 0x3b
 7609 023f 0B       		.uleb128 0xb
 7610 0240 49       		.uleb128 0x49
 7611 0241 13       		.uleb128 0x13
 7612 0242 3F       		.uleb128 0x3f
 7613 0243 19       		.uleb128 0x19
 7614 0244 3C       		.uleb128 0x3c
 7615 0245 19       		.uleb128 0x19
 7616 0246 00       		.byte	0
 7617 0247 00       		.byte	0
 7618 0248 29       		.uleb128 0x29
 7619 0249 34       		.uleb128 0x34
 7620 024a 00       		.byte	0
 7621 024b 03       		.uleb128 0x3
 7622 024c 0E       		.uleb128 0xe
 7623 024d 3A       		.uleb128 0x3a
 7624 024e 0B       		.uleb128 0xb
 7625 024f 3B       		.uleb128 0x3b
 7626 0250 0B       		.uleb128 0xb
 7627 0251 49       		.uleb128 0x49
 7628 0252 13       		.uleb128 0x13
 7629 0253 3F       		.uleb128 0x3f
 7630 0254 19       		.uleb128 0x19
 7631 0255 02       		.uleb128 0x2
 7632 0256 18       		.uleb128 0x18
 7633 0257 00       		.byte	0
 7634 0258 00       		.byte	0
 7635 0259 00       		.byte	0
 7636              		.section	.debug_aranges,"",%progbits
 7637 0000 9C000000 		.4byte	0x9c
 7638 0004 0200     		.2byte	0x2
 7639 0006 00000000 		.4byte	.Ldebug_info0
 7640 000a 04       		.byte	0x4
 7641 000b 00       		.byte	0
 7642 000c 0000     		.2byte	0
 7643 000e 0000     		.2byte	0
 7644 0010 00000000 		.4byte	.LFB2
 7645 0014 14000000 		.4byte	.LFE2-.LFB2
 7646 0018 00000000 		.4byte	.LFB3
 7647 001c 1C000000 		.4byte	.LFE3-.LFB3
 7648 0020 00000000 		.4byte	.LFB4
 7649 0024 2A000000 		.4byte	.LFE4-.LFB4
 7650 0028 00000000 		.4byte	.LFB5
 7651 002c 34000000 		.4byte	.LFE5-.LFB5
 7652 0030 00000000 		.4byte	.LFB6
 7653 0034 B8000000 		.4byte	.LFE6-.LFB6
 7654 0038 00000000 		.4byte	.LFB7
 7655 003c DC010000 		.4byte	.LFE7-.LFB7
ARM GAS  C:\Users\megan\AppData\Local\Temp\ccmgjhBj.s 			page 164


 7656 0040 00000000 		.4byte	.LFB8
 7657 0044 CC050000 		.4byte	.LFE8-.LFB8
 7658 0048 00000000 		.4byte	.LFB9
 7659 004c 2C010000 		.4byte	.LFE9-.LFB9
 7660 0050 00000000 		.4byte	.LFB10
 7661 0054 2C020000 		.4byte	.LFE10-.LFB10
 7662 0058 00000000 		.4byte	.LFB11
 7663 005c 84000000 		.4byte	.LFE11-.LFB11
 7664 0060 00000000 		.4byte	.LFB12
 7665 0064 68010000 		.4byte	.LFE12-.LFB12
 7666 0068 00000000 		.4byte	.LFB13
 7667 006c EC000000 		.4byte	.LFE13-.LFB13
 7668 0070 00000000 		.4byte	.LFB14
 7669 0074 28010000 		.4byte	.LFE14-.LFB14
 7670 0078 00000000 		.4byte	.LFB15
 7671 007c 78010000 		.4byte	.LFE15-.LFB15
 7672 0080 00000000 		.4byte	.LFB16
 7673 0084 30010000 		.4byte	.LFE16-.LFB16
 7674 0088 00000000 		.4byte	.LFB17
 7675 008c 58010000 		.4byte	.LFE17-.LFB17
 7676 0090 00000000 		.4byte	.LFB18
 7677 0094 5C010000 		.4byte	.LFE18-.LFB18
 7678 0098 00000000 		.4byte	0
 7679 009c 00000000 		.4byte	0
 7680              		.section	.debug_ranges,"",%progbits
 7681              	.Ldebug_ranges0:
 7682 0000 00000000 		.4byte	.LFB2
 7683 0004 14000000 		.4byte	.LFE2
 7684 0008 00000000 		.4byte	.LFB3
 7685 000c 1C000000 		.4byte	.LFE3
 7686 0010 00000000 		.4byte	.LFB4
 7687 0014 2A000000 		.4byte	.LFE4
 7688 0018 00000000 		.4byte	.LFB5
 7689 001c 34000000 		.4byte	.LFE5
 7690 0020 00000000 		.4byte	.LFB6
 7691 0024 B8000000 		.4byte	.LFE6
 7692 0028 00000000 		.4byte	.LFB7
 7693 002c DC010000 		.4byte	.LFE7
 7694 0030 00000000 		.4byte	.LFB8
 7695 0034 CC050000 		.4byte	.LFE8
 7696 0038 00000000 		.4byte	.LFB9
 7697 003c 2C010000 		.4byte	.LFE9
 7698 0040 00000000 		.4byte	.LFB10
 7699 0044 2C020000 		.4byte	.LFE10
 7700 0048 00000000 		.4byte	.LFB11
 7701 004c 84000000 		.4byte	.LFE11
 7702 0050 00000000 		.4byte	.LFB12
 7703 0054 68010000 		.4byte	.LFE12
 7704 0058 00000000 		.4byte	.LFB13
 7705 005c EC000000 		.4byte	.LFE13
 7706 0060 00000000 		.4byte	.LFB14
 7707 0064 28010000 		.4byte	.LFE14
 7708 0068 00000000 		.4byte	.LFB15
 7709 006c 78010000 		.4byte	.LFE15
 7710 0070 00000000 		.4byte	.LFB16
 7711 0074 30010000 		.4byte	.LFE16
 7712 0078 00000000 		.4byte	.LFB17
ARM GAS  C:\Users\megan\AppData\Local\Temp\ccmgjhBj.s 			page 165


 7713 007c 58010000 		.4byte	.LFE17
 7714 0080 00000000 		.4byte	.LFB18
 7715 0084 5C010000 		.4byte	.LFE18
 7716 0088 00000000 		.4byte	0
 7717 008c 00000000 		.4byte	0
 7718              		.section	.debug_line,"",%progbits
 7719              	.Ldebug_line0:
 7720 0000 32050000 		.section	.debug_str,"MS",%progbits,1
 7720      0200F400 
 7720      00000201 
 7720      FB0E0D00 
 7720      01010101 
 7721              	.LASF608:
 7722 0000 6379426C 		.ascii	"cyBle_peerBonding\000"
 7722      655F7065 
 7722      6572426F 
 7722      6E64696E 
 7722      6700
 7723              	.LASF520:
 7724 0012 4359424C 		.ascii	"CYBLE_EVT_UDSC_READ_CHAR_RESPONSE\000"
 7724      455F4556 
 7724      545F5544 
 7724      53435F52 
 7724      4541445F 
 7725              	.LASF479:
 7726 0034 4359424C 		.ascii	"CYBLE_EVT_PLXSC_NOTIFICATION\000"
 7726      455F4556 
 7726      545F504C 
 7726      5853435F 
 7726      4E4F5449 
 7727              	.LASF430:
 7728 0051 4359424C 		.ascii	"CYBLE_EVT_HTSS_NOTIFICATION_DISABLED\000"
 7728      455F4556 
 7728      545F4854 
 7728      53535F4E 
 7728      4F544946 
 7729              	.LASF154:
 7730 0076 4359424C 		.ascii	"CYBLE_GATT_ERR_INVALID_CRC\000"
 7730      455F4741 
 7730      54545F45 
 7730      52525F49 
 7730      4E56414C 
 7731              	.LASF602:
 7732 0091 65737373 		.ascii	"esssCharIdx12\000"
 7732      43686172 
 7732      49647831 
 7732      3200
 7733              	.LASF476:
 7734 009f 4359424C 		.ascii	"CYBLE_EVT_PLXSS_INDICATION_ENABLED\000"
 7734      455F4556 
 7734      545F504C 
 7734      5853535F 
 7734      494E4449 
 7735              	.LASF16:
 7736 00c2 73697A65 		.ascii	"sizetype\000"
 7736      74797065 
 7736      00
ARM GAS  C:\Users\megan\AppData\Local\Temp\ccmgjhBj.s 			page 166


 7737              	.LASF311:
 7738 00cb 4359424C 		.ascii	"CYBLE_EVT_BCSC_READ_CHAR_RESPONSE\000"
 7738      455F4556 
 7738      545F4243 
 7738      53435F52 
 7738      4541445F 
 7739              	.LASF178:
 7740 00ed 4359424C 		.ascii	"CYBLE_GATTS_HANDLE_VALUE_NTF_T\000"
 7740      455F4741 
 7740      5454535F 
 7740      48414E44 
 7740      4C455F56 
 7741              	.LASF319:
 7742 010c 4359424C 		.ascii	"CYBLE_EVT_BLSC_INDICATION\000"
 7742      455F4556 
 7742      545F424C 
 7742      53435F49 
 7742      4E444943 
 7743              	.LASF334:
 7744 0126 4359424C 		.ascii	"CYBLE_EVT_CGMSC_INDICATION\000"
 7744      455F4556 
 7744      545F4347 
 7744      4D53435F 
 7744      494E4449 
 7745              	.LASF352:
 7746 0141 4359424C 		.ascii	"CYBLE_EVT_CPSC_READ_DESCR_RESPONSE\000"
 7746      455F4556 
 7746      545F4350 
 7746      53435F52 
 7746      4541445F 
 7747              	.LASF483:
 7748 0164 4359424C 		.ascii	"CYBLE_EVT_PLXSC_READ_DESCR_RESPONSE\000"
 7748      455F4556 
 7748      545F504C 
 7748      5853435F 
 7748      52454144 
 7749              	.LASF497:
 7750 0188 4359424C 		.ascii	"CYBLE_EVT_RTUSS_WRITE_CHAR_CMD\000"
 7750      455F4556 
 7750      545F5254 
 7750      5553535F 
 7750      57524954 
 7751              	.LASF248:
 7752 01a7 63686172 		.ascii	"charIndex\000"
 7752      496E6465 
 7752      7800
 7753              	.LASF531:
 7754 01b1 4359424C 		.ascii	"CYBLE_EVT_WPTSC_NOTIFICATION\000"
 7754      455F4556 
 7754      545F5750 
 7754      5453435F 
 7754      4E4F5449 
 7755              	.LASF37:
 7756 01ce 4359424C 		.ascii	"CYBLE_EVT_GAP_NUMERIC_COMPARISON_REQUEST\000"
 7756      455F4556 
 7756      545F4741 
 7756      505F4E55 
ARM GAS  C:\Users\megan\AppData\Local\Temp\ccmgjhBj.s 			page 167


 7756      4D455249 
 7757              	.LASF278:
 7758 01f7 4359424C 		.ascii	"CYBLE_EVT_AIOSC_NOTIFICATION\000"
 7758      455F4556 
 7758      545F4149 
 7758      4F53435F 
 7758      4E4F5449 
 7759              	.LASF537:
 7760 0214 4359424C 		.ascii	"CYBLE_EVT_WSSS_INDICATION_ENABLED\000"
 7760      455F4556 
 7760      545F5753 
 7760      53535F49 
 7760      4E444943 
 7761              	.LASF350:
 7762 0236 4359424C 		.ascii	"CYBLE_EVT_CPSC_READ_CHAR_RESPONSE\000"
 7762      455F4556 
 7762      545F4350 
 7762      53435F52 
 7762      4541445F 
 7763              	.LASF316:
 7764 0258 4359424C 		.ascii	"CYBLE_EVT_BLSS_INDICATION_CONFIRMED\000"
 7764      455F4556 
 7764      545F424C 
 7764      53535F49 
 7764      4E444943 
 7765              	.LASF599:
 7766 027c 4379426C 		.ascii	"CyBle_EsssSendIndication\000"
 7766      655F4573 
 7766      73735365 
 7766      6E64496E 
 7766      64696361 
 7767              	.LASF363:
 7768 0295 4359424C 		.ascii	"CYBLE_EVT_CSCSC_READ_CHAR_RESPONSE\000"
 7768      455F4556 
 7768      545F4353 
 7768      4353435F 
 7768      52454144 
 7769              	.LASF209:
 7770 02b8 4359424C 		.ascii	"CYBLE_ESS_DEW_POINT\000"
 7770      455F4553 
 7770      535F4445 
 7770      575F504F 
 7770      494E5400 
 7771              	.LASF184:
 7772 02cc 4359424C 		.ascii	"CYBLE_GATTS_PREP_WRITE_REQ_PARAM_T\000"
 7772      455F4741 
 7772      5454535F 
 7772      50524550 
 7772      5F575249 
 7773              	.LASF610:
 7774 02ef 6379426C 		.ascii	"cyBle_esss\000"
 7774      655F6573 
 7774      737300
 7775              	.LASF339:
 7776 02fa 4359424C 		.ascii	"CYBLE_EVT_CGMSC_WRITE_DESCR_RESPONSE\000"
 7776      455F4556 
 7776      545F4347 
ARM GAS  C:\Users\megan\AppData\Local\Temp\ccmgjhBj.s 			page 168


 7776      4D53435F 
 7776      57524954 
 7777              	.LASF393:
 7778 031f 4359424C 		.ascii	"CYBLE_EVT_GLSS_NOTIFICATION_DISABLED\000"
 7778      455F4556 
 7778      545F474C 
 7778      53535F4E 
 7778      4F544946 
 7779              	.LASF569:
 7780 0344 6576656E 		.ascii	"eventParam\000"
 7780      74506172 
 7780      616D00
 7781              	.LASF321:
 7782 034f 4359424C 		.ascii	"CYBLE_EVT_BLSC_READ_CHAR_RESPONSE\000"
 7782      455F4556 
 7782      545F424C 
 7782      53435F52 
 7782      4541445F 
 7783              	.LASF31:
 7784 0371 4359424C 		.ascii	"CYBLE_EVT_GAP_DEVICE_CONNECTED\000"
 7784      455F4556 
 7784      545F4741 
 7784      505F4445 
 7784      56494345 
 7785              	.LASF452:
 7786 0390 4359424C 		.ascii	"CYBLE_EVT_LLSC_WRITE_CHAR_RESPONSE\000"
 7786      455F4556 
 7786      545F4C4C 
 7786      53435F57 
 7786      52495445 
 7787              	.LASF49:
 7788 03b3 4359424C 		.ascii	"CYBLE_EVT_GATT_CONNECT_IND\000"
 7788      455F4556 
 7788      545F4741 
 7788      54545F43 
 7788      4F4E4E45 
 7789              	.LASF398:
 7790 03ce 4359424C 		.ascii	"CYBLE_EVT_GLSC_WRITE_CHAR_RESPONSE\000"
 7790      455F4556 
 7790      545F474C 
 7790      53435F57 
 7790      52495445 
 7791              	.LASF585:
 7792 03f1 65737349 		.ascii	"essIndex\000"
 7792      6E646578 
 7792      00
 7793              	.LASF11:
 7794 03fa 75696E74 		.ascii	"uint32\000"
 7794      333200
 7795              	.LASF250:
 7796 0401 4359424C 		.ascii	"CYBLE_ESS_CHAR_VALUE_T\000"
 7796      455F4553 
 7796      535F4348 
 7796      41525F56 
 7796      414C5545 
 7797              	.LASF263:
 7798 0418 4359424C 		.ascii	"CYBLE_EVT_GATTC_DESCR_DISCOVERY_FAILED\000"
ARM GAS  C:\Users\megan\AppData\Local\Temp\ccmgjhBj.s 			page 169


 7798      455F4556 
 7798      545F4741 
 7798      5454435F 
 7798      44455343 
 7799              	.LASF496:
 7800 043f 4359424C 		.ascii	"CYBLE_EVT_RSCSC_WRITE_DESCR_RESPONSE\000"
 7800      455F4556 
 7800      545F5253 
 7800      4353435F 
 7800      57524954 
 7801              	.LASF309:
 7802 0464 4359424C 		.ascii	"CYBLE_EVT_BCSS_INDICATION_CONFIRMED\000"
 7802      455F4556 
 7802      545F4243 
 7802      53535F49 
 7802      4E444943 
 7803              	.LASF310:
 7804 0488 4359424C 		.ascii	"CYBLE_EVT_BCSC_INDICATION\000"
 7804      455F4556 
 7804      545F4243 
 7804      53435F49 
 7804      4E444943 
 7805              	.LASF454:
 7806 04a2 4359424C 		.ascii	"CYBLE_EVT_LNSS_INDICATION_DISABLED\000"
 7806      455F4556 
 7806      545F4C4E 
 7806      53535F49 
 7806      4E444943 
 7807              	.LASF371:
 7808 04c5 4359424C 		.ascii	"CYBLE_EVT_CTSC_READ_CHAR_RESPONSE\000"
 7808      455F4556 
 7808      545F4354 
 7808      53435F52 
 7808      4541445F 
 7809              	.LASF267:
 7810 04e7 4359424C 		.ascii	"CYBLE_EVT_GATTC_SRVC_DISCOVERY_COMPLETE\000"
 7810      455F4556 
 7810      545F4741 
 7810      5454435F 
 7810      53525643 
 7811              	.LASF490:
 7812 050f 4359424C 		.ascii	"CYBLE_EVT_RSCSS_CHAR_WRITE\000"
 7812      455F4556 
 7812      545F5253 
 7812      4353535F 
 7812      43484152 
 7813              	.LASF480:
 7814 052a 4359424C 		.ascii	"CYBLE_EVT_PLXSC_INDICATION\000"
 7814      455F4556 
 7814      545F504C 
 7814      5853435F 
 7814      494E4449 
 7815              	.LASF523:
 7816 0545 4359424C 		.ascii	"CYBLE_EVT_UDSC_WRITE_DESCR_RESPONSE\000"
 7816      455F4556 
 7816      545F5544 
 7816      53435F57 
ARM GAS  C:\Users\megan\AppData\Local\Temp\ccmgjhBj.s 			page 170


 7816      52495445 
 7817              	.LASF412:
 7818 0569 4359424C 		.ascii	"CYBLE_EVT_HIDSC_WRITE_DESCR_RESPONSE\000"
 7818      455F4556 
 7818      545F4849 
 7818      4453435F 
 7818      57524954 
 7819              	.LASF505:
 7820 058e 4359424C 		.ascii	"CYBLE_EVT_TPSS_NOTIFICATION_ENABLED\000"
 7820      455F4556 
 7820      545F5450 
 7820      53535F4E 
 7820      4F544946 
 7821              	.LASF299:
 7822 05b2 4359424C 		.ascii	"CYBLE_EVT_ANSC_READ_DESCR_RESPONSE\000"
 7822      455F4556 
 7822      545F414E 
 7822      53435F52 
 7822      4541445F 
 7823              	.LASF128:
 7824 05d5 4359424C 		.ascii	"CYBLE_GATT_ERR_READ_NOT_PERMITTED\000"
 7824      455F4741 
 7824      54545F45 
 7824      52525F52 
 7824      4541445F 
 7825              	.LASF143:
 7826 05f7 4359424C 		.ascii	"CYBLE_GATT_ERR_INSUFFICIENT_RESOURCE\000"
 7826      455F4741 
 7826      54545F45 
 7826      52525F49 
 7826      4E535546 
 7827              	.LASF142:
 7828 061c 4359424C 		.ascii	"CYBLE_GATT_ERR_UNSUPPORTED_GROUP_TYPE\000"
 7828      455F4741 
 7828      54545F45 
 7828      52525F55 
 7828      4E535550 
 7829              	.LASF105:
 7830 0642 4359424C 		.ascii	"CYBLE_ERROR_L2CAP_CONNECTION_ENTITY_NOT_FOUND\000"
 7830      455F4552 
 7830      524F525F 
 7830      4C324341 
 7830      505F434F 
 7831              	.LASF555:
 7832 0670 73746174 		.ascii	"state\000"
 7832      6500
 7833              	.LASF111:
 7834 0676 4359424C 		.ascii	"CYBLE_ERROR_MIC_AUTH_FAILED\000"
 7834      455F4552 
 7834      524F525F 
 7834      4D49435F 
 7834      41555448 
 7835              	.LASF262:
 7836 0692 4359424C 		.ascii	"CYBLE_EVT_GATTC_CHAR_DISCOVERY_FAILED\000"
 7836      455F4556 
 7836      545F4741 
 7836      5454435F 
ARM GAS  C:\Users\megan\AppData\Local\Temp\ccmgjhBj.s 			page 171


 7836      43484152 
 7837              	.LASF69:
 7838 06b8 4359424C 		.ascii	"CYBLE_EVT_GATTS_DATA_SIGNED_CMD_REQ\000"
 7838      455F4556 
 7838      545F4741 
 7838      5454535F 
 7838      44415441 
 7839              	.LASF81:
 7840 06dc 4359424C 		.ascii	"CYBLE_EVT_L2CAP_CBFC_RX_CREDIT_IND\000"
 7840      455F4556 
 7840      545F4C32 
 7840      4341505F 
 7840      43424643 
 7841              	.LASF171:
 7842 06ff 4359424C 		.ascii	"CYBLE_GATT_VALUE_T\000"
 7842      455F4741 
 7842      54545F56 
 7842      414C5545 
 7842      5F5400
 7843              	.LASF357:
 7844 0712 4359424C 		.ascii	"CYBLE_EVT_CSCSS_INDICATION_ENABLED\000"
 7844      455F4556 
 7844      545F4353 
 7844      4353535F 
 7844      494E4449 
 7845              	.LASF201:
 7846 0735 7065726D 		.ascii	"permission\000"
 7846      69737369 
 7846      6F6E00
 7847              	.LASF333:
 7848 0740 4359424C 		.ascii	"CYBLE_EVT_CGMSS_WRITE_CHAR\000"
 7848      455F4556 
 7848      545F4347 
 7848      4D53535F 
 7848      57524954 
 7849              	.LASF459:
 7850 075b 4359424C 		.ascii	"CYBLE_EVT_LNSC_INDICATION\000"
 7850      455F4556 
 7850      545F4C4E 
 7850      53435F49 
 7850      4E444943 
 7851              	.LASF558:
 7852 0775 74797065 		.ascii	"type\000"
 7852      00
 7853              	.LASF144:
 7854 077a 4359424C 		.ascii	"CYBLE_GATT_ERR_TRIGGER_CODITION_VALUE_NOT_SUPPORTED"
 7854      455F4741 
 7854      54545F45 
 7854      52525F54 
 7854      52494747 
 7855 07ad 00       		.ascii	"\000"
 7856              	.LASF470:
 7857 07ae 4359424C 		.ascii	"CYBLE_EVT_PASSC_READ_CHAR_RESPONSE\000"
 7857      455F4556 
 7857      545F5041 
 7857      5353435F 
 7857      52454144 
ARM GAS  C:\Users\megan\AppData\Local\Temp\ccmgjhBj.s 			page 172


 7858              	.LASF314:
 7859 07d1 4359424C 		.ascii	"CYBLE_EVT_BLSS_INDICATION_ENABLED\000"
 7859      455F4556 
 7859      545F424C 
 7859      53535F49 
 7859      4E444943 
 7860              	.LASF320:
 7861 07f3 4359424C 		.ascii	"CYBLE_EVT_BLSC_NOTIFICATION\000"
 7861      455F4556 
 7861      545F424C 
 7861      53435F4E 
 7861      4F544946 
 7862              	.LASF205:
 7863 080f 4359424C 		.ascii	"CYBLE_CALLBACK_T\000"
 7863      455F4341 
 7863      4C4C4241 
 7863      434B5F54 
 7863      00
 7864              	.LASF222:
 7865 0820 4359424C 		.ascii	"CYBLE_ESS_WIND_CHILL\000"
 7865      455F4553 
 7865      535F5749 
 7865      4E445F43 
 7865      48494C4C 
 7866              	.LASF362:
 7867 0835 4359424C 		.ascii	"CYBLE_EVT_CSCSC_INDICATION\000"
 7867      455F4556 
 7867      545F4353 
 7867      4353435F 
 7867      494E4449 
 7868              	.LASF252:
 7869 0850 4359424C 		.ascii	"CYBLE_ESS_DESCR_VALUE_T\000"
 7869      455F4553 
 7869      535F4445 
 7869      5343525F 
 7869      56414C55 
 7870              	.LASF66:
 7871 0868 4359424C 		.ascii	"CYBLE_EVT_GATTC_HANDLE_VALUE_NTF\000"
 7871      455F4556 
 7871      545F4741 
 7871      5454435F 
 7871      48414E44 
 7872              	.LASF25:
 7873 0889 4359424C 		.ascii	"CYBLE_EVT_GAP_AUTH_REQ\000"
 7873      455F4556 
 7873      545F4741 
 7873      505F4155 
 7873      54485F52 
 7874              	.LASF594:
 7875 08a0 4379426C 		.ascii	"CyBle_EsssGetCharacteristicValue\000"
 7875      655F4573 
 7875      73734765 
 7875      74436861 
 7875      72616374 
 7876              	.LASF269:
 7877 08c1 4359424C 		.ascii	"CYBLE_EVT_GATTC_CHAR_DISCOVERY_COMPLETE\000"
 7877      455F4556 
ARM GAS  C:\Users\megan\AppData\Local\Temp\ccmgjhBj.s 			page 173


 7877      545F4741 
 7877      5454435F 
 7877      43484152 
 7878              	.LASF169:
 7879 08e9 4359424C 		.ascii	"CYBLE_CONN_HANDLE_T\000"
 7879      455F434F 
 7879      4E4E5F48 
 7879      414E444C 
 7879      455F5400 
 7880              	.LASF426:
 7881 08fd 4359424C 		.ascii	"CYBLE_EVT_HRSC_WRITE_CHAR_RESPONSE\000"
 7881      455F4556 
 7881      545F4852 
 7881      53435F57 
 7881      52495445 
 7882              	.LASF100:
 7883 0920 4359424C 		.ascii	"CYBLE_ERROR_BT_ON_NOT_COMPLETED\000"
 7883      455F4552 
 7883      524F525F 
 7883      42545F4F 
 7883      4E5F4E4F 
 7884              	.LASF361:
 7885 0940 4359424C 		.ascii	"CYBLE_EVT_CSCSC_NOTIFICATION\000"
 7885      455F4556 
 7885      545F4353 
 7885      4353435F 
 7885      4E4F5449 
 7886              	.LASF518:
 7887 095d 4359424C 		.ascii	"CYBLE_EVT_UDSC_INDICATION\000"
 7887      455F4556 
 7887      545F5544 
 7887      53435F49 
 7887      4E444943 
 7888              	.LASF442:
 7889 0977 4359424C 		.ascii	"CYBLE_EVT_IPSS_WRITE_CHAR\000"
 7889      455F4556 
 7889      545F4950 
 7889      53535F57 
 7889      52495445 
 7890              	.LASF46:
 7891 0991 4359424C 		.ascii	"CYBLE_EVT_GAP_AUTH_REQ_REPLY_ERR\000"
 7891      455F4556 
 7891      545F4741 
 7891      505F4155 
 7891      54485F52 
 7892              	.LASF325:
 7893 09b2 4359424C 		.ascii	"CYBLE_EVT_BMSC_READ_CHAR_RESPONSE\000"
 7893      455F4556 
 7893      545F424D 
 7893      53435F52 
 7893      4541445F 
 7894              	.LASF548:
 7895 09d4 4359424C 		.ascii	"CYBLE_STATE_ADVERTISING\000"
 7895      455F5354 
 7895      4154455F 
 7895      41445645 
 7895      52544953 
ARM GAS  C:\Users\megan\AppData\Local\Temp\ccmgjhBj.s 			page 174


 7896              	.LASF39:
 7897 09ec 4359424C 		.ascii	"CYBLE_EVT_GAP_OOB_GENERATED_NOTIFICATION\000"
 7897      455F4556 
 7897      545F4741 
 7897      505F4F4F 
 7897      425F4745 
 7898              	.LASF241:
 7899 0a15 64657363 		.ascii	"descrHandle\000"
 7899      7248616E 
 7899      646C6500 
 7900              	.LASF167:
 7901 0a21 62644861 		.ascii	"bdHandle\000"
 7901      6E646C65 
 7901      00
 7902              	.LASF156:
 7903 0a2a 4359424C 		.ascii	"CYBLE_GATTS_ERR_NETWORK_NOT_AVAILABLE\000"
 7903      455F4741 
 7903      5454535F 
 7903      4552525F 
 7903      4E455457 
 7904              	.LASF186:
 7905 0a50 65786563 		.ascii	"execWriteFlag\000"
 7905      57726974 
 7905      65466C61 
 7905      6700
 7906              	.LASF236:
 7907 0a5e 4359424C 		.ascii	"CYBLE_ESS_CHAR_USER_DESCRIPTION_DESCR\000"
 7907      455F4553 
 7907      535F4348 
 7907      41525F55 
 7907      5345525F 
 7908              	.LASF159:
 7909 0a84 4359424C 		.ascii	"CYBLE_GATT_ERR_ANCS_INVALID_COMMAND\000"
 7909      455F4741 
 7909      54545F45 
 7909      52525F41 
 7909      4E43535F 
 7910              	.LASF322:
 7911 0aa8 4359424C 		.ascii	"CYBLE_EVT_BLSC_READ_DESCR_RESPONSE\000"
 7911      455F4556 
 7911      545F424C 
 7911      53435F52 
 7911      4541445F 
 7912              	.LASF218:
 7913 0acb 4359424C 		.ascii	"CYBLE_ESS_TEMPERATURE\000"
 7913      455F4553 
 7913      535F5445 
 7913      4D504552 
 7913      41545552 
 7914              	.LASF343:
 7915 0ae1 4359424C 		.ascii	"CYBLE_EVT_CPSS_INDICATION_DISABLED\000"
 7915      455F4556 
 7915      545F4350 
 7915      53535F49 
 7915      4E444943 
 7916              	.LASF342:
 7917 0b04 4359424C 		.ascii	"CYBLE_EVT_CPSS_INDICATION_ENABLED\000"
ARM GAS  C:\Users\megan\AppData\Local\Temp\ccmgjhBj.s 			page 175


 7917      455F4556 
 7917      545F4350 
 7917      53535F49 
 7917      4E444943 
 7918              	.LASF589:
 7919 0b26 65737373 		.ascii	"esssAdvertisementData\000"
 7919      41647665 
 7919      72746973 
 7919      656D656E 
 7919      74446174 
 7920              	.LASF456:
 7921 0b3c 4359424C 		.ascii	"CYBLE_EVT_LNSS_NOTIFICATION_ENABLED\000"
 7921      455F4556 
 7921      545F4C4E 
 7921      53535F4E 
 7921      4F544946 
 7922              	.LASF62:
 7923 0b60 4359424C 		.ascii	"CYBLE_EVT_GATTS_WRITE_CMD_REQ\000"
 7923      455F4556 
 7923      545F4741 
 7923      5454535F 
 7923      57524954 
 7924              	.LASF353:
 7925 0b7e 4359424C 		.ascii	"CYBLE_EVT_CPSC_WRITE_DESCR_RESPONSE\000"
 7925      455F4556 
 7925      545F4350 
 7925      53435F57 
 7925      52495445 
 7926              	.LASF82:
 7927 0ba2 4359424C 		.ascii	"CYBLE_EVT_L2CAP_CBFC_TX_CREDIT_IND\000"
 7927      455F4556 
 7927      545F4C32 
 7927      4341505F 
 7927      43424643 
 7928              	.LASF4:
 7929 0bc5 6C6F6E67 		.ascii	"long int\000"
 7929      20696E74 
 7929      00
 7930              	.LASF457:
 7931 0bce 4359424C 		.ascii	"CYBLE_EVT_LNSS_NOTIFICATION_DISABLED\000"
 7931      455F4556 
 7931      545F4C4E 
 7931      53535F4E 
 7931      4F544946 
 7932              	.LASF211:
 7933 0bf3 4359424C 		.ascii	"CYBLE_ESS_GUST_FACTOR\000"
 7933      455F4553 
 7933      535F4755 
 7933      53545F46 
 7933      4143544F 
 7934              	.LASF358:
 7935 0c09 4359424C 		.ascii	"CYBLE_EVT_CSCSS_INDICATION_DISABLED\000"
 7935      455F4556 
 7935      545F4353 
 7935      4353535F 
 7935      494E4449 
 7936              	.LASF513:
ARM GAS  C:\Users\megan\AppData\Local\Temp\ccmgjhBj.s 			page 176


 7937 0c2d 4359424C 		.ascii	"CYBLE_EVT_UDSS_INDICATION_CONFIRMED\000"
 7937      455F4556 
 7937      545F5544 
 7937      53535F49 
 7937      4E444943 
 7938              	.LASF255:
 7939 0c51 4359424C 		.ascii	"CYBLE_LONG_TERM_KEY_REQUEST_REPLY\000"
 7939      455F4C4F 
 7939      4E475F54 
 7939      45524D5F 
 7939      4B45595F 
 7940              	.LASF18:
 7941 0c73 4359424C 		.ascii	"CYBLE_EVT_STACK_ON\000"
 7941      455F4556 
 7941      545F5354 
 7941      41434B5F 
 7941      4F4E00
 7942              	.LASF107:
 7943 0c86 4359424C 		.ascii	"CYBLE_ERROR_L2CAP_PSM_NOT_IN_RANGE\000"
 7943      455F4552 
 7943      524F525F 
 7943      4C324341 
 7943      505F5053 
 7944              	.LASF308:
 7945 0ca9 4359424C 		.ascii	"CYBLE_EVT_BCSS_INDICATION_DISABLED\000"
 7945      455F4556 
 7945      545F4243 
 7945      53535F49 
 7945      4E444943 
 7946              	.LASF551:
 7947 0ccc 63616C6C 		.ascii	"callbackFunc\000"
 7947      6261636B 
 7947      46756E63 
 7947      00
 7948              	.LASF388:
 7949 0cd9 4359424C 		.ascii	"CYBLE_EVT_ESSC_WRITE_DESCR_RESPONSE\000"
 7949      455F4556 
 7949      545F4553 
 7949      53435F57 
 7949      52495445 
 7950              	.LASF155:
 7951 0cfd 4359424C 		.ascii	"CYBLE_GATTS_ERR_HPS_INVALID_REQUEST\000"
 7951      455F4741 
 7951      5454535F 
 7951      4552525F 
 7951      4850535F 
 7952              	.LASF445:
 7953 0d21 4359424C 		.ascii	"CYBLE_EVT_IPSC_WRITE_CHAR_RESPONSE\000"
 7953      455F4556 
 7953      545F4950 
 7953      53435F57 
 7953      52495445 
 7954              	.LASF245:
 7955 0d44 73657276 		.ascii	"serviceHandle\000"
 7955      69636548 
 7955      616E646C 
 7955      6500
ARM GAS  C:\Users\megan\AppData\Local\Temp\ccmgjhBj.s 			page 177


 7956              	.LASF429:
 7957 0d52 4359424C 		.ascii	"CYBLE_EVT_HTSS_NOTIFICATION_ENABLED\000"
 7957      455F4556 
 7957      545F4854 
 7957      53535F4E 
 7957      4F544946 
 7958              	.LASF130:
 7959 0d76 4359424C 		.ascii	"CYBLE_GATT_ERR_INVALID_PDU\000"
 7959      455F4741 
 7959      54545F45 
 7959      52525F49 
 7959      4E56414C 
 7960              	.LASF210:
 7961 0d91 4359424C 		.ascii	"CYBLE_ESS_ELEVATION\000"
 7961      455F4553 
 7961      535F454C 
 7961      45564154 
 7961      494F4E00 
 7962              	.LASF119:
 7963 0da5 4359424C 		.ascii	"CYBLE_ERROR_CHAR_IS_NOT_DISCOVERED\000"
 7963      455F4552 
 7963      524F525F 
 7963      43484152 
 7963      5F49535F 
 7964              	.LASF571:
 7965 0dc8 666F756E 		.ascii	"foundItem\000"
 7965      64497465 
 7965      6D00
 7966              	.LASF516:
 7967 0dd2 4359424C 		.ascii	"CYBLE_EVT_UDSS_READ_CHAR\000"
 7967      455F4556 
 7967      545F5544 
 7967      53535F52 
 7967      4541445F 
 7968              	.LASF274:
 7969 0deb 4359424C 		.ascii	"CYBLE_EVT_AIOSS_INDICATION_DISABLED\000"
 7969      455F4556 
 7969      545F4149 
 7969      4F53535F 
 7969      494E4449 
 7970              	.LASF174:
 7971 0e0f 4359424C 		.ascii	"CYBLE_GATT_HANDLE_VALUE_PAIR_T\000"
 7971      455F4741 
 7971      54545F48 
 7971      414E444C 
 7971      455F5641 
 7972              	.LASF200:
 7973 0e2e 61747454 		.ascii	"attType\000"
 7973      79706500 
 7974              	.LASF385:
 7975 0e36 4359424C 		.ascii	"CYBLE_EVT_ESSC_READ_CHAR_RESPONSE\000"
 7975      455F4556 
 7975      545F4553 
 7975      53435F52 
 7975      4541445F 
 7976              	.LASF408:
 7977 0e58 4359424C 		.ascii	"CYBLE_EVT_HIDSC_NOTIFICATION\000"
ARM GAS  C:\Users\megan\AppData\Local\Temp\ccmgjhBj.s 			page 178


 7977      455F4556 
 7977      545F4849 
 7977      4453435F 
 7977      4E4F5449 
 7978              	.LASF75:
 7979 0e75 4359424C 		.ascii	"CYBLE_EVT_L2CAP_COMMAND_REJ\000"
 7979      455F4556 
 7979      545F4C32 
 7979      4341505F 
 7979      434F4D4D 
 7980              	.LASF223:
 7981 0e91 4359424C 		.ascii	"CYBLE_ESS_BAROMETRIC_PRESSURE_TREND\000"
 7981      455F4553 
 7981      535F4241 
 7981      524F4D45 
 7981      54524943 
 7982              	.LASF271:
 7983 0eb5 4359424C 		.ascii	"CYBLE_EVT_AIOSS_NOTIFICATION_ENABLED\000"
 7983      455F4556 
 7983      545F4149 
 7983      4F53535F 
 7983      4E4F5449 
 7984              	.LASF139:
 7985 0eda 4359424C 		.ascii	"CYBLE_GATT_ERR_INVALID_ATTRIBUTE_LEN\000"
 7985      455F4741 
 7985      54545F45 
 7985      52525F49 
 7985      4E56414C 
 7986              	.LASF405:
 7987 0eff 4359424C 		.ascii	"CYBLE_EVT_HIDSS_SUSPEND\000"
 7987      455F4556 
 7987      545F4849 
 7987      4453535F 
 7987      53555350 
 7988              	.LASF108:
 7989 0f17 4359424C 		.ascii	"CYBLE_ERROR_GATT_DB_INVALID_ATTR_HANDLE\000"
 7989      455F4552 
 7989      524F525F 
 7989      47415454 
 7989      5F44425F 
 7990              	.LASF0:
 7991 0f3f 7369676E 		.ascii	"signed char\000"
 7991      65642063 
 7991      68617200 
 7992              	.LASF225:
 7993 0f4b 4359424C 		.ascii	"CYBLE_ESS_MAGNETIC_FLUX_DENSITY_2D\000"
 7993      455F4553 
 7993      535F4D41 
 7993      474E4554 
 7993      49435F46 
 7994              	.LASF312:
 7995 0f6e 4359424C 		.ascii	"CYBLE_EVT_BCSC_READ_DESCR_RESPONSE\000"
 7995      455F4556 
 7995      545F4243 
 7995      53435F52 
 7995      4541445F 
 7996              	.LASF543:
ARM GAS  C:\Users\megan\AppData\Local\Temp\ccmgjhBj.s 			page 179


 7997 0f91 4359424C 		.ascii	"CYBLE_EVT_WSSC_WRITE_DESCR_RESPONSE\000"
 7997      455F4556 
 7997      545F5753 
 7997      53435F57 
 7997      52495445 
 7998              	.LASF305:
 7999 0fb5 4359424C 		.ascii	"CYBLE_EVT_BASC_READ_DESCR_RESPONSE\000"
 7999      455F4556 
 7999      545F4241 
 7999      53435F52 
 7999      4541445F 
 8000              	.LASF20:
 8001 0fd8 4359424C 		.ascii	"CYBLE_EVT_HARDWARE_ERROR\000"
 8001      455F4556 
 8001      545F4841 
 8001      52445741 
 8001      52455F45 
 8002              	.LASF89:
 8003 0ff1 4359424C 		.ascii	"CYBLE_ERROR_OK\000"
 8003      455F4552 
 8003      524F525F 
 8003      4F4B00
 8004              	.LASF583:
 8005 1000 6C6F6343 		.ascii	"locCharValue\000"
 8005      68617256 
 8005      616C7565 
 8005      00
 8006              	.LASF566:
 8007 100d 75333253 		.ascii	"u32Sign\000"
 8007      69676E00 
 8008              	.LASF53:
 8009 1015 4359424C 		.ascii	"CYBLE_EVT_GATTC_READ_BY_GROUP_TYPE_RSP\000"
 8009      455F4556 
 8009      545F4741 
 8009      5454435F 
 8009      52454144 
 8010              	.LASF545:
 8011 103c 4359424C 		.ascii	"CYBLE_STATE_STOPPED\000"
 8011      455F5354 
 8011      4154455F 
 8011      53544F50 
 8011      50454400 
 8012              	.LASF487:
 8013 1050 4359424C 		.ascii	"CYBLE_EVT_RSCSS_INDICATION_ENABLED\000"
 8013      455F4556 
 8013      545F5253 
 8013      4353535F 
 8013      494E4449 
 8014              	.LASF1:
 8015 1073 756E7369 		.ascii	"unsigned char\000"
 8015      676E6564 
 8015      20636861 
 8015      7200
 8016              	.LASF52:
 8017 1081 4359424C 		.ascii	"CYBLE_EVT_GATTC_XCHNG_MTU_RSP\000"
 8017      455F4556 
 8017      545F4741 
ARM GAS  C:\Users\megan\AppData\Local\Temp\ccmgjhBj.s 			page 180


 8017      5454435F 
 8017      5843484E 
 8018              	.LASF344:
 8019 109f 4359424C 		.ascii	"CYBLE_EVT_CPSS_INDICATION_CONFIRMED\000"
 8019      455F4556 
 8019      545F4350 
 8019      53535F49 
 8019      4E444943 
 8020              	.LASF581:
 8021 10c3 6C6F6344 		.ascii	"locDescrValue\000"
 8021      65736372 
 8021      56616C75 
 8021      6500
 8022              	.LASF341:
 8023 10d1 4359424C 		.ascii	"CYBLE_EVT_CPSS_NOTIFICATION_DISABLED\000"
 8023      455F4556 
 8023      545F4350 
 8023      53535F4E 
 8023      4F544946 
 8024              	.LASF492:
 8025 10f6 4359424C 		.ascii	"CYBLE_EVT_RSCSC_INDICATION\000"
 8025      455F4556 
 8025      545F5253 
 8025      4353435F 
 8025      494E4449 
 8026              	.LASF542:
 8027 1111 4359424C 		.ascii	"CYBLE_EVT_WSSC_READ_DESCR_RESPONSE\000"
 8027      455F4556 
 8027      545F5753 
 8027      53435F52 
 8027      4541445F 
 8028              	.LASF226:
 8029 1134 4359424C 		.ascii	"CYBLE_ESS_MAGNETIC_FLUX_DENSITY_3D\000"
 8029      455F4553 
 8029      535F4D41 
 8029      474E4554 
 8029      49435F46 
 8030              	.LASF43:
 8031 1157 4359424C 		.ascii	"CYBLE_EVT_GAP_SMP_NEGOTIATED_AUTH_INFO\000"
 8031      455F4556 
 8031      545F4741 
 8031      505F534D 
 8031      505F4E45 
 8032              	.LASF44:
 8033 117e 4359424C 		.ascii	"CYBLE_EVT_GAP_CONN_ESTB\000"
 8033      455F4556 
 8033      545F4741 
 8033      505F434F 
 8033      4E4E5F45 
 8034              	.LASF199:
 8035 1196 61747448 		.ascii	"attHandle\000"
 8035      616E646C 
 8035      6500
 8036              	.LASF259:
 8037 11a0 4359424C 		.ascii	"CYBLE_EVT_GATTC_INDICATION\000"
 8037      455F4556 
 8037      545F4741 
ARM GAS  C:\Users\megan\AppData\Local\Temp\ccmgjhBj.s 			page 181


 8037      5454435F 
 8037      494E4449 
 8038              	.LASF125:
 8039 11bb 4359424C 		.ascii	"CYBLE_GAPP_DISC_DATA_T\000"
 8039      455F4741 
 8039      50505F44 
 8039      4953435F 
 8039      44415441 
 8040              	.LASF499:
 8041 11d2 4359424C 		.ascii	"CYBLE_EVT_SCPSS_NOTIFICATION_ENABLED\000"
 8041      455F4556 
 8041      545F5343 
 8041      5053535F 
 8041      4E4F5449 
 8042              	.LASF443:
 8043 11f7 4359424C 		.ascii	"CYBLE_EVT_IPSC_READ_CHAR_RESPONSE\000"
 8043      455F4556 
 8043      545F4950 
 8043      53435F52 
 8043      4541445F 
 8044              	.LASF79:
 8045 1219 4359424C 		.ascii	"CYBLE_EVT_L2CAP_CBFC_DISCONN_CNF\000"
 8045      455F4556 
 8045      545F4C32 
 8045      4341505F 
 8045      43424643 
 8046              	.LASF56:
 8047 123a 4359424C 		.ascii	"CYBLE_EVT_GATTC_FIND_BY_TYPE_VALUE_RSP\000"
 8047      455F4556 
 8047      545F4741 
 8047      5454435F 
 8047      46494E44 
 8048              	.LASF285:
 8049 1261 4359424C 		.ascii	"CYBLE_EVT_ANCSS_NOTIFICATION_ENABLED\000"
 8049      455F4556 
 8049      545F414E 
 8049      4353535F 
 8049      4E4F5449 
 8050              	.LASF231:
 8051 1286 4359424C 		.ascii	"CYBLE_ESS_ES_MEASUREMENT_DESCR\000"
 8051      455F4553 
 8051      535F4553 
 8051      5F4D4541 
 8051      53555245 
 8052              	.LASF40:
 8053 12a5 4359424C 		.ascii	"CYBLE_EVT_GAP_DATA_LENGTH_CHANGE\000"
 8053      455F4556 
 8053      545F4741 
 8053      505F4441 
 8053      54415F4C 
 8054              	.LASF504:
 8055 12c6 4359424C 		.ascii	"CYBLE_EVT_SCPSC_WRITE_DESCR_RESPONSE\000"
 8055      455F4556 
 8055      545F5343 
 8055      5053435F 
 8055      57524954 
 8056              	.LASF14:
ARM GAS  C:\Users\megan\AppData\Local\Temp\ccmgjhBj.s 			page 182


 8057 12eb 63686172 		.ascii	"char\000"
 8057      00
 8058              	.LASF193:
 8059 12f0 6D617841 		.ascii	"maxAttrLength\000"
 8059      7474724C 
 8059      656E6774 
 8059      6800
 8060              	.LASF242:
 8061 12fe 4359424C 		.ascii	"CYBLE_ESSS_CHAR_T\000"
 8061      455F4553 
 8061      53535F43 
 8061      4841525F 
 8061      5400
 8062              	.LASF507:
 8063 1310 4359424C 		.ascii	"CYBLE_EVT_TPSC_NOTIFICATION\000"
 8063      455F4556 
 8063      545F5450 
 8063      53435F4E 
 8063      4F544946 
 8064              	.LASF268:
 8065 132c 4359424C 		.ascii	"CYBLE_EVT_GATTC_INCL_DISCOVERY_COMPLETE\000"
 8065      455F4556 
 8065      545F4741 
 8065      5454435F 
 8065      494E434C 
 8066              	.LASF474:
 8067 1354 4359424C 		.ascii	"CYBLE_EVT_PLXSS_NOTIFICATION_ENABLED\000"
 8067      455F4556 
 8067      545F504C 
 8067      5853535F 
 8067      4E4F5449 
 8068              	.LASF59:
 8069 1379 4359424C 		.ascii	"CYBLE_EVT_GATTC_READ_MULTI_RSP\000"
 8069      455F4556 
 8069      545F4741 
 8069      5454435F 
 8069      52454144 
 8070              	.LASF284:
 8071 1398 4359424C 		.ascii	"CYBLE_EVT_AIOSC_ERROR_RESPONSE\000"
 8071      455F4556 
 8071      545F4149 
 8071      4F53435F 
 8071      4552524F 
 8072              	.LASF279:
 8073 13b7 4359424C 		.ascii	"CYBLE_EVT_AIOSC_INDICATION\000"
 8073      455F4556 
 8073      545F4149 
 8073      4F53435F 
 8073      494E4449 
 8074              	.LASF249:
 8075 13d2 63686172 		.ascii	"charInstance\000"
 8075      496E7374 
 8075      616E6365 
 8075      00
 8076              	.LASF17:
 8077 13df 4359424C 		.ascii	"CYBLE_EVT_HOST_INVALID\000"
 8077      455F4556 
ARM GAS  C:\Users\megan\AppData\Local\Temp\ccmgjhBj.s 			page 183


 8077      545F484F 
 8077      53545F49 
 8077      4E56414C 
 8078              	.LASF559:
 8079 13f6 7056616C 		.ascii	"pValue\000"
 8079      756500
 8080              	.LASF140:
 8081 13fd 4359424C 		.ascii	"CYBLE_GATT_ERR_UNLIKELY_ERROR\000"
 8081      455F4741 
 8081      54545F45 
 8081      52525F55 
 8081      4E4C494B 
 8082              	.LASF42:
 8083 141b 4359424C 		.ascii	"CYBLE_EVT_GAPC_DIRECT_ADV_REPORT\000"
 8083      455F4556 
 8083      545F4741 
 8083      50435F44 
 8083      49524543 
 8084              	.LASF399:
 8085 143c 4359424C 		.ascii	"CYBLE_EVT_GLSC_READ_DESCR_RESPONSE\000"
 8085      455F4556 
 8085      545F474C 
 8085      53435F52 
 8085      4541445F 
 8086              	.LASF96:
 8087 145f 4359424C 		.ascii	"CYBLE_ERROR_NO_DEVICE_ENTITY\000"
 8087      455F4552 
 8087      524F525F 
 8087      4E4F5F44 
 8087      45564943 
 8088              	.LASF58:
 8089 147c 4359424C 		.ascii	"CYBLE_EVT_GATTC_READ_BLOB_RSP\000"
 8089      455F4556 
 8089      545F4741 
 8089      5454435F 
 8089      52454144 
 8090              	.LASF432:
 8091 149a 4359424C 		.ascii	"CYBLE_EVT_HTSS_INDICATION_DISABLED\000"
 8091      455F4556 
 8091      545F4854 
 8091      53535F49 
 8091      4E444943 
 8092              	.LASF498:
 8093 14bd 4359424C 		.ascii	"CYBLE_EVT_RTUSC_READ_CHAR_RESPONSE\000"
 8093      455F4556 
 8093      545F5254 
 8093      5553435F 
 8093      52454144 
 8094              	.LASF578:
 8095 14e0 4379426C 		.ascii	"CyBle_EsssExecuteWriteRequestEventHandler\000"
 8095      655F4573 
 8095      73734578 
 8095      65637574 
 8095      65577269 
 8096              	.LASF65:
 8097 150a 4359424C 		.ascii	"CYBLE_EVT_GATTC_EXEC_WRITE_RSP\000"
 8097      455F4556 
ARM GAS  C:\Users\megan\AppData\Local\Temp\ccmgjhBj.s 			page 184


 8097      545F4741 
 8097      5454435F 
 8097      45584543 
 8098              	.LASF246:
 8099 1529 63686172 		.ascii	"charInfoAddr\000"
 8099      496E666F 
 8099      41646472 
 8099      00
 8100              	.LASF145:
 8101 1536 4359424C 		.ascii	"CYBLE_GATT_ERR_HEART_RATE_CONTROL_POINT_NOT_SUPPORT"
 8101      455F4741 
 8101      54545F45 
 8101      52525F48 
 8101      45415254 
 8102 1569 454400   		.ascii	"ED\000"
 8103              	.LASF539:
 8104 156c 4359424C 		.ascii	"CYBLE_EVT_WSSS_INDICATION_CONFIRMED\000"
 8104      455F4556 
 8104      545F5753 
 8104      53535F49 
 8104      4E444943 
 8105              	.LASF137:
 8106 1590 4359424C 		.ascii	"CYBLE_GATT_ERR_ATTRIBUTE_NOT_LONG\000"
 8106      455F4741 
 8106      54545F45 
 8106      52525F41 
 8106      54545249 
 8107              	.LASF373:
 8108 15b2 4359424C 		.ascii	"CYBLE_EVT_CTSC_WRITE_DESCR_RESPONSE\000"
 8108      455F4556 
 8108      545F4354 
 8108      53435F57 
 8108      52495445 
 8109              	.LASF220:
 8110 15d6 4359424C 		.ascii	"CYBLE_ESS_TRUE_WIND_SPEED\000"
 8110      455F4553 
 8110      535F5452 
 8110      55455F57 
 8110      494E445F 
 8111              	.LASF575:
 8112 15f0 4379426C 		.ascii	"CyBle_EssRegisterAttrCallback\000"
 8112      655F4573 
 8112      73526567 
 8112      69737465 
 8112      72417474 
 8113              	.LASF512:
 8114 160e 4359424C 		.ascii	"CYBLE_EVT_UDSS_INDICATION_DISABLED\000"
 8114      455F4556 
 8114      545F5544 
 8114      53535F49 
 8114      4E444943 
 8115              	.LASF70:
 8116 1631 4359424C 		.ascii	"CYBLE_EVT_GATTC_STOP_CMD_COMPLETE\000"
 8116      455F4556 
 8116      545F4741 
 8116      5454435F 
 8116      53544F50 
ARM GAS  C:\Users\megan\AppData\Local\Temp\ccmgjhBj.s 			page 185


 8117              	.LASF212:
 8118 1653 4359424C 		.ascii	"CYBLE_ESS_HEAT_INDEX\000"
 8118      455F4553 
 8118      535F4845 
 8118      41545F49 
 8118      4E444558 
 8119              	.LASF421:
 8120 1668 4359424C 		.ascii	"CYBLE_EVT_HRSS_ENERGY_EXPENDED_RESET\000"
 8120      455F4556 
 8120      545F4852 
 8120      53535F45 
 8120      4E455247 
 8121              	.LASF161:
 8122 168d 4359424C 		.ascii	"CYBLE_GATT_ERR_ANCS_ACTION_FAILED\000"
 8122      455F4741 
 8122      54545F45 
 8122      52525F41 
 8122      4E43535F 
 8123              	.LASF591:
 8124 16af 61747472 		.ascii	"attrSize\000"
 8124      53697A65 
 8124      00
 8125              	.LASF377:
 8126 16b8 4359424C 		.ascii	"CYBLE_EVT_ESSS_NOTIFICATION_DISABLED\000"
 8126      455F4556 
 8126      545F4553 
 8126      53535F4E 
 8126      4F544946 
 8127              	.LASF204:
 8128 16dd 4359424C 		.ascii	"CYBLE_GATTS_DB_T\000"
 8128      455F4741 
 8128      5454535F 
 8128      44425F54 
 8128      00
 8129              	.LASF526:
 8130 16ee 4359424C 		.ascii	"CYBLE_EVT_WPTSS_NOTIFICATION_DISABLED\000"
 8130      455F4556 
 8130      545F5750 
 8130      5453535F 
 8130      4E4F5449 
 8131              	.LASF317:
 8132 1714 4359424C 		.ascii	"CYBLE_EVT_BLSS_NOTIFICATION_ENABLED\000"
 8132      455F4556 
 8132      545F424C 
 8132      53535F4E 
 8132      4F544946 
 8133              	.LASF419:
 8134 1738 4359424C 		.ascii	"CYBLE_EVT_HPSC_WRITE_DESCR_RESPONSE\000"
 8134      455F4556 
 8134      545F4850 
 8134      53435F57 
 8134      52495445 
 8135              	.LASF540:
 8136 175c 4359424C 		.ascii	"CYBLE_EVT_WSSC_INDICATION\000"
 8136      455F4556 
 8136      545F5753 
 8136      53435F49 
ARM GAS  C:\Users\megan\AppData\Local\Temp\ccmgjhBj.s 			page 186


 8136      4E444943 
 8137              	.LASF614:
 8138 1776 47656E65 		.ascii	"Generated_Source\\PSoC4\\BLE_1_ess.c\000"
 8138      72617465 
 8138      645F536F 
 8138      75726365 
 8138      5C50536F 
 8139              	.LASF115:
 8140 1799 4359424C 		.ascii	"CYBLE_ERROR_CONTROLLER_BUSY\000"
 8140      455F4552 
 8140      524F525F 
 8140      434F4E54 
 8140      524F4C4C 
 8141              	.LASF90:
 8142 17b5 4359424C 		.ascii	"CYBLE_ERROR_INVALID_PARAMETER\000"
 8142      455F4552 
 8142      524F525F 
 8142      494E5641 
 8142      4C49445F 
 8143              	.LASF384:
 8144 17d3 4359424C 		.ascii	"CYBLE_EVT_ESSC_INDICATION\000"
 8144      455F4556 
 8144      545F4553 
 8144      53435F49 
 8144      4E444943 
 8145              	.LASF291:
 8146 17ed 4359424C 		.ascii	"CYBLE_EVT_ANCSC_WRITE_DESCR_RESPONSE\000"
 8146      455F4556 
 8146      545F414E 
 8146      4353435F 
 8146      57524954 
 8147              	.LASF494:
 8148 1812 4359424C 		.ascii	"CYBLE_EVT_RSCSC_WRITE_CHAR_RESPONSE\000"
 8148      455F4556 
 8148      545F5253 
 8148      4353435F 
 8148      57524954 
 8149              	.LASF185:
 8150 1836 70726570 		.ascii	"prepWriteReqCount\000"
 8150      57726974 
 8150      65526571 
 8150      436F756E 
 8150      7400
 8151              	.LASF510:
 8152 1848 4359424C 		.ascii	"CYBLE_EVT_TPSC_WRITE_DESCR_RESPONSE\000"
 8152      455F4556 
 8152      545F5450 
 8152      53435F57 
 8152      52495445 
 8153              	.LASF356:
 8154 186c 4359424C 		.ascii	"CYBLE_EVT_CSCSS_NOTIFICATION_DISABLED\000"
 8154      455F4556 
 8154      545F4353 
 8154      4353535F 
 8154      4E4F5449 
 8155              	.LASF367:
 8156 1892 4359424C 		.ascii	"CYBLE_EVT_CTSS_NOTIFICATION_ENABLED\000"
ARM GAS  C:\Users\megan\AppData\Local\Temp\ccmgjhBj.s 			page 187


 8156      455F4556 
 8156      545F4354 
 8156      53535F4E 
 8156      4F544946 
 8157              	.LASF488:
 8158 18b6 4359424C 		.ascii	"CYBLE_EVT_RSCSS_INDICATION_DISABLED\000"
 8158      455F4556 
 8158      545F5253 
 8158      4353535F 
 8158      494E4449 
 8159              	.LASF206:
 8160 18da 4359424C 		.ascii	"CYBLE_ESS_DESCRIPTOR_VALUE_CHANGED\000"
 8160      455F4553 
 8160      535F4445 
 8160      53435249 
 8160      50544F52 
 8161              	.LASF530:
 8162 18fd 4359424C 		.ascii	"CYBLE_EVT_WPTSS_WRITE_CHAR\000"
 8162      455F4556 
 8162      545F5750 
 8162      5453535F 
 8162      57524954 
 8163              	.LASF450:
 8164 1918 4359424C 		.ascii	"CYBLE_EVT_LLSS_WRITE_CHAR_REQ\000"
 8164      455F4556 
 8164      545F4C4C 
 8164      53535F57 
 8164      52495445 
 8165              	.LASF92:
 8166 1936 4359424C 		.ascii	"CYBLE_ERROR_MEMORY_ALLOCATION_FAILED\000"
 8166      455F4552 
 8166      524F525F 
 8166      4D454D4F 
 8166      52595F41 
 8167              	.LASF427:
 8168 195b 4359424C 		.ascii	"CYBLE_EVT_HRSC_READ_DESCR_RESPONSE\000"
 8168      455F4556 
 8168      545F4852 
 8168      53435F52 
 8168      4541445F 
 8169              	.LASF590:
 8170 197e 4379426C 		.ascii	"CyBle_EsssSetCharacteristicValue\000"
 8170      655F4573 
 8170      73735365 
 8170      74436861 
 8170      72616374 
 8171              	.LASF355:
 8172 199f 4359424C 		.ascii	"CYBLE_EVT_CSCSS_NOTIFICATION_ENABLED\000"
 8172      455F4556 
 8172      545F4353 
 8172      4353535F 
 8172      4E4F5449 
 8173              	.LASF179:
 8174 19c4 4359424C 		.ascii	"CYBLE_GATTS_HANDLE_VALUE_IND_T\000"
 8174      455F4741 
 8174      5454535F 
 8174      48414E44 
ARM GAS  C:\Users\megan\AppData\Local\Temp\ccmgjhBj.s 			page 188


 8174      4C455F56 
 8175              	.LASF592:
 8176 19e3 61747472 		.ascii	"attrValue\000"
 8176      56616C75 
 8176      6500
 8177              	.LASF580:
 8178 19ed 6C6F634C 		.ascii	"locLength\000"
 8178      656E6774 
 8178      6800
 8179              	.LASF224:
 8180 19f7 4359424C 		.ascii	"CYBLE_ESS_MAGNETIC_DECLINATION\000"
 8180      455F4553 
 8180      535F4D41 
 8180      474E4554 
 8180      49435F44 
 8181              	.LASF415:
 8182 1a16 4359424C 		.ascii	"CYBLE_EVT_HPSS_CHAR_WRITE\000"
 8182      455F4556 
 8182      545F4850 
 8182      53535F43 
 8182      4841525F 
 8183              	.LASF214:
 8184 1a30 4359424C 		.ascii	"CYBLE_ESS_IRRADIANCE\000"
 8184      455F4553 
 8184      535F4952 
 8184      52414449 
 8184      414E4345 
 8185              	.LASF407:
 8186 1a45 4359424C 		.ascii	"CYBLE_EVT_HIDSS_REPORT_CHAR_WRITE\000"
 8186      455F4556 
 8186      545F4849 
 8186      4453535F 
 8186      5245504F 
 8187              	.LASF307:
 8188 1a67 4359424C 		.ascii	"CYBLE_EVT_BCSS_INDICATION_ENABLED\000"
 8188      455F4556 
 8188      545F4243 
 8188      53535F49 
 8188      4E444943 
 8189              	.LASF152:
 8190 1a89 4359424C 		.ascii	"CYBLE_GATTS_ERR_CCCD_IMPROPERLY_CONFIGURED\000"
 8190      455F4741 
 8190      5454535F 
 8190      4552525F 
 8190      43434344 
 8191              	.LASF216:
 8192 1ab4 4359424C 		.ascii	"CYBLE_ESS_RAINFALL\000"
 8192      455F4553 
 8192      535F5241 
 8192      494E4641 
 8192      4C4C00
 8193              	.LASF534:
 8194 1ac7 4359424C 		.ascii	"CYBLE_EVT_WPTSC_READ_CHAR_RESPONSE\000"
 8194      455F4556 
 8194      545F5750 
 8194      5453435F 
 8194      52454144 
ARM GAS  C:\Users\megan\AppData\Local\Temp\ccmgjhBj.s 			page 189


 8195              	.LASF116:
 8196 1aea 4359424C 		.ascii	"CYBLE_ERROR_MAX\000"
 8196      455F4552 
 8196      524F525F 
 8196      4D415800 
 8197              	.LASF462:
 8198 1afa 4359424C 		.ascii	"CYBLE_EVT_LNSC_WRITE_CHAR_RESPONSE\000"
 8198      455F4556 
 8198      545F4C4E 
 8198      53435F57 
 8198      52495445 
 8199              	.LASF74:
 8200 1b1d 4359424C 		.ascii	"CYBLE_EVT_L2CAP_CONN_PARAM_UPDATE_RSP\000"
 8200      455F4556 
 8200      545F4C32 
 8200      4341505F 
 8200      434F4E4E 
 8201              	.LASF86:
 8202 1b43 4359424C 		.ascii	"CYBLE_EVT_HCI_PKT\000"
 8202      455F4556 
 8202      545F4843 
 8202      495F504B 
 8202      5400
 8203              	.LASF515:
 8204 1b55 4359424C 		.ascii	"CYBLE_EVT_UDSS_NOTIFICATION_DISABLED\000"
 8204      455F4556 
 8204      545F5544 
 8204      53535F4E 
 8204      4F544946 
 8205              	.LASF366:
 8206 1b7a 4359424C 		.ascii	"CYBLE_EVT_CSCSC_WRITE_DESCR_RESPONSE\000"
 8206      455F4556 
 8206      545F4353 
 8206      4353435F 
 8206      57524954 
 8207              	.LASF613:
 8208 1b9f 474E5520 		.ascii	"GNU C11 5.4.1 20160609 (release) [ARM/embedded-5-br"
 8208      43313120 
 8208      352E342E 
 8208      31203230 
 8208      31363036 
 8209 1bd2 616E6368 		.ascii	"anch revision 237715] -mcpu=cortex-m0 -mthumb -g -O"
 8209      20726576 
 8209      6973696F 
 8209      6E203233 
 8209      37373135 
 8210 1c05 30202D66 		.ascii	"0 -ffunction-sections -ffat-lto-objects\000"
 8210      66756E63 
 8210      74696F6E 
 8210      2D736563 
 8210      74696F6E 
 8211              	.LASF517:
 8212 1c2d 4359424C 		.ascii	"CYBLE_EVT_UDSS_WRITE_CHAR\000"
 8212      455F4556 
 8212      545F5544 
 8212      53535F57 
 8212      52495445 
ARM GAS  C:\Users\megan\AppData\Local\Temp\ccmgjhBj.s 			page 190


 8213              	.LASF481:
 8214 1c47 4359424C 		.ascii	"CYBLE_EVT_PLXSC_READ_CHAR_RESPONSE\000"
 8214      455F4556 
 8214      545F504C 
 8214      5853435F 
 8214      52454144 
 8215              	.LASF239:
 8216 1c6a 4359424C 		.ascii	"CYBLE_ESS_DESCR_INDEX_T\000"
 8216      455F4553 
 8216      535F4445 
 8216      5343525F 
 8216      494E4445 
 8217              	.LASF282:
 8218 1c82 4359424C 		.ascii	"CYBLE_EVT_AIOSC_READ_DESCR_RESPONSE\000"
 8218      455F4556 
 8218      545F4149 
 8218      4F53435F 
 8218      52454144 
 8219              	.LASF422:
 8220 1ca6 4359424C 		.ascii	"CYBLE_EVT_HRSS_NOTIFICATION_ENABLED\000"
 8220      455F4556 
 8220      545F4852 
 8220      53535F4E 
 8220      4F544946 
 8221              	.LASF146:
 8222 1cca 4359424C 		.ascii	"CYBLE_GATT_ERR_USER_DATA_ACCESS_NOT_PERMITTED\000"
 8222      455F4741 
 8222      54545F45 
 8222      52525F55 
 8222      5345525F 
 8223              	.LASF28:
 8224 1cf8 4359424C 		.ascii	"CYBLE_EVT_GAP_AUTH_COMPLETE\000"
 8224      455F4556 
 8224      545F4741 
 8224      505F4155 
 8224      54485F43 
 8225              	.LASF471:
 8226 1d14 4359424C 		.ascii	"CYBLE_EVT_PASSC_READ_DESCR_RESPONSE\000"
 8226      455F4556 
 8226      545F5041 
 8226      5353435F 
 8226      52454144 
 8227              	.LASF387:
 8228 1d38 4359424C 		.ascii	"CYBLE_EVT_ESSC_READ_DESCR_RESPONSE\000"
 8228      455F4556 
 8228      545F4553 
 8228      53435F52 
 8228      4541445F 
 8229              	.LASF29:
 8230 1d5b 4359424C 		.ascii	"CYBLE_EVT_GAP_AUTH_FAILED\000"
 8230      455F4556 
 8230      545F4741 
 8230      505F4155 
 8230      54485F46 
 8231              	.LASF406:
 8232 1d75 4359424C 		.ascii	"CYBLE_EVT_HIDSS_EXIT_SUSPEND\000"
 8232      455F4556 
ARM GAS  C:\Users\megan\AppData\Local\Temp\ccmgjhBj.s 			page 191


 8232      545F4849 
 8232      4453535F 
 8232      45584954 
 8233              	.LASF121:
 8234 1d92 4359424C 		.ascii	"CYBLE_ERROR_STACK_BUSY\000"
 8234      455F4552 
 8234      524F525F 
 8234      53544143 
 8234      4B5F4255 
 8235              	.LASF162:
 8236 1da9 4359424C 		.ascii	"CYBLE_GATT_ERR_CCCD_IMPROPERLY_CONFIGURED\000"
 8236      455F4741 
 8236      54545F45 
 8236      52525F43 
 8236      4343445F 
 8237              	.LASF93:
 8238 1dd3 4359424C 		.ascii	"CYBLE_ERROR_INSUFFICIENT_RESOURCES\000"
 8238      455F4552 
 8238      524F525F 
 8238      494E5355 
 8238      46464943 
 8239              	.LASF486:
 8240 1df6 4359424C 		.ascii	"CYBLE_EVT_RSCSS_NOTIFICATION_DISABLED\000"
 8240      455F4556 
 8240      545F5253 
 8240      4353535F 
 8240      4E4F5449 
 8241              	.LASF150:
 8242 1e1c 4359424C 		.ascii	"CYBLE_GATT_ERR_OP_CODE_NOT_SUPPORTED\000"
 8242      455F4741 
 8242      54545F45 
 8242      52525F4F 
 8242      505F434F 
 8243              	.LASF410:
 8244 1e41 4359424C 		.ascii	"CYBLE_EVT_HIDSC_WRITE_CHAR_RESPONSE\000"
 8244      455F4556 
 8244      545F4849 
 8244      4453435F 
 8244      57524954 
 8245              	.LASF5:
 8246 1e65 6C6F6E67 		.ascii	"long unsigned int\000"
 8246      20756E73 
 8246      69676E65 
 8246      6420696E 
 8246      7400
 8247              	.LASF446:
 8248 1e77 4359424C 		.ascii	"CYBLE_EVT_IPSC_READ_DESCR_RESPONSE\000"
 8248      455F4556 
 8248      545F4950 
 8248      53435F52 
 8248      4541445F 
 8249              	.LASF615:
 8250 1e9a 433A5C55 		.ascii	"C:\\Users\\megan\\Google Drive\\College\\S11 - Spri"
 8250      73657273 
 8250      5C6D6567 
 8250      616E5C47 
 8250      6F6F676C 
ARM GAS  C:\Users\megan\AppData\Local\Temp\ccmgjhBj.s 			page 192


 8251 1ec8 6E672032 		.ascii	"ng 2018\\ECEN 4990\\Github\\ECEN4990-CapstoneII\\Ca"
 8251      3031385C 
 8251      4543454E 
 8251      20343939 
 8251      305C4769 
 8252 1ef7 7073746F 		.ascii	"pstoneII\\PeripheralBLE.cydsn\000"
 8252      6E654949 
 8252      5C506572 
 8252      69706865 
 8252      72616C42 
 8253              	.LASF441:
 8254 1f14 4359424C 		.ascii	"CYBLE_EVT_IASS_WRITE_CHAR_CMD\000"
 8254      455F4556 
 8254      545F4941 
 8254      53535F57 
 8254      52495445 
 8255              	.LASF219:
 8256 1f32 4359424C 		.ascii	"CYBLE_ESS_TRUE_WIND_DIR\000"
 8256      455F4553 
 8256      535F5452 
 8256      55455F57 
 8256      494E445F 
 8257              	.LASF593:
 8258 1f4a 6C6F6348 		.ascii	"locHandleValuePair\000"
 8258      616E646C 
 8258      6556616C 
 8258      75655061 
 8258      697200
 8259              	.LASF466:
 8260 1f5d 4359424C 		.ascii	"CYBLE_EVT_PASSS_NOTIFICATION_ENABLED\000"
 8260      455F4556 
 8260      545F5041 
 8260      5353535F 
 8260      4E4F5449 
 8261              	.LASF469:
 8262 1f82 4359424C 		.ascii	"CYBLE_EVT_PASSC_NOTIFICATION\000"
 8262      455F4556 
 8262      545F5041 
 8262      5353435F 
 8262      4E4F5449 
 8263              	.LASF113:
 8264 1f9f 4359424C 		.ascii	"CYBLE_ERROR_UNSUPPORTED_FEATURE_OR_PARAMETER_VALUE\000"
 8264      455F4552 
 8264      524F525F 
 8264      554E5355 
 8264      50504F52 
 8265              	.LASF527:
 8266 1fd2 4359424C 		.ascii	"CYBLE_EVT_WPTSS_INDICATION_ENABLED\000"
 8266      455F4556 
 8266      545F5750 
 8266      5453535F 
 8266      494E4449 
 8267              	.LASF475:
 8268 1ff5 4359424C 		.ascii	"CYBLE_EVT_PLXSS_NOTIFICATION_DISABLED\000"
 8268      455F4556 
 8268      545F504C 
 8268      5853535F 
ARM GAS  C:\Users\megan\AppData\Local\Temp\ccmgjhBj.s 			page 193


 8268      4E4F5449 
 8269              	.LASF297:
 8270 201b 4359424C 		.ascii	"CYBLE_EVT_ANSC_READ_CHAR_RESPONSE\000"
 8270      455F4556 
 8270      545F414E 
 8270      53435F52 
 8270      4541445F 
 8271              	.LASF103:
 8272 203d 4359424C 		.ascii	"CYBLE_ERROR_L2CAP_PSM_ALREADY_REGISTERED\000"
 8272      455F4552 
 8272      524F525F 
 8272      4C324341 
 8272      505F5053 
 8273              	.LASF434:
 8274 2066 4359424C 		.ascii	"CYBLE_EVT_HTSS_CHAR_WRITE\000"
 8274      455F4556 
 8274      545F4854 
 8274      53535F43 
 8274      4841525F 
 8275              	.LASF197:
 8276 2080 61747456 		.ascii	"attValueUuid\000"
 8276      616C7565 
 8276      55756964 
 8276      00
 8277              	.LASF158:
 8278 208d 4359424C 		.ascii	"CYBLE_GATT_ERR_ANCS_UNKNOWN_COMMAND\000"
 8278      455F4741 
 8278      54545F45 
 8278      52525F41 
 8278      4E43535F 
 8279              	.LASF301:
 8280 20b1 4359424C 		.ascii	"CYBLE_EVT_BASS_NOTIFICATION_ENABLED\000"
 8280      455F4556 
 8280      545F4241 
 8280      53535F4E 
 8280      4F544946 
 8281              	.LASF374:
 8282 20d5 4359424C 		.ascii	"CYBLE_EVT_CTSC_WRITE_CHAR_RESPONSE\000"
 8282      455F4556 
 8282      545F4354 
 8282      53435F57 
 8282      52495445 
 8283              	.LASF468:
 8284 20f8 4359424C 		.ascii	"CYBLE_EVT_PASSS_WRITE_CHAR\000"
 8284      455F4556 
 8284      545F5041 
 8284      5353535F 
 8284      57524954 
 8285              	.LASF351:
 8286 2113 4359424C 		.ascii	"CYBLE_EVT_CPSC_WRITE_CHAR_RESPONSE\000"
 8286      455F4556 
 8286      545F4350 
 8286      53435F57 
 8286      52495445 
 8287              	.LASF482:
 8288 2136 4359424C 		.ascii	"CYBLE_EVT_PLXSC_WRITE_CHAR_RESPONSE\000"
 8288      455F4556 
ARM GAS  C:\Users\megan\AppData\Local\Temp\ccmgjhBj.s 			page 194


 8288      545F504C 
 8288      5853435F 
 8288      57524954 
 8289              	.LASF570:
 8290 215a 6576656E 		.ascii	"event\000"
 8290      7400
 8291              	.LASF207:
 8292 2160 4359424C 		.ascii	"CYBLE_ESS_APPARENT_WIND_DIR\000"
 8292      455F4553 
 8292      535F4150 
 8292      50415245 
 8292      4E545F57 
 8293              	.LASF34:
 8294 217c 4359424C 		.ascii	"CYBLE_EVT_GAP_CONNECTION_UPDATE_COMPLETE\000"
 8294      455F4556 
 8294      545F4741 
 8294      505F434F 
 8294      4E4E4543 
 8295              	.LASF336:
 8296 21a5 4359424C 		.ascii	"CYBLE_EVT_CGMSC_READ_CHAR_RESPONSE\000"
 8296      455F4556 
 8296      545F4347 
 8296      4D53435F 
 8296      52454144 
 8297              	.LASF546:
 8298 21c8 4359424C 		.ascii	"CYBLE_STATE_INITIALIZING\000"
 8298      455F5354 
 8298      4154455F 
 8298      494E4954 
 8298      49414C49 
 8299              	.LASF574:
 8300 21e1 746D7048 		.ascii	"tmpHandle\000"
 8300      616E646C 
 8300      6500
 8301              	.LASF364:
 8302 21eb 4359424C 		.ascii	"CYBLE_EVT_CSCSC_WRITE_CHAR_RESPONSE\000"
 8302      455F4556 
 8302      545F4353 
 8302      4353435F 
 8302      57524954 
 8303              	.LASF78:
 8304 220f 4359424C 		.ascii	"CYBLE_EVT_L2CAP_CBFC_DISCONN_IND\000"
 8304      455F4556 
 8304      545F4C32 
 8304      4341505F 
 8304      43424643 
 8305              	.LASF360:
 8306 2230 4359424C 		.ascii	"CYBLE_EVT_CSCSS_CHAR_WRITE\000"
 8306      455F4556 
 8306      545F4353 
 8306      4353535F 
 8306      43484152 
 8307              	.LASF477:
 8308 224b 4359424C 		.ascii	"CYBLE_EVT_PLXSS_INDICATION_DISABLED\000"
 8308      455F4556 
 8308      545F504C 
 8308      5853535F 
ARM GAS  C:\Users\megan\AppData\Local\Temp\ccmgjhBj.s 			page 195


 8308      494E4449 
 8309              	.LASF493:
 8310 226f 4359424C 		.ascii	"CYBLE_EVT_RSCSC_READ_CHAR_RESPONSE\000"
 8310      455F4556 
 8310      545F5253 
 8310      4353435F 
 8310      52454144 
 8311              	.LASF26:
 8312 2292 4359424C 		.ascii	"CYBLE_EVT_GAP_PASSKEY_ENTRY_REQUEST\000"
 8312      455F4556 
 8312      545F4741 
 8312      505F5041 
 8312      53534B45 
 8313              	.LASF183:
 8314 22b6 67617474 		.ascii	"gattErrorCode\000"
 8314      4572726F 
 8314      72436F64 
 8314      6500
 8315              	.LASF416:
 8316 22c4 4359424C 		.ascii	"CYBLE_EVT_HPSC_NOTIFICATION\000"
 8316      455F4556 
 8316      545F4850 
 8316      53435F4E 
 8316      4F544946 
 8317              	.LASF345:
 8318 22e0 4359424C 		.ascii	"CYBLE_EVT_CPSS_BROADCAST_ENABLED\000"
 8318      455F4556 
 8318      545F4350 
 8318      53535F42 
 8318      524F4144 
 8319              	.LASF181:
 8320 2301 62617365 		.ascii	"baseAddr\000"
 8320      41646472 
 8320      00
 8321              	.LASF447:
 8322 230a 4359424C 		.ascii	"CYBLE_EVT_IPSC_WRITE_DESCR_RESPONSE\000"
 8322      455F4556 
 8322      545F4950 
 8322      53435F57 
 8322      52495445 
 8323              	.LASF568:
 8324 232e 4379426C 		.ascii	"CyBle_EsssWriteEventHandler\000"
 8324      655F4573 
 8324      73735772 
 8324      69746545 
 8324      76656E74 
 8325              	.LASF397:
 8326 234a 4359424C 		.ascii	"CYBLE_EVT_GLSC_READ_CHAR_RESPONSE\000"
 8326      455F4556 
 8326      545F474C 
 8326      53435F52 
 8326      4541445F 
 8327              	.LASF484:
 8328 236c 4359424C 		.ascii	"CYBLE_EVT_PLXSC_WRITE_DESCR_RESPONSE\000"
 8328      455F4556 
 8328      545F504C 
 8328      5853435F 
ARM GAS  C:\Users\megan\AppData\Local\Temp\ccmgjhBj.s 			page 196


 8328      57524954 
 8329              	.LASF478:
 8330 2391 4359424C 		.ascii	"CYBLE_EVT_PLXS_INDICATION_CONFIRMATION\000"
 8330      455F4556 
 8330      545F504C 
 8330      58535F49 
 8330      4E444943 
 8331              	.LASF413:
 8332 23b8 4359424C 		.ascii	"CYBLE_EVT_HPSS_NOTIFICATION_ENABLED\000"
 8332      455F4556 
 8332      545F4850 
 8332      53535F4E 
 8332      4F544946 
 8333              	.LASF435:
 8334 23dc 4359424C 		.ascii	"CYBLE_EVT_HTSC_NOTIFICATION\000"
 8334      455F4556 
 8334      545F4854 
 8334      53435F4E 
 8334      4F544946 
 8335              	.LASF6:
 8336 23f8 6C6F6E67 		.ascii	"long long int\000"
 8336      206C6F6E 
 8336      6720696E 
 8336      7400
 8337              	.LASF217:
 8338 2406 4359424C 		.ascii	"CYBLE_ESS_PRESSURE\000"
 8338      455F4553 
 8338      535F5052 
 8338      45535355 
 8338      524500
 8339              	.LASF508:
 8340 2419 4359424C 		.ascii	"CYBLE_EVT_TPSC_READ_CHAR_RESPONSE\000"
 8340      455F4556 
 8340      545F5450 
 8340      53435F52 
 8340      4541445F 
 8341              	.LASF265:
 8342 243b 4359424C 		.ascii	"CYBLE_EVT_GATTC_CHAR_DUPLICATION\000"
 8342      455F4556 
 8342      545F4741 
 8342      5454435F 
 8342      43484152 
 8343              	.LASF392:
 8344 245c 4359424C 		.ascii	"CYBLE_EVT_GLSS_NOTIFICATION_ENABLED\000"
 8344      455F4556 
 8344      545F474C 
 8344      53535F4E 
 8344      4F544946 
 8345              	.LASF135:
 8346 2480 4359424C 		.ascii	"CYBLE_GATT_ERR_PREPARE_WRITE_QUEUE_FULL\000"
 8346      455F4741 
 8346      54545F45 
 8346      52525F50 
 8346      52455041 
 8347              	.LASF417:
 8348 24a8 4359424C 		.ascii	"CYBLE_EVT_HPSC_READ_CHAR_RESPONSE\000"
 8348      455F4556 
ARM GAS  C:\Users\megan\AppData\Local\Temp\ccmgjhBj.s 			page 197


 8348      545F4850 
 8348      53435F52 
 8348      4541445F 
 8349              	.LASF104:
 8350 24ca 4359424C 		.ascii	"CYBLE_ERROR_L2CAP_PSM_NOT_REGISTERED\000"
 8350      455F4552 
 8350      524F525F 
 8350      4C324341 
 8350      505F5053 
 8351              	.LASF94:
 8352 24ef 4359424C 		.ascii	"CYBLE_ERROR_OOB_NOT_AVAILABLE\000"
 8352      455F4552 
 8352      524F525F 
 8352      4F4F425F 
 8352      4E4F545F 
 8353              	.LASF328:
 8354 250d 4359424C 		.ascii	"CYBLE_EVT_CGMSS_INDICATION_ENABLED\000"
 8354      455F4556 
 8354      545F4347 
 8354      4D53535F 
 8354      494E4449 
 8355              	.LASF13:
 8356 2530 646F7562 		.ascii	"double\000"
 8356      6C6500
 8357              	.LASF109:
 8358 2537 4359424C 		.ascii	"CYBLE_ERROR_DEVICE_ALREADY_EXISTS\000"
 8358      455F4552 
 8358      524F525F 
 8358      44455649 
 8358      43455F41 
 8359              	.LASF379:
 8360 2559 4359424C 		.ascii	"CYBLE_EVT_ESSS_INDICATION_DISABLED\000"
 8360      455F4556 
 8360      545F4553 
 8360      53535F49 
 8360      4E444943 
 8361              	.LASF84:
 8362 257c 4359424C 		.ascii	"CYBLE_EVT_PENDING_FLASH_WRITE\000"
 8362      455F4556 
 8362      545F5045 
 8362      4E44494E 
 8362      475F464C 
 8363              	.LASF138:
 8364 259a 4359424C 		.ascii	"CYBLE_GATT_ERR_INSUFFICIENT_ENC_KEY_SIZE\000"
 8364      455F4741 
 8364      54545F45 
 8364      52525F49 
 8364      4E535546 
 8365              	.LASF525:
 8366 25c3 4359424C 		.ascii	"CYBLE_EVT_WPTSS_NOTIFICATION_ENABLED\000"
 8366      455F4556 
 8366      545F5750 
 8366      5453535F 
 8366      4E4F5449 
 8367              	.LASF163:
 8368 25e8 4359424C 		.ascii	"CYBLE_GATT_ERR_PROCEDURE_ALREADY_IN_PROGRESS\000"
 8368      455F4741 
ARM GAS  C:\Users\megan\AppData\Local\Temp\ccmgjhBj.s 			page 198


 8368      54545F45 
 8368      52525F50 
 8368      524F4345 
 8369              	.LASF464:
 8370 2615 4359424C 		.ascii	"CYBLE_EVT_LNSC_WRITE_DESCR_RESPONSE\000"
 8370      455F4556 
 8370      545F4C4E 
 8370      53435F57 
 8370      52495445 
 8371              	.LASF41:
 8372 2639 4359424C 		.ascii	"CYBLE_EVT_GAP_ENHANCE_CONN_COMPLETE\000"
 8372      455F4556 
 8372      545F4741 
 8372      505F454E 
 8372      48414E43 
 8373              	.LASF451:
 8374 265d 4359424C 		.ascii	"CYBLE_EVT_LLSC_READ_CHAR_RESPONSE\000"
 8374      455F4556 
 8374      545F4C4C 
 8374      53435F52 
 8374      4541445F 
 8375              	.LASF359:
 8376 267f 4359424C 		.ascii	"CYBLE_EVT_CSCSS_INDICATION_CONFIRMATION\000"
 8376      455F4556 
 8376      545F4353 
 8376      4353535F 
 8376      494E4449 
 8377              	.LASF106:
 8378 26a7 4359424C 		.ascii	"CYBLE_ERROR_L2CAP_CHANNEL_NOT_FOUND\000"
 8378      455F4552 
 8378      524F525F 
 8378      4C324341 
 8378      505F4348 
 8379              	.LASF609:
 8380 26cb 6379426C 		.ascii	"cyBle_gattDB\000"
 8380      655F6761 
 8380      74744442 
 8380      00
 8381              	.LASF97:
 8382 26d8 4359424C 		.ascii	"CYBLE_ERROR_REPEATED_ATTEMPTS\000"
 8382      455F4552 
 8382      524F525F 
 8382      52455045 
 8382      41544544 
 8383              	.LASF382:
 8384 26f6 4359424C 		.ascii	"CYBLE_EVT_ESSS_DESCR_WRITE\000"
 8384      455F4556 
 8384      545F4553 
 8384      53535F44 
 8384      45534352 
 8385              	.LASF378:
 8386 2711 4359424C 		.ascii	"CYBLE_EVT_ESSS_INDICATION_ENABLED\000"
 8386      455F4556 
 8386      545F4553 
 8386      53535F49 
 8386      4E444943 
 8387              	.LASF572:
ARM GAS  C:\Users\megan\AppData\Local\Temp\ccmgjhBj.s 			page 199


 8388 2733 65737343 		.ascii	"essCharInfoPtr\000"
 8388      68617249 
 8388      6E666F50 
 8388      747200
 8389              	.LASF12:
 8390 2742 666C6F61 		.ascii	"float\000"
 8390      7400
 8391              	.LASF502:
 8392 2748 4359424C 		.ascii	"CYBLE_EVT_SCPSC_NOTIFICATION\000"
 8392      455F4556 
 8392      545F5343 
 8392      5053435F 
 8392      4E4F5449 
 8393              	.LASF404:
 8394 2765 4359424C 		.ascii	"CYBLE_EVT_HIDSS_REPORT_MODE_ENTER\000"
 8394      455F4556 
 8394      545F4849 
 8394      4453535F 
 8394      5245504F 
 8395              	.LASF383:
 8396 2787 4359424C 		.ascii	"CYBLE_EVT_ESSC_NOTIFICATION\000"
 8396      455F4556 
 8396      545F4553 
 8396      53435F4E 
 8396      4F544946 
 8397              	.LASF110:
 8398 27a3 4359424C 		.ascii	"CYBLE_ERROR_FLASH_WRITE_NOT_PERMITED\000"
 8398      455F4552 
 8398      524F525F 
 8398      464C4153 
 8398      485F5752 
 8399              	.LASF402:
 8400 27c8 4359424C 		.ascii	"CYBLE_EVT_HIDSS_NOTIFICATION_DISABLED\000"
 8400      455F4556 
 8400      545F4849 
 8400      4453535F 
 8400      4E4F5449 
 8401              	.LASF71:
 8402 27ee 4359424C 		.ascii	"CYBLE_EVT_GATTS_READ_CHAR_VAL_ACCESS_REQ\000"
 8402      455F4556 
 8402      545F4741 
 8402      5454535F 
 8402      52454144 
 8403              	.LASF290:
 8404 2817 4359424C 		.ascii	"CYBLE_EVT_ANCSC_READ_DESCR_RESPONSE\000"
 8404      455F4556 
 8404      545F414E 
 8404      4353435F 
 8404      52454144 
 8405              	.LASF611:
 8406 283b 6379426C 		.ascii	"cyBle_esssCharInstances\000"
 8406      655F6573 
 8406      73734368 
 8406      6172496E 
 8406      7374616E 
 8407              	.LASF554:
 8408 2853 4379426C 		.ascii	"CyBle_EsssCheckIfInRange\000"
ARM GAS  C:\Users\megan\AppData\Local\Temp\ccmgjhBj.s 			page 200


 8408      655F4573 
 8408      73734368 
 8408      65636B49 
 8408      66496E52 
 8409              	.LASF134:
 8410 286c 4359424C 		.ascii	"CYBLE_GATT_ERR_INSUFFICIENT_AUTHORIZATION\000"
 8410      455F4741 
 8410      54545F45 
 8410      52525F49 
 8410      4E535546 
 8411              	.LASF251:
 8412 2896 64657363 		.ascii	"descrIndex\000"
 8412      72496E64 
 8412      657800
 8413              	.LASF173:
 8414 28a1 61747472 		.ascii	"attrHandle\000"
 8414      48616E64 
 8414      6C6500
 8415              	.LASF519:
 8416 28ac 4359424C 		.ascii	"CYBLE_EVT_UDSC_NOTIFICATION\000"
 8416      455F4556 
 8416      545F5544 
 8416      53435F4E 
 8416      4F544946 
 8417              	.LASF533:
 8418 28c8 4359424C 		.ascii	"CYBLE_EVT_WPTSC_WRITE_CHAR_RESPONSE\000"
 8418      455F4556 
 8418      545F5750 
 8418      5453435F 
 8418      57524954 
 8419              	.LASF189:
 8420 28ec 4359424C 		.ascii	"CYBLE_GATTS_WRITE_REQ_PARAM_T\000"
 8420      455F4741 
 8420      5454535F 
 8420      57524954 
 8420      455F5245 
 8421              	.LASF8:
 8422 290a 756E7369 		.ascii	"unsigned int\000"
 8422      676E6564 
 8422      20696E74 
 8422      00
 8423              	.LASF63:
 8424 2917 4359424C 		.ascii	"CYBLE_EVT_GATTS_PREP_WRITE_REQ\000"
 8424      455F4556 
 8424      545F4741 
 8424      5454535F 
 8424      50524550 
 8425              	.LASF238:
 8426 2936 4359424C 		.ascii	"CYBLE_ESS_DESCR_COUNT\000"
 8426      455F4553 
 8426      535F4445 
 8426      5343525F 
 8426      434F554E 
 8427              	.LASF202:
 8428 294c 61747445 		.ascii	"attEndHandle\000"
 8428      6E644861 
 8428      6E646C65 
ARM GAS  C:\Users\megan\AppData\Local\Temp\ccmgjhBj.s 			page 201


 8428      00
 8429              	.LASF131:
 8430 2959 4359424C 		.ascii	"CYBLE_GATT_ERR_INSUFFICIENT_AUTHENTICATION\000"
 8430      455F4741 
 8430      54545F45 
 8430      52525F49 
 8430      4E535546 
 8431              	.LASF326:
 8432 2984 4359424C 		.ascii	"CYBLE_EVT_BMSC_WRITE_CHAR_RESPONSE\000"
 8432      455F4556 
 8432      545F424D 
 8432      53435F57 
 8432      52495445 
 8433              	.LASF368:
 8434 29a7 4359424C 		.ascii	"CYBLE_EVT_CTSS_NOTIFICATION_DISABLED\000"
 8434      455F4556 
 8434      545F4354 
 8434      53535F4E 
 8434      4F544946 
 8435              	.LASF315:
 8436 29cc 4359424C 		.ascii	"CYBLE_EVT_BLSS_INDICATION_DISABLED\000"
 8436      455F4556 
 8436      545F424C 
 8436      53535F49 
 8436      4E444943 
 8437              	.LASF500:
 8438 29ef 4359424C 		.ascii	"CYBLE_EVT_SCPSS_NOTIFICATION_DISABLED\000"
 8438      455F4556 
 8438      545F5343 
 8438      5053535F 
 8438      4E4F5449 
 8439              	.LASF380:
 8440 2a15 4359424C 		.ascii	"CYBLE_EVT_ESSS_INDICATION_CONFIRMATION\000"
 8440      455F4556 
 8440      545F4553 
 8440      53535F49 
 8440      4E444943 
 8441              	.LASF586:
 8442 2a3c 666C6167 		.ascii	"flag\000"
 8442      00
 8443              	.LASF149:
 8444 2a41 4359424C 		.ascii	"CYBLE_GATTS_ERR_PROCEDURE_ALREADY_IN_PROGRESS\000"
 8444      455F4741 
 8444      5454535F 
 8444      4552525F 
 8444      50524F43 
 8445              	.LASF283:
 8446 2a6f 4359424C 		.ascii	"CYBLE_EVT_AIOSC_WRITE_DESCR_RESPONSE\000"
 8446      455F4556 
 8446      545F4149 
 8446      4F53435F 
 8446      57524954 
 8447              	.LASF601:
 8448 2a94 65737373 		.ascii	"esssCharIdx0\000"
 8448      43686172 
 8448      49647830 
 8448      00
ARM GAS  C:\Users\megan\AppData\Local\Temp\ccmgjhBj.s 			page 202


 8449              	.LASF563:
 8450 2aa1 6D61784C 		.ascii	"maxLimit\000"
 8450      696D6974 
 8450      00
 8451              	.LASF561:
 8452 2aaa 736B6970 		.ascii	"skipSignCheck\000"
 8452      5369676E 
 8452      43686563 
 8452      6B00
 8453              	.LASF253:
 8454 2ab8 4359424C 		.ascii	"CYBLE_AUTHENTICATION_REQUEST_REPLY\000"
 8454      455F4155 
 8454      5448454E 
 8454      54494341 
 8454      54494F4E 
 8455              	.LASF102:
 8456 2adb 4359424C 		.ascii	"CYBLE_ERROR_L2CAP_PSM_WRONG_ENCODING\000"
 8456      455F4552 
 8456      524F525F 
 8456      4C324341 
 8456      505F5053 
 8457              	.LASF318:
 8458 2b00 4359424C 		.ascii	"CYBLE_EVT_BLSS_NOTIFICATION_DISABLED\000"
 8458      455F4556 
 8458      545F424C 
 8458      53535F4E 
 8458      4F544946 
 8459              	.LASF177:
 8460 2b25 4359424C 		.ascii	"CYBLE_GATT_HANDLE_VALUE_OFFSET_PARAM_T\000"
 8460      455F4741 
 8460      54545F48 
 8460      414E444C 
 8460      455F5641 
 8461              	.LASF136:
 8462 2b4c 4359424C 		.ascii	"CYBLE_GATT_ERR_ATTRIBUTE_NOT_FOUND\000"
 8462      455F4741 
 8462      54545F45 
 8462      52525F41 
 8462      54545249 
 8463              	.LASF176:
 8464 2b6f 6F666673 		.ascii	"offset\000"
 8464      657400
 8465              	.LASF438:
 8466 2b76 4359424C 		.ascii	"CYBLE_EVT_HTSC_WRITE_CHAR_RESPONSE\000"
 8466      455F4556 
 8466      545F4854 
 8466      53435F57 
 8466      52495445 
 8467              	.LASF538:
 8468 2b99 4359424C 		.ascii	"CYBLE_EVT_WSSS_INDICATION_DISABLED\000"
 8468      455F4556 
 8468      545F5753 
 8468      53535F49 
 8468      4E444943 
 8469              	.LASF420:
 8470 2bbc 4359424C 		.ascii	"CYBLE_EVT_HPSC_WRITE_CHAR_RESPONSE\000"
 8470      455F4556 
ARM GAS  C:\Users\megan\AppData\Local\Temp\ccmgjhBj.s 			page 203


 8470      545F4850 
 8470      53435F57 
 8470      52495445 
 8471              	.LASF88:
 8472 2bdf 4359424C 		.ascii	"CYBLE_EVT_MAX\000"
 8472      455F4556 
 8472      545F4D41 
 8472      5800
 8473              	.LASF35:
 8474 2bed 4359424C 		.ascii	"CYBLE_EVT_GAPC_SCAN_START_STOP\000"
 8474      455F4556 
 8474      545F4741 
 8474      50435F53 
 8474      43414E5F 
 8475              	.LASF293:
 8476 2c0c 4359424C 		.ascii	"CYBLE_EVT_ANSS_NOTIFICATION_ENABLED\000"
 8476      455F4556 
 8476      545F414E 
 8476      53535F4E 
 8476      4F544946 
 8477              	.LASF60:
 8478 2c30 4359424C 		.ascii	"CYBLE_EVT_GATTS_WRITE_REQ\000"
 8478      455F4556 
 8478      545F4741 
 8478      5454535F 
 8478      57524954 
 8479              	.LASF123:
 8480 2c4a 61647644 		.ascii	"advData\000"
 8480      61746100 
 8481              	.LASF521:
 8482 2c52 4359424C 		.ascii	"CYBLE_EVT_UDSC_WRITE_CHAR_RESPONSE\000"
 8482      455F4556 
 8482      545F5544 
 8482      53435F57 
 8482      52495445 
 8483              	.LASF532:
 8484 2c75 4359424C 		.ascii	"CYBLE_EVT_WPTSC_INDICATION\000"
 8484      455F4556 
 8484      545F5750 
 8484      5453435F 
 8484      494E4449 
 8485              	.LASF27:
 8486 2c90 4359424C 		.ascii	"CYBLE_EVT_GAP_PASSKEY_DISPLAY_REQUEST\000"
 8486      455F4556 
 8486      545F4741 
 8486      505F5041 
 8486      53534B45 
 8487              	.LASF118:
 8488 2cb6 4359424C 		.ascii	"CYBLE_ERROR_IND_DISABLED\000"
 8488      455F4552 
 8488      524F525F 
 8488      494E445F 
 8488      44495341 
 8489              	.LASF117:
 8490 2ccf 4359424C 		.ascii	"CYBLE_ERROR_NTF_DISABLED\000"
 8490      455F4552 
 8490      524F525F 
ARM GAS  C:\Users\megan\AppData\Local\Temp\ccmgjhBj.s 			page 204


 8490      4E54465F 
 8490      44495341 
 8491              	.LASF215:
 8492 2ce8 4359424C 		.ascii	"CYBLE_ESS_POLLEN_CONCENTRATION\000"
 8492      455F4553 
 8492      535F504F 
 8492      4C4C454E 
 8492      5F434F4E 
 8493              	.LASF57:
 8494 2d07 4359424C 		.ascii	"CYBLE_EVT_GATTC_READ_RSP\000"
 8494      455F4556 
 8494      545F4741 
 8494      5454435F 
 8494      52454144 
 8495              	.LASF349:
 8496 2d20 4359424C 		.ascii	"CYBLE_EVT_CPSC_INDICATION\000"
 8496      455F4556 
 8496      545F4350 
 8496      53435F49 
 8496      4E444943 
 8497              	.LASF133:
 8498 2d3a 4359424C 		.ascii	"CYBLE_GATT_ERR_INVALID_OFFSET\000"
 8498      455F4741 
 8498      54545F45 
 8498      52525F49 
 8498      4E56414C 
 8499              	.LASF232:
 8500 2d58 4359424C 		.ascii	"CYBLE_ESS_ES_TRIGGER_SETTINGS_DESCR1\000"
 8500      455F4553 
 8500      535F4553 
 8500      5F545249 
 8500      47474552 
 8501              	.LASF375:
 8502 2d7d 4359424C 		.ascii	"CYBLE_EVT_DISC_READ_CHAR_RESPONSE\000"
 8502      455F4556 
 8502      545F4449 
 8502      53435F52 
 8502      4541445F 
 8503              	.LASF77:
 8504 2d9f 4359424C 		.ascii	"CYBLE_EVT_L2CAP_CBFC_CONN_CNF\000"
 8504      455F4556 
 8504      545F4C32 
 8504      4341505F 
 8504      43424643 
 8505              	.LASF234:
 8506 2dbd 4359424C 		.ascii	"CYBLE_ESS_ES_TRIGGER_SETTINGS_DESCR3\000"
 8506      455F4553 
 8506      535F4553 
 8506      5F545249 
 8506      47474552 
 8507              	.LASF192:
 8508 2de2 4359424C 		.ascii	"CYBLE_GATTS_ATT_GEN_VAL_LEN_T\000"
 8508      455F4741 
 8508      5454535F 
 8508      4154545F 
 8508      47454E5F 
 8509              	.LASF439:
ARM GAS  C:\Users\megan\AppData\Local\Temp\ccmgjhBj.s 			page 205


 8510 2e00 4359424C 		.ascii	"CYBLE_EVT_HTSC_READ_DESCR_RESPONSE\000"
 8510      455F4556 
 8510      545F4854 
 8510      53435F52 
 8510      4541445F 
 8511              	.LASF544:
 8512 2e23 4359424C 		.ascii	"CYBLE_DEBUG_EVT_BLESS_INT\000"
 8512      455F4445 
 8512      4255475F 
 8512      4556545F 
 8512      424C4553 
 8513              	.LASF164:
 8514 2e3d 4359424C 		.ascii	"CYBLE_GATT_ERR_OUT_OF_RANGE\000"
 8514      455F4741 
 8514      54545F45 
 8514      52525F4F 
 8514      55545F4F 
 8515              	.LASF394:
 8516 2e59 4359424C 		.ascii	"CYBLE_EVT_GLSS_WRITE_CHAR\000"
 8516      455F4556 
 8516      545F474C 
 8516      53535F57 
 8516      52495445 
 8517              	.LASF87:
 8518 2e73 4359424C 		.ascii	"CYBLE_EVT_FLASH_CORRUPT\000"
 8518      455F4556 
 8518      545F464C 
 8518      4153485F 
 8518      434F5252 
 8519              	.LASF528:
 8520 2e8b 4359424C 		.ascii	"CYBLE_EVT_WPTSS_INDICATION_DISABLED\000"
 8520      455F4556 
 8520      545F5750 
 8520      5453535F 
 8520      494E4449 
 8521              	.LASF15:
 8522 2eaf 6C6F6E67 		.ascii	"long double\000"
 8522      20646F75 
 8522      626C6500 
 8523              	.LASF331:
 8524 2ebb 4359424C 		.ascii	"CYBLE_EVT_CGMSS_NOTIFICATION_ENABLED\000"
 8524      455F4556 
 8524      545F4347 
 8524      4D53535F 
 8524      4E4F5449 
 8525              	.LASF424:
 8526 2ee0 4359424C 		.ascii	"CYBLE_EVT_HRSC_NOTIFICATION\000"
 8526      455F4556 
 8526      545F4852 
 8526      53435F4E 
 8526      4F544946 
 8527              	.LASF23:
 8528 2efc 4359424C 		.ascii	"CYBLE_EVT_MEMORY_REQUEST\000"
 8528      455F4556 
 8528      545F4D45 
 8528      4D4F5259 
 8528      5F524551 
ARM GAS  C:\Users\megan\AppData\Local\Temp\ccmgjhBj.s 			page 206


 8529              	.LASF280:
 8530 2f15 4359424C 		.ascii	"CYBLE_EVT_AIOSC_READ_CHAR_RESPONSE\000"
 8530      455F4556 
 8530      545F4149 
 8530      4F53435F 
 8530      52454144 
 8531              	.LASF489:
 8532 2f38 4359424C 		.ascii	"CYBLE_EVT_RSCSS_INDICATION_CONFIRMATION\000"
 8532      455F4556 
 8532      545F5253 
 8532      4353535F 
 8532      494E4449 
 8533              	.LASF411:
 8534 2f60 4359424C 		.ascii	"CYBLE_EVT_HIDSC_READ_DESCR_RESPONSE\000"
 8534      455F4556 
 8534      545F4849 
 8534      4453435F 
 8534      52454144 
 8535              	.LASF598:
 8536 2f84 6E746652 		.ascii	"ntfReqParam\000"
 8536      65715061 
 8536      72616D00 
 8537              	.LASF425:
 8538 2f90 4359424C 		.ascii	"CYBLE_EVT_HRSC_READ_CHAR_RESPONSE\000"
 8538      455F4556 
 8538      545F4852 
 8538      53435F52 
 8538      4541445F 
 8539              	.LASF303:
 8540 2fb2 4359424C 		.ascii	"CYBLE_EVT_BASC_NOTIFICATION\000"
 8540      455F4556 
 8540      545F4241 
 8540      53435F4E 
 8540      4F544946 
 8541              	.LASF33:
 8542 2fce 4359424C 		.ascii	"CYBLE_EVT_GAP_ENCRYPT_CHANGE\000"
 8542      455F4556 
 8542      545F4741 
 8542      505F454E 
 8542      43525950 
 8543              	.LASF616:
 8544 2feb 4379426C 		.ascii	"CyBle_EssInit\000"
 8544      655F4573 
 8544      73496E69 
 8544      7400
 8545              	.LASF465:
 8546 2ff9 4359424C 		.ascii	"CYBLE_EVT_NDCSC_READ_CHAR_RESPONSE\000"
 8546      455F4556 
 8546      545F4E44 
 8546      4353435F 
 8546      52454144 
 8547              	.LASF266:
 8548 301c 4359424C 		.ascii	"CYBLE_EVT_GATTC_DESCR_DUPLICATION\000"
 8548      455F4556 
 8548      545F4741 
 8548      5454435F 
 8548      44455343 
ARM GAS  C:\Users\megan\AppData\Local\Temp\ccmgjhBj.s 			page 207


 8549              	.LASF51:
 8550 303e 4359424C 		.ascii	"CYBLE_EVT_GATTS_XCNHG_MTU_REQ\000"
 8550      455F4556 
 8550      545F4741 
 8550      5454535F 
 8550      58434E48 
 8551              	.LASF414:
 8552 305c 4359424C 		.ascii	"CYBLE_EVT_HPSS_NOTIFICATION_DISABLED\000"
 8552      455F4556 
 8552      545F4850 
 8552      53535F4E 
 8552      4F544946 
 8553              	.LASF514:
 8554 3081 4359424C 		.ascii	"CYBLE_EVT_UDSS_NOTIFICATION_ENABLED\000"
 8554      455F4556 
 8554      545F5544 
 8554      53535F4E 
 8554      4F544946 
 8555              	.LASF275:
 8556 30a5 4359424C 		.ascii	"CYBLE_EVT_AIOSS_INDICATION_CONFIRMED\000"
 8556      455F4556 
 8556      545F4149 
 8556      4F53535F 
 8556      494E4449 
 8557              	.LASF455:
 8558 30ca 4359424C 		.ascii	"CYBLE_EVT_LNSS_INDICATION_CONFIRMED\000"
 8558      455F4556 
 8558      545F4C4E 
 8558      53535F49 
 8558      4E444943 
 8559              	.LASF47:
 8560 30ee 4359424C 		.ascii	"CYBLE_EVT_GAP_SMP_LOC_P256_KEYS_GEN_AND_SET_COMPLET"
 8560      455F4556 
 8560      545F4741 
 8560      505F534D 
 8560      505F4C4F 
 8561 3121 4500     		.ascii	"E\000"
 8562              	.LASF300:
 8563 3123 4359424C 		.ascii	"CYBLE_EVT_ANSC_WRITE_DESCR_RESPONSE\000"
 8563      455F4556 
 8563      545F414E 
 8563      53435F57 
 8563      52495445 
 8564              	.LASF461:
 8565 3147 4359424C 		.ascii	"CYBLE_EVT_LNSC_READ_CHAR_RESPONSE\000"
 8565      455F4556 
 8565      545F4C4E 
 8565      53435F52 
 8565      4541445F 
 8566              	.LASF228:
 8567 3169 4359424C 		.ascii	"CYBLE_ESS_CHAR_INDEX_T\000"
 8567      455F4553 
 8567      535F4348 
 8567      41525F49 
 8567      4E444558 
 8568              	.LASF391:
 8569 3180 4359424C 		.ascii	"CYBLE_EVT_GLSS_INDICATION_CONFIRMED\000"
ARM GAS  C:\Users\megan\AppData\Local\Temp\ccmgjhBj.s 			page 208


 8569      455F4556 
 8569      545F474C 
 8569      53535F49 
 8569      4E444943 
 8570              	.LASF550:
 8571 31a4 4359424C 		.ascii	"CYBLE_STATE_T\000"
 8571      455F5354 
 8571      4154455F 
 8571      5400
 8572              	.LASF257:
 8573 31b2 4359424C 		.ascii	"CYBLE_EVT_GATTS_INDICATION_ENABLED\000"
 8573      455F4556 
 8573      545F4741 
 8573      5454535F 
 8573      494E4449 
 8574              	.LASF7:
 8575 31d5 6C6F6E67 		.ascii	"long long unsigned int\000"
 8575      206C6F6E 
 8575      6720756E 
 8575      7369676E 
 8575      65642069 
 8576              	.LASF127:
 8577 31ec 4359424C 		.ascii	"CYBLE_GATT_ERR_INVALID_HANDLE\000"
 8577      455F4741 
 8577      54545F45 
 8577      52525F49 
 8577      4E56414C 
 8578              	.LASF19:
 8579 320a 4359424C 		.ascii	"CYBLE_EVT_TIMEOUT\000"
 8579      455F4556 
 8579      545F5449 
 8579      4D454F55 
 8579      5400
 8580              	.LASF372:
 8581 321c 4359424C 		.ascii	"CYBLE_EVT_CTSC_READ_DESCR_RESPONSE\000"
 8581      455F4556 
 8581      545F4354 
 8581      53435F52 
 8581      4541445F 
 8582              	.LASF597:
 8583 323f 4379426C 		.ascii	"CyBle_EsssSendNotification\000"
 8583      655F4573 
 8583      73735365 
 8583      6E644E6F 
 8583      74696669 
 8584              	.LASF557:
 8585 325a 6C656E67 		.ascii	"length\000"
 8585      746800
 8586              	.LASF151:
 8587 3261 4359424C 		.ascii	"CYBLE_GATT_ERR_MISSING_CRC\000"
 8587      455F4741 
 8587      54545F45 
 8587      52525F4D 
 8587      49535349 
 8588              	.LASF120:
 8589 327c 4359424C 		.ascii	"CYBLE_ERROR_INVALID_STATE\000"
 8589      455F4552 
ARM GAS  C:\Users\megan\AppData\Local\Temp\ccmgjhBj.s 			page 209


 8589      524F525F 
 8589      494E5641 
 8589      4C49445F 
 8590              	.LASF166:
 8591 3296 4359424C 		.ascii	"CYBLE_GATT_DB_ATTR_HANDLE_T\000"
 8591      455F4741 
 8591      54545F44 
 8591      425F4154 
 8591      54525F48 
 8592              	.LASF273:
 8593 32b2 4359424C 		.ascii	"CYBLE_EVT_AIOSS_INDICATION_ENABLED\000"
 8593      455F4556 
 8593      545F4149 
 8593      4F53535F 
 8593      494E4449 
 8594              	.LASF80:
 8595 32d5 4359424C 		.ascii	"CYBLE_EVT_L2CAP_CBFC_DATA_READ\000"
 8595      455F4556 
 8595      545F4C32 
 8595      4341505F 
 8595      43424643 
 8596              	.LASF126:
 8597 32f4 4359424C 		.ascii	"CYBLE_GATT_ERR_NONE\000"
 8597      455F4741 
 8597      54545F45 
 8597      52525F4E 
 8597      4F4E4500 
 8598              	.LASF172:
 8599 3308 76616C75 		.ascii	"value\000"
 8599      6500
 8600              	.LASF348:
 8601 330e 4359424C 		.ascii	"CYBLE_EVT_CPSC_NOTIFICATION\000"
 8601      455F4556 
 8601      545F4350 
 8601      53435F4E 
 8601      4F544946 
 8602              	.LASF323:
 8603 332a 4359424C 		.ascii	"CYBLE_EVT_BLSC_WRITE_DESCR_RESPONSE\000"
 8603      455F4556 
 8603      545F424C 
 8603      53435F57 
 8603      52495445 
 8604              	.LASF243:
 8605 334e 63686172 		.ascii	"charInfoPtr\000"
 8605      496E666F 
 8605      50747200 
 8606              	.LASF203:
 8607 335a 61747456 		.ascii	"attValue\000"
 8607      616C7565 
 8607      00
 8608              	.LASF460:
 8609 3363 4359424C 		.ascii	"CYBLE_EVT_LNSC_NOTIFICATION\000"
 8609      455F4556 
 8609      545F4C4E 
 8609      53435F4E 
 8609      4F544946 
 8610              	.LASF370:
ARM GAS  C:\Users\megan\AppData\Local\Temp\ccmgjhBj.s 			page 210


 8611 337f 4359424C 		.ascii	"CYBLE_EVT_CTSC_NOTIFICATION\000"
 8611      455F4556 
 8611      545F4354 
 8611      53435F4E 
 8611      4F544946 
 8612              	.LASF114:
 8613 339b 4359424C 		.ascii	"CYBLE_ERROR_FLASH_WRITE\000"
 8613      455F4552 
 8613      524F525F 
 8613      464C4153 
 8613      485F5752 
 8614              	.LASF604:
 8615 33b3 4379426C 		.ascii	"CyBle_EssApplCallback\000"
 8615      655F4573 
 8615      73417070 
 8615      6C43616C 
 8615      6C626163 
 8616              	.LASF390:
 8617 33c9 4359424C 		.ascii	"CYBLE_EVT_GLSS_INDICATION_DISABLED\000"
 8617      455F4556 
 8617      545F474C 
 8617      53535F49 
 8617      4E444943 
 8618              	.LASF148:
 8619 33ec 4359424C 		.ascii	"CYBLE_GATT_ERR_HTS_OUT_OF_RANGE\000"
 8619      455F4741 
 8619      54545F45 
 8619      52525F48 
 8619      54535F4F 
 8620              	.LASF276:
 8621 340c 4359424C 		.ascii	"CYBLE_EVT_AIOSS_CHAR_WRITE\000"
 8621      455F4556 
 8621      545F4149 
 8621      4F53535F 
 8621      43484152 
 8622              	.LASF264:
 8623 3427 4359424C 		.ascii	"CYBLE_EVT_GATTC_SRVC_DUPLICATION\000"
 8623      455F4556 
 8623      545F4741 
 8623      5454435F 
 8623      53525643 
 8624              	.LASF603:
 8625 3448 6379426C 		.ascii	"cyBle_esssReqHandle\000"
 8625      655F6573 
 8625      73735265 
 8625      7148616E 
 8625      646C6500 
 8626              	.LASF453:
 8627 345c 4359424C 		.ascii	"CYBLE_EVT_LNSS_INDICATION_ENABLED\000"
 8627      455F4556 
 8627      545F4C4E 
 8627      53535F49 
 8627      4E444943 
 8628              	.LASF227:
 8629 347e 4359424C 		.ascii	"CYBLE_ESS_CHAR_COUNT\000"
 8629      455F4553 
 8629      535F4348 
ARM GAS  C:\Users\megan\AppData\Local\Temp\ccmgjhBj.s 			page 211


 8629      41525F43 
 8629      4F554E54 
 8630              	.LASF330:
 8631 3493 4359424C 		.ascii	"CYBLE_EVT_CGMSS_INDICATION_CONFIRMED\000"
 8631      455F4556 
 8631      545F4347 
 8631      4D53535F 
 8631      494E4449 
 8632              	.LASF286:
 8633 34b8 4359424C 		.ascii	"CYBLE_EVT_ANCSS_NOTIFICATION_DISABLED\000"
 8633      455F4556 
 8633      545F414E 
 8633      4353535F 
 8633      4E4F5449 
 8634              	.LASF180:
 8635 34de 636F6E6E 		.ascii	"connHandle\000"
 8635      48616E64 
 8635      6C6500
 8636              	.LASF190:
 8637 34e9 61637475 		.ascii	"actualLength\000"
 8637      616C4C65 
 8637      6E677468 
 8637      00
 8638              	.LASF187:
 8639 34f6 4359424C 		.ascii	"CYBLE_GATTS_EXEC_WRITE_REQ_T\000"
 8639      455F4741 
 8639      5454535F 
 8639      45584543 
 8639      5F575249 
 8640              	.LASF124:
 8641 3513 61647644 		.ascii	"advDataLen\000"
 8641      6174614C 
 8641      656E00
 8642              	.LASF473:
 8643 351e 4359424C 		.ascii	"CYBLE_EVT_PLXSS_WRITE_CHAR\000"
 8643      455F4556 
 8643      545F504C 
 8643      5853535F 
 8643      57524954 
 8644              	.LASF340:
 8645 3539 4359424C 		.ascii	"CYBLE_EVT_CPSS_NOTIFICATION_ENABLED\000"
 8645      455F4556 
 8645      545F4350 
 8645      53535F4E 
 8645      4F544946 
 8646              	.LASF509:
 8647 355d 4359424C 		.ascii	"CYBLE_EVT_TPSC_READ_DESCR_RESPONSE\000"
 8647      455F4556 
 8647      545F5450 
 8647      53435F52 
 8647      4541445F 
 8648              	.LASF213:
 8649 3580 4359424C 		.ascii	"CYBLE_ESS_HUMIDITY\000"
 8649      455F4553 
 8649      535F4855 
 8649      4D494449 
 8649      545900
ARM GAS  C:\Users\megan\AppData\Local\Temp\ccmgjhBj.s 			page 212


 8650              	.LASF607:
 8651 3593 6379426C 		.ascii	"cyBle_pendingFlashWrite\000"
 8651      655F7065 
 8651      6E64696E 
 8651      67466C61 
 8651      73685772 
 8652              	.LASF524:
 8653 35ab 4359424C 		.ascii	"CYBLE_EVT_UDSC_ERROR_RESPONSE\000"
 8653      455F4556 
 8653      545F5544 
 8653      53435F45 
 8653      52524F52 
 8654              	.LASF55:
 8655 35c9 4359424C 		.ascii	"CYBLE_EVT_GATTC_FIND_INFO_RSP\000"
 8655      455F4556 
 8655      545F4741 
 8655      5454435F 
 8655      46494E44 
 8656              	.LASF54:
 8657 35e7 4359424C 		.ascii	"CYBLE_EVT_GATTC_READ_BY_TYPE_RSP\000"
 8657      455F4556 
 8657      545F4741 
 8657      5454435F 
 8657      52454144 
 8658              	.LASF467:
 8659 3608 4359424C 		.ascii	"CYBLE_EVT_PASSS_NOTIFICATION_DISABLED\000"
 8659      455F4556 
 8659      545F5041 
 8659      5353535F 
 8659      4E4F5449 
 8660              	.LASF338:
 8661 362e 4359424C 		.ascii	"CYBLE_EVT_CGMSC_READ_DESCR_RESPONSE\000"
 8661      455F4556 
 8661      545F4347 
 8661      4D53435F 
 8661      52454144 
 8662              	.LASF409:
 8663 3652 4359424C 		.ascii	"CYBLE_EVT_HIDSC_READ_CHAR_RESPONSE\000"
 8663      455F4556 
 8663      545F4849 
 8663      4453435F 
 8663      52454144 
 8664              	.LASF576:
 8665 3675 4379426C 		.ascii	"CyBle_EsssPrepareWriteRequestEventHandler\000"
 8665      655F4573 
 8665      73735072 
 8665      65706172 
 8665      65577269 
 8666              	.LASF153:
 8667 369f 4359424C 		.ascii	"CYBLE_GATTS_ERR_OPERATION_FAILED\000"
 8667      455F4741 
 8667      5454535F 
 8667      4552525F 
 8667      4F504552 
 8668              	.LASF567:
 8669 36c0 61706952 		.ascii	"apiResult\000"
 8669      6573756C 
ARM GAS  C:\Users\megan\AppData\Local\Temp\ccmgjhBj.s 			page 213


 8669      7400
 8670              	.LASF612:
 8671 36ca 6379426C 		.ascii	"cyBle_state\000"
 8671      655F7374 
 8671      61746500 
 8672              	.LASF506:
 8673 36d6 4359424C 		.ascii	"CYBLE_EVT_TPSS_NOTIFICATION_DISABLED\000"
 8673      455F4556 
 8673      545F5450 
 8673      53535F4E 
 8673      4F544946 
 8674              	.LASF503:
 8675 36fb 4359424C 		.ascii	"CYBLE_EVT_SCPSC_READ_DESCR_RESPONSE\000"
 8675      455F4556 
 8675      545F5343 
 8675      5053435F 
 8675      52454144 
 8676              	.LASF428:
 8677 371f 4359424C 		.ascii	"CYBLE_EVT_HRSC_WRITE_DESCR_RESPONSE\000"
 8677      455F4556 
 8677      545F4852 
 8677      53435F57 
 8677      52495445 
 8678              	.LASF458:
 8679 3743 4359424C 		.ascii	"CYBLE_EVT_LNSS_WRITE_CHAR\000"
 8679      455F4556 
 8679      545F4C4E 
 8679      53535F57 
 8679      52495445 
 8680              	.LASF175:
 8681 375d 68616E64 		.ascii	"handleValuePair\000"
 8681      6C655661 
 8681      6C756550 
 8681      61697200 
 8682              	.LASF381:
 8683 376d 4359424C 		.ascii	"CYBLE_EVT_ESSS_CHAR_WRITE\000"
 8683      455F4556 
 8683      545F4553 
 8683      53535F43 
 8683      4841525F 
 8684              	.LASF61:
 8685 3787 4359424C 		.ascii	"CYBLE_EVT_GATTC_WRITE_RSP\000"
 8685      455F4556 
 8685      545F4741 
 8685      5454435F 
 8685      57524954 
 8686              	.LASF376:
 8687 37a1 4359424C 		.ascii	"CYBLE_EVT_ESSS_NOTIFICATION_ENABLED\000"
 8687      455F4556 
 8687      545F4553 
 8687      53535F4E 
 8687      4F544946 
 8688              	.LASF549:
 8689 37c5 4359424C 		.ascii	"CYBLE_STATE_DISCONNECTED\000"
 8689      455F5354 
 8689      4154455F 
 8689      44495343 
ARM GAS  C:\Users\megan\AppData\Local\Temp\ccmgjhBj.s 			page 214


 8689      4F4E4E45 
 8690              	.LASF582:
 8691 37de 4379426C 		.ascii	"CyBle_EsssConfirmationEventHandler\000"
 8691      655F4573 
 8691      7373436F 
 8691      6E666972 
 8691      6D617469 
 8692              	.LASF198:
 8693 3801 4359424C 		.ascii	"CYBLE_GATTS_ATT_VALUE_T\000"
 8693      455F4741 
 8693      5454535F 
 8693      4154545F 
 8693      56414C55 
 8694              	.LASF491:
 8695 3819 4359424C 		.ascii	"CYBLE_EVT_RSCSC_NOTIFICATION\000"
 8695      455F4556 
 8695      545F5253 
 8695      4353435F 
 8695      4E4F5449 
 8696              	.LASF195:
 8697 3836 4359424C 		.ascii	"CYBLE_GATTS_ATT_PACK_VAL_LEN_T\000"
 8697      455F4741 
 8697      5454535F 
 8697      4154545F 
 8697      5041434B 
 8698              	.LASF233:
 8699 3855 4359424C 		.ascii	"CYBLE_ESS_ES_TRIGGER_SETTINGS_DESCR2\000"
 8699      455F4553 
 8699      535F4553 
 8699      5F545249 
 8699      47474552 
 8700              	.LASF30:
 8701 387a 4359424C 		.ascii	"CYBLE_EVT_GAPP_ADVERTISEMENT_START_STOP\000"
 8701      455F4556 
 8701      545F4741 
 8701      50505F41 
 8701      44564552 
 8702              	.LASF244:
 8703 38a2 4359424C 		.ascii	"CYBLE_ESSS_CHAR_INFO_PTR_T\000"
 8703      455F4553 
 8703      53535F43 
 8703      4841525F 
 8703      494E464F 
 8704              	.LASF535:
 8705 38bd 4359424C 		.ascii	"CYBLE_EVT_WPTSC_READ_DESCR_RESPONSE\000"
 8705      455F4556 
 8705      545F5750 
 8705      5453435F 
 8705      52454144 
 8706              	.LASF288:
 8707 38e1 4359424C 		.ascii	"CYBLE_EVT_ANCSC_NOTIFICATION\000"
 8707      455F4556 
 8707      545F414E 
 8707      4353435F 
 8707      4E4F5449 
 8708              	.LASF191:
 8709 38fe 61747447 		.ascii	"attGenericVal\000"
ARM GAS  C:\Users\megan\AppData\Local\Temp\ccmgjhBj.s 			page 215


 8709      656E6572 
 8709      69635661 
 8709      6C00
 8710              	.LASF240:
 8711 390c 63686172 		.ascii	"charHandle\000"
 8711      48616E64 
 8711      6C6500
 8712              	.LASF337:
 8713 3917 4359424C 		.ascii	"CYBLE_EVT_CGMSC_WRITE_CHAR_RESPONSE\000"
 8713      455F4556 
 8713      545F4347 
 8713      4D53435F 
 8713      57524954 
 8714              	.LASF9:
 8715 393b 75696E74 		.ascii	"uint8\000"
 8715      3800
 8716              	.LASF437:
 8717 3941 4359424C 		.ascii	"CYBLE_EVT_HTSC_READ_CHAR_RESPONSE\000"
 8717      455F4556 
 8717      545F4854 
 8717      53435F52 
 8717      4541445F 
 8718              	.LASF38:
 8719 3963 4359424C 		.ascii	"CYBLE_EVT_GAP_KEYPRESS_NOTIFICATION\000"
 8719      455F4556 
 8719      545F4741 
 8719      505F4B45 
 8719      59505245 
 8720              	.LASF472:
 8721 3987 4359424C 		.ascii	"CYBLE_EVT_PASSC_WRITE_DESCR_RESPONSE\000"
 8721      455F4556 
 8721      545F5041 
 8721      5353435F 
 8721      57524954 
 8722              	.LASF2:
 8723 39ac 73686F72 		.ascii	"short int\000"
 8723      7420696E 
 8723      7400
 8724              	.LASF188:
 8725 39b6 68616E64 		.ascii	"handleValPair\000"
 8725      6C655661 
 8725      6C506169 
 8725      7200
 8726              	.LASF324:
 8727 39c4 4359424C 		.ascii	"CYBLE_EVT_BMSS_WRITE_CHAR\000"
 8727      455F4556 
 8727      545F424D 
 8727      53535F57 
 8727      52495445 
 8728              	.LASF194:
 8729 39de 61747447 		.ascii	"attGenericValLen\000"
 8729      656E6572 
 8729      69635661 
 8729      6C4C656E 
 8729      00
 8730              	.LASF196:
 8731 39ef 61747446 		.ascii	"attFormatValue\000"
ARM GAS  C:\Users\megan\AppData\Local\Temp\ccmgjhBj.s 			page 216


 8731      6F726D61 
 8731      7456616C 
 8731      756500
 8732              	.LASF281:
 8733 39fe 4359424C 		.ascii	"CYBLE_EVT_AIOSC_WRITE_CHAR_RESPONSE\000"
 8733      455F4556 
 8733      545F4149 
 8733      4F53435F 
 8733      57524954 
 8734              	.LASF112:
 8735 3a22 4359424C 		.ascii	"CYBLE_ERROR_HARDWARE_FAILURE\000"
 8735      455F4552 
 8735      524F525F 
 8735      48415244 
 8735      57415245 
 8736              	.LASF147:
 8737 3a3f 4359424C 		.ascii	"CYBLE_GATT_ERR_CPS_INAPPROPRIATE_CONNECTION_PARAMET"
 8737      455F4741 
 8737      54545F45 
 8737      52525F43 
 8737      50535F49 
 8738 3a72 45525300 		.ascii	"ERS\000"
 8739              	.LASF335:
 8740 3a76 4359424C 		.ascii	"CYBLE_EVT_CGMSC_NOTIFICATION\000"
 8740      455F4556 
 8740      545F4347 
 8740      4D53435F 
 8740      4E4F5449 
 8741              	.LASF132:
 8742 3a93 4359424C 		.ascii	"CYBLE_GATT_ERR_REQUEST_NOT_SUPPORTED\000"
 8742      455F4741 
 8742      54545F45 
 8742      52525F52 
 8742      45515545 
 8743              	.LASF48:
 8744 3ab8 4359424C 		.ascii	"CYBLE_EVT_GATTC_ERROR_RSP\000"
 8744      455F4556 
 8744      545F4741 
 8744      5454435F 
 8744      4552524F 
 8745              	.LASF386:
 8746 3ad2 4359424C 		.ascii	"CYBLE_EVT_ESSC_WRITE_CHAR_RESPONSE\000"
 8746      455F4556 
 8746      545F4553 
 8746      53435F57 
 8746      52495445 
 8747              	.LASF229:
 8748 3af5 4359424C 		.ascii	"CYBLE_ESS_CCCD\000"
 8748      455F4553 
 8748      535F4343 
 8748      434400
 8749              	.LASF292:
 8750 3b04 4359424C 		.ascii	"CYBLE_EVT_ANCSC_ERROR_RESPONSE\000"
 8750      455F4556 
 8750      545F414E 
 8750      4353435F 
 8750      4552524F 
ARM GAS  C:\Users\megan\AppData\Local\Temp\ccmgjhBj.s 			page 217


 8751              	.LASF306:
 8752 3b23 4359424C 		.ascii	"CYBLE_EVT_BASC_WRITE_DESCR_RESPONSE\000"
 8752      455F4556 
 8752      545F4241 
 8752      53435F57 
 8752      52495445 
 8753              	.LASF260:
 8754 3b47 4359424C 		.ascii	"CYBLE_EVT_GATTC_SRVC_DISCOVERY_FAILED\000"
 8754      455F4556 
 8754      545F4741 
 8754      5454435F 
 8754      53525643 
 8755              	.LASF389:
 8756 3b6d 4359424C 		.ascii	"CYBLE_EVT_GLSS_INDICATION_ENABLED\000"
 8756      455F4556 
 8756      545F474C 
 8756      53535F49 
 8756      4E444943 
 8757              	.LASF295:
 8758 3b8f 4359424C 		.ascii	"CYBLE_EVT_ANSS_CHAR_WRITE\000"
 8758      455F4556 
 8758      545F414E 
 8758      53535F43 
 8758      4841525F 
 8759              	.LASF76:
 8760 3ba9 4359424C 		.ascii	"CYBLE_EVT_L2CAP_CBFC_CONN_IND\000"
 8760      455F4556 
 8760      545F4C32 
 8760      4341505F 
 8760      43424643 
 8761              	.LASF64:
 8762 3bc7 4359424C 		.ascii	"CYBLE_EVT_GATTS_EXEC_WRITE_REQ\000"
 8762      455F4556 
 8762      545F4741 
 8762      5454535F 
 8762      45584543 
 8763              	.LASF24:
 8764 3be6 4359424C 		.ascii	"CYBLE_EVT_GAPC_SCAN_PROGRESS_RESULT\000"
 8764      455F4556 
 8764      545F4741 
 8764      50435F53 
 8764      43414E5F 
 8765              	.LASF418:
 8766 3c0a 4359424C 		.ascii	"CYBLE_EVT_HPSC_READ_DESCR_RESPONSE\000"
 8766      455F4556 
 8766      545F4850 
 8766      53435F52 
 8766      4541445F 
 8767              	.LASF369:
 8768 3c2d 4359424C 		.ascii	"CYBLE_EVT_CTSS_CHAR_WRITE\000"
 8768      455F4556 
 8768      545F4354 
 8768      53535F43 
 8768      4841525F 
 8769              	.LASF511:
 8770 3c47 4359424C 		.ascii	"CYBLE_EVT_UDSS_INDICATION_ENABLED\000"
 8770      455F4556 
ARM GAS  C:\Users\megan\AppData\Local\Temp\ccmgjhBj.s 			page 218


 8770      545F5544 
 8770      53535F49 
 8770      4E444943 
 8771              	.LASF449:
 8772 3c69 4359424C 		.ascii	"CYBLE_EVT_IPSC_READ_BLOB_RSP\000"
 8772      455F4556 
 8772      545F4950 
 8772      53435F52 
 8772      4541445F 
 8773              	.LASF165:
 8774 3c86 4359424C 		.ascii	"CYBLE_GATT_ERR_CODE_T\000"
 8774      455F4741 
 8774      54545F45 
 8774      52525F43 
 8774      4F44455F 
 8775              	.LASF160:
 8776 3c9c 4359424C 		.ascii	"CYBLE_GATT_ERR_ANCS_INVALID_PARAMETER\000"
 8776      455F4741 
 8776      54545F45 
 8776      52525F41 
 8776      4E43535F 
 8777              	.LASF98:
 8778 3cc2 4359424C 		.ascii	"CYBLE_ERROR_GAP_ROLE\000"
 8778      455F4552 
 8778      524F525F 
 8778      4741505F 
 8778      524F4C45 
 8779              	.LASF431:
 8780 3cd7 4359424C 		.ascii	"CYBLE_EVT_HTSS_INDICATION_ENABLED\000"
 8780      455F4556 
 8780      545F4854 
 8780      53535F49 
 8780      4E444943 
 8781              	.LASF347:
 8782 3cf9 4359424C 		.ascii	"CYBLE_EVT_CPSS_CHAR_WRITE\000"
 8782      455F4556 
 8782      545F4350 
 8782      53535F43 
 8782      4841525F 
 8783              	.LASF522:
 8784 3d13 4359424C 		.ascii	"CYBLE_EVT_UDSC_READ_DESCR_RESPONSE\000"
 8784      455F4556 
 8784      545F5544 
 8784      53435F52 
 8784      4541445F 
 8785              	.LASF277:
 8786 3d36 4359424C 		.ascii	"CYBLE_EVT_AIOSS_DESCR_WRITE\000"
 8786      455F4556 
 8786      545F4149 
 8786      4F53535F 
 8786      44455343 
 8787              	.LASF45:
 8788 3d52 4359424C 		.ascii	"CYBLE_EVT_GAP_SCAN_REQ_RECVD\000"
 8788      455F4556 
 8788      545F4741 
 8788      505F5343 
 8788      414E5F52 
ARM GAS  C:\Users\megan\AppData\Local\Temp\ccmgjhBj.s 			page 219


 8789              	.LASF564:
 8790 3d6f 6D696E4C 		.ascii	"minLimit\000"
 8790      696D6974 
 8790      00
 8791              	.LASF304:
 8792 3d78 4359424C 		.ascii	"CYBLE_EVT_BASC_READ_CHAR_RESPONSE\000"
 8792      455F4556 
 8792      545F4241 
 8792      53435F52 
 8792      4541445F 
 8793              	.LASF396:
 8794 3d9a 4359424C 		.ascii	"CYBLE_EVT_GLSC_NOTIFICATION\000"
 8794      455F4556 
 8794      545F474C 
 8794      53435F4E 
 8794      4F544946 
 8795              	.LASF157:
 8796 3db6 4359424C 		.ascii	"CYBLE_GATT_ERR_ANS_COMMAND_NOT_SUPPORTED\000"
 8796      455F4741 
 8796      54545F45 
 8796      52525F41 
 8796      4E535F43 
 8797              	.LASF577:
 8798 3ddf 65786974 		.ascii	"exitLoop\000"
 8798      4C6F6F70 
 8798      00
 8799              	.LASF501:
 8800 3de8 4359424C 		.ascii	"CYBLE_EVT_SCPSS_SCAN_INT_WIN_CHAR_WRITE\000"
 8800      455F4556 
 8800      545F5343 
 8800      5053535F 
 8800      5343414E 
 8801              	.LASF553:
 8802 3e10 4379426C 		.ascii	"CyBle_EssGet32ByPtr\000"
 8802      655F4573 
 8802      73476574 
 8802      33324279 
 8802      50747200 
 8803              	.LASF605:
 8804 3e24 6379426C 		.ascii	"cyBle_eventHandlerFlag\000"
 8804      655F6576 
 8804      656E7448 
 8804      616E646C 
 8804      6572466C 
 8805              	.LASF258:
 8806 3e3b 4359424C 		.ascii	"CYBLE_EVT_GATTS_INDICATION_DISABLED\000"
 8806      455F4556 
 8806      545F4741 
 8806      5454535F 
 8806      494E4449 
 8807              	.LASF95:
 8808 3e5f 4359424C 		.ascii	"CYBLE_ERROR_NO_CONNECTION\000"
 8808      455F4552 
 8808      524F525F 
 8808      4E4F5F43 
 8808      4F4E4E45 
 8809              	.LASF182:
ARM GAS  C:\Users\megan\AppData\Local\Temp\ccmgjhBj.s 			page 220


 8810 3e79 63757272 		.ascii	"currentPrepWriteReqCount\000"
 8810      656E7450 
 8810      72657057 
 8810      72697465 
 8810      52657143 
 8811              	.LASF327:
 8812 3e92 4359424C 		.ascii	"CYBLE_EVT_BMSC_READ_DESCR_RESPONSE\000"
 8812      455F4556 
 8812      545F424D 
 8812      53435F52 
 8812      4541445F 
 8813              	.LASF588:
 8814 3eb5 62797465 		.ascii	"byteCounter\000"
 8814      436F756E 
 8814      74657200 
 8815              	.LASF85:
 8816 3ec1 4359424C 		.ascii	"CYBLE_EVT_LE_PING_AUTH_TIMEOUT\000"
 8816      455F4556 
 8816      545F4C45 
 8816      5F50494E 
 8816      475F4155 
 8817              	.LASF122:
 8818 3ee0 4359424C 		.ascii	"CYBLE_API_RESULT_T\000"
 8818      455F4150 
 8818      495F5245 
 8818      53554C54 
 8818      5F5400
 8819              	.LASF329:
 8820 3ef3 4359424C 		.ascii	"CYBLE_EVT_CGMSS_INDICATION_DISABLED\000"
 8820      455F4556 
 8820      545F4347 
 8820      4D53535F 
 8820      494E4449 
 8821              	.LASF270:
 8822 3f17 4359424C 		.ascii	"CYBLE_EVT_GATTC_DISCOVERY_COMPLETE\000"
 8822      455F4556 
 8822      545F4741 
 8822      5454435F 
 8822      44495343 
 8823              	.LASF230:
 8824 3f3a 4359424C 		.ascii	"CYBLE_ESS_CHAR_EXTENDED_PROPERTIES\000"
 8824      455F4553 
 8824      535F4348 
 8824      41525F45 
 8824      5854454E 
 8825              	.LASF400:
 8826 3f5d 4359424C 		.ascii	"CYBLE_EVT_GLSC_WRITE_DESCR_RESPONSE\000"
 8826      455F4556 
 8826      545F474C 
 8826      53435F57 
 8826      52495445 
 8827              	.LASF562:
 8828 3f81 746D7042 		.ascii	"tmpBuff\000"
 8828      75666600 
 8829              	.LASF67:
 8830 3f89 4359424C 		.ascii	"CYBLE_EVT_GATTC_HANDLE_VALUE_IND\000"
 8830      455F4556 
ARM GAS  C:\Users\megan\AppData\Local\Temp\ccmgjhBj.s 			page 221


 8830      545F4741 
 8830      5454435F 
 8830      48414E44 
 8831              	.LASF354:
 8832 3faa 4359424C 		.ascii	"CYBLE_EVT_CPSC_SCAN_PROGRESS_RESULT\000"
 8832      455F4556 
 8832      545F4350 
 8832      53435F53 
 8832      43414E5F 
 8833              	.LASF495:
 8834 3fce 4359424C 		.ascii	"CYBLE_EVT_RSCSC_READ_DESCR_RESPONSE\000"
 8834      455F4556 
 8834      545F5253 
 8834      4353435F 
 8834      52454144 
 8835              	.LASF101:
 8836 3ff2 4359424C 		.ascii	"CYBLE_ERROR_SEC_FAILED\000"
 8836      455F4552 
 8836      524F525F 
 8836      5345435F 
 8836      4641494C 
 8837              	.LASF22:
 8838 4009 4359424C 		.ascii	"CYBLE_EVT_STACK_BUSY_STATUS\000"
 8838      455F4556 
 8838      545F5354 
 8838      41434B5F 
 8838      42555359 
 8839              	.LASF247:
 8840 4025 4359424C 		.ascii	"CYBLE_ESSS_T\000"
 8840      455F4553 
 8840      53535F54 
 8840      00
 8841              	.LASF448:
 8842 4032 4359424C 		.ascii	"CYBLE_EVT_IPSC_ERROR_RESPONSE\000"
 8842      455F4556 
 8842      545F4950 
 8842      53435F45 
 8842      52524F52 
 8843              	.LASF440:
 8844 4050 4359424C 		.ascii	"CYBLE_EVT_HTSC_WRITE_DESCR_RESPONSE\000"
 8844      455F4556 
 8844      545F4854 
 8844      53435F57 
 8844      52495445 
 8845              	.LASF36:
 8846 4074 4359424C 		.ascii	"CYBLE_EVT_GAP_KEYINFO_EXCHNGE_CMPLT\000"
 8846      455F4556 
 8846      545F4741 
 8846      505F4B45 
 8846      59494E46 
 8847              	.LASF536:
 8848 4098 4359424C 		.ascii	"CYBLE_EVT_WPTSC_WRITE_DESCR_RESPONSE\000"
 8848      455F4556 
 8848      545F5750 
 8848      5453435F 
 8848      57524954 
 8849              	.LASF573:
ARM GAS  C:\Users\megan\AppData\Local\Temp\ccmgjhBj.s 			page 222


 8850 40bd 77724465 		.ascii	"wrDescrReqParam\000"
 8850      73637252 
 8850      65715061 
 8850      72616D00 
 8851              	.LASF73:
 8852 40cd 4359424C 		.ascii	"CYBLE_EVT_L2CAP_CONN_PARAM_UPDATE_REQ\000"
 8852      455F4556 
 8852      545F4C32 
 8852      4341505F 
 8852      434F4E4E 
 8853              	.LASF332:
 8854 40f3 4359424C 		.ascii	"CYBLE_EVT_CGMSS_NOTIFICATION_DISABLED\000"
 8854      455F4556 
 8854      545F4347 
 8854      4D53535F 
 8854      4E4F5449 
 8855              	.LASF606:
 8856 4119 6379426C 		.ascii	"cyBle_discoveryData\000"
 8856      655F6469 
 8856      73636F76 
 8856      65727944 
 8856      61746100 
 8857              	.LASF560:
 8858 412d 67617474 		.ascii	"gattErr\000"
 8858      45727200 
 8859              	.LASF261:
 8860 4135 4359424C 		.ascii	"CYBLE_EVT_GATTC_INCL_DISCOVERY_FAILED\000"
 8860      455F4556 
 8860      545F4741 
 8860      5454435F 
 8860      494E434C 
 8861              	.LASF129:
 8862 415b 4359424C 		.ascii	"CYBLE_GATT_ERR_WRITE_NOT_PERMITTED\000"
 8862      455F4741 
 8862      54545F45 
 8862      52525F57 
 8862      52495445 
 8863              	.LASF3:
 8864 417e 73686F72 		.ascii	"short unsigned int\000"
 8864      7420756E 
 8864      7369676E 
 8864      65642069 
 8864      6E7400
 8865              	.LASF141:
 8866 4191 4359424C 		.ascii	"CYBLE_GATT_ERR_INSUFFICIENT_ENCRYPTION\000"
 8866      455F4741 
 8866      54545F45 
 8866      52525F49 
 8866      4E535546 
 8867              	.LASF298:
 8868 41b8 4359424C 		.ascii	"CYBLE_EVT_ANSC_WRITE_CHAR_RESPONSE\000"
 8868      455F4556 
 8868      545F414E 
 8868      53435F57 
 8868      52495445 
 8869              	.LASF463:
 8870 41db 4359424C 		.ascii	"CYBLE_EVT_LNSC_READ_DESCR_RESPONSE\000"
ARM GAS  C:\Users\megan\AppData\Local\Temp\ccmgjhBj.s 			page 223


 8870      455F4556 
 8870      545F4C4E 
 8870      53435F52 
 8870      4541445F 
 8871              	.LASF547:
 8872 41fe 4359424C 		.ascii	"CYBLE_STATE_CONNECTED\000"
 8872      455F5354 
 8872      4154455F 
 8872      434F4E4E 
 8872      45435445 
 8873              	.LASF302:
 8874 4214 4359424C 		.ascii	"CYBLE_EVT_BASS_NOTIFICATION_DISABLED\000"
 8874      455F4556 
 8874      545F4241 
 8874      53535F4E 
 8874      4F544946 
 8875              	.LASF552:
 8876 4239 4379426C 		.ascii	"CyBle_EssGet24ByPtr\000"
 8876      655F4573 
 8876      73476574 
 8876      32344279 
 8876      50747200 
 8877              	.LASF170:
 8878 424d 61637475 		.ascii	"actualLen\000"
 8878      616C4C65 
 8878      6E00
 8879              	.LASF556:
 8880 4257 4379426C 		.ascii	"CyBle_EssHandleRangeCheck\000"
 8880      655F4573 
 8880      7348616E 
 8880      646C6552 
 8880      616E6765 
 8881              	.LASF600:
 8882 4271 696E6452 		.ascii	"indReqParam\000"
 8882      65715061 
 8882      72616D00 
 8883              	.LASF584:
 8884 427d 4379426C 		.ascii	"CyBle_EsssSetChangeIndex\000"
 8884      655F4573 
 8884      73735365 
 8884      74436861 
 8884      6E676549 
 8885              	.LASF287:
 8886 4296 4359424C 		.ascii	"CYBLE_EVT_ANCSS_WRITE_CHAR\000"
 8886      455F4556 
 8886      545F414E 
 8886      4353535F 
 8886      57524954 
 8887              	.LASF395:
 8888 42b1 4359424C 		.ascii	"CYBLE_EVT_GLSC_INDICATION\000"
 8888      455F4556 
 8888      545F474C 
 8888      53435F49 
 8888      4E444943 
 8889              	.LASF346:
 8890 42cb 4359424C 		.ascii	"CYBLE_EVT_CPSS_BROADCAST_DISABLED\000"
 8890      455F4556 
ARM GAS  C:\Users\megan\AppData\Local\Temp\ccmgjhBj.s 			page 224


 8890      545F4350 
 8890      53535F42 
 8890      524F4144 
 8891              	.LASF237:
 8892 42ed 4359424C 		.ascii	"CYBLE_ESS_VRD\000"
 8892      455F4553 
 8892      535F5652 
 8892      4400
 8893              	.LASF235:
 8894 42fb 4359424C 		.ascii	"CYBLE_ESS_ES_CONFIG_DESCR\000"
 8894      455F4553 
 8894      535F4553 
 8894      5F434F4E 
 8894      4649475F 
 8895              	.LASF168:
 8896 4315 61747449 		.ascii	"attId\000"
 8896      6400
 8897              	.LASF91:
 8898 431b 4359424C 		.ascii	"CYBLE_ERROR_INVALID_OPERATION\000"
 8898      455F4552 
 8898      524F525F 
 8898      494E5641 
 8898      4C49445F 
 8899              	.LASF587:
 8900 4339 61644C65 		.ascii	"adLength\000"
 8900      6E677468 
 8900      00
 8901              	.LASF21:
 8902 4342 4359424C 		.ascii	"CYBLE_EVT_HCI_STATUS\000"
 8902      455F4556 
 8902      545F4843 
 8902      495F5354 
 8902      41545553 
 8903              	.LASF50:
 8904 4357 4359424C 		.ascii	"CYBLE_EVT_GATT_DISCONNECT_IND\000"
 8904      455F4556 
 8904      545F4741 
 8904      54545F44 
 8904      4953434F 
 8905              	.LASF256:
 8906 4375 4359424C 		.ascii	"CYBLE_KEY_EXCHANGE_INFO_REQUEST_REPLY\000"
 8906      455F4B45 
 8906      595F4558 
 8906      4348414E 
 8906      47455F49 
 8907              	.LASF83:
 8908 439b 4359424C 		.ascii	"CYBLE_EVT_L2CAP_CBFC_DATA_WRITE_IND\000"
 8908      455F4556 
 8908      545F4C32 
 8908      4341505F 
 8908      43424643 
 8909              	.LASF254:
 8910 43bf 4359424C 		.ascii	"CYBLE_PASSKEY_ENTRY_REQUEST_REPLY\000"
 8910      455F5041 
 8910      53534B45 
 8910      595F454E 
 8910      5452595F 
ARM GAS  C:\Users\megan\AppData\Local\Temp\ccmgjhBj.s 			page 225


 8911              	.LASF313:
 8912 43e1 4359424C 		.ascii	"CYBLE_EVT_BCSC_WRITE_DESCR_RESPONSE\000"
 8912      455F4556 
 8912      545F4243 
 8912      53435F57 
 8912      52495445 
 8913              	.LASF541:
 8914 4405 4359424C 		.ascii	"CYBLE_EVT_WSSC_READ_CHAR_RESPONSE\000"
 8914      455F4556 
 8914      545F5753 
 8914      53435F52 
 8914      4541445F 
 8915              	.LASF72:
 8916 4427 4359424C 		.ascii	"CYBLE_EVT_GATTC_LONG_PROCEDURE_END\000"
 8916      455F4556 
 8916      545F4741 
 8916      5454435F 
 8916      4C4F4E47 
 8917              	.LASF208:
 8918 444a 4359424C 		.ascii	"CYBLE_ESS_APPARENT_WIND_SPEED\000"
 8918      455F4553 
 8918      535F4150 
 8918      50415245 
 8918      4E545F57 
 8919              	.LASF296:
 8920 4468 4359424C 		.ascii	"CYBLE_EVT_ANSC_NOTIFICATION\000"
 8920      455F4556 
 8920      545F414E 
 8920      53435F4E 
 8920      4F544946 
 8921              	.LASF32:
 8922 4484 4359424C 		.ascii	"CYBLE_EVT_GAP_DEVICE_DISCONNECTED\000"
 8922      455F4556 
 8922      545F4741 
 8922      505F4445 
 8922      56494345 
 8923              	.LASF403:
 8924 44a6 4359424C 		.ascii	"CYBLE_EVT_HIDSS_BOOT_MODE_ENTER\000"
 8924      455F4556 
 8924      545F4849 
 8924      4453535F 
 8924      424F4F54 
 8925              	.LASF68:
 8926 44c6 4359424C 		.ascii	"CYBLE_EVT_GATTS_HANDLE_VALUE_CNF\000"
 8926      455F4556 
 8926      545F4741 
 8926      5454535F 
 8926      48414E44 
 8927              	.LASF444:
 8928 44e7 4359424C 		.ascii	"CYBLE_EVT_IPSC_READ_MULTIPLE_CHAR_RESPONSE\000"
 8928      455F4556 
 8928      545F4950 
 8928      53435F52 
 8928      4541445F 
 8929              	.LASF221:
 8930 4512 4359424C 		.ascii	"CYBLE_ESS_UV_INDEX\000"
 8930      455F4553 
ARM GAS  C:\Users\megan\AppData\Local\Temp\ccmgjhBj.s 			page 226


 8930      535F5556 
 8930      5F494E44 
 8930      455800
 8931              	.LASF365:
 8932 4525 4359424C 		.ascii	"CYBLE_EVT_CSCSC_READ_DESCR_RESPONSE\000"
 8932      455F4556 
 8932      545F4353 
 8932      4353435F 
 8932      52454144 
 8933              	.LASF10:
 8934 4549 75696E74 		.ascii	"uint16\000"
 8934      313600
 8935              	.LASF289:
 8936 4550 4359424C 		.ascii	"CYBLE_EVT_ANCSC_WRITE_CHAR_RESPONSE\000"
 8936      455F4556 
 8936      545F414E 
 8936      4353435F 
 8936      57524954 
 8937              	.LASF595:
 8938 4574 4379426C 		.ascii	"CyBle_EsssSetCharacteristicDescriptor\000"
 8938      655F4573 
 8938      73735365 
 8938      74436861 
 8938      72616374 
 8939              	.LASF579:
 8940 459a 6C6F6343 		.ascii	"locCount\000"
 8940      6F756E74 
 8940      00
 8941              	.LASF99:
 8942 45a3 4359424C 		.ascii	"CYBLE_ERROR_TX_POWER_READ\000"
 8942      455F4552 
 8942      524F525F 
 8942      54585F50 
 8942      4F574552 
 8943              	.LASF485:
 8944 45bd 4359424C 		.ascii	"CYBLE_EVT_RSCSS_NOTIFICATION_ENABLED\000"
 8944      455F4556 
 8944      545F5253 
 8944      4353535F 
 8944      4E4F5449 
 8945              	.LASF294:
 8946 45e2 4359424C 		.ascii	"CYBLE_EVT_ANSS_NOTIFICATION_DISABLED\000"
 8946      455F4556 
 8946      545F414E 
 8946      53535F4E 
 8946      4F544946 
 8947              	.LASF436:
 8948 4607 4359424C 		.ascii	"CYBLE_EVT_HTSC_INDICATION\000"
 8948      455F4556 
 8948      545F4854 
 8948      53435F49 
 8948      4E444943 
 8949              	.LASF596:
 8950 4621 4379426C 		.ascii	"CyBle_EsssGetCharacteristicDescriptor\000"
 8950      655F4573 
 8950      73734765 
 8950      74436861 
ARM GAS  C:\Users\megan\AppData\Local\Temp\ccmgjhBj.s 			page 227


 8950      72616374 
 8951              	.LASF401:
 8952 4647 4359424C 		.ascii	"CYBLE_EVT_HIDSS_NOTIFICATION_ENABLED\000"
 8952      455F4556 
 8952      545F4849 
 8952      4453535F 
 8952      4E4F5449 
 8953              	.LASF433:
 8954 466c 4359424C 		.ascii	"CYBLE_EVT_HTSS_INDICATION_CONFIRMED\000"
 8954      455F4556 
 8954      545F4854 
 8954      53535F49 
 8954      4E444943 
 8955              	.LASF565:
 8956 4690 6F706572 		.ascii	"operand\000"
 8956      616E6400 
 8957              	.LASF272:
 8958 4698 4359424C 		.ascii	"CYBLE_EVT_AIOSS_NOTIFICATION_DISABLED\000"
 8958      455F4556 
 8958      545F4149 
 8958      4F53535F 
 8958      4E4F5449 
 8959              	.LASF529:
 8960 46be 4359424C 		.ascii	"CYBLE_EVT_WPTSS_INDICATION_CONFIRMED\000"
 8960      455F4556 
 8960      545F5750 
 8960      5453535F 
 8960      494E4449 
 8961              	.LASF423:
 8962 46e3 4359424C 		.ascii	"CYBLE_EVT_HRSS_NOTIFICATION_DISABLED\000"
 8962      455F4556 
 8962      545F4852 
 8962      53535F4E 
 8962      4F544946 
 8963              		.ident	"GCC: (GNU Tools for ARM Embedded Processors) 5.4.1 20160609 (release) [ARM/embedded-5-bran
