ARM GAS  C:\Users\megan\AppData\Local\Temp\cclXT6oC.s 			page 1


   1              		.syntax unified
   2              		.cpu cortex-m0
   3              		.fpu softvfp
   4              		.eabi_attribute 20, 1
   5              		.eabi_attribute 21, 1
   6              		.eabi_attribute 23, 3
   7              		.eabi_attribute 24, 1
   8              		.eabi_attribute 25, 1
   9              		.eabi_attribute 26, 1
  10              		.eabi_attribute 30, 6
  11              		.eabi_attribute 34, 0
  12              		.eabi_attribute 18, 4
  13              		.thumb
  14              		.syntax unified
  15              		.file	"DS18B20.c"
  16              		.text
  17              	.Ltext0:
  18              		.cfi_sections	.debug_frame
  19              		.section	.text.Temp_Reset,"ax",%progbits
  20              		.align	2
  21              		.global	Temp_Reset
  22              		.code	16
  23              		.thumb_func
  24              		.type	Temp_Reset, %function
  25              	Temp_Reset:
  26              	.LFB35:
  27              		.file 1 "DS18B20.c"
   1:DS18B20.c     **** /* ========================================
   2:DS18B20.c     ****  *
   3:DS18B20.c     ****  * Copyright YOUR COMPANY, THE YEAR
   4:DS18B20.c     ****  * All Rights Reserved
   5:DS18B20.c     ****  * UNPUBLISHED, LICENSED SOFTWARE.
   6:DS18B20.c     ****  *
   7:DS18B20.c     ****  * CONFIDENTIAL AND PROPRIETARY INFORMATION
   8:DS18B20.c     ****  * WHICH IS THE PROPERTY OF your company.
   9:DS18B20.c     ****  *
  10:DS18B20.c     ****  * ========================================
  11:DS18B20.c     **** */
  12:DS18B20.c     **** 
  13:DS18B20.c     **** #include <project.h>
  14:DS18B20.c     **** #include "DS18B20.h"
  15:DS18B20.c     **** 
  16:DS18B20.c     **** // Pin drive modes
  17:DS18B20.c     **** #define     OUT     1
  18:DS18B20.c     **** #define     IN      0
  19:DS18B20.c     **** 
  20:DS18B20.c     **** // OneWire commands
  21:DS18B20.c     **** #define STARTCONVO      0x44  // Tells device to take a temperature reading and put it on the scrat
  22:DS18B20.c     **** #define COPYSCRATCH     0x48  // Copy EEPROM
  23:DS18B20.c     **** #define READSCRATCH     0xBE  // Read EEPROM
  24:DS18B20.c     **** #define WRITESCRATCH    0x4E  // Write to EEPROM
  25:DS18B20.c     **** #define RECALLSCRATCH   0xB8  // Reload from last known
  26:DS18B20.c     **** #define READPOWERSUPPLY 0xB4  // Determine if device needs parasite power
  27:DS18B20.c     **** #define ALARMSEARCH     0xEC  // Query bus for devices with an alarm condition
  28:DS18B20.c     **** 
  29:DS18B20.c     **** // Scratchpad locations
  30:DS18B20.c     **** #define TEMP_LSB        0
ARM GAS  C:\Users\megan\AppData\Local\Temp\cclXT6oC.s 			page 2


  31:DS18B20.c     **** #define TEMP_MSB        1
  32:DS18B20.c     **** #define HIGH_ALARM_TEMP 2
  33:DS18B20.c     **** #define LOW_ALARM_TEMP  3
  34:DS18B20.c     **** #define CONFIGURATION   4
  35:DS18B20.c     **** #define INTERNAL_BYTE   5
  36:DS18B20.c     **** #define COUNT_REMAIN    6
  37:DS18B20.c     **** #define COUNT_PER_C     7
  38:DS18B20.c     **** #define SCRATCHPAD_CRC  8
  39:DS18B20.c     **** 
  40:DS18B20.c     **** // Device resolution
  41:DS18B20.c     **** #define TEMP_9_BIT  0x1F //  9 bit
  42:DS18B20.c     **** #define TEMP_10_BIT 0x3F // 10 bit
  43:DS18B20.c     **** #define TEMP_11_BIT 0x5F // 11 bit
  44:DS18B20.c     **** #define TEMP_12_BIT 0x7F // 12 bit
  45:DS18B20.c     **** 
  46:DS18B20.c     **** /* ------------------------------------------------------------
  47:DS18B20.c     ****  * HIGH-LEVEL FUNCTIONS
  48:DS18B20.c     ****  * ------------------------------------------------------------
  49:DS18B20.c     **** */
  50:DS18B20.c     **** 
  51:DS18B20.c     **** /* ------------------------------------------------------------
  52:DS18B20.c     ****  * Function: Temp_Reset
  53:DS18B20.c     ****  * ------------------------------------------------------------
  54:DS18B20.c     ****  * Description: Performs the reset function.  Will wait up to 
  55:DS18B20.c     ****  *              250us for the bus to come high.  If it doesn't, 
  56:DS18B20.c     ****  *              then it isbroken or shorted and we return a 0.
  57:DS18B20.c     ****  * 
  58:DS18B20.c     ****  * Parameters:  Sensor number
  59:DS18B20.c     ****  * 
  60:DS18B20.c     ****  * Returns:     1 if a device asserted a presence pulse, 0 otherwise.
  61:DS18B20.c     ****  * ------------------------------------------------------------
  62:DS18B20.c     **** */
  63:DS18B20.c     **** uint8_t Temp_Reset(uint8_t n) {
  28              		.loc 1 63 0
  29              		.cfi_startproc
  30              		@ args = 0, pretend = 0, frame = 16
  31              		@ frame_needed = 1, uses_anonymous_args = 0
  32 0000 80B5     		push	{r7, lr}
  33              		.cfi_def_cfa_offset 8
  34              		.cfi_offset 7, -8
  35              		.cfi_offset 14, -4
  36 0002 84B0     		sub	sp, sp, #16
  37              		.cfi_def_cfa_offset 24
  38 0004 00AF     		add	r7, sp, #0
  39              		.cfi_def_cfa_register 7
  40 0006 0200     		movs	r2, r0
  41 0008 FB1D     		adds	r3, r7, #7
  42 000a 1A70     		strb	r2, [r3]
  64:DS18B20.c     ****     
  65:DS18B20.c     ****     uint8_t r;
  66:DS18B20.c     ****     uint8_t retries = 125;
  43              		.loc 1 66 0
  44 000c 0F23     		movs	r3, #15
  45 000e FB18     		adds	r3, r7, r3
  46 0010 7D22     		movs	r2, #125
  47 0012 1A70     		strb	r2, [r3]
  67:DS18B20.c     ****     
ARM GAS  C:\Users\megan\AppData\Local\Temp\cclXT6oC.s 			page 3


  68:DS18B20.c     ****     
  69:DS18B20.c     ****     Temp_SetDriveMode(n,IN);
  48              		.loc 1 69 0
  49 0014 FB1D     		adds	r3, r7, #7
  50 0016 1B78     		ldrb	r3, [r3]
  51 0018 0021     		movs	r1, #0
  52 001a 1800     		movs	r0, r3
  53 001c FFF7FEFF 		bl	Temp_SetDriveMode
  54              	.L4:
  70:DS18B20.c     ****     do {
  71:DS18B20.c     ****         if (--retries == 0) return 0;
  55              		.loc 1 71 0
  56 0020 0F23     		movs	r3, #15
  57 0022 FB18     		adds	r3, r7, r3
  58 0024 0F22     		movs	r2, #15
  59 0026 BA18     		adds	r2, r7, r2
  60 0028 1278     		ldrb	r2, [r2]
  61 002a 013A     		subs	r2, r2, #1
  62 002c 1A70     		strb	r2, [r3]
  63 002e 0F23     		movs	r3, #15
  64 0030 FB18     		adds	r3, r7, r3
  65 0032 1B78     		ldrb	r3, [r3]
  66 0034 002B     		cmp	r3, #0
  67 0036 01D1     		bne	.L2
  68              		.loc 1 71 0 is_stmt 0 discriminator 1
  69 0038 0023     		movs	r3, #0
  70 003a 37E0     		b	.L3
  71              	.L2:
  72:DS18B20.c     ****         CyDelayUs(2);
  72              		.loc 1 72 0 is_stmt 1
  73 003c 0220     		movs	r0, #2
  74 003e FFF7FEFF 		bl	CyDelayUs
  73:DS18B20.c     ****     } while ( !Temp_ReadPin(n));
  75              		.loc 1 73 0
  76 0042 FB1D     		adds	r3, r7, #7
  77 0044 1B78     		ldrb	r3, [r3]
  78 0046 1800     		movs	r0, r3
  79 0048 FFF7FEFF 		bl	Temp_ReadPin
  80 004c 031E     		subs	r3, r0, #0
  81 004e E7D0     		beq	.L4
  74:DS18B20.c     ****     
  75:DS18B20.c     ****     Temp_WritePin(n,0);
  82              		.loc 1 75 0
  83 0050 FB1D     		adds	r3, r7, #7
  84 0052 1B78     		ldrb	r3, [r3]
  85 0054 0021     		movs	r1, #0
  86 0056 1800     		movs	r0, r3
  87 0058 FFF7FEFF 		bl	Temp_WritePin
  76:DS18B20.c     ****     Temp_SetDriveMode(n,OUT);   // drive output low
  88              		.loc 1 76 0
  89 005c FB1D     		adds	r3, r7, #7
  90 005e 1B78     		ldrb	r3, [r3]
  91 0060 0121     		movs	r1, #1
  92 0062 1800     		movs	r0, r3
  93 0064 FFF7FEFF 		bl	Temp_SetDriveMode
  77:DS18B20.c     ****     CyDelayUs(480);
  94              		.loc 1 77 0
ARM GAS  C:\Users\megan\AppData\Local\Temp\cclXT6oC.s 			page 4


  95 0068 F023     		movs	r3, #240
  96 006a 5B00     		lsls	r3, r3, #1
  97 006c 1800     		movs	r0, r3
  98 006e FFF7FEFF 		bl	CyDelayUs
  78:DS18B20.c     ****     Temp_SetDriveMode(n,IN);    // allow to float
  99              		.loc 1 78 0
 100 0072 FB1D     		adds	r3, r7, #7
 101 0074 1B78     		ldrb	r3, [r3]
 102 0076 0021     		movs	r1, #0
 103 0078 1800     		movs	r0, r3
 104 007a FFF7FEFF 		bl	Temp_SetDriveMode
  79:DS18B20.c     ****     CyDelayUs(70);
 105              		.loc 1 79 0
 106 007e 4620     		movs	r0, #70
 107 0080 FFF7FEFF 		bl	CyDelayUs
  80:DS18B20.c     ****     r = !Temp_ReadPin(n);
 108              		.loc 1 80 0
 109 0084 FB1D     		adds	r3, r7, #7
 110 0086 1B78     		ldrb	r3, [r3]
 111 0088 1800     		movs	r0, r3
 112 008a FFF7FEFF 		bl	Temp_ReadPin
 113 008e 0300     		movs	r3, r0
 114 0090 5A42     		rsbs	r2, r3, #0
 115 0092 5341     		adcs	r3, r3, r2
 116 0094 DAB2     		uxtb	r2, r3
 117 0096 0E23     		movs	r3, #14
 118 0098 FB18     		adds	r3, r7, r3
 119 009a 1A70     		strb	r2, [r3]
  81:DS18B20.c     ****     CyDelayUs(410);
 120              		.loc 1 81 0
 121 009c CD23     		movs	r3, #205
 122 009e 5B00     		lsls	r3, r3, #1
 123 00a0 1800     		movs	r0, r3
 124 00a2 FFF7FEFF 		bl	CyDelayUs
  82:DS18B20.c     ****     return r;
 125              		.loc 1 82 0
 126 00a6 0E23     		movs	r3, #14
 127 00a8 FB18     		adds	r3, r7, r3
 128 00aa 1B78     		ldrb	r3, [r3]
 129              	.L3:
  83:DS18B20.c     **** }
 130              		.loc 1 83 0
 131 00ac 1800     		movs	r0, r3
 132 00ae BD46     		mov	sp, r7
 133 00b0 04B0     		add	sp, sp, #16
 134              		@ sp needed
 135 00b2 80BD     		pop	{r7, pc}
 136              		.cfi_endproc
 137              	.LFE35:
 138              		.size	Temp_Reset, .-Temp_Reset
 139              		.section	.text.Temp_ROMSelect,"ax",%progbits
 140              		.align	2
 141              		.global	Temp_ROMSelect
 142              		.code	16
 143              		.thumb_func
 144              		.type	Temp_ROMSelect, %function
 145              	Temp_ROMSelect:
ARM GAS  C:\Users\megan\AppData\Local\Temp\cclXT6oC.s 			page 5


 146              	.LFB36:
  84:DS18B20.c     **** 
  85:DS18B20.c     **** /* ------------------------------------------------------------
  86:DS18B20.c     ****  * Function: Temp_ROMSelect
  87:DS18B20.c     ****  * ------------------------------------------------------------
  88:DS18B20.c     ****  * Description: Issues a match ROM command.
  89:DS18B20.c     ****  * 
  90:DS18B20.c     ****  * Parameters:  Sensor number, ROM address
  91:DS18B20.c     ****  * 
  92:DS18B20.c     ****  * Returns:     Nothing
  93:DS18B20.c     ****  * ------------------------------------------------------------
  94:DS18B20.c     **** */
  95:DS18B20.c     **** void Temp_ROMSelect(uint8_t n, const uint8_t rom[8]) {
 147              		.loc 1 95 0
 148              		.cfi_startproc
 149              		@ args = 0, pretend = 0, frame = 16
 150              		@ frame_needed = 1, uses_anonymous_args = 0
 151 0000 80B5     		push	{r7, lr}
 152              		.cfi_def_cfa_offset 8
 153              		.cfi_offset 7, -8
 154              		.cfi_offset 14, -4
 155 0002 84B0     		sub	sp, sp, #16
 156              		.cfi_def_cfa_offset 24
 157 0004 00AF     		add	r7, sp, #0
 158              		.cfi_def_cfa_register 7
 159 0006 0200     		movs	r2, r0
 160 0008 3960     		str	r1, [r7]
 161 000a FB1D     		adds	r3, r7, #7
 162 000c 1A70     		strb	r2, [r3]
  96:DS18B20.c     ****     
  97:DS18B20.c     ****     uint8_t i;
  98:DS18B20.c     ****     
  99:DS18B20.c     ****     
 100:DS18B20.c     ****     Temp_Write(n,0x55);        // Choose ROM
 163              		.loc 1 100 0
 164 000e FB1D     		adds	r3, r7, #7
 165 0010 1B78     		ldrb	r3, [r3]
 166 0012 5521     		movs	r1, #85
 167 0014 1800     		movs	r0, r3
 168 0016 FFF7FEFF 		bl	Temp_Write
 101:DS18B20.c     ****     for (i = 0; i < 8; i++) Temp_Write(n,rom[i]);
 169              		.loc 1 101 0
 170 001a 0F23     		movs	r3, #15
 171 001c FB18     		adds	r3, r7, r3
 172 001e 0022     		movs	r2, #0
 173 0020 1A70     		strb	r2, [r3]
 174 0022 12E0     		b	.L6
 175              	.L7:
 176              		.loc 1 101 0 is_stmt 0 discriminator 3
 177 0024 0F23     		movs	r3, #15
 178 0026 FB18     		adds	r3, r7, r3
 179 0028 1B78     		ldrb	r3, [r3]
 180 002a 3A68     		ldr	r2, [r7]
 181 002c D318     		adds	r3, r2, r3
 182 002e 1A78     		ldrb	r2, [r3]
 183 0030 FB1D     		adds	r3, r7, #7
 184 0032 1B78     		ldrb	r3, [r3]
ARM GAS  C:\Users\megan\AppData\Local\Temp\cclXT6oC.s 			page 6


 185 0034 1100     		movs	r1, r2
 186 0036 1800     		movs	r0, r3
 187 0038 FFF7FEFF 		bl	Temp_Write
 188 003c 0F23     		movs	r3, #15
 189 003e FB18     		adds	r3, r7, r3
 190 0040 1A78     		ldrb	r2, [r3]
 191 0042 0F23     		movs	r3, #15
 192 0044 FB18     		adds	r3, r7, r3
 193 0046 0132     		adds	r2, r2, #1
 194 0048 1A70     		strb	r2, [r3]
 195              	.L6:
 196              		.loc 1 101 0 discriminator 1
 197 004a 0F23     		movs	r3, #15
 198 004c FB18     		adds	r3, r7, r3
 199 004e 1B78     		ldrb	r3, [r3]
 200 0050 072B     		cmp	r3, #7
 201 0052 E7D9     		bls	.L7
 102:DS18B20.c     **** }
 202              		.loc 1 102 0 is_stmt 1
 203 0054 C046     		nop
 204 0056 BD46     		mov	sp, r7
 205 0058 04B0     		add	sp, sp, #16
 206              		@ sp needed
 207 005a 80BD     		pop	{r7, pc}
 208              		.cfi_endproc
 209              	.LFE36:
 210              		.size	Temp_ROMSelect, .-Temp_ROMSelect
 211              		.section	.text.Temp_ROMSkip,"ax",%progbits
 212              		.align	2
 213              		.global	Temp_ROMSkip
 214              		.code	16
 215              		.thumb_func
 216              		.type	Temp_ROMSkip, %function
 217              	Temp_ROMSkip:
 218              	.LFB37:
 103:DS18B20.c     **** 
 104:DS18B20.c     **** /* ------------------------------------------------------------
 105:DS18B20.c     ****  * Function: Temp_ROMSkip
 106:DS18B20.c     ****  * ------------------------------------------------------------
 107:DS18B20.c     ****  * Description: Issues a skip ROM command.
 108:DS18B20.c     ****  * 
 109:DS18B20.c     ****  * Parameters:  Sensor number
 110:DS18B20.c     ****  * 
 111:DS18B20.c     ****  * Returns:     Nothing
 112:DS18B20.c     ****  * ------------------------------------------------------------
 113:DS18B20.c     **** */
 114:DS18B20.c     **** void Temp_ROMSkip(uint8_t n) {
 219              		.loc 1 114 0
 220              		.cfi_startproc
 221              		@ args = 0, pretend = 0, frame = 8
 222              		@ frame_needed = 1, uses_anonymous_args = 0
 223 0000 80B5     		push	{r7, lr}
 224              		.cfi_def_cfa_offset 8
 225              		.cfi_offset 7, -8
 226              		.cfi_offset 14, -4
 227 0002 82B0     		sub	sp, sp, #8
 228              		.cfi_def_cfa_offset 16
ARM GAS  C:\Users\megan\AppData\Local\Temp\cclXT6oC.s 			page 7


 229 0004 00AF     		add	r7, sp, #0
 230              		.cfi_def_cfa_register 7
 231 0006 0200     		movs	r2, r0
 232 0008 FB1D     		adds	r3, r7, #7
 233 000a 1A70     		strb	r2, [r3]
 115:DS18B20.c     ****     
 116:DS18B20.c     ****     Temp_Write(n,0xCC);     // Skip ROM
 234              		.loc 1 116 0
 235 000c FB1D     		adds	r3, r7, #7
 236 000e 1B78     		ldrb	r3, [r3]
 237 0010 CC21     		movs	r1, #204
 238 0012 1800     		movs	r0, r3
 239 0014 FFF7FEFF 		bl	Temp_Write
 117:DS18B20.c     **** }
 240              		.loc 1 117 0
 241 0018 C046     		nop
 242 001a BD46     		mov	sp, r7
 243 001c 02B0     		add	sp, sp, #8
 244              		@ sp needed
 245 001e 80BD     		pop	{r7, pc}
 246              		.cfi_endproc
 247              	.LFE37:
 248              		.size	Temp_ROMSkip, .-Temp_ROMSkip
 249              		.section	.text.Temp_RequestTemp,"ax",%progbits
 250              		.align	2
 251              		.global	Temp_RequestTemp
 252              		.code	16
 253              		.thumb_func
 254              		.type	Temp_RequestTemp, %function
 255              	Temp_RequestTemp:
 256              	.LFB38:
 118:DS18B20.c     **** 
 119:DS18B20.c     **** /* ------------------------------------------------------------
 120:DS18B20.c     ****  * Function: Temp_RequestTemp
 121:DS18B20.c     ****  * ------------------------------------------------------------
 122:DS18B20.c     ****  * Description: Issues a begin conversion command.  The line
 123:DS18B20.c     ****  *              will go low until the conversion is complete.
 124:DS18B20.c     ****  * 
 125:DS18B20.c     ****  * Parameters:  Sensor number
 126:DS18B20.c     ****  * 
 127:DS18B20.c     ****  * Returns:     Nothing
 128:DS18B20.c     ****  * ------------------------------------------------------------
 129:DS18B20.c     **** */
 130:DS18B20.c     **** void Temp_RequestTemp(uint8_t n) {
 257              		.loc 1 130 0
 258              		.cfi_startproc
 259              		@ args = 0, pretend = 0, frame = 8
 260              		@ frame_needed = 1, uses_anonymous_args = 0
 261 0000 80B5     		push	{r7, lr}
 262              		.cfi_def_cfa_offset 8
 263              		.cfi_offset 7, -8
 264              		.cfi_offset 14, -4
 265 0002 82B0     		sub	sp, sp, #8
 266              		.cfi_def_cfa_offset 16
 267 0004 00AF     		add	r7, sp, #0
 268              		.cfi_def_cfa_register 7
 269 0006 0200     		movs	r2, r0
ARM GAS  C:\Users\megan\AppData\Local\Temp\cclXT6oC.s 			page 8


 270 0008 FB1D     		adds	r3, r7, #7
 271 000a 1A70     		strb	r2, [r3]
 131:DS18B20.c     ****     
 132:DS18B20.c     ****     Temp_Reset(n);
 272              		.loc 1 132 0
 273 000c FB1D     		adds	r3, r7, #7
 274 000e 1B78     		ldrb	r3, [r3]
 275 0010 1800     		movs	r0, r3
 276 0012 FFF7FEFF 		bl	Temp_Reset
 133:DS18B20.c     ****     Temp_ROMSkip(n);
 277              		.loc 1 133 0
 278 0016 FB1D     		adds	r3, r7, #7
 279 0018 1B78     		ldrb	r3, [r3]
 280 001a 1800     		movs	r0, r3
 281 001c FFF7FEFF 		bl	Temp_ROMSkip
 134:DS18B20.c     ****     Temp_Write(n,STARTCONVO);
 282              		.loc 1 134 0
 283 0020 FB1D     		adds	r3, r7, #7
 284 0022 1B78     		ldrb	r3, [r3]
 285 0024 4421     		movs	r1, #68
 286 0026 1800     		movs	r0, r3
 287 0028 FFF7FEFF 		bl	Temp_Write
 135:DS18B20.c     **** }
 288              		.loc 1 135 0
 289 002c C046     		nop
 290 002e BD46     		mov	sp, r7
 291 0030 02B0     		add	sp, sp, #8
 292              		@ sp needed
 293 0032 80BD     		pop	{r7, pc}
 294              		.cfi_endproc
 295              	.LFE38:
 296              		.size	Temp_RequestTemp, .-Temp_RequestTemp
 297              		.section	.text.Temp_GetTempF,"ax",%progbits
 298              		.align	2
 299              		.global	Temp_GetTempF
 300              		.code	16
 301              		.thumb_func
 302              		.type	Temp_GetTempF, %function
 303              	Temp_GetTempF:
 304              	.LFB39:
 136:DS18B20.c     **** 
 137:DS18B20.c     **** /* ------------------------------------------------------------
 138:DS18B20.c     ****  * Function: Temp_GetTempF
 139:DS18B20.c     ****  * ------------------------------------------------------------
 140:DS18B20.c     ****  * Description: Returns the current temperature in Fahrenheit
 141:DS18B20.c     ****  * 
 142:DS18B20.c     ****  * Parameters:  Sensor number
 143:DS18B20.c     ****  * 
 144:DS18B20.c     ****  * Returns:     Temperature in Fahrenheit
 145:DS18B20.c     ****  * ------------------------------------------------------------
 146:DS18B20.c     **** */
 147:DS18B20.c     **** float Temp_GetTempF(uint8_t n) {
 305              		.loc 1 147 0
 306              		.cfi_startproc
 307              		@ args = 0, pretend = 0, frame = 16
 308              		@ frame_needed = 1, uses_anonymous_args = 0
 309 0000 80B5     		push	{r7, lr}
ARM GAS  C:\Users\megan\AppData\Local\Temp\cclXT6oC.s 			page 9


 310              		.cfi_def_cfa_offset 8
 311              		.cfi_offset 7, -8
 312              		.cfi_offset 14, -4
 313 0002 84B0     		sub	sp, sp, #16
 314              		.cfi_def_cfa_offset 24
 315 0004 00AF     		add	r7, sp, #0
 316              		.cfi_def_cfa_register 7
 317 0006 0200     		movs	r2, r0
 318 0008 FB1D     		adds	r3, r7, #7
 319 000a 1A70     		strb	r2, [r3]
 148:DS18B20.c     ****     
 149:DS18B20.c     ****     uint8_t scratchPad[8];
 150:DS18B20.c     ****     
 151:DS18B20.c     ****     
 152:DS18B20.c     ****     Temp_ReadScratchPad(n,scratchPad);
 320              		.loc 1 152 0
 321 000c 0823     		movs	r3, #8
 322 000e FA18     		adds	r2, r7, r3
 323 0010 FB1D     		adds	r3, r7, #7
 324 0012 1B78     		ldrb	r3, [r3]
 325 0014 1100     		movs	r1, r2
 326 0016 1800     		movs	r0, r3
 327 0018 FFF7FEFF 		bl	Temp_ReadScratchPad
 153:DS18B20.c     ****     return Temp_RawToFahrenheit(Temp_CalculateTemperature(scratchPad));
 328              		.loc 1 153 0
 329 001c 0823     		movs	r3, #8
 330 001e FB18     		adds	r3, r7, r3
 331 0020 1800     		movs	r0, r3
 332 0022 FFF7FEFF 		bl	Temp_CalculateTemperature
 333 0026 0300     		movs	r3, r0
 334 0028 9BB2     		uxth	r3, r3
 335 002a 1800     		movs	r0, r3
 336 002c FFF7FEFF 		bl	Temp_RawToFahrenheit
 337 0030 031C     		adds	r3, r0, #0
 154:DS18B20.c     **** }
 338              		.loc 1 154 0
 339 0032 181C     		adds	r0, r3, #0
 340 0034 BD46     		mov	sp, r7
 341 0036 04B0     		add	sp, sp, #16
 342              		@ sp needed
 343 0038 80BD     		pop	{r7, pc}
 344              		.cfi_endproc
 345              	.LFE39:
 346              		.size	Temp_GetTempF, .-Temp_GetTempF
 347 003a C046     		.section	.text.Temp_ReadScratchPad,"ax",%progbits
 348              		.align	2
 349              		.global	Temp_ReadScratchPad
 350              		.code	16
 351              		.thumb_func
 352              		.type	Temp_ReadScratchPad, %function
 353              	Temp_ReadScratchPad:
 354              	.LFB40:
 155:DS18B20.c     **** 
 156:DS18B20.c     **** /* ------------------------------------------------------------
 157:DS18B20.c     ****  * Function: Temp_ReadScratchPad
 158:DS18B20.c     ****  * ------------------------------------------------------------
 159:DS18B20.c     ****  * Description: Issues a read scratchpad command and stores the
ARM GAS  C:\Users\megan\AppData\Local\Temp\cclXT6oC.s 			page 10


 160:DS18B20.c     ****  *              received bytes in an array.
 161:DS18B20.c     ****  * 
 162:DS18B20.c     ****  * Parameters:  Sensor number, scratchpad
 163:DS18B20.c     ****  * 
 164:DS18B20.c     ****  * Returns:     true if successful, otherwise false
 165:DS18B20.c     ****  * ------------------------------------------------------------
 166:DS18B20.c     **** */
 167:DS18B20.c     **** bool Temp_ReadScratchPad(uint8_t n, uint8_t* scratchPad) {
 355              		.loc 1 167 0
 356              		.cfi_startproc
 357              		@ args = 0, pretend = 0, frame = 16
 358              		@ frame_needed = 1, uses_anonymous_args = 0
 359 0000 90B5     		push	{r4, r7, lr}
 360              		.cfi_def_cfa_offset 12
 361              		.cfi_offset 4, -12
 362              		.cfi_offset 7, -8
 363              		.cfi_offset 14, -4
 364 0002 85B0     		sub	sp, sp, #20
 365              		.cfi_def_cfa_offset 32
 366 0004 00AF     		add	r7, sp, #0
 367              		.cfi_def_cfa_register 7
 368 0006 0200     		movs	r2, r0
 369 0008 3960     		str	r1, [r7]
 370 000a FB1D     		adds	r3, r7, #7
 371 000c 1A70     		strb	r2, [r3]
 168:DS18B20.c     ****     
 169:DS18B20.c     ****     int b = Temp_Reset(n);
 372              		.loc 1 169 0
 373 000e FB1D     		adds	r3, r7, #7
 374 0010 1B78     		ldrb	r3, [r3]
 375 0012 1800     		movs	r0, r3
 376 0014 FFF7FEFF 		bl	Temp_Reset
 377 0018 0300     		movs	r3, r0
 378 001a BB60     		str	r3, [r7, #8]
 170:DS18B20.c     ****     if (b == 0) return false;
 379              		.loc 1 170 0
 380 001c BB68     		ldr	r3, [r7, #8]
 381 001e 002B     		cmp	r3, #0
 382 0020 01D1     		bne	.L13
 383              		.loc 1 170 0 is_stmt 0 discriminator 1
 384 0022 0023     		movs	r3, #0
 385 0024 33E0     		b	.L14
 386              	.L13:
 171:DS18B20.c     ****     
 172:DS18B20.c     ****     Temp_ROMSkip(n);
 387              		.loc 1 172 0 is_stmt 1
 388 0026 FB1D     		adds	r3, r7, #7
 389 0028 1B78     		ldrb	r3, [r3]
 390 002a 1800     		movs	r0, r3
 391 002c FFF7FEFF 		bl	Temp_ROMSkip
 173:DS18B20.c     ****     Temp_Write(n,READSCRATCH);
 392              		.loc 1 173 0
 393 0030 FB1D     		adds	r3, r7, #7
 394 0032 1B78     		ldrb	r3, [r3]
 395 0034 BE21     		movs	r1, #190
 396 0036 1800     		movs	r0, r3
 397 0038 FFF7FEFF 		bl	Temp_Write
ARM GAS  C:\Users\megan\AppData\Local\Temp\cclXT6oC.s 			page 11


 398              	.LBB2:
 174:DS18B20.c     ****     
 175:DS18B20.c     ****     // Read all registers in a simple loop
 176:DS18B20.c     **** 	// byte 0: temperature LSB
 177:DS18B20.c     **** 	// byte 1: temperature MSB
 178:DS18B20.c     **** 	// byte 2: high alarm temp
 179:DS18B20.c     **** 	// byte 3: low alarm temp
 180:DS18B20.c     **** 	// byte 4: DS18S20: store for crc
 181:DS18B20.c     **** 	//         DS18B20 & DS1822: configuration register
 182:DS18B20.c     **** 	// byte 5: internal use & crc
 183:DS18B20.c     **** 	// byte 6: DS18S20: COUNT_REMAIN
 184:DS18B20.c     **** 	//         DS18B20 & DS1822: store for crc
 185:DS18B20.c     **** 	// byte 7: DS18S20: COUNT_PER_C
 186:DS18B20.c     **** 	//         DS18B20 & DS1822: store for crc
 187:DS18B20.c     **** 	// byte 8: SCRATCHPAD_CRC
 188:DS18B20.c     **** 	for (uint8_t i = 0; i < 9; i++) {
 399              		.loc 1 188 0
 400 003c 0F23     		movs	r3, #15
 401 003e FB18     		adds	r3, r7, r3
 402 0040 0022     		movs	r2, #0
 403 0042 1A70     		strb	r2, [r3]
 404 0044 12E0     		b	.L15
 405              	.L16:
 189:DS18B20.c     **** 		scratchPad[i] = Temp_Read(n);
 406              		.loc 1 189 0 discriminator 3
 407 0046 0F23     		movs	r3, #15
 408 0048 FB18     		adds	r3, r7, r3
 409 004a 1B78     		ldrb	r3, [r3]
 410 004c 3A68     		ldr	r2, [r7]
 411 004e D418     		adds	r4, r2, r3
 412 0050 FB1D     		adds	r3, r7, #7
 413 0052 1B78     		ldrb	r3, [r3]
 414 0054 1800     		movs	r0, r3
 415 0056 FFF7FEFF 		bl	Temp_Read
 416 005a 0300     		movs	r3, r0
 417 005c 2370     		strb	r3, [r4]
 188:DS18B20.c     **** 		scratchPad[i] = Temp_Read(n);
 418              		.loc 1 188 0 discriminator 3
 419 005e 0F23     		movs	r3, #15
 420 0060 FB18     		adds	r3, r7, r3
 421 0062 1A78     		ldrb	r2, [r3]
 422 0064 0F23     		movs	r3, #15
 423 0066 FB18     		adds	r3, r7, r3
 424 0068 0132     		adds	r2, r2, #1
 425 006a 1A70     		strb	r2, [r3]
 426              	.L15:
 188:DS18B20.c     **** 		scratchPad[i] = Temp_Read(n);
 427              		.loc 1 188 0 is_stmt 0 discriminator 1
 428 006c 0F23     		movs	r3, #15
 429 006e FB18     		adds	r3, r7, r3
 430 0070 1B78     		ldrb	r3, [r3]
 431 0072 082B     		cmp	r3, #8
 432 0074 E7D9     		bls	.L16
 433              	.LBE2:
 190:DS18B20.c     **** 	}
 191:DS18B20.c     **** 
 192:DS18B20.c     **** 	b = Temp_Reset(n);
ARM GAS  C:\Users\megan\AppData\Local\Temp\cclXT6oC.s 			page 12


 434              		.loc 1 192 0 is_stmt 1
 435 0076 FB1D     		adds	r3, r7, #7
 436 0078 1B78     		ldrb	r3, [r3]
 437 007a 1800     		movs	r0, r3
 438 007c FFF7FEFF 		bl	Temp_Reset
 439 0080 0300     		movs	r3, r0
 440 0082 BB60     		str	r3, [r7, #8]
 193:DS18B20.c     **** 	return (b == 1);
 441              		.loc 1 193 0
 442 0084 BB68     		ldr	r3, [r7, #8]
 443 0086 013B     		subs	r3, r3, #1
 444 0088 5A42     		rsbs	r2, r3, #0
 445 008a 5341     		adcs	r3, r3, r2
 446 008c DBB2     		uxtb	r3, r3
 447              	.L14:
 194:DS18B20.c     **** }
 448              		.loc 1 194 0
 449 008e 1800     		movs	r0, r3
 450 0090 BD46     		mov	sp, r7
 451 0092 05B0     		add	sp, sp, #20
 452              		@ sp needed
 453 0094 90BD     		pop	{r4, r7, pc}
 454              		.cfi_endproc
 455              	.LFE40:
 456              		.size	Temp_ReadScratchPad, .-Temp_ReadScratchPad
 457 0096 C046     		.section	.text.Temp_CalculateTemperature,"ax",%progbits
 458              		.align	2
 459              		.global	Temp_CalculateTemperature
 460              		.code	16
 461              		.thumb_func
 462              		.type	Temp_CalculateTemperature, %function
 463              	Temp_CalculateTemperature:
 464              	.LFB41:
 195:DS18B20.c     **** 
 196:DS18B20.c     **** /* ------------------------------------------------------------
 197:DS18B20.c     ****  * Function: Temp_CalculateTemperature
 198:DS18B20.c     ****  * ------------------------------------------------------------
 199:DS18B20.c     ****  * Description: Reads the scratchpad and returns the fixed-point
 200:DS18B20.c     ****  *              temperature, scaling factor 2^-7
 201:DS18B20.c     ****  * 
 202:DS18B20.c     ****  * Parameters:  None
 203:DS18B20.c     ****  * 
 204:DS18B20.c     ****  * Returns:     Fixed-point temperature, scaling factor 2^-7
 205:DS18B20.c     ****  * ------------------------------------------------------------
 206:DS18B20.c     **** */
 207:DS18B20.c     **** int16_t Temp_CalculateTemperature(uint8_t* scratchPad) {
 465              		.loc 1 207 0
 466              		.cfi_startproc
 467              		@ args = 0, pretend = 0, frame = 16
 468              		@ frame_needed = 1, uses_anonymous_args = 0
 469 0000 80B5     		push	{r7, lr}
 470              		.cfi_def_cfa_offset 8
 471              		.cfi_offset 7, -8
 472              		.cfi_offset 14, -4
 473 0002 84B0     		sub	sp, sp, #16
 474              		.cfi_def_cfa_offset 24
 475 0004 00AF     		add	r7, sp, #0
ARM GAS  C:\Users\megan\AppData\Local\Temp\cclXT6oC.s 			page 13


 476              		.cfi_def_cfa_register 7
 477 0006 7860     		str	r0, [r7, #4]
 208:DS18B20.c     ****     
 209:DS18B20.c     ****     int16_t fpTemperature = (((int16_t) scratchPad[TEMP_MSB]) << 11)
 478              		.loc 1 209 0
 479 0008 7B68     		ldr	r3, [r7, #4]
 480 000a 0133     		adds	r3, r3, #1
 481 000c 1B78     		ldrb	r3, [r3]
 482 000e DB02     		lsls	r3, r3, #11
 483 0010 19B2     		sxth	r1, r3
 210:DS18B20.c     **** 			| (((int16_t) scratchPad[TEMP_LSB]) << 3);
 484              		.loc 1 210 0
 485 0012 7B68     		ldr	r3, [r7, #4]
 486 0014 1B78     		ldrb	r3, [r3]
 487 0016 DB00     		lsls	r3, r3, #3
 209:DS18B20.c     **** 			| (((int16_t) scratchPad[TEMP_LSB]) << 3);
 488              		.loc 1 209 0
 489 0018 1AB2     		sxth	r2, r3
 490 001a 0E23     		movs	r3, #14
 491 001c FB18     		adds	r3, r7, r3
 492 001e 0A43     		orrs	r2, r1
 493 0020 1A80     		strh	r2, [r3]
 211:DS18B20.c     ****             
 212:DS18B20.c     ****     /*
 213:DS18B20.c     **** 	 DS1820 and DS18S20 have a 9-bit temperature register.
 214:DS18B20.c     **** 	 Resolutions greater than 9-bit can be calculated using the data from
 215:DS18B20.c     **** 	 the temperature, and COUNT REMAIN and COUNT PER °C registers in the
 216:DS18B20.c     **** 	 scratchpad.  The resolution of the calculation depends on the model.
 217:DS18B20.c     **** 	 While the COUNT PER °C register is hard-wired to 16 (10h) in a
 218:DS18B20.c     **** 	 DS18S20, it changes with temperature in DS1820.
 219:DS18B20.c     **** 	 After reading the scratchpad, the TEMP_READ value is obtained by
 220:DS18B20.c     **** 	 truncating the 0.5°C bit (bit 0) from the temperature data. The
 221:DS18B20.c     **** 	 extended resolution temperature can then be calculated using the
 222:DS18B20.c     **** 	 following equation:
 223:DS18B20.c     **** 	 COUNT_PER_C - COUNT_REMAIN
 224:DS18B20.c     **** 	 TEMPERATURE = TEMP_READ - 0.25 + --------------------------
 225:DS18B20.c     **** 	 COUNT_PER_C
 226:DS18B20.c     **** 	 Hagai Shatz simplified this to integer arithmetic for a 12 bits
 227:DS18B20.c     **** 	 value for a DS18S20, and James Cameron added legacy DS1820 support.
 228:DS18B20.c     **** 	 See - http://myarduinotoy.blogspot.co.uk/2013/02/12bit-result-from-ds18s20.html
 229:DS18B20.c     **** 	 */
 230:DS18B20.c     **** 
 231:DS18B20.c     **** 	//if (deviceAddress[0] == DS18S20MODEL) {
 232:DS18B20.c     **** //		fpTemperature = ((fpTemperature & 0xfff0) << 3) - 16
 233:DS18B20.c     **** //				+ (((scratchPad[COUNT_PER_C] - scratchPad[COUNT_REMAIN]) << 7)
 234:DS18B20.c     **** //						/ scratchPad[COUNT_PER_C]);
 235:DS18B20.c     **** 	//}
 236:DS18B20.c     **** 
 237:DS18B20.c     **** 	return fpTemperature;
 494              		.loc 1 237 0
 495 0022 0E23     		movs	r3, #14
 496 0024 FB18     		adds	r3, r7, r3
 497 0026 0022     		movs	r2, #0
 498 0028 9B5E     		ldrsh	r3, [r3, r2]
 238:DS18B20.c     **** }
 499              		.loc 1 238 0
 500 002a 1800     		movs	r0, r3
ARM GAS  C:\Users\megan\AppData\Local\Temp\cclXT6oC.s 			page 14


 501 002c BD46     		mov	sp, r7
 502 002e 04B0     		add	sp, sp, #16
 503              		@ sp needed
 504 0030 80BD     		pop	{r7, pc}
 505              		.cfi_endproc
 506              	.LFE41:
 507              		.size	Temp_CalculateTemperature, .-Temp_CalculateTemperature
 508              		.global	__aeabi_ui2f
 509              		.global	__aeabi_f2d
 510              		.global	__aeabi_dmul
 511              		.global	__aeabi_dadd
 512              		.global	__aeabi_d2f
 513 0032 C046     		.section	.text.Temp_RawToFahrenheit,"ax",%progbits
 514              		.align	2
 515              		.global	Temp_RawToFahrenheit
 516              		.code	16
 517              		.thumb_func
 518              		.type	Temp_RawToFahrenheit, %function
 519              	Temp_RawToFahrenheit:
 520              	.LFB42:
 239:DS18B20.c     **** 
 240:DS18B20.c     **** /* ------------------------------------------------------------
 241:DS18B20.c     ****  * Function: Temp_RawToFahrenheit
 242:DS18B20.c     ****  * ------------------------------------------------------------
 243:DS18B20.c     ****  * Description: Converts raw temp to Fahrenheit
 244:DS18B20.c     ****  * 
 245:DS18B20.c     ****  * Parameters:  Raw temperature value
 246:DS18B20.c     ****  * 
 247:DS18B20.c     ****  * Returns:     Float temperature value
 248:DS18B20.c     ****  * ------------------------------------------------------------
 249:DS18B20.c     **** */
 250:DS18B20.c     **** float Temp_RawToFahrenheit(uint16_t raw) {
 521              		.loc 1 250 0
 522              		.cfi_startproc
 523              		@ args = 0, pretend = 0, frame = 8
 524              		@ frame_needed = 1, uses_anonymous_args = 0
 525 0000 90B5     		push	{r4, r7, lr}
 526              		.cfi_def_cfa_offset 12
 527              		.cfi_offset 4, -12
 528              		.cfi_offset 7, -8
 529              		.cfi_offset 14, -4
 530 0002 83B0     		sub	sp, sp, #12
 531              		.cfi_def_cfa_offset 24
 532 0004 00AF     		add	r7, sp, #0
 533              		.cfi_def_cfa_register 7
 534 0006 0200     		movs	r2, r0
 535 0008 BB1D     		adds	r3, r7, #6
 536 000a 1A80     		strh	r2, [r3]
 251:DS18B20.c     ****     
 252:DS18B20.c     ****     return ((float) raw * 0.0140625) + 32;
 537              		.loc 1 252 0
 538 000c BB1D     		adds	r3, r7, #6
 539 000e 1B88     		ldrh	r3, [r3]
 540 0010 1800     		movs	r0, r3
 541 0012 FFF7FEFF 		bl	__aeabi_ui2f
 542 0016 031C     		adds	r3, r0, #0
 543 0018 181C     		adds	r0, r3, #0
ARM GAS  C:\Users\megan\AppData\Local\Temp\cclXT6oC.s 			page 15


 544 001a FFF7FEFF 		bl	__aeabi_f2d
 545 001e 0B4A     		ldr	r2, .L21
 546 0020 0B4B     		ldr	r3, .L21+4
 547 0022 FFF7FEFF 		bl	__aeabi_dmul
 548 0026 0300     		movs	r3, r0
 549 0028 0C00     		movs	r4, r1
 550 002a 1800     		movs	r0, r3
 551 002c 2100     		movs	r1, r4
 552 002e 0022     		movs	r2, #0
 553 0030 084B     		ldr	r3, .L21+8
 554 0032 FFF7FEFF 		bl	__aeabi_dadd
 555 0036 0300     		movs	r3, r0
 556 0038 0C00     		movs	r4, r1
 557 003a 1800     		movs	r0, r3
 558 003c 2100     		movs	r1, r4
 559 003e FFF7FEFF 		bl	__aeabi_d2f
 560 0042 031C     		adds	r3, r0, #0
 253:DS18B20.c     ****     //return (float) (raw * 0.0078125 * 1.8) + 32;
 254:DS18B20.c     **** }
 561              		.loc 1 254 0
 562 0044 181C     		adds	r0, r3, #0
 563 0046 BD46     		mov	sp, r7
 564 0048 03B0     		add	sp, sp, #12
 565              		@ sp needed
 566 004a 90BD     		pop	{r4, r7, pc}
 567              	.L22:
 568              		.align	2
 569              	.L21:
 570 004c CDCCCCCC 		.word	-858993459
 571 0050 CCCC8C3F 		.word	1066192076
 572 0054 00004040 		.word	1077936128
 573              		.cfi_endproc
 574              	.LFE42:
 575              		.size	Temp_RawToFahrenheit, .-Temp_RawToFahrenheit
 576              		.section	.text.Temp_CRC,"ax",%progbits
 577              		.align	2
 578              		.global	Temp_CRC
 579              		.code	16
 580              		.thumb_func
 581              		.type	Temp_CRC, %function
 582              	Temp_CRC:
 583              	.LFB43:
 255:DS18B20.c     **** 
 256:DS18B20.c     **** uint8_t Temp_CRC(uint8_t* scratchPad) {
 584              		.loc 1 256 0
 585              		.cfi_startproc
 586              		@ args = 0, pretend = 0, frame = 24
 587              		@ frame_needed = 1, uses_anonymous_args = 0
 588 0000 80B5     		push	{r7, lr}
 589              		.cfi_def_cfa_offset 8
 590              		.cfi_offset 7, -8
 591              		.cfi_offset 14, -4
 592 0002 86B0     		sub	sp, sp, #24
 593              		.cfi_def_cfa_offset 32
 594 0004 00AF     		add	r7, sp, #0
 595              		.cfi_def_cfa_register 7
 596 0006 7860     		str	r0, [r7, #4]
ARM GAS  C:\Users\megan\AppData\Local\Temp\cclXT6oC.s 			page 16


 257:DS18B20.c     **** 
 258:DS18B20.c     **** 	uint8_t crc = 0;
 597              		.loc 1 258 0
 598 0008 1723     		movs	r3, #23
 599 000a FB18     		adds	r3, r7, r3
 600 000c 0022     		movs	r2, #0
 601 000e 1A70     		strb	r2, [r3]
 259:DS18B20.c     ****     uint8_t* addr = scratchPad;
 602              		.loc 1 259 0
 603 0010 7B68     		ldr	r3, [r7, #4]
 604 0012 3B61     		str	r3, [r7, #16]
 260:DS18B20.c     ****     uint8_t len = 8;
 605              		.loc 1 260 0
 606 0014 0F23     		movs	r3, #15
 607 0016 FB18     		adds	r3, r7, r3
 608 0018 0822     		movs	r2, #8
 609 001a 1A70     		strb	r2, [r3]
 261:DS18B20.c     **** 
 262:DS18B20.c     ****     while (len--) {
 610              		.loc 1 262 0
 611 001c 40E0     		b	.L24
 612              	.L28:
 613              	.LBB3:
 263:DS18B20.c     **** 		uint8_t inbyte = *addr++;
 614              		.loc 1 263 0
 615 001e 3B69     		ldr	r3, [r7, #16]
 616 0020 5A1C     		adds	r2, r3, #1
 617 0022 3A61     		str	r2, [r7, #16]
 618 0024 0E22     		movs	r2, #14
 619 0026 BA18     		adds	r2, r7, r2
 620 0028 1B78     		ldrb	r3, [r3]
 621 002a 1370     		strb	r3, [r2]
 622              	.LBB4:
 264:DS18B20.c     **** 		for (uint8_t i = 8; i; i--) {
 623              		.loc 1 264 0
 624 002c 0D23     		movs	r3, #13
 625 002e FB18     		adds	r3, r7, r3
 626 0030 0822     		movs	r2, #8
 627 0032 1A70     		strb	r2, [r3]
 628 0034 2FE0     		b	.L25
 629              	.L27:
 630              	.LBB5:
 265:DS18B20.c     **** 			uint8_t mix = (crc ^ inbyte) & 0x01;
 631              		.loc 1 265 0
 632 0036 1723     		movs	r3, #23
 633 0038 FA18     		adds	r2, r7, r3
 634 003a 0E23     		movs	r3, #14
 635 003c FB18     		adds	r3, r7, r3
 636 003e 1278     		ldrb	r2, [r2]
 637 0040 1B78     		ldrb	r3, [r3]
 638 0042 5340     		eors	r3, r2
 639 0044 DAB2     		uxtb	r2, r3
 640 0046 0C23     		movs	r3, #12
 641 0048 FB18     		adds	r3, r7, r3
 642 004a 0121     		movs	r1, #1
 643 004c 0A40     		ands	r2, r1
 644 004e 1A70     		strb	r2, [r3]
ARM GAS  C:\Users\megan\AppData\Local\Temp\cclXT6oC.s 			page 17


 266:DS18B20.c     **** 			crc >>= 1;
 645              		.loc 1 266 0
 646 0050 1723     		movs	r3, #23
 647 0052 FB18     		adds	r3, r7, r3
 648 0054 1722     		movs	r2, #23
 649 0056 BA18     		adds	r2, r7, r2
 650 0058 1278     		ldrb	r2, [r2]
 651 005a 5208     		lsrs	r2, r2, #1
 652 005c 1A70     		strb	r2, [r3]
 267:DS18B20.c     **** 			if (mix) crc ^= 0x8C;
 653              		.loc 1 267 0
 654 005e 0C23     		movs	r3, #12
 655 0060 FB18     		adds	r3, r7, r3
 656 0062 1B78     		ldrb	r3, [r3]
 657 0064 002B     		cmp	r3, #0
 658 0066 08D0     		beq	.L26
 659              		.loc 1 267 0 is_stmt 0 discriminator 1
 660 0068 1723     		movs	r3, #23
 661 006a FB18     		adds	r3, r7, r3
 662 006c 1722     		movs	r2, #23
 663 006e BA18     		adds	r2, r7, r2
 664 0070 1278     		ldrb	r2, [r2]
 665 0072 7421     		movs	r1, #116
 666 0074 4942     		rsbs	r1, r1, #0
 667 0076 4A40     		eors	r2, r1
 668 0078 1A70     		strb	r2, [r3]
 669              	.L26:
 268:DS18B20.c     **** 			inbyte >>= 1;
 670              		.loc 1 268 0 is_stmt 1 discriminator 2
 671 007a 0E23     		movs	r3, #14
 672 007c FB18     		adds	r3, r7, r3
 673 007e 0E22     		movs	r2, #14
 674 0080 BA18     		adds	r2, r7, r2
 675 0082 1278     		ldrb	r2, [r2]
 676 0084 5208     		lsrs	r2, r2, #1
 677 0086 1A70     		strb	r2, [r3]
 678              	.LBE5:
 264:DS18B20.c     **** 			uint8_t mix = (crc ^ inbyte) & 0x01;
 679              		.loc 1 264 0 discriminator 2
 680 0088 0D23     		movs	r3, #13
 681 008a FB18     		adds	r3, r7, r3
 682 008c 1A78     		ldrb	r2, [r3]
 683 008e 0D23     		movs	r3, #13
 684 0090 FB18     		adds	r3, r7, r3
 685 0092 013A     		subs	r2, r2, #1
 686 0094 1A70     		strb	r2, [r3]
 687              	.L25:
 264:DS18B20.c     **** 			uint8_t mix = (crc ^ inbyte) & 0x01;
 688              		.loc 1 264 0 is_stmt 0 discriminator 1
 689 0096 0D23     		movs	r3, #13
 690 0098 FB18     		adds	r3, r7, r3
 691 009a 1B78     		ldrb	r3, [r3]
 692 009c 002B     		cmp	r3, #0
 693 009e CAD1     		bne	.L27
 694              	.L24:
 695              	.LBE4:
 696              	.LBE3:
ARM GAS  C:\Users\megan\AppData\Local\Temp\cclXT6oC.s 			page 18


 262:DS18B20.c     **** 		uint8_t inbyte = *addr++;
 697              		.loc 1 262 0 is_stmt 1
 698 00a0 0F23     		movs	r3, #15
 699 00a2 FB18     		adds	r3, r7, r3
 700 00a4 1B78     		ldrb	r3, [r3]
 701 00a6 0F22     		movs	r2, #15
 702 00a8 BA18     		adds	r2, r7, r2
 703 00aa 591E     		subs	r1, r3, #1
 704 00ac 1170     		strb	r1, [r2]
 705 00ae 002B     		cmp	r3, #0
 706 00b0 B5D1     		bne	.L28
 269:DS18B20.c     **** 		}
 270:DS18B20.c     ****     }
 271:DS18B20.c     **** 	return crc;
 707              		.loc 1 271 0
 708 00b2 1723     		movs	r3, #23
 709 00b4 FB18     		adds	r3, r7, r3
 710 00b6 1B78     		ldrb	r3, [r3]
 272:DS18B20.c     **** }
 711              		.loc 1 272 0
 712 00b8 1800     		movs	r0, r3
 713 00ba BD46     		mov	sp, r7
 714 00bc 06B0     		add	sp, sp, #24
 715              		@ sp needed
 716 00be 80BD     		pop	{r7, pc}
 717              		.cfi_endproc
 718              	.LFE43:
 719              		.size	Temp_CRC, .-Temp_CRC
 720              		.section	.text.Temp_Write,"ax",%progbits
 721              		.align	2
 722              		.global	Temp_Write
 723              		.code	16
 724              		.thumb_func
 725              		.type	Temp_Write, %function
 726              	Temp_Write:
 727              	.LFB44:
 273:DS18B20.c     **** 
 274:DS18B20.c     **** /* ------------------------------------------------------------
 275:DS18B20.c     ****  * MID-LEVEL DRIVERS
 276:DS18B20.c     ****  * ------------------------------------------------------------
 277:DS18B20.c     **** */
 278:DS18B20.c     **** 
 279:DS18B20.c     **** /* ------------------------------------------------------------
 280:DS18B20.c     ****  * Function: Temp_Write
 281:DS18B20.c     ****  * ------------------------------------------------------------
 282:DS18B20.c     ****  * Description: Writes a byte to the selected sensor.  This does
 283:DS18B20.c     ****  *              not use parasite power mode, pin goes tri-state
 284:DS18B20.c     ****  *              at the end of the write.
 285:DS18B20.c     ****  * 
 286:DS18B20.c     ****  * Parameters:  Sensor number, value (0 or 1)
 287:DS18B20.c     ****  * 
 288:DS18B20.c     ****  * Returns:     Nothing
 289:DS18B20.c     ****  * ------------------------------------------------------------
 290:DS18B20.c     **** */
 291:DS18B20.c     **** void Temp_Write(uint8_t n, uint8_t byte) {
 728              		.loc 1 291 0
 729              		.cfi_startproc
ARM GAS  C:\Users\megan\AppData\Local\Temp\cclXT6oC.s 			page 19


 730              		@ args = 0, pretend = 0, frame = 16
 731              		@ frame_needed = 1, uses_anonymous_args = 0
 732 0000 80B5     		push	{r7, lr}
 733              		.cfi_def_cfa_offset 8
 734              		.cfi_offset 7, -8
 735              		.cfi_offset 14, -4
 736 0002 84B0     		sub	sp, sp, #16
 737              		.cfi_def_cfa_offset 24
 738 0004 00AF     		add	r7, sp, #0
 739              		.cfi_def_cfa_register 7
 740 0006 0200     		movs	r2, r0
 741 0008 FB1D     		adds	r3, r7, #7
 742 000a 1A70     		strb	r2, [r3]
 743 000c BB1D     		adds	r3, r7, #6
 744 000e 0A1C     		adds	r2, r1, #0
 745 0010 1A70     		strb	r2, [r3]
 292:DS18B20.c     ****     
 293:DS18B20.c     ****     uint8_t bitMask;
 294:DS18B20.c     ****     
 295:DS18B20.c     ****     
 296:DS18B20.c     ****     for (bitMask = 0x01; bitMask; bitMask <<= 1) {
 746              		.loc 1 296 0
 747 0012 0F23     		movs	r3, #15
 748 0014 FB18     		adds	r3, r7, r3
 749 0016 0122     		movs	r2, #1
 750 0018 1A70     		strb	r2, [r3]
 751 001a 23E0     		b	.L31
 752              	.L32:
 297:DS18B20.c     ****         Temp_WriteBit(n,(bitMask & byte)?1:0);
 753              		.loc 1 297 0 discriminator 3
 754 001c 0F23     		movs	r3, #15
 755 001e FB18     		adds	r3, r7, r3
 756 0020 BA1D     		adds	r2, r7, #6
 757 0022 1B78     		ldrb	r3, [r3]
 758 0024 1278     		ldrb	r2, [r2]
 759 0026 1340     		ands	r3, r2
 760 0028 DBB2     		uxtb	r3, r3
 761 002a 5A1E     		subs	r2, r3, #1
 762 002c 9341     		sbcs	r3, r3, r2
 763 002e DBB2     		uxtb	r3, r3
 764 0030 1A00     		movs	r2, r3
 765 0032 FB1D     		adds	r3, r7, #7
 766 0034 1B78     		ldrb	r3, [r3]
 767 0036 1100     		movs	r1, r2
 768 0038 1800     		movs	r0, r3
 769 003a FFF7FEFF 		bl	Temp_WriteBit
 298:DS18B20.c     ****         Temp_SetDriveMode(n,IN);
 770              		.loc 1 298 0 discriminator 3
 771 003e FB1D     		adds	r3, r7, #7
 772 0040 1B78     		ldrb	r3, [r3]
 773 0042 0021     		movs	r1, #0
 774 0044 1800     		movs	r0, r3
 775 0046 FFF7FEFF 		bl	Temp_SetDriveMode
 299:DS18B20.c     ****         Temp_WritePin(n,0);
 776              		.loc 1 299 0 discriminator 3
 777 004a FB1D     		adds	r3, r7, #7
 778 004c 1B78     		ldrb	r3, [r3]
ARM GAS  C:\Users\megan\AppData\Local\Temp\cclXT6oC.s 			page 20


 779 004e 0021     		movs	r1, #0
 780 0050 1800     		movs	r0, r3
 781 0052 FFF7FEFF 		bl	Temp_WritePin
 296:DS18B20.c     ****         Temp_WriteBit(n,(bitMask & byte)?1:0);
 782              		.loc 1 296 0 discriminator 3
 783 0056 0F23     		movs	r3, #15
 784 0058 FA18     		adds	r2, r7, r3
 785 005a 0F23     		movs	r3, #15
 786 005c FB18     		adds	r3, r7, r3
 787 005e 1B78     		ldrb	r3, [r3]
 788 0060 DB18     		adds	r3, r3, r3
 789 0062 1370     		strb	r3, [r2]
 790              	.L31:
 296:DS18B20.c     ****         Temp_WriteBit(n,(bitMask & byte)?1:0);
 791              		.loc 1 296 0 is_stmt 0 discriminator 1
 792 0064 0F23     		movs	r3, #15
 793 0066 FB18     		adds	r3, r7, r3
 794 0068 1B78     		ldrb	r3, [r3]
 795 006a 002B     		cmp	r3, #0
 796 006c D6D1     		bne	.L32
 300:DS18B20.c     ****     }
 301:DS18B20.c     **** }
 797              		.loc 1 301 0 is_stmt 1
 798 006e C046     		nop
 799 0070 BD46     		mov	sp, r7
 800 0072 04B0     		add	sp, sp, #16
 801              		@ sp needed
 802 0074 80BD     		pop	{r7, pc}
 803              		.cfi_endproc
 804              	.LFE44:
 805              		.size	Temp_Write, .-Temp_Write
 806 0076 C046     		.section	.text.Temp_Read,"ax",%progbits
 807              		.align	2
 808              		.global	Temp_Read
 809              		.code	16
 810              		.thumb_func
 811              		.type	Temp_Read, %function
 812              	Temp_Read:
 813              	.LFB45:
 302:DS18B20.c     **** 
 303:DS18B20.c     **** /* ------------------------------------------------------------
 304:DS18B20.c     ****  * Function: Temp_Read
 305:DS18B20.c     ****  * ------------------------------------------------------------
 306:DS18B20.c     ****  * Description: Reads a byte from the selected sensor.
 307:DS18B20.c     ****  * 
 308:DS18B20.c     ****  * Parameters:  Sensor number, value (0 or 1)
 309:DS18B20.c     ****  * 
 310:DS18B20.c     ****  * Returns:     Byte read
 311:DS18B20.c     ****  * ------------------------------------------------------------
 312:DS18B20.c     **** */
 313:DS18B20.c     **** uint8_t Temp_Read(uint8_t n) {
 814              		.loc 1 313 0
 815              		.cfi_startproc
 816              		@ args = 0, pretend = 0, frame = 16
 817              		@ frame_needed = 1, uses_anonymous_args = 0
 818 0000 80B5     		push	{r7, lr}
 819              		.cfi_def_cfa_offset 8
ARM GAS  C:\Users\megan\AppData\Local\Temp\cclXT6oC.s 			page 21


 820              		.cfi_offset 7, -8
 821              		.cfi_offset 14, -4
 822 0002 84B0     		sub	sp, sp, #16
 823              		.cfi_def_cfa_offset 24
 824 0004 00AF     		add	r7, sp, #0
 825              		.cfi_def_cfa_register 7
 826 0006 0200     		movs	r2, r0
 827 0008 FB1D     		adds	r3, r7, #7
 828 000a 1A70     		strb	r2, [r3]
 314:DS18B20.c     ****     
 315:DS18B20.c     ****     uint8_t bitMask;    
 316:DS18B20.c     ****     uint8_t r = 0;
 829              		.loc 1 316 0
 830 000c 0E23     		movs	r3, #14
 831 000e FB18     		adds	r3, r7, r3
 832 0010 0022     		movs	r2, #0
 833 0012 1A70     		strb	r2, [r3]
 317:DS18B20.c     ****     
 318:DS18B20.c     ****     
 319:DS18B20.c     ****     for (bitMask = 0x01; bitMask; bitMask <<=1) {
 834              		.loc 1 319 0
 835 0014 0F23     		movs	r3, #15
 836 0016 FB18     		adds	r3, r7, r3
 837 0018 0122     		movs	r2, #1
 838 001a 1A70     		strb	r2, [r3]
 839 001c 17E0     		b	.L34
 840              	.L36:
 320:DS18B20.c     ****         if (Temp_ReadBit(n)) r |= bitMask;
 841              		.loc 1 320 0
 842 001e FB1D     		adds	r3, r7, #7
 843 0020 1B78     		ldrb	r3, [r3]
 844 0022 1800     		movs	r0, r3
 845 0024 FFF7FEFF 		bl	Temp_ReadBit
 846 0028 031E     		subs	r3, r0, #0
 847 002a 09D0     		beq	.L35
 848              		.loc 1 320 0 is_stmt 0 discriminator 1
 849 002c 0E23     		movs	r3, #14
 850 002e FB18     		adds	r3, r7, r3
 851 0030 0E22     		movs	r2, #14
 852 0032 B918     		adds	r1, r7, r2
 853 0034 0F22     		movs	r2, #15
 854 0036 BA18     		adds	r2, r7, r2
 855 0038 0978     		ldrb	r1, [r1]
 856 003a 1278     		ldrb	r2, [r2]
 857 003c 0A43     		orrs	r2, r1
 858 003e 1A70     		strb	r2, [r3]
 859              	.L35:
 319:DS18B20.c     ****         if (Temp_ReadBit(n)) r |= bitMask;
 860              		.loc 1 319 0 is_stmt 1 discriminator 2
 861 0040 0F23     		movs	r3, #15
 862 0042 FA18     		adds	r2, r7, r3
 863 0044 0F23     		movs	r3, #15
 864 0046 FB18     		adds	r3, r7, r3
 865 0048 1B78     		ldrb	r3, [r3]
 866 004a DB18     		adds	r3, r3, r3
 867 004c 1370     		strb	r3, [r2]
 868              	.L34:
ARM GAS  C:\Users\megan\AppData\Local\Temp\cclXT6oC.s 			page 22


 319:DS18B20.c     ****         if (Temp_ReadBit(n)) r |= bitMask;
 869              		.loc 1 319 0 is_stmt 0 discriminator 1
 870 004e 0F23     		movs	r3, #15
 871 0050 FB18     		adds	r3, r7, r3
 872 0052 1B78     		ldrb	r3, [r3]
 873 0054 002B     		cmp	r3, #0
 874 0056 E2D1     		bne	.L36
 321:DS18B20.c     ****     }
 322:DS18B20.c     ****     return r;
 875              		.loc 1 322 0 is_stmt 1
 876 0058 0E23     		movs	r3, #14
 877 005a FB18     		adds	r3, r7, r3
 878 005c 1B78     		ldrb	r3, [r3]
 323:DS18B20.c     **** }
 879              		.loc 1 323 0
 880 005e 1800     		movs	r0, r3
 881 0060 BD46     		mov	sp, r7
 882 0062 04B0     		add	sp, sp, #16
 883              		@ sp needed
 884 0064 80BD     		pop	{r7, pc}
 885              		.cfi_endproc
 886              	.LFE45:
 887              		.size	Temp_Read, .-Temp_Read
 888 0066 C046     		.section	.text.Temp_WriteBit,"ax",%progbits
 889              		.align	2
 890              		.global	Temp_WriteBit
 891              		.code	16
 892              		.thumb_func
 893              		.type	Temp_WriteBit, %function
 894              	Temp_WriteBit:
 895              	.LFB46:
 324:DS18B20.c     **** 
 325:DS18B20.c     **** /* ------------------------------------------------------------
 326:DS18B20.c     ****  * Function: Temp_WriteBit
 327:DS18B20.c     ****  * ------------------------------------------------------------
 328:DS18B20.c     ****  * Description: Writes a bit to the selected sensor.
 329:DS18B20.c     ****  * 
 330:DS18B20.c     ****  * Parameters:  Sensor number, value (0 or 1)
 331:DS18B20.c     ****  * 
 332:DS18B20.c     ****  * Returns:     Nothing
 333:DS18B20.c     ****  * ------------------------------------------------------------
 334:DS18B20.c     **** */
 335:DS18B20.c     **** void Temp_WriteBit(uint8_t n, uint8_t b) {
 896              		.loc 1 335 0
 897              		.cfi_startproc
 898              		@ args = 0, pretend = 0, frame = 8
 899              		@ frame_needed = 1, uses_anonymous_args = 0
 900 0000 80B5     		push	{r7, lr}
 901              		.cfi_def_cfa_offset 8
 902              		.cfi_offset 7, -8
 903              		.cfi_offset 14, -4
 904 0002 82B0     		sub	sp, sp, #8
 905              		.cfi_def_cfa_offset 16
 906 0004 00AF     		add	r7, sp, #0
 907              		.cfi_def_cfa_register 7
 908 0006 0200     		movs	r2, r0
 909 0008 FB1D     		adds	r3, r7, #7
ARM GAS  C:\Users\megan\AppData\Local\Temp\cclXT6oC.s 			page 23


 910 000a 1A70     		strb	r2, [r3]
 911 000c BB1D     		adds	r3, r7, #6
 912 000e 0A1C     		adds	r2, r1, #0
 913 0010 1A70     		strb	r2, [r3]
 336:DS18B20.c     ****     
 337:DS18B20.c     ****     if (b == 1) {
 914              		.loc 1 337 0
 915 0012 BB1D     		adds	r3, r7, #6
 916 0014 1B78     		ldrb	r3, [r3]
 917 0016 012B     		cmp	r3, #1
 918 0018 18D1     		bne	.L39
 338:DS18B20.c     ****         Temp_WritePin(n,0);
 919              		.loc 1 338 0
 920 001a FB1D     		adds	r3, r7, #7
 921 001c 1B78     		ldrb	r3, [r3]
 922 001e 0021     		movs	r1, #0
 923 0020 1800     		movs	r0, r3
 924 0022 FFF7FEFF 		bl	Temp_WritePin
 339:DS18B20.c     ****         Temp_SetDriveMode(n,OUT);   // drive output low
 925              		.loc 1 339 0
 926 0026 FB1D     		adds	r3, r7, #7
 927 0028 1B78     		ldrb	r3, [r3]
 928 002a 0121     		movs	r1, #1
 929 002c 1800     		movs	r0, r3
 930 002e FFF7FEFF 		bl	Temp_SetDriveMode
 340:DS18B20.c     ****         CyDelayUs(10);
 931              		.loc 1 340 0
 932 0032 0A20     		movs	r0, #10
 933 0034 FFF7FEFF 		bl	CyDelayUs
 341:DS18B20.c     ****         Temp_WritePin(n,1);         // drive output high
 934              		.loc 1 341 0
 935 0038 FB1D     		adds	r3, r7, #7
 936 003a 1B78     		ldrb	r3, [r3]
 937 003c 0121     		movs	r1, #1
 938 003e 1800     		movs	r0, r3
 939 0040 FFF7FEFF 		bl	Temp_WritePin
 342:DS18B20.c     ****         CyDelayUs(55);
 940              		.loc 1 342 0
 941 0044 3720     		movs	r0, #55
 942 0046 FFF7FEFF 		bl	CyDelayUs
 343:DS18B20.c     ****     } else {
 344:DS18B20.c     ****         Temp_WritePin(n,0);
 345:DS18B20.c     ****         Temp_SetDriveMode(n,OUT);   // drive output low
 346:DS18B20.c     ****         CyDelayUs(65);
 347:DS18B20.c     ****         Temp_WritePin(n,1);         // drive output high
 348:DS18B20.c     ****         CyDelayUs(5);       
 349:DS18B20.c     ****     }
 350:DS18B20.c     **** }
 943              		.loc 1 350 0
 944 004a 17E0     		b	.L41
 945              	.L39:
 344:DS18B20.c     ****         Temp_SetDriveMode(n,OUT);   // drive output low
 946              		.loc 1 344 0
 947 004c FB1D     		adds	r3, r7, #7
 948 004e 1B78     		ldrb	r3, [r3]
 949 0050 0021     		movs	r1, #0
 950 0052 1800     		movs	r0, r3
ARM GAS  C:\Users\megan\AppData\Local\Temp\cclXT6oC.s 			page 24


 951 0054 FFF7FEFF 		bl	Temp_WritePin
 345:DS18B20.c     ****         CyDelayUs(65);
 952              		.loc 1 345 0
 953 0058 FB1D     		adds	r3, r7, #7
 954 005a 1B78     		ldrb	r3, [r3]
 955 005c 0121     		movs	r1, #1
 956 005e 1800     		movs	r0, r3
 957 0060 FFF7FEFF 		bl	Temp_SetDriveMode
 346:DS18B20.c     ****         Temp_WritePin(n,1);         // drive output high
 958              		.loc 1 346 0
 959 0064 4120     		movs	r0, #65
 960 0066 FFF7FEFF 		bl	CyDelayUs
 347:DS18B20.c     ****         CyDelayUs(5);       
 961              		.loc 1 347 0
 962 006a FB1D     		adds	r3, r7, #7
 963 006c 1B78     		ldrb	r3, [r3]
 964 006e 0121     		movs	r1, #1
 965 0070 1800     		movs	r0, r3
 966 0072 FFF7FEFF 		bl	Temp_WritePin
 348:DS18B20.c     ****     }
 967              		.loc 1 348 0
 968 0076 0520     		movs	r0, #5
 969 0078 FFF7FEFF 		bl	CyDelayUs
 970              	.L41:
 971              		.loc 1 350 0
 972 007c C046     		nop
 973 007e BD46     		mov	sp, r7
 974 0080 02B0     		add	sp, sp, #8
 975              		@ sp needed
 976 0082 80BD     		pop	{r7, pc}
 977              		.cfi_endproc
 978              	.LFE46:
 979              		.size	Temp_WriteBit, .-Temp_WriteBit
 980              		.section	.text.Temp_ReadBit,"ax",%progbits
 981              		.align	2
 982              		.global	Temp_ReadBit
 983              		.code	16
 984              		.thumb_func
 985              		.type	Temp_ReadBit, %function
 986              	Temp_ReadBit:
 987              	.LFB47:
 351:DS18B20.c     **** 
 352:DS18B20.c     **** /* ------------------------------------------------------------
 353:DS18B20.c     ****  * Function: Temp_ReadBit
 354:DS18B20.c     ****  * ------------------------------------------------------------
 355:DS18B20.c     ****  * Description: Writes a bit to the selected sensor.
 356:DS18B20.c     ****  * 
 357:DS18B20.c     ****  * Parameters:  Sensor number, value (0 or 1)
 358:DS18B20.c     ****  * 
 359:DS18B20.c     ****  * Returns:     Nothing
 360:DS18B20.c     ****  * ------------------------------------------------------------
 361:DS18B20.c     **** */
 362:DS18B20.c     **** uint8_t Temp_ReadBit(uint8_t n) {
 988              		.loc 1 362 0
 989              		.cfi_startproc
 990              		@ args = 0, pretend = 0, frame = 16
 991              		@ frame_needed = 1, uses_anonymous_args = 0
ARM GAS  C:\Users\megan\AppData\Local\Temp\cclXT6oC.s 			page 25


 992 0000 90B5     		push	{r4, r7, lr}
 993              		.cfi_def_cfa_offset 12
 994              		.cfi_offset 4, -12
 995              		.cfi_offset 7, -8
 996              		.cfi_offset 14, -4
 997 0002 85B0     		sub	sp, sp, #20
 998              		.cfi_def_cfa_offset 32
 999 0004 00AF     		add	r7, sp, #0
 1000              		.cfi_def_cfa_register 7
 1001 0006 0200     		movs	r2, r0
 1002 0008 FB1D     		adds	r3, r7, #7
 1003 000a 1A70     		strb	r2, [r3]
 363:DS18B20.c     ****     
 364:DS18B20.c     ****     uint8_t r;
 365:DS18B20.c     ****     
 366:DS18B20.c     ****     
 367:DS18B20.c     ****     Temp_WritePin(n,0);
 1004              		.loc 1 367 0
 1005 000c FB1D     		adds	r3, r7, #7
 1006 000e 1B78     		ldrb	r3, [r3]
 1007 0010 0021     		movs	r1, #0
 1008 0012 1800     		movs	r0, r3
 1009 0014 FFF7FEFF 		bl	Temp_WritePin
 368:DS18B20.c     ****     Temp_SetDriveMode(n,OUT);
 1010              		.loc 1 368 0
 1011 0018 FB1D     		adds	r3, r7, #7
 1012 001a 1B78     		ldrb	r3, [r3]
 1013 001c 0121     		movs	r1, #1
 1014 001e 1800     		movs	r0, r3
 1015 0020 FFF7FEFF 		bl	Temp_SetDriveMode
 369:DS18B20.c     ****     CyDelayUs(3);
 1016              		.loc 1 369 0
 1017 0024 0320     		movs	r0, #3
 1018 0026 FFF7FEFF 		bl	CyDelayUs
 370:DS18B20.c     ****     Temp_SetDriveMode(n,IN);    // let pin float, pull-up will raise
 1019              		.loc 1 370 0
 1020 002a FB1D     		adds	r3, r7, #7
 1021 002c 1B78     		ldrb	r3, [r3]
 1022 002e 0021     		movs	r1, #0
 1023 0030 1800     		movs	r0, r3
 1024 0032 FFF7FEFF 		bl	Temp_SetDriveMode
 371:DS18B20.c     ****     //CyDelayUs(10);
 372:DS18B20.c     ****     CyDelayUs(2);
 1025              		.loc 1 372 0
 1026 0036 0220     		movs	r0, #2
 1027 0038 FFF7FEFF 		bl	CyDelayUs
 373:DS18B20.c     ****     r = Temp_ReadPin(n);
 1028              		.loc 1 373 0
 1029 003c 0F23     		movs	r3, #15
 1030 003e FC18     		adds	r4, r7, r3
 1031 0040 FB1D     		adds	r3, r7, #7
 1032 0042 1B78     		ldrb	r3, [r3]
 1033 0044 1800     		movs	r0, r3
 1034 0046 FFF7FEFF 		bl	Temp_ReadPin
 1035 004a 0300     		movs	r3, r0
 1036 004c 2370     		strb	r3, [r4]
 374:DS18B20.c     ****     CyDelayUs(53);
ARM GAS  C:\Users\megan\AppData\Local\Temp\cclXT6oC.s 			page 26


 1037              		.loc 1 374 0
 1038 004e 3520     		movs	r0, #53
 1039 0050 FFF7FEFF 		bl	CyDelayUs
 375:DS18B20.c     ****     return r;
 1040              		.loc 1 375 0
 1041 0054 0F23     		movs	r3, #15
 1042 0056 FB18     		adds	r3, r7, r3
 1043 0058 1B78     		ldrb	r3, [r3]
 376:DS18B20.c     **** }
 1044              		.loc 1 376 0
 1045 005a 1800     		movs	r0, r3
 1046 005c BD46     		mov	sp, r7
 1047 005e 05B0     		add	sp, sp, #20
 1048              		@ sp needed
 1049 0060 90BD     		pop	{r4, r7, pc}
 1050              		.cfi_endproc
 1051              	.LFE47:
 1052              		.size	Temp_ReadBit, .-Temp_ReadBit
 1053 0062 C046     		.section	.text.Temp_SetDriveMode,"ax",%progbits
 1054              		.align	2
 1055              		.global	Temp_SetDriveMode
 1056              		.code	16
 1057              		.thumb_func
 1058              		.type	Temp_SetDriveMode, %function
 1059              	Temp_SetDriveMode:
 1060              	.LFB48:
 377:DS18B20.c     **** 
 378:DS18B20.c     **** /* ------------------------------------------------------------
 379:DS18B20.c     ****  * LOW-LEVEL DRIVERS
 380:DS18B20.c     ****  *
 381:DS18B20.c     ****  * To be customized by user
 382:DS18B20.c     ****  * ------------------------------------------------------------
 383:DS18B20.c     **** */
 384:DS18B20.c     **** 
 385:DS18B20.c     **** /* ------------------------------------------------------------
 386:DS18B20.c     ****  * Function: Temp_SetDriveMode
 387:DS18B20.c     ****  * ------------------------------------------------------------
 388:DS18B20.c     ****  * Description: Sets the pin drive mode for the selected sensor.
 389:DS18B20.c     ****  *              This function needs configured by the developer
 390:DS18B20.c     ****  *              by setting the corresponding read functions for 
 391:DS18B20.c     ****  *              their environment and pins.
 392:DS18B20.c     ****  * 
 393:DS18B20.c     ****  * Parameters:  Sensor number, drive mode (0-out, 1-in)
 394:DS18B20.c     ****  * 
 395:DS18B20.c     ****  * Returns:     Nothing
 396:DS18B20.c     ****  * ------------------------------------------------------------
 397:DS18B20.c     **** */
 398:DS18B20.c     **** void Temp_SetDriveMode(uint8_t n, uint8_t mode) {
 1061              		.loc 1 398 0
 1062              		.cfi_startproc
 1063              		@ args = 0, pretend = 0, frame = 8
 1064              		@ frame_needed = 1, uses_anonymous_args = 0
 1065 0000 80B5     		push	{r7, lr}
 1066              		.cfi_def_cfa_offset 8
 1067              		.cfi_offset 7, -8
 1068              		.cfi_offset 14, -4
 1069 0002 82B0     		sub	sp, sp, #8
ARM GAS  C:\Users\megan\AppData\Local\Temp\cclXT6oC.s 			page 27


 1070              		.cfi_def_cfa_offset 16
 1071 0004 00AF     		add	r7, sp, #0
 1072              		.cfi_def_cfa_register 7
 1073 0006 0200     		movs	r2, r0
 1074 0008 FB1D     		adds	r3, r7, #7
 1075 000a 1A70     		strb	r2, [r3]
 1076 000c BB1D     		adds	r3, r7, #6
 1077 000e 0A1C     		adds	r2, r1, #0
 1078 0010 1A70     		strb	r2, [r3]
 399:DS18B20.c     ****     
 400:DS18B20.c     ****     switch (n) {
 1079              		.loc 1 400 0
 1080 0012 FB1D     		adds	r3, r7, #7
 1081 0014 1B78     		ldrb	r3, [r3]
 1082 0016 012B     		cmp	r3, #1
 1083 0018 02D0     		beq	.L46
 1084 001a 022B     		cmp	r3, #2
 1085 001c 0CD0     		beq	.L47
 401:DS18B20.c     ****         
 402:DS18B20.c     ****         case 1:
 403:DS18B20.c     ****             if (mode == IN) Temp1_SetDriveMode(Temp1_DM_DIG_HIZ);
 404:DS18B20.c     ****             else Temp1_SetDriveMode(Temp1_DM_STRONG);
 405:DS18B20.c     ****         break;
 406:DS18B20.c     ****             
 407:DS18B20.c     ****         case 2:
 408:DS18B20.c     ****             if (mode == IN) Temp2_SetDriveMode(Temp2_DM_DIG_HIZ);
 409:DS18B20.c     ****             else Temp2_SetDriveMode(Temp2_DM_STRONG);
 410:DS18B20.c     ****         break;
 411:DS18B20.c     ****             
 412:DS18B20.c     ****         default:
 413:DS18B20.c     ****         break;
 1086              		.loc 1 413 0
 1087 001e 17E0     		b	.L50
 1088              	.L46:
 403:DS18B20.c     ****             else Temp1_SetDriveMode(Temp1_DM_STRONG);
 1089              		.loc 1 403 0
 1090 0020 BB1D     		adds	r3, r7, #6
 1091 0022 1B78     		ldrb	r3, [r3]
 1092 0024 002B     		cmp	r3, #0
 1093 0026 03D1     		bne	.L48
 403:DS18B20.c     ****             else Temp1_SetDriveMode(Temp1_DM_STRONG);
 1094              		.loc 1 403 0 is_stmt 0 discriminator 1
 1095 0028 0120     		movs	r0, #1
 1096 002a FFF7FEFF 		bl	Temp1_SetDriveMode
 405:DS18B20.c     ****             
 1097              		.loc 1 405 0 is_stmt 1 discriminator 1
 1098 002e 0FE0     		b	.L50
 1099              	.L48:
 404:DS18B20.c     ****         break;
 1100              		.loc 1 404 0
 1101 0030 0620     		movs	r0, #6
 1102 0032 FFF7FEFF 		bl	Temp1_SetDriveMode
 405:DS18B20.c     ****             
 1103              		.loc 1 405 0
 1104 0036 0BE0     		b	.L50
 1105              	.L47:
 408:DS18B20.c     ****             else Temp2_SetDriveMode(Temp2_DM_STRONG);
ARM GAS  C:\Users\megan\AppData\Local\Temp\cclXT6oC.s 			page 28


 1106              		.loc 1 408 0
 1107 0038 BB1D     		adds	r3, r7, #6
 1108 003a 1B78     		ldrb	r3, [r3]
 1109 003c 002B     		cmp	r3, #0
 1110 003e 03D1     		bne	.L51
 408:DS18B20.c     ****             else Temp2_SetDriveMode(Temp2_DM_STRONG);
 1111              		.loc 1 408 0 is_stmt 0 discriminator 1
 1112 0040 0120     		movs	r0, #1
 1113 0042 FFF7FEFF 		bl	Temp2_SetDriveMode
 410:DS18B20.c     ****             
 1114              		.loc 1 410 0 is_stmt 1 discriminator 1
 1115 0046 02E0     		b	.L53
 1116              	.L51:
 409:DS18B20.c     ****         break;
 1117              		.loc 1 409 0
 1118 0048 0620     		movs	r0, #6
 1119 004a FFF7FEFF 		bl	Temp2_SetDriveMode
 1120              	.L53:
 410:DS18B20.c     ****             
 1121              		.loc 1 410 0
 1122 004e C046     		nop
 1123              	.L50:
 414:DS18B20.c     ****     }
 415:DS18B20.c     **** }
 1124              		.loc 1 415 0
 1125 0050 C046     		nop
 1126 0052 BD46     		mov	sp, r7
 1127 0054 02B0     		add	sp, sp, #8
 1128              		@ sp needed
 1129 0056 80BD     		pop	{r7, pc}
 1130              		.cfi_endproc
 1131              	.LFE48:
 1132              		.size	Temp_SetDriveMode, .-Temp_SetDriveMode
 1133              		.section	.text.Temp_ReadPin,"ax",%progbits
 1134              		.align	2
 1135              		.global	Temp_ReadPin
 1136              		.code	16
 1137              		.thumb_func
 1138              		.type	Temp_ReadPin, %function
 1139              	Temp_ReadPin:
 1140              	.LFB49:
 416:DS18B20.c     **** 
 417:DS18B20.c     **** /* ------------------------------------------------------------
 418:DS18B20.c     ****  * Function: Temp_ReadPin
 419:DS18B20.c     ****  * ------------------------------------------------------------
 420:DS18B20.c     ****  * Description: Returns the logic value on the selected sensor.
 421:DS18B20.c     ****  *              This function needs configured by the developer
 422:DS18B20.c     ****  *              by setting the corresponding read functions for 
 423:DS18B20.c     ****  *              their environment and pins.
 424:DS18B20.c     ****  * 
 425:DS18B20.c     ****  * Parameters:  Sensor number
 426:DS18B20.c     ****  * 
 427:DS18B20.c     ****  * Returns:     Digital value of the pin (0 or 1), 
 428:DS18B20.c     ****  *              or 0xFF if an invalid sensor was selected.
 429:DS18B20.c     ****  * ------------------------------------------------------------
 430:DS18B20.c     **** */
 431:DS18B20.c     **** uint8_t Temp_ReadPin(uint8_t n) {
ARM GAS  C:\Users\megan\AppData\Local\Temp\cclXT6oC.s 			page 29


 1141              		.loc 1 431 0
 1142              		.cfi_startproc
 1143              		@ args = 0, pretend = 0, frame = 8
 1144              		@ frame_needed = 1, uses_anonymous_args = 0
 1145 0000 80B5     		push	{r7, lr}
 1146              		.cfi_def_cfa_offset 8
 1147              		.cfi_offset 7, -8
 1148              		.cfi_offset 14, -4
 1149 0002 82B0     		sub	sp, sp, #8
 1150              		.cfi_def_cfa_offset 16
 1151 0004 00AF     		add	r7, sp, #0
 1152              		.cfi_def_cfa_register 7
 1153 0006 0200     		movs	r2, r0
 1154 0008 FB1D     		adds	r3, r7, #7
 1155 000a 1A70     		strb	r2, [r3]
 432:DS18B20.c     ****     
 433:DS18B20.c     ****     switch (n) {
 1156              		.loc 1 433 0
 1157 000c FB1D     		adds	r3, r7, #7
 1158 000e 1B78     		ldrb	r3, [r3]
 1159 0010 012B     		cmp	r3, #1
 1160 0012 02D0     		beq	.L56
 1161 0014 022B     		cmp	r3, #2
 1162 0016 04D0     		beq	.L57
 1163 0018 07E0     		b	.L59
 1164              	.L56:
 434:DS18B20.c     ****         
 435:DS18B20.c     ****         case 1:
 436:DS18B20.c     ****             return Temp1_Read();
 1165              		.loc 1 436 0
 1166 001a FFF7FEFF 		bl	Temp1_Read
 1167 001e 0300     		movs	r3, r0
 1168 0020 04E0     		b	.L58
 1169              	.L57:
 437:DS18B20.c     ****         break;
 438:DS18B20.c     ****         
 439:DS18B20.c     ****         case 2:
 440:DS18B20.c     ****             return Temp2_Read();
 1170              		.loc 1 440 0
 1171 0022 FFF7FEFF 		bl	Temp2_Read
 1172 0026 0300     		movs	r3, r0
 1173 0028 00E0     		b	.L58
 1174              	.L59:
 441:DS18B20.c     ****         break;
 442:DS18B20.c     ****         
 443:DS18B20.c     ****         default:
 444:DS18B20.c     ****             return 0xFF;
 1175              		.loc 1 444 0
 1176 002a FF23     		movs	r3, #255
 1177              	.L58:
 445:DS18B20.c     ****     }
 446:DS18B20.c     **** }
 1178              		.loc 1 446 0
 1179 002c 1800     		movs	r0, r3
 1180 002e BD46     		mov	sp, r7
 1181 0030 02B0     		add	sp, sp, #8
 1182              		@ sp needed
ARM GAS  C:\Users\megan\AppData\Local\Temp\cclXT6oC.s 			page 30


 1183 0032 80BD     		pop	{r7, pc}
 1184              		.cfi_endproc
 1185              	.LFE49:
 1186              		.size	Temp_ReadPin, .-Temp_ReadPin
 1187              		.section	.text.Temp_WritePin,"ax",%progbits
 1188              		.align	2
 1189              		.global	Temp_WritePin
 1190              		.code	16
 1191              		.thumb_func
 1192              		.type	Temp_WritePin, %function
 1193              	Temp_WritePin:
 1194              	.LFB50:
 447:DS18B20.c     **** 
 448:DS18B20.c     **** /* ------------------------------------------------------------
 449:DS18B20.c     ****  * Function: Temp_WritePin
 450:DS18B20.c     ****  * ------------------------------------------------------------
 451:DS18B20.c     ****  * Description: Writes the logic value to the selected sensor.
 452:DS18B20.c     ****  *              This function needs configured by the developer
 453:DS18B20.c     ****  *              by setting the corresponding read functions for 
 454:DS18B20.c     ****  *              their environment and pins.
 455:DS18B20.c     ****  * 
 456:DS18B20.c     ****  * Parameters:  Sensor number, value to write (0 or 1)
 457:DS18B20.c     ****  * 
 458:DS18B20.c     ****  * Returns:     Nothing
 459:DS18B20.c     ****  * ------------------------------------------------------------
 460:DS18B20.c     **** */
 461:DS18B20.c     **** void Temp_WritePin(uint8_t n, uint8_t value) {
 1195              		.loc 1 461 0
 1196              		.cfi_startproc
 1197              		@ args = 0, pretend = 0, frame = 8
 1198              		@ frame_needed = 1, uses_anonymous_args = 0
 1199 0000 80B5     		push	{r7, lr}
 1200              		.cfi_def_cfa_offset 8
 1201              		.cfi_offset 7, -8
 1202              		.cfi_offset 14, -4
 1203 0002 82B0     		sub	sp, sp, #8
 1204              		.cfi_def_cfa_offset 16
 1205 0004 00AF     		add	r7, sp, #0
 1206              		.cfi_def_cfa_register 7
 1207 0006 0200     		movs	r2, r0
 1208 0008 FB1D     		adds	r3, r7, #7
 1209 000a 1A70     		strb	r2, [r3]
 1210 000c BB1D     		adds	r3, r7, #6
 1211 000e 0A1C     		adds	r2, r1, #0
 1212 0010 1A70     		strb	r2, [r3]
 462:DS18B20.c     ****     
 463:DS18B20.c     ****     switch (n) {
 1213              		.loc 1 463 0
 1214 0012 FB1D     		adds	r3, r7, #7
 1215 0014 1B78     		ldrb	r3, [r3]
 1216 0016 012B     		cmp	r3, #1
 1217 0018 02D0     		beq	.L62
 1218 001a 022B     		cmp	r3, #2
 1219 001c 10D0     		beq	.L63
 464:DS18B20.c     ****         
 465:DS18B20.c     ****         case 1:
 466:DS18B20.c     ****             if (value == 0) Temp1_Write(0);
ARM GAS  C:\Users\megan\AppData\Local\Temp\cclXT6oC.s 			page 31


 467:DS18B20.c     ****             else if (value == 1) Temp1_Write(1);
 468:DS18B20.c     ****         break;
 469:DS18B20.c     ****         
 470:DS18B20.c     ****         case 2:
 471:DS18B20.c     ****             if (value == 0) Temp2_Write(0);
 472:DS18B20.c     ****             else if (value == 1) Temp2_Write(1);
 473:DS18B20.c     ****         break;
 474:DS18B20.c     ****         
 475:DS18B20.c     ****         default:
 476:DS18B20.c     ****         break;
 1220              		.loc 1 476 0
 1221 001e 22E0     		b	.L66
 1222              	.L62:
 466:DS18B20.c     ****             else if (value == 1) Temp1_Write(1);
 1223              		.loc 1 466 0
 1224 0020 BB1D     		adds	r3, r7, #6
 1225 0022 1B78     		ldrb	r3, [r3]
 1226 0024 002B     		cmp	r3, #0
 1227 0026 03D1     		bne	.L64
 466:DS18B20.c     ****             else if (value == 1) Temp1_Write(1);
 1228              		.loc 1 466 0 is_stmt 0 discriminator 1
 1229 0028 0020     		movs	r0, #0
 1230 002a FFF7FEFF 		bl	Temp1_Write
 468:DS18B20.c     ****         
 1231              		.loc 1 468 0 is_stmt 1 discriminator 1
 1232 002e 17E0     		b	.L69
 1233              	.L64:
 467:DS18B20.c     ****         break;
 1234              		.loc 1 467 0
 1235 0030 BB1D     		adds	r3, r7, #6
 1236 0032 1B78     		ldrb	r3, [r3]
 1237 0034 012B     		cmp	r3, #1
 1238 0036 13D1     		bne	.L69
 467:DS18B20.c     ****         break;
 1239              		.loc 1 467 0 is_stmt 0 discriminator 1
 1240 0038 0120     		movs	r0, #1
 1241 003a FFF7FEFF 		bl	Temp1_Write
 468:DS18B20.c     ****         
 1242              		.loc 1 468 0 is_stmt 1 discriminator 1
 1243 003e 0FE0     		b	.L69
 1244              	.L63:
 471:DS18B20.c     ****             else if (value == 1) Temp2_Write(1);
 1245              		.loc 1 471 0
 1246 0040 BB1D     		adds	r3, r7, #6
 1247 0042 1B78     		ldrb	r3, [r3]
 1248 0044 002B     		cmp	r3, #0
 1249 0046 03D1     		bne	.L67
 471:DS18B20.c     ****             else if (value == 1) Temp2_Write(1);
 1250              		.loc 1 471 0 is_stmt 0 discriminator 1
 1251 0048 0020     		movs	r0, #0
 1252 004a FFF7FEFF 		bl	Temp2_Write
 473:DS18B20.c     ****         
 1253              		.loc 1 473 0 is_stmt 1 discriminator 1
 1254 004e 09E0     		b	.L70
 1255              	.L67:
 472:DS18B20.c     ****         break;
 1256              		.loc 1 472 0
ARM GAS  C:\Users\megan\AppData\Local\Temp\cclXT6oC.s 			page 32


 1257 0050 BB1D     		adds	r3, r7, #6
 1258 0052 1B78     		ldrb	r3, [r3]
 1259 0054 012B     		cmp	r3, #1
 1260 0056 05D1     		bne	.L70
 472:DS18B20.c     ****         break;
 1261              		.loc 1 472 0 is_stmt 0 discriminator 1
 1262 0058 0120     		movs	r0, #1
 1263 005a FFF7FEFF 		bl	Temp2_Write
 473:DS18B20.c     ****         
 1264              		.loc 1 473 0 is_stmt 1 discriminator 1
 1265 005e 01E0     		b	.L70
 1266              	.L69:
 468:DS18B20.c     ****         
 1267              		.loc 1 468 0
 1268 0060 C046     		nop
 1269 0062 00E0     		b	.L66
 1270              	.L70:
 473:DS18B20.c     ****         
 1271              		.loc 1 473 0
 1272 0064 C046     		nop
 1273              	.L66:
 477:DS18B20.c     ****     }
 478:DS18B20.c     **** }
 1274              		.loc 1 478 0
 1275 0066 C046     		nop
 1276 0068 BD46     		mov	sp, r7
 1277 006a 02B0     		add	sp, sp, #8
 1278              		@ sp needed
 1279 006c 80BD     		pop	{r7, pc}
 1280              		.cfi_endproc
 1281              	.LFE50:
 1282              		.size	Temp_WritePin, .-Temp_WritePin
 1283 006e C046     		.text
 1284              	.Letext0:
 1285              		.file 2 "c:\\program files (x86)\\cypress\\psoc creator\\4.1\\psoc creator\\import\\gnu\\arm\\5.4.
 1286              		.file 3 "c:\\program files (x86)\\cypress\\psoc creator\\4.1\\psoc creator\\import\\gnu\\arm\\5.4.
 1287              		.file 4 "DS18B20.h"