ARM GAS  C:\Users\megan\AppData\Local\Temp\ccb2Qh2B.s 			page 1


   1              		.syntax unified
   2              		.cpu cortex-m0
   3              		.fpu softvfp
   4              		.eabi_attribute 20, 1
   5              		.eabi_attribute 21, 1
   6              		.eabi_attribute 23, 3
   7              		.eabi_attribute 24, 1
   8              		.eabi_attribute 25, 1
   9              		.eabi_attribute 26, 1
  10              		.eabi_attribute 30, 6
  11              		.eabi_attribute 34, 0
  12              		.eabi_attribute 18, 4
  13              		.thumb
  14              		.syntax unified
  15              		.file	"main.c"
  16              		.text
  17              	.Ltext0:
  18              		.cfi_sections	.debug_frame
  19              		.section	.text.main,"ax",%progbits
  20              		.align	2
  21              		.global	main
  22              		.code	16
  23              		.thumb_func
  24              		.type	main, %function
  25              	main:
  26              	.LFB35:
  27              		.file 1 "main.c"
   1:main.c        **** /* ========================================
   2:main.c        ****  *
   3:main.c        ****  * Copyright Megan Bird, 2018
   4:main.c        ****  * All Rights Reserved
   5:main.c        ****  * UNPUBLISHED, LICENSED SOFTWARE.
   6:main.c        ****  *
   7:main.c        ****  * CONFIDENTIAL AND PROPRIETARY INFORMATION
   8:main.c        ****  * WHICH IS THE PROPERTY OF Megan Bird.
   9:main.c        ****  *
  10:main.c        ****  * ========================================
  11:main.c        **** */
  12:main.c        **** 
  13:main.c        **** #include <project.h>
  14:main.c        **** #include <DS18B20.h>
  15:main.c        **** #include <math.h>
  16:main.c        **** 
  17:main.c        **** void StackEventHandler( uint32 eventCode, void *eventParam );
  18:main.c        **** void BLEConnect();
  19:main.c        **** void BLEStayConnected();
  20:main.c        **** void BLEUpdateDBTemp(uint8_t n, float32 temperature);
  21:main.c        **** void UpdateTemp(uint8_t n);
  22:main.c        **** 
  23:main.c        **** /* define the test register to switch the PA/LNA hardware control pins */
  24:main.c        **** #define CYREG_SRSS_TST_DDFT_CTRL 0x40030008
  25:main.c        **** 
  26:main.c        **** int main()
  27:main.c        **** {
  28              		.loc 1 27 0
  29              		.cfi_startproc
  30              		@ args = 0, pretend = 0, frame = 8
ARM GAS  C:\Users\megan\AppData\Local\Temp\ccb2Qh2B.s 			page 2


  31              		@ frame_needed = 1, uses_anonymous_args = 0
  32 0000 80B5     		push	{r7, lr}
  33              		.cfi_def_cfa_offset 8
  34              		.cfi_offset 7, -8
  35              		.cfi_offset 14, -4
  36 0002 82B0     		sub	sp, sp, #8
  37              		.cfi_def_cfa_offset 16
  38 0004 00AF     		add	r7, sp, #0
  39              		.cfi_def_cfa_register 7
  28:main.c        ****     uint16_t i = 0;
  40              		.loc 1 28 0
  41 0006 BB1D     		adds	r3, r7, #6
  42 0008 0022     		movs	r2, #0
  43 000a 1A80     		strh	r2, [r3]
  29:main.c        ****      CyGlobalIntEnable;   /* Enable global interrupts */
  44              		.loc 1 29 0
  45              		.syntax divided
  46              	@ 29 "main.c" 1
  47 000c 62B6     		CPSIE   i
  48              	@ 0 "" 2
  30:main.c        **** 
  31:main.c        ****     /*  BLE SETUP   */
  32:main.c        ****     CyBle_Start( StackEventHandler );
  49              		.loc 1 32 0
  50              		.thumb
  51              		.syntax unified
  52 000e 0E4B     		ldr	r3, .L5
  53 0010 1800     		movs	r0, r3
  54 0012 FFF7FEFF 		bl	CyBle_Start
  55              	.L4:
  33:main.c        ****     
  34:main.c        ****     for(;;)
  35:main.c        ****     {
  36:main.c        ****         CyBle_ProcessEvents();
  56              		.loc 1 36 0
  57 0016 FFF7FEFF 		bl	CyBle_ProcessEvents
  37:main.c        ****         
  38:main.c        ****         // Advertise if disconnected
  39:main.c        ****         BLEStayConnected();
  58              		.loc 1 39 0
  59 001a FFF7FEFF 		bl	BLEStayConnected
  40:main.c        ****         
  41:main.c        ****         // Update temperature value
  42:main.c        ****         if (i++ == 0) {
  60              		.loc 1 42 0
  61 001e BB1D     		adds	r3, r7, #6
  62 0020 1B88     		ldrh	r3, [r3]
  63 0022 BA1D     		adds	r2, r7, #6
  64 0024 591C     		adds	r1, r3, #1
  65 0026 1180     		strh	r1, [r2]
  66 0028 002B     		cmp	r3, #0
  67 002a 03D1     		bne	.L2
  43:main.c        ****             UpdateTemp(1);
  68              		.loc 1 43 0
  69 002c 0120     		movs	r0, #1
  70 002e FFF7FEFF 		bl	UpdateTemp
  71 0032 F0E7     		b	.L4
ARM GAS  C:\Users\megan\AppData\Local\Temp\ccb2Qh2B.s 			page 3


  72              	.L2:
  44:main.c        ****         }
  45:main.c        ****         else if (i > 20000) {
  73              		.loc 1 45 0
  74 0034 BB1D     		adds	r3, r7, #6
  75 0036 1B88     		ldrh	r3, [r3]
  76 0038 044A     		ldr	r2, .L5+4
  77 003a 9342     		cmp	r3, r2
  78 003c EBD9     		bls	.L4
  46:main.c        ****             i = 0;
  79              		.loc 1 46 0
  80 003e BB1D     		adds	r3, r7, #6
  81 0040 0022     		movs	r2, #0
  82 0042 1A80     		strh	r2, [r3]
  47:main.c        ****         }
  48:main.c        ****     }
  83              		.loc 1 48 0
  84 0044 E7E7     		b	.L4
  85              	.L6:
  86 0046 C046     		.align	2
  87              	.L5:
  88 0048 00000000 		.word	StackEventHandler
  89 004c 204E0000 		.word	20000
  90              		.cfi_endproc
  91              	.LFE35:
  92              		.size	main, .-main
  93              		.section	.text.StackEventHandler,"ax",%progbits
  94              		.align	2
  95              		.global	StackEventHandler
  96              		.code	16
  97              		.thumb_func
  98              		.type	StackEventHandler, %function
  99              	StackEventHandler:
 100              	.LFB36:
  49:main.c        **** }
  50:main.c        **** 
  51:main.c        **** void StackEventHandler( uint32 eventCode, void *eventParam ) {
 101              		.loc 1 51 0
 102              		.cfi_startproc
 103              		@ args = 0, pretend = 0, frame = 8
 104              		@ frame_needed = 1, uses_anonymous_args = 0
 105 0000 80B5     		push	{r7, lr}
 106              		.cfi_def_cfa_offset 8
 107              		.cfi_offset 7, -8
 108              		.cfi_offset 14, -4
 109 0002 82B0     		sub	sp, sp, #8
 110              		.cfi_def_cfa_offset 16
 111 0004 00AF     		add	r7, sp, #0
 112              		.cfi_def_cfa_register 7
 113 0006 7860     		str	r0, [r7, #4]
 114 0008 3960     		str	r1, [r7]
  52:main.c        ****     
  53:main.c        ****     switch( eventCode )
 115              		.loc 1 53 0
 116 000a 7B68     		ldr	r3, [r7, #4]
 117 000c 012B     		cmp	r3, #1
 118 000e 02D0     		beq	.L9
ARM GAS  C:\Users\megan\AppData\Local\Temp\ccb2Qh2B.s 			page 4


 119 0010 272B     		cmp	r3, #39
 120 0012 07D0     		beq	.L12
  54:main.c        ****     {
  55:main.c        ****         /* Generic events */
  56:main.c        **** 
  57:main.c        ****         case CYBLE_EVT_STACK_ON:
  58:main.c        ****             /* Configure the Link Layer to automatically switch PA
  59:main.c        ****              * control pin P3[2] and LNA control pin P3[3] */
  60:main.c        ****             CY_SET_XTND_REG32((void CYFAR *)(CYREG_BLE_BLESS_RF_CONFIG), 0x0331);
  61:main.c        ****             CY_SET_XTND_REG32((void CYFAR *)(CYREG_SRSS_TST_DDFT_CTRL), 0x80000302);
  62:main.c        ****             /* CyBle_GappStartAdvertisement( CYBLE_ADVERTISING_FAST ); */
  63:main.c        ****         break;
  64:main.c        ****             
  65:main.c        ****         case CYBLE_EVT_GAP_DEVICE_CONNECTED:          
  66:main.c        **** 
  67:main.c        ****         break;   
  68:main.c        ****             
  69:main.c        ****         /* default catch-all case */
  70:main.c        **** 
  71:main.c        ****         default:
  72:main.c        ****         break;    
 121              		.loc 1 72 0
 122 0014 07E0     		b	.L11
 123              	.L9:
  60:main.c        ****             CY_SET_XTND_REG32((void CYFAR *)(CYREG_SRSS_TST_DDFT_CTRL), 0x80000302);
 124              		.loc 1 60 0
 125 0016 064B     		ldr	r3, .L13
 126 0018 064A     		ldr	r2, .L13+4
 127 001a 1A60     		str	r2, [r3]
  61:main.c        ****             /* CyBle_GappStartAdvertisement( CYBLE_ADVERTISING_FAST ); */
 128              		.loc 1 61 0
 129 001c 064B     		ldr	r3, .L13+8
 130 001e 074A     		ldr	r2, .L13+12
 131 0020 1A60     		str	r2, [r3]
  63:main.c        ****             
 132              		.loc 1 63 0
 133 0022 00E0     		b	.L11
 134              	.L12:
  67:main.c        ****             
 135              		.loc 1 67 0
 136 0024 C046     		nop
 137              	.L11:
  73:main.c        ****     }
  74:main.c        **** }   
 138              		.loc 1 74 0
 139 0026 C046     		nop
 140 0028 BD46     		mov	sp, r7
 141 002a 02B0     		add	sp, sp, #8
 142              		@ sp needed
 143 002c 80BD     		pop	{r7, pc}
 144              	.L14:
 145 002e C046     		.align	2
 146              	.L13:
 147 0030 60F02E40 		.word	1076818016
 148 0034 31030000 		.word	817
 149 0038 08000340 		.word	1073938440
 150 003c 02030080 		.word	-2147482878
ARM GAS  C:\Users\megan\AppData\Local\Temp\ccb2Qh2B.s 			page 5


 151              		.cfi_endproc
 152              	.LFE36:
 153              		.size	StackEventHandler, .-StackEventHandler
 154              		.section	.text.BLEConnect,"ax",%progbits
 155              		.align	2
 156              		.global	BLEConnect
 157              		.code	16
 158              		.thumb_func
 159              		.type	BLEConnect, %function
 160              	BLEConnect:
 161              	.LFB37:
  75:main.c        **** 
  76:main.c        **** void BLEConnect() {
 162              		.loc 1 76 0
 163              		.cfi_startproc
 164              		@ args = 0, pretend = 0, frame = 8
 165              		@ frame_needed = 1, uses_anonymous_args = 0
 166 0000 90B5     		push	{r4, r7, lr}
 167              		.cfi_def_cfa_offset 12
 168              		.cfi_offset 4, -12
 169              		.cfi_offset 7, -8
 170              		.cfi_offset 14, -4
 171 0002 83B0     		sub	sp, sp, #12
 172              		.cfi_def_cfa_offset 24
 173 0004 00AF     		add	r7, sp, #0
 174              		.cfi_def_cfa_register 7
  77:main.c        ****    
  78:main.c        ****     CYBLE_API_RESULT_T apiResult;
  79:main.c        ****     CYBLE_STATE_T ble_state;
  80:main.c        **** 
  81:main.c        ****     // Initiate GAP Connection
  82:main.c        ****     CyBle_ProcessEvents();
 175              		.loc 1 82 0
 176 0006 FFF7FEFF 		bl	CyBle_ProcessEvents
  83:main.c        ****     
  84:main.c        ****     apiResult = CyBle_GappStartAdvertisement( CYBLE_ADVERTISING_FAST );
 177              		.loc 1 84 0
 178 000a BC1D     		adds	r4, r7, #6
 179 000c 0020     		movs	r0, #0
 180 000e FFF7FEFF 		bl	CyBle_GappStartAdvertisement
 181 0012 0300     		movs	r3, r0
 182 0014 2380     		strh	r3, [r4]
  85:main.c        ****     CyBle_ProcessEvents();
 183              		.loc 1 85 0
 184 0016 FFF7FEFF 		bl	CyBle_ProcessEvents
  86:main.c        ****     if (apiResult == CYBLE_ERROR_OK ) {
 185              		.loc 1 86 0
 186 001a BB1D     		adds	r3, r7, #6
 187 001c 1B88     		ldrh	r3, [r3]
 188 001e 002B     		cmp	r3, #0
 189 0020 02D1     		bne	.L16
  87:main.c        ****         LED_GREEN_Write(0);   
 190              		.loc 1 87 0
 191 0022 0020     		movs	r0, #0
 192 0024 FFF7FEFF 		bl	LED_GREEN_Write
 193              	.L16:
  88:main.c        ****     }
ARM GAS  C:\Users\megan\AppData\Local\Temp\ccb2Qh2B.s 			page 6


  89:main.c        ****     
  90:main.c        ****     while(1) {
  91:main.c        ****         ble_state = CyBle_GetState();
 194              		.loc 1 91 0
 195 0028 7B1D     		adds	r3, r7, #5
 196 002a 084A     		ldr	r2, .L19
 197 002c 1278     		ldrb	r2, [r2]
 198 002e 1A70     		strb	r2, [r3]
  92:main.c        ****         if (ble_state == CYBLE_STATE_CONNECTED ) {
 199              		.loc 1 92 0
 200 0030 7B1D     		adds	r3, r7, #5
 201 0032 1B78     		ldrb	r3, [r3]
 202 0034 022B     		cmp	r3, #2
 203 0036 03D1     		bne	.L17
  93:main.c        ****             LED_BLUE_Write(0);   
 204              		.loc 1 93 0
 205 0038 0020     		movs	r0, #0
 206 003a FFF7FEFF 		bl	LED_BLUE_Write
 207 003e 02E0     		b	.L18
 208              	.L17:
  94:main.c        ****         }
  95:main.c        ****         else {
  96:main.c        ****             LED_BLUE_Write(1);
 209              		.loc 1 96 0
 210 0040 0120     		movs	r0, #1
 211 0042 FFF7FEFF 		bl	LED_BLUE_Write
 212              	.L18:
  97:main.c        ****         }
  98:main.c        ****         CyBle_ProcessEvents();
 213              		.loc 1 98 0
 214 0046 FFF7FEFF 		bl	CyBle_ProcessEvents
  99:main.c        ****     }
 215              		.loc 1 99 0
 216 004a EDE7     		b	.L16
 217              	.L20:
 218              		.align	2
 219              	.L19:
 220 004c 00000000 		.word	cyBle_state
 221              		.cfi_endproc
 222              	.LFE37:
 223              		.size	BLEConnect, .-BLEConnect
 224              		.section	.text.BLEStayConnected,"ax",%progbits
 225              		.align	2
 226              		.global	BLEStayConnected
 227              		.code	16
 228              		.thumb_func
 229              		.type	BLEStayConnected, %function
 230              	BLEStayConnected:
 231              	.LFB38:
 100:main.c        ****     
 101:main.c        **** }
 102:main.c        **** 
 103:main.c        **** void BLEStayConnected() {
 232              		.loc 1 103 0
 233              		.cfi_startproc
 234              		@ args = 0, pretend = 0, frame = 8
 235              		@ frame_needed = 1, uses_anonymous_args = 0
ARM GAS  C:\Users\megan\AppData\Local\Temp\ccb2Qh2B.s 			page 7


 236 0000 90B5     		push	{r4, r7, lr}
 237              		.cfi_def_cfa_offset 12
 238              		.cfi_offset 4, -12
 239              		.cfi_offset 7, -8
 240              		.cfi_offset 14, -4
 241 0002 83B0     		sub	sp, sp, #12
 242              		.cfi_def_cfa_offset 24
 243 0004 00AF     		add	r7, sp, #0
 244              		.cfi_def_cfa_register 7
 104:main.c        ****    
 105:main.c        ****     CYBLE_API_RESULT_T apiResult;
 106:main.c        ****     CYBLE_STATE_T ble_state;
 107:main.c        ****     
 108:main.c        ****     CyBle_ProcessEvents();
 245              		.loc 1 108 0
 246 0006 FFF7FEFF 		bl	CyBle_ProcessEvents
 109:main.c        ****     
 110:main.c        ****     ble_state = CyBle_GetState();
 247              		.loc 1 110 0
 248 000a FB1D     		adds	r3, r7, #7
 249 000c 0D4A     		ldr	r2, .L24
 250 000e 1278     		ldrb	r2, [r2]
 251 0010 1A70     		strb	r2, [r3]
 111:main.c        ****     if (ble_state == CYBLE_STATE_CONNECTED ) {
 252              		.loc 1 111 0
 253 0012 FB1D     		adds	r3, r7, #7
 254 0014 1B78     		ldrb	r3, [r3]
 255 0016 022B     		cmp	r3, #2
 256 0018 03D1     		bne	.L22
 112:main.c        ****         LED_BLUE_Write(0);  
 257              		.loc 1 112 0
 258 001a 0020     		movs	r0, #0
 259 001c FFF7FEFF 		bl	LED_BLUE_Write
 260 0020 0AE0     		b	.L23
 261              	.L22:
 113:main.c        ****         //LED_GREEN_Write(1);
 114:main.c        ****     }
 115:main.c        ****     else {
 116:main.c        ****         LED_BLUE_Write(1);
 262              		.loc 1 116 0
 263 0022 0120     		movs	r0, #1
 264 0024 FFF7FEFF 		bl	LED_BLUE_Write
 117:main.c        ****         apiResult = CyBle_GappStartAdvertisement( CYBLE_ADVERTISING_FAST );
 265              		.loc 1 117 0
 266 0028 3C1D     		adds	r4, r7, #4
 267 002a 0020     		movs	r0, #0
 268 002c FFF7FEFF 		bl	CyBle_GappStartAdvertisement
 269 0030 0300     		movs	r3, r0
 270 0032 2380     		strh	r3, [r4]
 118:main.c        ****         CyBle_ProcessEvents();
 271              		.loc 1 118 0
 272 0034 FFF7FEFF 		bl	CyBle_ProcessEvents
 273              	.L23:
 119:main.c        ****         if (apiResult == CYBLE_ERROR_OK ) {
 120:main.c        ****             //LED_GREEN_Write(0);   
 121:main.c        ****         }
 122:main.c        ****     }
ARM GAS  C:\Users\megan\AppData\Local\Temp\ccb2Qh2B.s 			page 8


 123:main.c        ****     CyBle_ProcessEvents();
 274              		.loc 1 123 0
 275 0038 FFF7FEFF 		bl	CyBle_ProcessEvents
 124:main.c        **** }
 276              		.loc 1 124 0
 277 003c C046     		nop
 278 003e BD46     		mov	sp, r7
 279 0040 03B0     		add	sp, sp, #12
 280              		@ sp needed
 281 0042 90BD     		pop	{r4, r7, pc}
 282              	.L25:
 283              		.align	2
 284              	.L24:
 285 0044 00000000 		.word	cyBle_state
 286              		.cfi_endproc
 287              	.LFE38:
 288              		.size	BLEStayConnected, .-BLEStayConnected
 289              		.section	.text.BLEUpdateDBTemp,"ax",%progbits
 290              		.align	2
 291              		.global	BLEUpdateDBTemp
 292              		.code	16
 293              		.thumb_func
 294              		.type	BLEUpdateDBTemp, %function
 295              	BLEUpdateDBTemp:
 296              	.LFB39:
 125:main.c        **** 
 126:main.c        **** void BLEUpdateDBTemp(uint8_t n, float32 temperature) {
 297              		.loc 1 126 0
 298              		.cfi_startproc
 299              		@ args = 0, pretend = 0, frame = 40
 300              		@ frame_needed = 1, uses_anonymous_args = 0
 301 0000 80B5     		push	{r7, lr}
 302              		.cfi_def_cfa_offset 8
 303              		.cfi_offset 7, -8
 304              		.cfi_offset 14, -4
 305 0002 8AB0     		sub	sp, sp, #40
 306              		.cfi_def_cfa_offset 48
 307 0004 00AF     		add	r7, sp, #0
 308              		.cfi_def_cfa_register 7
 309 0006 0200     		movs	r2, r0
 310 0008 3960     		str	r1, [r7]
 311 000a FB1D     		adds	r3, r7, #7
 312 000c 1A70     		strb	r2, [r3]
 127:main.c        ****     
 128:main.c        ****     CYBLE_GATT_HANDLE_VALUE_PAIR_T handleValuePair;
 129:main.c        ****     CYBLE_GATT_VALUE_T value;
 130:main.c        ****     CYBLE_GATT_DB_ATTR_HANDLE_T attrHandle;
 131:main.c        ****     uint8_t bytes[sizeof(float32)];
 132:main.c        ****     
 133:main.c        ****     // Temp Characteristic Settings
 134:main.c        ****     *(float*)(bytes) = temperature;
 313              		.loc 1 134 0
 314 000e 0C23     		movs	r3, #12
 315 0010 FB18     		adds	r3, r7, r3
 316 0012 3A68     		ldr	r2, [r7]
 317 0014 1A60     		str	r2, [r3]
 135:main.c        ****     value.len = 1;
ARM GAS  C:\Users\megan\AppData\Local\Temp\ccb2Qh2B.s 			page 9


 318              		.loc 1 135 0
 319 0016 1023     		movs	r3, #16
 320 0018 FB18     		adds	r3, r7, r3
 321 001a 0122     		movs	r2, #1
 322 001c 9A80     		strh	r2, [r3, #4]
 136:main.c        ****     if (n == 1) {
 323              		.loc 1 136 0
 324 001e FB1D     		adds	r3, r7, #7
 325 0020 1B78     		ldrb	r3, [r3]
 326 0022 012B     		cmp	r3, #1
 327 0024 04D1     		bne	.L27
 137:main.c        ****         attrHandle = 0x0012;
 328              		.loc 1 137 0
 329 0026 2623     		movs	r3, #38
 330 0028 FB18     		adds	r3, r7, r3
 331 002a 1222     		movs	r2, #18
 332 002c 1A80     		strh	r2, [r3]
 333 002e 07E0     		b	.L28
 334              	.L27:
 138:main.c        ****     } else if (n == 2){
 335              		.loc 1 138 0
 336 0030 FB1D     		adds	r3, r7, #7
 337 0032 1B78     		ldrb	r3, [r3]
 338 0034 022B     		cmp	r3, #2
 339 0036 03D1     		bne	.L28
 139:main.c        ****         attrHandle = 0x0013;
 340              		.loc 1 139 0
 341 0038 2623     		movs	r3, #38
 342 003a FB18     		adds	r3, r7, r3
 343 003c 1322     		movs	r2, #19
 344 003e 1A80     		strh	r2, [r3]
 345              	.L28:
 140:main.c        ****     }
 141:main.c        ****     handleValuePair.attrHandle = attrHandle;
 346              		.loc 1 141 0
 347 0040 1823     		movs	r3, #24
 348 0042 FB18     		adds	r3, r7, r3
 349 0044 2622     		movs	r2, #38
 350 0046 BA18     		adds	r2, r7, r2
 351 0048 1288     		ldrh	r2, [r2]
 352 004a 1A81     		strh	r2, [r3, #8]
 142:main.c        ****     handleValuePair.value = value;
 353              		.loc 1 142 0
 354 004c 1823     		movs	r3, #24
 355 004e FA18     		adds	r2, r7, r3
 356 0050 1023     		movs	r3, #16
 357 0052 FB18     		adds	r3, r7, r3
 358 0054 1000     		movs	r0, r2
 359 0056 1900     		movs	r1, r3
 360 0058 0823     		movs	r3, #8
 361 005a 1A00     		movs	r2, r3
 362 005c FFF7FEFF 		bl	memcpy
 363              	.LBB2:
 143:main.c        ****     
 144:main.c        ****     for (uint8_t i = 0; i < 4; i++) {
 364              		.loc 1 144 0
 365 0060 2523     		movs	r3, #37
ARM GAS  C:\Users\megan\AppData\Local\Temp\ccb2Qh2B.s 			page 10


 366 0062 FB18     		adds	r3, r7, r3
 367 0064 0022     		movs	r2, #0
 368 0066 1A70     		strb	r2, [r3]
 369 0068 29E0     		b	.L29
 370              	.L30:
 145:main.c        ****         handleValuePair.value.val = &bytes[i];
 371              		.loc 1 145 0 discriminator 3
 372 006a 2523     		movs	r3, #37
 373 006c FB18     		adds	r3, r7, r3
 374 006e 1B78     		ldrb	r3, [r3]
 375 0070 0C22     		movs	r2, #12
 376 0072 BA18     		adds	r2, r7, r2
 377 0074 D218     		adds	r2, r2, r3
 378 0076 1823     		movs	r3, #24
 379 0078 FB18     		adds	r3, r7, r3
 380 007a 1A60     		str	r2, [r3]
 146:main.c        ****         CyBle_GattsWriteAttributeValue(&handleValuePair,i,NULL,CYBLE_GATT_DB_LOCALLY_INITIATED);
 381              		.loc 1 146 0 discriminator 3
 382 007c 2523     		movs	r3, #37
 383 007e FB18     		adds	r3, r7, r3
 384 0080 1B78     		ldrb	r3, [r3]
 385 0082 99B2     		uxth	r1, r3
 386 0084 1823     		movs	r3, #24
 387 0086 F818     		adds	r0, r7, r3
 388 0088 0023     		movs	r3, #0
 389 008a 0022     		movs	r2, #0
 390 008c FFF7FEFF 		bl	CyBle_GattsWriteAttributeValue
 147:main.c        ****         CyBle_GattsNotification(cyBle_connHandle,&handleValuePair);
 391              		.loc 1 147 0 discriminator 3
 392 0090 1823     		movs	r3, #24
 393 0092 F918     		adds	r1, r7, r3
 394 0094 0E4B     		ldr	r3, .L31
 395 0096 1A78     		ldrb	r2, [r3]
 396 0098 5B78     		ldrb	r3, [r3, #1]
 397 009a 1B02     		lsls	r3, r3, #8
 398 009c 1A43     		orrs	r2, r3
 399 009e 0023     		movs	r3, #0
 400 00a0 1204     		lsls	r2, r2, #16
 401 00a2 120C     		lsrs	r2, r2, #16
 402 00a4 1B0C     		lsrs	r3, r3, #16
 403 00a6 1B04     		lsls	r3, r3, #16
 404 00a8 1343     		orrs	r3, r2
 405 00aa 1800     		movs	r0, r3
 406 00ac FFF7FEFF 		bl	CyBle_GattsNotification
 144:main.c        ****         handleValuePair.value.val = &bytes[i];
 407              		.loc 1 144 0 discriminator 3
 408 00b0 2523     		movs	r3, #37
 409 00b2 FB18     		adds	r3, r7, r3
 410 00b4 1A78     		ldrb	r2, [r3]
 411 00b6 2523     		movs	r3, #37
 412 00b8 FB18     		adds	r3, r7, r3
 413 00ba 0132     		adds	r2, r2, #1
 414 00bc 1A70     		strb	r2, [r3]
 415              	.L29:
 144:main.c        ****         handleValuePair.value.val = &bytes[i];
 416              		.loc 1 144 0 is_stmt 0 discriminator 1
 417 00be 2523     		movs	r3, #37
ARM GAS  C:\Users\megan\AppData\Local\Temp\ccb2Qh2B.s 			page 11


 418 00c0 FB18     		adds	r3, r7, r3
 419 00c2 1B78     		ldrb	r3, [r3]
 420 00c4 032B     		cmp	r3, #3
 421 00c6 D0D9     		bls	.L30
 422              	.LBE2:
 148:main.c        ****     }
 149:main.c        **** }
 423              		.loc 1 149 0 is_stmt 1
 424 00c8 C046     		nop
 425 00ca BD46     		mov	sp, r7
 426 00cc 0AB0     		add	sp, sp, #40
 427              		@ sp needed
 428 00ce 80BD     		pop	{r7, pc}
 429              	.L32:
 430              		.align	2
 431              	.L31:
 432 00d0 00000000 		.word	cyBle_connHandle
 433              		.cfi_endproc
 434              	.LFE39:
 435              		.size	BLEUpdateDBTemp, .-BLEUpdateDBTemp
 436              		.section	.text.UpdateTemp,"ax",%progbits
 437              		.align	2
 438              		.global	UpdateTemp
 439              		.code	16
 440              		.thumb_func
 441              		.type	UpdateTemp, %function
 442              	UpdateTemp:
 443              	.LFB40:
 150:main.c        **** 
 151:main.c        **** void UpdateTemp(uint8_t n) {
 444              		.loc 1 151 0
 445              		.cfi_startproc
 446              		@ args = 0, pretend = 0, frame = 16
 447              		@ frame_needed = 1, uses_anonymous_args = 0
 448 0000 80B5     		push	{r7, lr}
 449              		.cfi_def_cfa_offset 8
 450              		.cfi_offset 7, -8
 451              		.cfi_offset 14, -4
 452 0002 84B0     		sub	sp, sp, #16
 453              		.cfi_def_cfa_offset 24
 454 0004 00AF     		add	r7, sp, #0
 455              		.cfi_def_cfa_register 7
 456 0006 0200     		movs	r2, r0
 457 0008 FB1D     		adds	r3, r7, #7
 458 000a 1A70     		strb	r2, [r3]
 152:main.c        ****     
 153:main.c        ****     float32 fltemp;
 154:main.c        ****     
 155:main.c        ****     
 156:main.c        ****     Temp_RequestTemp(n);
 459              		.loc 1 156 0
 460 000c FB1D     		adds	r3, r7, #7
 461 000e 1B78     		ldrb	r3, [r3]
 462 0010 1800     		movs	r0, r3
 463 0012 FFF7FEFF 		bl	Temp_RequestTemp
 157:main.c        ****     while (Temp_ReadBit(1) == 0) LED_GREEN_Write(0);
 464              		.loc 1 157 0
ARM GAS  C:\Users\megan\AppData\Local\Temp\ccb2Qh2B.s 			page 12


 465 0016 02E0     		b	.L34
 466              	.L35:
 467              		.loc 1 157 0 is_stmt 0 discriminator 2
 468 0018 0020     		movs	r0, #0
 469 001a FFF7FEFF 		bl	LED_GREEN_Write
 470              	.L34:
 471              		.loc 1 157 0 discriminator 1
 472 001e 0120     		movs	r0, #1
 473 0020 FFF7FEFF 		bl	Temp_ReadBit
 474 0024 031E     		subs	r3, r0, #0
 475 0026 F7D0     		beq	.L35
 158:main.c        ****     LED_GREEN_Write(1);    
 476              		.loc 1 158 0 is_stmt 1
 477 0028 0120     		movs	r0, #1
 478 002a FFF7FEFF 		bl	LED_GREEN_Write
 159:main.c        ****     fltemp = Temp_GetTempF(1);
 479              		.loc 1 159 0
 480 002e 0120     		movs	r0, #1
 481 0030 FFF7FEFF 		bl	Temp_GetTempF
 482 0034 031C     		adds	r3, r0, #0
 483 0036 FB60     		str	r3, [r7, #12]
 160:main.c        ****     BLEUpdateDBTemp(n,fltemp);
 484              		.loc 1 160 0
 485 0038 FA68     		ldr	r2, [r7, #12]
 486 003a FB1D     		adds	r3, r7, #7
 487 003c 1B78     		ldrb	r3, [r3]
 488 003e 111C     		adds	r1, r2, #0
 489 0040 1800     		movs	r0, r3
 490 0042 FFF7FEFF 		bl	BLEUpdateDBTemp
 161:main.c        **** }
 491              		.loc 1 161 0
 492 0046 C046     		nop
 493 0048 BD46     		mov	sp, r7
 494 004a 04B0     		add	sp, sp, #16
 495              		@ sp needed
 496 004c 80BD     		pop	{r7, pc}
 497              		.cfi_endproc
 498              	.LFE40:
 499              		.size	UpdateTemp, .-UpdateTemp
 500 004e C046     		.text
 501              	.Letext0:
 502              		.file 2 "c:\\program files (x86)\\cypress\\psoc creator\\4.1\\psoc creator\\import\\gnu\\arm\\5.4.
 503              		.file 3 "c:\\program files (x86)\\cypress\\psoc creator\\4.1\\psoc creator\\import\\gnu\\arm\\5.4.
 504              		.file 4 "Generated_Source\\PSoC4/cytypes.h"
 505              		.file 5 "Generated_Source\\PSoC4/BLE_1_Stack.h"
 506              		.file 6 "Generated_Source\\PSoC4/BLE_1_StackGatt.h"
 507              		.file 7 "Generated_Source\\PSoC4/BLE_1_eventHandler.h"